 onig_scanner

 Timestamp is 594173bc (Wed Jun 14 17:34:52 2017)

 Preferred load address is 0000000180000000

 Start         Length     Name                   Class
 0001:00000000 00030a10H .text$mn                CODE
 0001:00030a10 00000020H .text$mn$00             CODE
 0001:00030a30 00000720H .text$x                 CODE
 0002:00000000 00000270H .idata$5                DATA
 0002:00000270 00000010H .00cfg                  DATA
 0002:00000280 00000008H .CRT$XCA                DATA
 0002:00000288 00000008H .CRT$XCU                DATA
 0002:00000290 00000008H .CRT$XCZ                DATA
 0002:00000298 00000008H .CRT$XIA                DATA
 0002:000002a0 00000018H .CRT$XIC                DATA
 0002:000002b8 00000008H .CRT$XIZ                DATA
 0002:000002c0 00000008H .CRT$XPA                DATA
 0002:000002c8 00000010H .CRT$XPX                DATA
 0002:000002d8 00000008H .CRT$XPXA               DATA
 0002:000002e0 00000008H .CRT$XPZ                DATA
 0002:000002e8 00000008H .CRT$XTA                DATA
 0002:000002f0 00000010H .CRT$XTZ                DATA
 0002:00000300 0003c338H .rdata                  DATA
 0002:0003c638 00000404H .rdata$r                DATA
 0002:0003ca3c 00000404H .rdata$zzzdbg           DATA
 0002:0003ce40 00000008H .rtc$IAA                DATA
 0002:0003ce48 00000008H .rtc$IZZ                DATA
 0002:0003ce50 00000008H .rtc$TAA                DATA
 0002:0003ce58 00000008H .rtc$TZZ                DATA
 0002:0003ce60 00002aa0H .xdata                  DATA
 0002:0003f900 00000244H .xdata$x                DATA
 0002:0003fb44 00000020H .didat$2                DATA
 0002:0003fb64 00000024H .didat$3                DATA
 0002:0003fb88 000001b0H .didat$4                DATA
 0002:0003fd38 00000d10H .didat$6                DATA
 0002:00040a48 000001b8H .didat$7                DATA
 0002:00040c00 0000005cH .edata                  DATA
 0002:00040c5c 00000014H .idata$2                DATA
 0002:00040c70 00000018H .idata$3                DATA
 0002:00040c88 00000270H .idata$4                DATA
 0002:00040ef8 000005b2H .idata$6                DATA
 0003:00000000 00001438H .data                   DATA
 0003:00001438 00000140H .data$r                 DATA
 0003:00001578 000001b8H .didat$5                DATA
 0003:00001730 000015f0H .bss                    DATA
 0004:00000000 00002760H .pdata                  DATA
 0005:00000000 00000084H .gfids$x                DATA
 0005:00000084 00000058H .gfids$y                DATA
 0006:00000000 00000060H .rsrc$01                DATA
 0006:00000060 00000180H .rsrc$02                DATA

  Address         Publics by Value              Rva+Base               Lib:Object

 0000:00000000       __dynamic_value_reloc_table 0000000000000000     <absolute>
 0000:00000000       __guard_iat_count          0000000000000000     <absolute>
 0000:00000000       __guard_iat_table          0000000000000000     <absolute>
 0000:00000000       __guard_longjmp_table      0000000000000000     <absolute>
 0000:00000000       __guard_longjmp_count      0000000000000000     <absolute>
 0000:00000000       __guard_fids_count         0000000000000000     <absolute>
 0000:00000000       ___safe_se_handler_table   0000000000000000     <absolute>
 0000:00000000       ___safe_se_handler_count   0000000000000000     <absolute>
 0000:00000000       __guard_fids_table         0000000000000000     <absolute>
 0000:00000100       __guard_flags              0000000000000100     <absolute>
 0000:00000000       __ImageBase                0000000180000000     <linker-defined>
 0001:00000000       ??1OnigResult@@QEAA@XZ     0000000180001000 f   onig-result.obj
 0001:00000080       ?_Get_deleter@_Ref_count_base@std@@UEBAPEAXAEBVtype_info@@@Z 0000000180001080 f i onig-reg-exp.obj
 0001:00000090       ??_G_Ref_count_base@std@@UEAAPEAXI@Z 0000000180001090 f i onig-reg-exp.obj
 0001:00000090       ??_E_Ref_count_base@std@@UEAAPEAXI@Z 0000000180001090 f i * CIL library *:* CIL module *
 0001:000000c0       ??0OnigRegExp@@QEAA@AEBV?$basic_string@DU?$char_traits@D@std@@V?$allocator@D@2@@std@@@Z 00000001800010c0 f   onig-reg-exp.obj
 0001:000002a0       ??1OnigRegExp@@QEAA@XZ     00000001800012a0 f   onig-reg-exp.obj
 0001:00000330       ?Search@OnigRegExp@@QEAA?AV?$shared_ptr@VOnigResult@@@std@@PEAVOnigString@@H@Z 0000000180001330 f   onig-reg-exp.obj
 0001:00000440       ?Search@OnigRegExp@@AEAA?AV?$shared_ptr@VOnigResult@@@std@@PEBD_K1@Z 0000000180001440 f   onig-reg-exp.obj
 0001:000005d0       ??1?$shared_ptr@VOnigResult@@@std@@QEAA@XZ 00000001800015d0 f i onig-reg-exp.obj
 0001:000005d0       ??1?$shared_ptr@VOnigSearcher@@@std@@QEAA@XZ 00000001800015d0 f i onig-scanner.obj
 0001:00000620       ??4?$shared_ptr@VOnigSearcher@@@std@@QEAAAEAV01@$$QEAV01@@Z 0000000180001620 f i onig-scanner.obj
 0001:00000620       ??4?$shared_ptr@VOnigResult@@@std@@QEAAAEAV01@$$QEAV01@@Z 0000000180001620 f i onig-reg-exp.obj
 0001:000006b0       ??1?$basic_string@DU?$char_traits@D@std@@V?$allocator@D@2@@std@@QEAA@XZ 00000001800016b0 f i onig-reg-exp.obj
 0001:00000740       ?assign@?$basic_string@DU?$char_traits@D@std@@V?$allocator@D@2@@std@@QEAAAEAV12@AEBV12@_K1@Z 0000000180001740 f i onig-reg-exp.obj
 0001:00000870       ?erase@?$basic_string@DU?$char_traits@D@std@@V?$allocator@D@2@@std@@QEAAAEAV12@_K0@Z 0000000180001870 f i onig-reg-exp.obj
 0001:00000910       ?_Copy@?$basic_string@DU?$char_traits@D@std@@V?$allocator@D@2@@std@@QEAAX_K0@Z 0000000180001910 f i onig-reg-exp.obj
 0001:00000a90       ?_Reset0@?$_Ptr_base@VOnigResult@@@std@@QEAAXPEAVOnigResult@@PEAV_Ref_count_base@2@@Z 0000000180001a90 f i onig-reg-exp.obj
 0001:00000a90       ?_Reset0@?$_Ptr_base@VOnigRegExp@@@std@@QEAAXPEAVOnigRegExp@@PEAV_Ref_count_base@2@@Z 0000000180001a90 f i onig-scanner.obj
 0001:00000b20       ?_Delete_this@?$_Ref_count@VOnigResult@@@std@@EEAAXXZ 0000000180001b20 f i onig-reg-exp.obj
 0001:00000b20       ?_Delete_this@?$_Ref_count@VOnigSearcher@@@std@@EEAAXXZ 0000000180001b20 f i onig-scanner.obj
 0001:00000b20       ?_Delete_this@?$_Ref_count@VOnigRegExp@@@std@@EEAAXXZ 0000000180001b20 f i onig-scanner.obj
 0001:00000b40       ?_Destroy@?$_Ref_count@VOnigResult@@@std@@EEAAXXZ 0000000180001b40 f i onig-reg-exp.obj
 0001:00000b70       ??_G?$_Ref_count@VOnigSearcher@@@std@@UEAAPEAXI@Z 0000000180001b70 f i onig-scanner.obj
 0001:00000b70       ??_G?$_Ref_count@VOnigRegExp@@@std@@UEAAPEAXI@Z 0000000180001b70 f i onig-scanner.obj
 0001:00000b70       ??_G?$_Ref_count@VOnigResult@@@std@@UEAAPEAXI@Z 0000000180001b70 f i onig-reg-exp.obj
 0001:00000b70       ??_E?$_Ref_count@VOnigRegExp@@@std@@UEAAPEAXI@Z 0000000180001b70 f i * CIL library *:* CIL module *
 0001:00000b70       ??_E?$_Ref_count@VOnigSearcher@@@std@@UEAAPEAXI@Z 0000000180001b70 f i * CIL library *:* CIL module *
 0001:00000b70       ??_E?$_Ref_count@VOnigResult@@@std@@UEAAPEAXI@Z 0000000180001b70 f i * CIL library *:* CIL module *
 0001:00000ba0       ??1ObjectWrap@node@@UEAA@XZ 0000000180001ba0 f i onig-scanner.obj
 0001:00000c20       ?Wrap@ObjectWrap@node@@IEAAXV?$Local@VObject@v8@@@v8@@@Z 0000000180001c20 f i onig-scanner.obj
 0001:00000d00       ?Ref@ObjectWrap@node@@MEAAXXZ 0000000180001d00 f i onig-scanner.obj
 0001:00000d40       ?Unref@ObjectWrap@node@@MEAAXXZ 0000000180001d40 f i onig-scanner.obj
 0001:00000df0       ?WeakCallback@ObjectWrap@node@@CAXAEBV?$WeakCallbackInfo@VObjectWrap@node@@@v8@@@Z 0000000180001df0 f i onig-scanner.obj
 0001:00000e50       ??_GObjectWrap@node@@UEAAPEAXI@Z 0000000180001e50 f i onig-scanner.obj
 0001:00000e50       ??_EObjectWrap@node@@UEAAPEAXI@Z 0000000180001e50 f i * CIL library *:* CIL module *
 0001:00000f40       ?NewInstance@Nan@@YA?AV?$MaybeLocal@VObject@v8@@@v8@@V?$Local@VObjectTemplate@v8@@@3@@Z 0000000180001f40 f i onig-scanner.obj
 0001:00000fc0       ?New@?$Factory@VFunctionTemplate@v8@@@imp@Nan@@SA?AV?$Local@VFunctionTemplate@v8@@@v8@@P6AXAEBV?$FunctionCallbackInfo@VValue@v8@@@3@@ZV?$Local@VValue@v8@@@5@V?$Local@VSignature@v8@@@5@@Z 0000000180001fc0 f i onig-scanner.obj
 0001:00001130       ??1HandleScope@Nan@@QEAA@XZ 0000000180002130 f i onig-scanner.obj
 0001:00001130       ??1EscapableHandleScope@Nan@@QEAA@XZ 0000000180002130 f i onig-scanner.obj
 0001:00001140       ?Call@Callback@Nan@@QEBA?AV?$Local@VValue@v8@@@v8@@HQEAV34@@Z 0000000180002140 f i onig-scanner.obj
 0001:000011f0       ?Call_@Callback@Nan@@AEBA?AV?$Local@VValue@v8@@@v8@@PEAVIsolate@4@V?$Local@VObject@v8@@@4@HQEAV34@@Z 00000001800021f0 f i onig-scanner.obj
 0001:000012b0       ??0AsyncWorker@Nan@@QEAA@PEAVCallback@1@@Z 00000001800022b0 f i onig-scanner.obj
 0001:00001380       ??1AsyncWorker@Nan@@UEAA@XZ 0000000180002380 f i onig-scanner.obj
 0001:00001440       ?WorkComplete@AsyncWorker@Nan@@UEAAXXZ 0000000180002440 f i onig-scanner.obj
 0001:000014e0       ?Destroy@AsyncWorker@Nan@@UEAAXXZ 00000001800024e0 f i onig-scanner.obj
 0001:00001500       ?HandleOKCallback@AsyncWorker@Nan@@MEAAXXZ 0000000180002500 f i onig-scanner.obj
 0001:00001550       ?HandleErrorCallback@AsyncWorker@Nan@@MEAAXXZ 0000000180002550 f i onig-scanner.obj
 0001:00001600       ??_GAsyncWorker@Nan@@UEAAPEAXI@Z 0000000180002600 f i onig-scanner.obj
 0001:00001600       ??_EAsyncWorker@Nan@@UEAAPEAXI@Z 0000000180002600 f i * CIL library *:* CIL module *
 0001:00001640       ??1?$Persistent@VObject@v8@@V?$NonCopyablePersistentTraits@VObject@v8@@@2@@Nan@@QEAA@XZ 0000000180002640 f i onig-scanner.obj
 0001:00001660       ?AsyncExecute@Nan@@YAXPEAUuv_work_s@@@Z 0000000180002660 f i onig-scanner.obj
 0001:00001670       ?AsyncExecuteComplete@Nan@@YAXPEAUuv_work_s@@@Z 0000000180002670 f i onig-scanner.obj
 0001:000016b0       ??0OnigScannerWorker@@QEAA@PEAVCallback@Nan@@V?$vector@V?$shared_ptr@VOnigRegExp@@@std@@V?$allocator@V?$shared_ptr@VOnigRegExp@@@std@@@2@@std@@V?$Local@VString@v8@@@v8@@H@Z 00000001800026b0 f i onig-scanner.obj
 0001:00001810       ??1OnigScannerWorker@@UEAA@XZ 0000000180002810 f i onig-scanner.obj
 0001:000018e0       ??_EOnigScannerWorker@@UEAAPEAXI@Z 00000001800028e0 f i * CIL library *:* CIL module *
 0001:000018e0       ??_GOnigScannerWorker@@UEAAPEAXI@Z 00000001800028e0 f i onig-scanner.obj
 0001:00001920       ?Init@OnigScanner@@SAXV?$Local@VObject@v8@@@v8@@@Z 0000000180002920 f   onig-scanner.obj
 0001:00001af0       ?InitModule@@YAXV?$Local@VObject@v8@@@v8@@@Z 0000000180002af0 f   onig-scanner.obj
 0001:00001b20       ?New@OnigScanner@@CAXAEBV?$FunctionCallbackInfo@VValue@v8@@@Nan@@@Z 0000000180002b20 f   onig-scanner.obj
 0001:00001bb0       ?FindNextMatchSync@OnigScanner@@CAXAEBV?$FunctionCallbackInfo@VValue@v8@@@Nan@@@Z 0000000180002bb0 f   onig-scanner.obj
 0001:00001cf0       ?FindNextMatch@OnigScanner@@CAXAEBV?$FunctionCallbackInfo@VValue@v8@@@Nan@@@Z 0000000180002cf0 f   onig-scanner.obj
 0001:00001db0       ??0OnigScanner@@AEAA@V?$Local@VArray@v8@@@v8@@@Z 0000000180002db0 f   onig-scanner.obj
 0001:000021c0       ??_GOnigScanner@@EEAAPEAXI@Z 00000001800031c0 f i onig-scanner.obj
 0001:000021c0       ??_EOnigScanner@@EEAAPEAXI@Z 00000001800031c0 f i * CIL library *:* CIL module *
 0001:00002200       ??1OnigScanner@@EEAA@XZ    0000000180003200 f   onig-scanner.obj
 0001:00002280       ?FindNextMatch@OnigScanner@@AEAAXV?$Local@VString@v8@@@v8@@V?$Local@VNumber@v8@@@3@V?$Local@VFunction@v8@@@3@@Z 0000000180003280 f   onig-scanner.obj
 0001:00002360       ?FindNextMatchSync@OnigScanner@@AEAA?AV?$Local@VValue@v8@@@v8@@V?$Local@VString@v8@@@3@V?$Local@VNumber@v8@@@3@@Z 0000000180003360 f   onig-scanner.obj
 0001:000023d0       ?FindNextMatchSync@OnigScanner@@AEAA?AV?$Local@VValue@v8@@@v8@@PEAVOnigString@@V?$Local@VNumber@v8@@@3@@Z 00000001800033d0 f   onig-scanner.obj
 0001:000025b0       ?CaptureIndicesForMatch@OnigScanner@@CA?AV?$Local@VValue@v8@@@v8@@PEAVOnigResult@@PEAVOnigString@@@Z 00000001800035b0 f   onig-scanner.obj
 0001:000028b0       ?resize@?$vector@V?$shared_ptr@VOnigRegExp@@@std@@V?$allocator@V?$shared_ptr@VOnigRegExp@@@std@@@2@@std@@QEAAX_K@Z 00000001800038b0 f i onig-scanner.obj
 0001:000029c0       ??1?$vector@V?$shared_ptr@VOnigRegExp@@@std@@V?$allocator@V?$shared_ptr@VOnigRegExp@@@std@@@2@@std@@QEAA@XZ 00000001800039c0 f i onig-scanner.obj
 0001:000029d0       ??0?$vector@V?$shared_ptr@VOnigRegExp@@@std@@V?$allocator@V?$shared_ptr@VOnigRegExp@@@std@@@2@@std@@QEAA@AEBV01@@Z 00000001800039d0 f i onig-scanner.obj
 0001:00002a70       ?_Tidy@?$vector@V?$shared_ptr@VOnigRegExp@@@std@@V?$allocator@V?$shared_ptr@VOnigRegExp@@@std@@@2@@std@@IEAAXXZ 0000000180003a70 f i onig-scanner.obj
 0001:00002b10       ?_Pop_back_n@?$vector@V?$shared_ptr@VOnigRegExp@@@std@@V?$allocator@V?$shared_ptr@VOnigRegExp@@@std@@@2@@std@@QEAAX_K@Z 0000000180003b10 f i onig-scanner.obj
 0001:00002bc0       ?assign@?$basic_string@DU?$char_traits@D@std@@V?$allocator@D@2@@std@@QEAAAEAV12@PEBD_K@Z 0000000180003bc0 f i onig-scanner.obj
 0001:00002cf0       ?allocate@?$_Wrap_alloc@V?$allocator@V?$shared_ptr@VOnigRegExp@@@std@@@std@@@std@@QEAAPEAV?$shared_ptr@VOnigRegExp@@@2@_K@Z 0000000180003cf0 f i onig-scanner.obj
 0001:00002d60       ?_Reallocate@?$vector@V?$shared_ptr@VOnigRegExp@@@std@@V?$allocator@V?$shared_ptr@VOnigRegExp@@@std@@@2@@std@@IEAAX_K@Z 0000000180003d60 f i onig-scanner.obj
 0001:00002ed0       ?_Destroy@?$vector@V?$shared_ptr@VOnigRegExp@@@std@@V?$allocator@V?$shared_ptr@VOnigRegExp@@@std@@@2@@std@@IEAAXPEAV?$shared_ptr@VOnigRegExp@@@2@0@Z 0000000180003ed0 f i onig-scanner.obj
 0001:00002f40       ??$Unwrap@VOnigScanner@@@ObjectWrap@node@@SAPEAVOnigScanner@@V?$Local@VObject@v8@@@v8@@@Z 0000000180003f40 f i onig-scanner.obj
 0001:00002f40       ??$Unwrap@VOnigString@@@ObjectWrap@node@@SAPEAVOnigString@@V?$Local@VObject@v8@@@v8@@@Z 0000000180003f40 f i onig-scanner.obj
 0001:00002fc0       ?_Destroy@?$_Ref_count@VOnigRegExp@@@std@@EEAAXXZ 0000000180003fc0 f i onig-scanner.obj
 0001:00002ff0       ?_Destroy@?$_Ref_count@VOnigSearcher@@@std@@EEAAXXZ 0000000180003ff0 f i onig-scanner.obj
 0001:00003020       ??$_Uninitialized_copy_al_unchecked@PEBV?$shared_ptr@VOnigRegExp@@@std@@PEAV12@V?$allocator@V?$shared_ptr@VOnigRegExp@@@std@@@2@@std@@YAPEAV?$shared_ptr@VOnigRegExp@@@0@PEBV10@0PEAV10@AEAU?$_Wrap_alloc@V?$allocator@V?$shared_ptr@VOnigRegExp@@@std@@@std@@@0@@Z 0000000180004020 f i onig-scanner.obj
 0001:000030b0       ?Execute@OnigScannerWorker@@UEAAXXZ 00000001800040b0 f   onig-scanner-worker.obj
 0001:00003130       ?HandleOKCallback@OnigScannerWorker@@UEAAXXZ 0000000180004130 f   onig-scanner-worker.obj
 0001:00003570       ?Search@OnigSearcher@@QEAA?AV?$shared_ptr@VOnigResult@@@std@@PEAVOnigString@@H@Z 0000000180004570 f   onig-searcher.obj
 0001:00003780       ?ThrowTypeError@Nan@@YAXPEBD@Z 0000000180004780 f i onig-string.obj
 0001:00003820       ?Init@OnigString@@SAXV?$Local@VObject@v8@@@v8@@@Z 0000000180004820 f   onig-string.obj
 0001:00003910       ?New@OnigString@@CAXAEBV?$FunctionCallbackInfo@VValue@v8@@@Nan@@@Z 0000000180004910 f   onig-string.obj
 0001:00003a00       ??0OnigString@@QEAA@V?$Local@VString@v8@@@v8@@@Z 0000000180004a00 f   onig-string.obj
 0001:00003c30       ??_GOnigString@@UEAAPEAXI@Z 0000000180004c30 f i onig-string.obj
 0001:00003c30       ??_EOnigString@@UEAAPEAXI@Z 0000000180004c30 f i * CIL library *:* CIL module *
 0001:00003ea0       onig_region_clear          0000000180004ea0 f   oniguruma:regexec.obj
 0001:00003f10       onig_region_resize         0000000180004f10 f   oniguruma:regexec.obj
 0001:00003fc0       onig_region_free           0000000180004fc0 f   oniguruma:regexec.obj
 0001:00009220       onig_search                000000018000a220 f   oniguruma:regexec.obj
 0001:00009a10       onigenc_is_mbc_newline_0x0a 000000018000aa10 f   oniguruma:regenc.obj
 0001:00010890       onig_free_body             0000000180011890 f   oniguruma:regcomp.obj
 0001:00010950       onig_compile               0000000180011950 f   oniguruma:regcomp.obj
 0001:00010ca0       onig_reg_init              0000000180011ca0 f   oniguruma:regcomp.obj
 0001:00010d20       onig_is_in_code_range      0000000180011d20 f   oniguruma:regcomp.obj
 0001:00010d70       onig_is_code_in_cc_len     0000000180011d70 f   oniguruma:regcomp.obj
 0001:00010e40       onig_is_code_in_cc         0000000180011e40 f   oniguruma:regcomp.obj
 0001:00010e80       __except_validate_context_record 0000000180011e80 f   libvcruntime:jbcxrval.obj
 0001:00010e80       onig_null_warn             0000000180011e80 f   oniguruma:regparse.obj
 0001:00010e80       _guard_check_icall_nop     0000000180011e80 f   LIBCMT:guard_support.obj
 0001:00011130       onig_st_init_strend_table_with_size 0000000180012130 f   oniguruma:regparse.obj
 0001:000111a0       onig_st_insert_strend      00000001800121a0 f   oniguruma:regparse.obj
 0001:00011670       onig_node_free             0000000180012670 f   oniguruma:regparse.obj
 0001:000119d0       onig_node_list_add         00000001800129d0 f   oniguruma:regparse.obj
 0001:00011a60       onig_node_new_alt          0000000180012a60 f   oniguruma:regparse.obj
 0001:00011ad0       onig_node_new_anchor       0000000180012ad0 f   oniguruma:regparse.obj
 0001:00011e50       onig_node_str_cat          0000000180012e50 f   oniguruma:regparse.obj
 0001:00012060       onig_scan_unsigned_number  0000000180013060 f   oniguruma:regparse.obj
 0001:00013500       onig_reduce_nested_quantifier 0000000180014500 f   oniguruma:regparse.obj
 0001:000185e0       onig_parse_make_tree       00000001800195e0 f   oniguruma:regparse.obj
 0001:00018720       __local_stdio_printf_options 0000000180019720 f i oniguruma:regerror.obj
 0001:00018730       sprintf                    0000000180019730 f i oniguruma:regerror.obj
 0001:00018790       onig_error_code_to_format  0000000180019790 f   oniguruma:regerror.obj
 0001:00018e20       onig_error_code_to_str     0000000180019e20 f   oniguruma:regerror.obj
 0001:00018f90       onigenc_get_right_adjust_char_head 0000000180019f90 f   oniguruma:regenc.obj
 0001:00018fe0       onigenc_step_back          0000000180019fe0 f   oniguruma:regenc.obj
 0001:00019050       onigenc_strlen             000000018001a050 f   oniguruma:regenc.obj
 0001:000190a0       onigenc_ascii_apply_all_case_fold 000000018001a0a0 f   oniguruma:regenc.obj
 0001:00019130       onigenc_ascii_get_case_fold_codes_by_str 000000018001a130 f   oniguruma:regenc.obj
 0001:00019190       onigenc_not_support_get_ctype_code_range 000000018001a190 f   oniguruma:regenc.obj
 0001:000191a0       onigenc_ascii_mbc_case_fold 000000018001a1a0 f   oniguruma:regenc.obj
 0001:000191c0       DllMain                    000000018001a1c0 f   LIBCMT:dll_dllmain_stub.obj
 0001:000191c0       _get_startup_argv_mode     000000018001a1c0 f   LIBCMT:argv_mode.obj
 0001:000191c0       onigenc_always_true_is_allowed_reverse_match 000000018001a1c0 f   oniguruma:regenc.obj
 0001:000191c0       onigenc_single_byte_mbc_enc_len 000000018001a1c0 f   oniguruma:regenc.obj
 0001:000191d0       onigenc_single_byte_mbc_to_code 000000018001a1d0 f   oniguruma:regenc.obj
 0001:000191e0       onigenc_single_byte_code_to_mbclen 000000018001a1e0 f   oniguruma:regenc.obj
 0001:00019200       onigenc_single_byte_code_to_mbc 000000018001a200 f   oniguruma:regenc.obj
 0001:00019210       onigenc_single_byte_left_adjust_char_head 000000018001a210 f   oniguruma:regenc.obj
 0001:00019220       onigenc_minimum_property_name_to_ctype 000000018001a220 f   oniguruma:regenc.obj
 0001:00019960       onigenc_unicode_is_code_ctype 000000018001a960 f   oniguruma:unicode.obj
 0001:00019b40       onigenc_unicode_property_name_to_ctype 000000018001ab40 f   oniguruma:unicode.obj
 0001:00019d10       onigenc_end_unicode        000000018001ad10 f   oniguruma:unicode.obj
 0001:0001a080       onigenc_unicode_mbc_case_fold 000000018001b080 f   oniguruma:unicode.obj
 0001:0001a190       onigenc_unicode_apply_all_case_fold 000000018001b190 f   oniguruma:unicode.obj
 0001:0001a620       onigenc_unicode_get_case_fold_codes_by_str 000000018001b620 f   oniguruma:unicode.obj
 0001:0001ae20       onig_st_init_table_with_size 000000018001be20 f   oniguruma:st.obj
 0001:0001aea0       onig_st_free_table         000000018001bea0 f   oniguruma:st.obj
 0001:0001af20       onig_st_lookup             000000018001bf20 f   oniguruma:st.obj
 0001:0001aff0       onig_st_insert             000000018001bff0 f   oniguruma:st.obj
 0001:0001b120       onig_st_add_direct         000000018001c120 f   oniguruma:st.obj
 0001:0001b340       onig_st_foreach            000000018001c340 f   oniguruma:st.obj
 0001:0001b4e0       __imp_load_?ThrowException@Isolate@v8@@QEAA?AV?$Local@VValue@v8@@@2@V32@@Z 000000018001c4e0 f   node:node.exe
 0001:0001b4ec       __tailMerge_node_exe       000000018001c4ec f i node:node.exe
 0001:0001b565       __imp_load_?GetCurrent@Isolate@v8@@SAPEAV12@XZ 000000018001c565 f   node:node.exe
 0001:0001b571       __imp_load_?Error@Exception@v8@@SA?AV?$Local@VValue@v8@@@2@V?$Local@VString@v8@@@2@@Z 000000018001c571 f   node:node.exe
 0001:0001b57d       __imp_load_?ToLocalEmpty@V8@v8@@CAXXZ 000000018001c57d f   node:node.exe
 0001:0001b589       __imp_load_?NewFromUtf8@String@v8@@SA?AV?$MaybeLocal@VString@v8@@@2@PEAVIsolate@2@PEBDW4NewStringType@2@H@Z 000000018001c589 f   node:node.exe
 0001:0001b595       __imp_load_uv_queue_work   000000018001c595 f   node:node.exe
 0001:0001b5a1       __imp_load_?Global@Context@v8@@QEAA?AV?$Local@VObject@v8@@@2@XZ 000000018001c5a1 f   node:node.exe
 0001:0001b5ad       __imp_load_?Value@External@v8@@QEBAPEAXXZ 000000018001c5ad f   node:node.exe
 0001:0001b5b9       __imp_load_?New@External@v8@@SA?AV?$Local@VExternal@v8@@@2@PEAVIsolate@2@PEAX@Z 000000018001c5b9 f   node:node.exe
 0001:0001b5c5       __imp_load_?GetCurrentContext@Isolate@v8@@QEAA?AV?$Local@VContext@v8@@@2@XZ 000000018001c5c5 f   node:node.exe
 0001:0001b5d1       __imp_load_?CreateHandle@HandleScope@v8@@KAPEAPEAVObject@internal@2@PEAVIsolate@42@PEAV342@@Z 000000018001c5d1 f   node:node.exe
 0001:0001b5dd       __imp_load_?CreateHandle@HandleScope@v8@@CAPEAPEAVObject@internal@2@PEAVHeapObject@42@PEAV342@@Z 000000018001c5dd f   node:node.exe
 0001:0001b5e9       __imp_load_??1HandleScope@v8@@QEAA@XZ 000000018001c5e9 f   node:node.exe
 0001:0001b5f5       __imp_load_??0HandleScope@v8@@QEAA@PEAVIsolate@1@@Z 000000018001c5f5 f   node:node.exe
 0001:0001b601       __imp_load_?Set@Template@v8@@QEAAXV?$Local@VName@v8@@@2@V?$Local@VData@v8@@@2@W4PropertyAttribute@2@@Z 000000018001c601 f   node:node.exe
 0001:0001b60d       __imp_load_?New@Array@v8@@SA?AV?$Local@VArray@v8@@@2@PEAVIsolate@2@H@Z 000000018001c60d f   node:node.exe
 0001:0001b619       __imp_load_?Length@Array@v8@@QEBAIXZ 000000018001c619 f   node:node.exe
 0001:0001b625       __imp_load_?SetClassName@FunctionTemplate@v8@@QEAAXV?$Local@VString@v8@@@2@@Z 000000018001c625 f   node:node.exe
 0001:0001b631       __imp_load_?PrototypeTemplate@FunctionTemplate@v8@@QEAA?AV?$Local@VObjectTemplate@v8@@@2@XZ 000000018001c631 f   node:node.exe
 0001:0001b63d       __imp_load_?InstanceTemplate@FunctionTemplate@v8@@QEAA?AV?$Local@VObjectTemplate@v8@@@2@XZ 000000018001c63d f   node:node.exe
 0001:0001b649       __imp_load_?GetFunction@FunctionTemplate@v8@@QEAA?AV?$Local@VFunction@v8@@@2@XZ 000000018001c649 f   node:node.exe
 0001:0001b655       __imp_load_?New@FunctionTemplate@v8@@SA?AV?$Local@VFunctionTemplate@v8@@@2@PEAVIsolate@2@P6AXAEBV?$FunctionCallbackInfo@VValue@v8@@@2@@ZV?$Local@VValue@v8@@@2@V?$Local@VSignature@v8@@@2@H@Z 000000018001c655 f   node:node.exe
 0001:0001b661       __imp_load_?ClearWeak@V8@v8@@CAPEAXPEAPEAVObject@internal@2@@Z 000000018001c661 f   node:node.exe
 0001:0001b66d       __imp_load_?MakeWeak@V8@v8@@CAXPEAPEAVObject@internal@2@PEAXP6AXAEBV?$WeakCallbackInfo@X@2@@ZW4WeakCallbackType@2@@Z 000000018001c66d f   node:node.exe
 0001:0001b679       __imp_load_?DisposeGlobal@V8@v8@@CAXPEAPEAVObject@internal@2@@Z 000000018001c679 f   node:node.exe
 0001:0001b685       __imp_load_?GlobalizeReference@V8@v8@@CAPEAPEAVObject@internal@2@PEAVIsolate@42@PEAPEAV342@@Z 000000018001c685 f   node:node.exe
 0001:0001b691       __imp_load_?Escape@EscapableHandleScope@v8@@AEAAPEAPEAVObject@internal@2@PEAPEAV342@@Z 000000018001c691 f   node:node.exe
 0001:0001b69d       __imp_load_??0EscapableHandleScope@v8@@QEAA@PEAVIsolate@1@@Z 000000018001c69d f   node:node.exe
 0001:0001b6a9       __imp_load_??1Utf8Value@String@v8@@QEAA@XZ 000000018001c6a9 f   node:node.exe
 0001:0001b6b5       __imp_load_??0Utf8Value@String@v8@@QEAA@V?$Local@VValue@v8@@@2@@Z 000000018001c6b5 f   node:node.exe
 0001:0001b6c1       __imp_load_?New@Number@v8@@SA?AV?$Local@VNumber@v8@@@2@PEAVIsolate@2@N@Z 000000018001c6c1 f   node:node.exe
 0001:0001b6cd       __imp_load_?Value@Number@v8@@QEBANXZ 000000018001c6cd f   node:node.exe
 0001:0001b6d9       __imp_load_?SlowGetAlignedPointerFromInternalField@Object@v8@@AEAAPEAXH@Z 000000018001c6d9 f   node:node.exe
 0001:0001b6e5       __imp_load_?SlowGetInternalField@Object@v8@@AEAA?AV?$Local@VValue@v8@@@2@H@Z 000000018001c6e5 f   node:node.exe
 0001:0001b6f1       __imp_load_?New@Object@v8@@SA?AV?$Local@VObject@v8@@@2@PEAVIsolate@2@@Z 000000018001c6f1 f   node:node.exe
 0001:0001b6fd       __imp_load_?SetAlignedPointerInInternalField@Object@v8@@QEAAXHPEAX@Z 000000018001c6fd f   node:node.exe
 0001:0001b709       __imp_load_?SetInternalField@Object@v8@@QEAAXHV?$Local@VValue@v8@@@2@@Z 000000018001c709 f   node:node.exe
 0001:0001b715       __imp_load_?InternalFieldCount@Object@v8@@QEAAHXZ 000000018001c715 f   node:node.exe
 0001:0001b721       __imp_load_?Get@Object@v8@@QEAA?AV?$Local@VValue@v8@@@2@I@Z 000000018001c721 f   node:node.exe
 0001:0001b72d       __imp_load_?Set@Object@v8@@QEAA_NV?$Local@VValue@v8@@@2@0@Z 000000018001c72d f   node:node.exe
 0001:0001b739       __imp_load_?Set@Object@v8@@QEAA_NIV?$Local@VValue@v8@@@2@@Z 000000018001c739 f   node:node.exe
 0001:0001b745       __imp_load_?SetInternalFieldCount@ObjectTemplate@v8@@QEAAXH@Z 000000018001c745 f   node:node.exe
 0001:0001b751       __imp_load_?NewInstance@ObjectTemplate@v8@@QEAA?AV?$MaybeLocal@VObject@v8@@@2@V?$Local@VContext@v8@@@2@@Z 000000018001c751 f   node:node.exe
 0001:0001b75d       __imp_load_?New@ObjectTemplate@v8@@SA?AV?$Local@VObjectTemplate@v8@@@2@PEAVIsolate@2@V?$Local@VFunctionTemplate@v8@@@2@@Z 000000018001c75d f   node:node.exe
 0001:0001b769       __imp_load_node_module_register 000000018001c769 f   node:node.exe
 0001:0001b775       __imp_load_?MakeCallback@node@@YA?AV?$Local@VValue@v8@@@v8@@PEAVIsolate@3@V?$Local@VObject@v8@@@3@V?$Local@VFunction@v8@@@3@HPEAV23@@Z 000000018001c775 f   node:node.exe
 0001:0001b781       __imp_load_uv_default_loop 000000018001c781 f   node:node.exe
 0001:0001b78d       __imp_load_?ToObject@Value@v8@@QEBA?AV?$Local@VObject@v8@@@2@XZ 000000018001c78d f   node:node.exe
 0001:0001b799       __imp_load_??1EscapableHandleScope@v8@@QEAA@XZ 000000018001c799 f   node:node.exe
 0001:0001b7a5       __imp_load_?TypeError@Exception@v8@@SA?AV?$Local@VValue@v8@@@2@V?$Local@VString@v8@@@2@@Z 000000018001c7a5 f   node:node.exe
 0001:0001b7b1       __imp_load_??1Value@String@v8@@QEAA@XZ 000000018001c7b1 f   node:node.exe
 0001:0001b7bd       __imp_load_??0Value@String@v8@@QEAA@V?$Local@VValue@v8@@@2@@Z 000000018001c7bd f   node:node.exe
 0001:0001b7c9       __imp_load_?Length@String@v8@@QEBAHXZ 000000018001c7c9 f   node:node.exe
 0001:0001b7d8       ??0bad_alloc@std@@QEAA@AEBV01@@Z 000000018001c7d8 f i libcpmt:xthrow.obj
 0001:0001b818       ??0bad_alloc@std@@QEAA@XZ  000000018001c818 f i libcpmt:xthrow.obj
 0001:0001b838       ??0exception@std@@QEAA@AEBV01@@Z 000000018001c838 f i libcpmt:xthrow.obj
 0001:0001b870       ??0length_error@std@@QEAA@AEBV01@@Z 000000018001c870 f i libcpmt:xthrow.obj
 0001:0001b8b0       ??0length_error@std@@QEAA@PEBD@Z 000000018001c8b0 f i libcpmt:xthrow.obj
 0001:0001b8fc       ??0logic_error@std@@QEAA@AEBV01@@Z 000000018001c8fc f i libcpmt:xthrow.obj
 0001:0001b93c       ??0out_of_range@std@@QEAA@AEBV01@@Z 000000018001c93c f i libcpmt:xthrow.obj
 0001:0001b97c       ??0out_of_range@std@@QEAA@PEBD@Z 000000018001c97c f i libcpmt:xthrow.obj
 0001:0001b9c8       ??_Ebad_exception@std@@UEAAPEAXI@Z 000000018001c9c8 f i libvcruntime:frame.obj
 0001:0001b9c8       ??_Gout_of_range@std@@UEAAPEAXI@Z 000000018001c9c8 f i libcpmt:xthrow.obj
 0001:0001b9c8       ??_Ebad_alloc@std@@UEAAPEAXI@Z 000000018001c9c8 f i libcpmt:xthrow.obj
 0001:0001b9c8       ??_Gbad_exception@std@@UEAAPEAXI@Z 000000018001c9c8 f i libvcruntime:frame.obj
 0001:0001b9c8       ??_Glogic_error@std@@UEAAPEAXI@Z 000000018001c9c8 f i libcpmt:xthrow.obj
 0001:0001b9c8       ??_Gexception@std@@UEAAPEAXI@Z 000000018001c9c8 f i libcpmt:xthrow.obj
 0001:0001b9c8       ??_Glength_error@std@@UEAAPEAXI@Z 000000018001c9c8 f i libcpmt:xthrow.obj
 0001:0001b9c8       ??_Eout_of_range@std@@UEAAPEAXI@Z 000000018001c9c8 f i libcpmt:xthrow.obj
 0001:0001b9c8       ??_Eexception@std@@UEAAPEAXI@Z 000000018001c9c8 f i libcpmt:xthrow.obj
 0001:0001b9c8       ??_Gbad_alloc@std@@UEAAPEAXI@Z 000000018001c9c8 f i libcpmt:xthrow.obj
 0001:0001b9c8       ??_Gbad_array_new_length@std@@UEAAPEAXI@Z 000000018001c9c8 f i LIBCMT:throw_bad_alloc.obj
 0001:0001b9c8       ??_Elength_error@std@@UEAAPEAXI@Z 000000018001c9c8 f i libcpmt:xthrow.obj
 0001:0001b9c8       ??_Ebad_array_new_length@std@@UEAAPEAXI@Z 000000018001c9c8 f i LIBCMT:throw_bad_alloc.obj
 0001:0001b9c8       ??_Elogic_error@std@@UEAAPEAXI@Z 000000018001c9c8 f i libcpmt:xthrow.obj
 0001:0001ba0c       ?__scrt_throw_std_bad_alloc@@YAXXZ 000000018001ca0c f   LIBCMT:throw_bad_alloc.obj
 0001:0001ba0c       ?_Xbad_alloc@std@@YAXXZ    000000018001ca0c f   libcpmt:xthrow.obj
 0001:0001ba2c       ?_Xlength_error@std@@YAXPEBD@Z 000000018001ca2c f   libcpmt:xthrow.obj
 0001:0001ba50       ?_Xout_of_range@std@@YAXPEBD@Z 000000018001ca50 f   libcpmt:xthrow.obj
 0001:0001ba74       ?what@exception@std@@UEBAPEBDXZ 000000018001ca74 f i libcpmt:xthrow.obj
 0001:0001baa0       __security_check_cookie    000000018001caa0 f   LIBCMT:_amdsecgs_.obj
 0001:0001bac4       ??2@YAPEAX_K@Z             000000018001cac4 f   LIBCMT:new_scalar.obj
 0001:0001bb00       ??3@YAXPEAX@Z              000000018001cb00 f   LIBCMT:delete_scalar.obj
 0001:0001bb08       ??_V@YAXPEAX@Z             000000018001cb08 f   LIBCMT:delete_array.obj
 0001:0001bb08       ??3@YAXPEAX_K@Z            000000018001cb08 f   LIBCMT:delete_scalar_size.obj
 0001:0001bb10       ??_U@YAPEAX_K@Z            000000018001cb10 f   LIBCMT:new_array.obj
 0001:0001be64       _DllMainCRTStartup         000000018001ce64 f   LIBCMT:dll_dllmain.obj
 0001:0001bea4       __raise_securityfailure    000000018001cea4 f   LIBCMT:gs_report.obj
 0001:0001bed8       __report_gsfailure         000000018001ced8 f   LIBCMT:gs_report.obj
 0001:0001bfac       __report_rangecheckfailure 000000018001cfac f   LIBCMT:gs_report.obj
 0001:0001bfc0       __report_securityfailure   000000018001cfc0 f   LIBCMT:gs_report.obj
 0001:0001c140       ??_Etype_info@@UEAAPEAXI@Z 000000018001d140 f i LIBCMT:std_type_info_static.obj
 0001:0001c140       ??_Gtype_info@@UEAAPEAXI@Z 000000018001d140 f i LIBCMT:std_type_info_static.obj
 0001:0001c16c       ??0bad_array_new_length@std@@QEAA@AEBV01@@Z 000000018001d16c f i LIBCMT:throw_bad_alloc.obj
 0001:0001c1ac       ??0bad_array_new_length@std@@QEAA@XZ 000000018001d1ac f i LIBCMT:throw_bad_alloc.obj
 0001:0001c1cc       ?__scrt_throw_std_bad_array_new_length@@YAXXZ 000000018001d1cc f   LIBCMT:throw_bad_alloc.obj
 0001:0001c1ec       __scrt_acquire_startup_lock 000000018001d1ec f   LIBCMT:utility.obj
 0001:0001c228       __scrt_dllmain_after_initialize_c 000000018001d228 f   LIBCMT:utility.obj
 0001:0001c25c       __scrt_dllmain_before_initialize_c 000000018001d25c f   LIBCMT:utility.obj
 0001:0001c274       __scrt_dllmain_crt_thread_attach 000000018001d274 f   LIBCMT:utility.obj
 0001:0001c29c       __scrt_dllmain_crt_thread_detach 000000018001d29c f   LIBCMT:utility.obj
 0001:0001c2b4       __scrt_dllmain_exception_filter 000000018001d2b4 f   LIBCMT:utility.obj
 0001:0001c318       __scrt_dllmain_uninitialize_c 000000018001d318 f   LIBCMT:utility.obj
 0001:0001c348       __scrt_dllmain_uninitialize_critical 000000018001d348 f   LIBCMT:utility.obj
 0001:0001c35c       __scrt_initialize_crt      000000018001d35c f   LIBCMT:utility.obj
 0001:0001c3a8       __scrt_initialize_onexit_tables 000000018001d3a8 f   LIBCMT:utility.obj
 0001:0001c474       __scrt_is_nonwritable_in_current_image 000000018001d474 f   LIBCMT:utility.obj
 0001:0001c510       __scrt_release_startup_lock 000000018001d510 f   LIBCMT:utility.obj
 0001:0001c534       __scrt_uninitialize_crt    000000018001d534 f   LIBCMT:utility.obj
 0001:0001c560       _onexit                    000000018001d560 f   LIBCMT:utility.obj
 0001:0001c5b0       atexit                     000000018001d5b0 f   LIBCMT:utility.obj
 0001:0001c5c8       __security_init_cookie     000000018001d5c8 f   LIBCMT:gs_support.obj
 0001:0001c674       ?__scrt_initialize_type_info@@YAXXZ 000000018001d674 f   LIBCMT:tncleanup.obj
 0001:0001c684       ?__scrt_uninitialize_type_info@@YAXXZ 000000018001d684 f   LIBCMT:tncleanup.obj
 0001:0001c690       __local_stdio_scanf_options 000000018001d690 f i LIBCMT:default_local_stdio_options.obj
 0001:0001c698       __scrt_initialize_default_local_stdio_options 000000018001d698 f   LIBCMT:default_local_stdio_options.obj
 0001:0001c6b4       __scrt_get_dyn_tls_init_callback 000000018001d6b4 f   LIBCMT:dyn_tls_init.obj
 0001:0001c6bc       __crt_debugger_hook        000000018001d6bc f   LIBCMT:utility_desktop.obj
 0001:0001c6c4       __scrt_fastfail            000000018001d6c4 f   LIBCMT:utility_desktop.obj
 0001:0001c80c       _RTC_Initialize            000000018001d80c f   LIBCMT:_initsect_.obj
 0001:0001c858       _RTC_Terminate             000000018001d858 f   LIBCMT:_initsect_.obj
 0001:0001c8a4       _guard_check_icall         000000018001d8a4 f i LIBCMT:checkcfg.obj
 0001:0001c8ac       __isa_available_init       000000018001d8ac f   LIBCMT:_cpu_disp_.obj
 0001:0001ca74       __scrt_is_ucrt_dll_in_use  000000018001da74 f   LIBCMT:ucrt_detection.obj
 0001:0001ca80       __DestructExceptionObject  000000018001da80 f   libvcruntime:frame.obj
 0001:0001cb08       ??0bad_exception@std@@QEAA@AEBV01@@Z 000000018001db08 f i libvcruntime:frame.obj
 0001:0001cb48       ??0bad_exception@std@@QEAA@XZ 000000018001db48 f i libvcruntime:frame.obj
 0001:0001cb68       ??1length_error@std@@UEAA@XZ 000000018001db68 f i libcpmt:xthrow.obj
 0001:0001cb68       ??1bad_exception@std@@UEAA@XZ 000000018001db68 f i libvcruntime:frame.obj
 0001:0001cb68       ??1bad_array_new_length@std@@UEAA@XZ 000000018001db68 f i LIBCMT:throw_bad_alloc.obj
 0001:0001cb68       ??1out_of_range@std@@UEAA@XZ 000000018001db68 f i libcpmt:xthrow.obj
 0001:0001cb68       ??1bad_alloc@std@@UEAA@XZ  000000018001db68 f i libcpmt:xthrow.obj
 0001:0001d4d8       ?_CallMemberFunction0@@YAXPEAXP6AX0@Z@Z 000000018001e4d8 f i libvcruntime:frame.obj
 0001:0001d4dc       ?_CallMemberFunction1@@YAXPEAXP6AX0@Z0@Z 000000018001e4dc f i libvcruntime:frame.obj
 0001:0001d4e8       ?_CallMemberFunction2@@YAXPEAXP6AX0@Z0H@Z 000000018001e4e8 f i libvcruntime:frame.obj
 0001:0001d4f8       __AdjustPointer            000000018001e4f8 f   libvcruntime:frame.obj
 0001:0001d51c       __BuildCatchObject         000000018001e51c f   libvcruntime:frame.obj
 0001:0001d5e0       __BuildCatchObjectHelper   000000018001e5e0 f   libvcruntime:frame.obj
 0001:0001d7c0       __CxxCallCatchBlock        000000018001e7c0 f   libvcruntime:frame.obj
 0001:0001d9ac       __FrameUnwindFilter        000000018001e9ac f   libvcruntime:frame.obj
 0001:0001d9f8       __FrameUnwindToState       000000018001e9f8 f   libvcruntime:frame.obj
 0001:0001db8c       __InternalCxxFrameHandler  000000018001eb8c f   libvcruntime:frame.obj
 0001:0001dde4       __TypeMatch                000000018001ede4 f   libvcruntime:frame.obj
 0001:0001df24       __std_terminate            000000018001ef24 f   libvcruntime:frame.obj
 0001:0001df40       memcpy                     000000018001ef40 f   libvcruntime:memcpy.obj
 0001:0001df40       memmove                    000000018001ef40 f   libvcruntime:memcpy.obj
 0001:0001e378       _purecall                  000000018001f378 f   libvcruntime:purevirt.obj
 0001:0001e3b4       __std_exception_copy       000000018001f3b4 f   libvcruntime:std_exception.obj
 0001:0001e444       __std_exception_destroy    000000018001f444 f   libvcruntime:std_exception.obj
 0001:0001e46c       _CxxThrowException         000000018001f46c f   libvcruntime:throw.obj
 0001:0001e544       __C_specific_handler       000000018001f544 f   libvcruntime:_chandler_.obj
 0001:0001e740       __vcrt_initialize          000000018001f740 f   libvcruntime:initialization.obj
 0001:0001e774       __vcrt_thread_attach       000000018001f774 f   libvcruntime:initialization.obj
 0001:0001e788       __vcrt_thread_detach       000000018001f788 f   libvcruntime:initialization.obj
 0001:0001e79c       __vcrt_uninitialize        000000018001f79c f   libvcruntime:initialization.obj
 0001:0001e7bc       __vcrt_uninitialize_critical 000000018001f7bc f   libvcruntime:initialization.obj
 0001:0001e7cc       __std_type_info_compare    000000018001f7cc f   libvcruntime:std_type_info.obj
 0001:0001e7f4       __std_type_info_destroy_list 000000018001f7f4 f   libvcruntime:std_type_info.obj
 0001:0001e830       memset                     000000018001f830 f   libvcruntime:memset.obj
 0001:0001e9d0       __vcrt_freefls             000000018001f9d0 f   libvcruntime:per_thread_data.obj
 0001:0001e9f0       __vcrt_freeptd             000000018001f9f0 f   libvcruntime:per_thread_data.obj
 0001:0001ea40       __vcrt_getptd              000000018001fa40 f   libvcruntime:per_thread_data.obj
 0001:0001ea5c       __vcrt_getptd_noexit       000000018001fa5c f   libvcruntime:per_thread_data.obj
 0001:0001eb14       __vcrt_initialize_ptd      000000018001fb14 f   libvcruntime:per_thread_data.obj
 0001:0001eb54       __vcrt_uninitialize_ptd    000000018001fb54 f   libvcruntime:per_thread_data.obj
 0001:0001eb78       ?__GetCurrentState@@YAHPEA_KPEAU_xDISPATCHER_CONTEXT@@PEBU_s_FuncInfo@@@Z 000000018001fb78 f   libvcruntime:ehstate.obj
 0001:0001eba0       ?__GetUnwindTryBlock@@YAHPEA_KPEAU_xDISPATCHER_CONTEXT@@PEBU_s_FuncInfo@@@Z 000000018001fba0 f   libvcruntime:ehstate.obj
 0001:0001ebcc       ?__SetState@@YAXPEA_KPEAU_xDISPATCHER_CONTEXT@@PEBU_s_FuncInfo@@H@Z 000000018001fbcc f   libvcruntime:ehstate.obj
 0001:0001ebd8       ?__SetUnwindTryBlock@@YAXPEA_KPEAU_xDISPATCHER_CONTEXT@@PEBU_s_FuncInfo@@H@Z 000000018001fbd8 f   libvcruntime:ehstate.obj
 0001:0001ec14       ?__StateFromControlPc@@YAHPEBU_s_FuncInfo@@PEAU_xDISPATCHER_CONTEXT@@@Z 000000018001fc14 f   libvcruntime:ehstate.obj
 0001:0001ec1c       ?__StateFromIp@@YAHPEBU_s_FuncInfo@@PEAU_xDISPATCHER_CONTEXT@@_J@Z 000000018001fc1c f   libvcruntime:ehstate.obj
 0001:0001eca0       _CallSettingFrame          000000018001fca0 f   libvcruntime:handlers.obj
 0001:0001ece0       ?_ExecutionInCatch@@YAHPEAU_xDISPATCHER_CONTEXT@@PEBU_s_FuncInfo@@@Z 000000018001fce0 f   libvcruntime:trnsctrl.obj
 0001:0001ed54       ?_GetEstablisherFrame@@YAPEA_KPEA_KPEAU_xDISPATCHER_CONTEXT@@PEBU_s_FuncInfo@@0@Z 000000018001fd54 f   libvcruntime:trnsctrl.obj
 0001:0001ee20       ?_GetRangeOfTrysToCheck@@YAPEBU_s_TryBlockMapEntry@@PEA_KPEBU_s_FuncInfo@@HHPEAI2PEAU_xDISPATCHER_CONTEXT@@@Z 000000018001fe20 f   libvcruntime:trnsctrl.obj
 0001:0001ef4c       ?__FrameUnwindToEmptyState@@YAXPEA_KPEAU_xDISPATCHER_CONTEXT@@PEBU_s_FuncInfo@@@Z 000000018001ff4c f   libvcruntime:trnsctrl.obj
 0001:0001efe0       ?__SehTransFilter@@YAHPEAU_EXCEPTION_POINTERS@@PEAUEHExceptionRecord@@PEA_KPEAU_CONTEXT@@PEAU_xDISPATCHER_CONTEXT@@PEBU_s_FuncInfo@@PEAH@Z 000000018001ffe0 f   libvcruntime:trnsctrl.obj
 0001:0001f078       _CallSETranslator          0000000180020078 f   libvcruntime:trnsctrl.obj
 0001:0001f0d0       _CreateFrameInfo           00000001800200d0 f   libvcruntime:trnsctrl.obj
 0001:0001f10c       _FindAndUnlinkFrame        000000018002010c f   libvcruntime:trnsctrl.obj
 0001:0001f164       _GetImageBase              0000000180020164 f   libvcruntime:trnsctrl.obj
 0001:0001f178       _GetThrowImageBase         0000000180020178 f   libvcruntime:trnsctrl.obj
 0001:0001f18c       _IsExceptionObjectToBeDestroyed 000000018002018c f   libvcruntime:trnsctrl.obj
 0001:0001f1bc       _SetImageBase              00000001800201bc f   libvcruntime:trnsctrl.obj
 0001:0001f1d4       _SetThrowImageBase         00000001800201d4 f   libvcruntime:trnsctrl.obj
 0001:0001f1ec       _UnwindNestedFrames        00000001800201ec f   libvcruntime:trnsctrl.obj
 0001:0001f310       __CxxFrameHandler3         0000000180020310 f   libvcruntime:trnsctrl.obj
 0001:0001f3a0       _local_unwind              00000001800203a0 f   libvcruntime:_jmpuwind_.obj
 0001:0001f3d0       _NLG_Notify                00000001800203d0 f   libvcruntime:_jmpuwind_.obj
 0001:0001f3f0       __NLG_Dispatch2            00000001800203f0 f   libvcruntime:_jmpuwind_.obj
 0001:0001f400       __NLG_Return2              0000000180020400 f   libvcruntime:_jmpuwind_.obj
 0001:0001f404       __vcrt_initialize_pure_virtual_call_handler 0000000180020404 f   libvcruntime:purevirt_data.obj
 0001:0001f428       __vcrt_initialize_locks    0000000180020428 f   libvcruntime:locks.obj
 0001:0001f470       __vcrt_uninitialize_locks  0000000180020470 f   libvcruntime:locks.obj
 0001:0001f670       __vcrt_FlsAlloc            0000000180020670 f   libvcruntime:winapi_downlevel.obj
 0001:0001f6c4       __vcrt_FlsFree             00000001800206c4 f   libvcruntime:winapi_downlevel.obj
 0001:0001f718       __vcrt_FlsGetValue         0000000180020718 f   libvcruntime:winapi_downlevel.obj
 0001:0001f76c       __vcrt_FlsSetValue         000000018002076c f   libvcruntime:winapi_downlevel.obj
 0001:0001f7d4       __vcrt_InitializeCriticalSectionEx 00000001800207d4 f   libvcruntime:winapi_downlevel.obj
 0001:0001f84c       __vcrt_initialize_winapi_thunks 000000018002084c f   libvcruntime:winapi_downlevel.obj
 0001:0001f898       __vcrt_uninitialize_winapi_thunks 0000000180020898 f   libvcruntime:winapi_downlevel.obj
 0001:0001f8d8       __acrt_call_reportfault    00000001800208d8 f   libucrt:invalid_parameter.obj
 0001:0001fa34       __acrt_initialize_invalid_parameter_handler 0000000180020a34 f   libucrt:invalid_parameter.obj
 0001:0001fa3c       _invalid_parameter         0000000180020a3c f   libucrt:invalid_parameter.obj
 0001:0001fae4       _invalid_parameter_noinfo  0000000180020ae4 f   libucrt:invalid_parameter.obj
 0001:0001fb04       _invalid_parameter_noinfo_noreturn 0000000180020b04 f   libucrt:invalid_parameter.obj
 0001:0001fb34       _invoke_watson             0000000180020b34 f   libucrt:invalid_parameter.obj
 0001:00020564       ??$ftprintf@PEAU_iobuf@@PEB_WAEBQEB_WAEBQEB_WAEBI@?$__crt_char_traits@_W@@SAH$$QEAPEAU_iobuf@@$$QEAPEB_WAEBQEB_W2AEBI@Z 0000000180021564 f i libucrt:assert.obj
 0001:0002058c       _wassert                   000000018002158c f   libucrt:assert.obj
 0001:00020610       fwprintf                   0000000180021610 f i libucrt:assert.obj
 0001:00020654       swprintf                   0000000180021654 f i libucrt:assert.obj
 0001:000206a8       ??0_LocaleUpdate@@QEAA@QEAU__crt_locale_pointers@@@Z 00000001800216a8 f i libucrt:stricmp.obj
 0001:00020738       __ascii_stricmp            0000000180021738 f   libucrt:stricmp.obj
 0001:00020774       _stricmp                   0000000180021774 f   libucrt:stricmp.obj
 0001:000207bc       _stricmp_l                 00000001800217bc f   libucrt:stricmp.obj
 0001:00020870       realloc                    0000000180021870 f   libucrt:realloc.obj
 0001:00020878       free                       0000000180021878 f   libucrt:free.obj
 0001:00020880       malloc                     0000000180021880 f   libucrt:malloc.obj
 0001:00020888       ??$?RV<lambda_7b91131dde12e1c3dfc74ff76b3f2eac>@@AEAV<lambda_dd75445284c072d0bd3768540cc698fa>@@V<lambda_16bc4ecb55b4718497c16bceaea2ceaf>@@@?$__crt_seh_guarded_call@H@@QEAAH$$QEAV<lambda_7b91131dde12e1c3dfc74ff76b3f2eac>@@AEAV<lambda_dd75445284c072d0bd3768540cc698fa>@@$$QEAV<lambda_16bc4ecb55b4718497c16bceaea2ceaf>@@@Z 0000000180021888 f i libucrt:output.obj
 0001:000208c8       ??$ensure_buffer_is_big_enough@D@formatting_buffer@__crt_stdio_output@@QEAA_N_K@Z 00000001800218c8 f i libucrt:output.obj
 0001:00020974       ??$is_wide_character_specifier@D@__crt_stdio_output@@YA_N_KDW4length_modifier@0@@Z 0000000180021974 f i libucrt:output.obj
 0001:000209a4       ??$is_wide_character_specifier@_W@__crt_stdio_output@@YA_N_K_WW4length_modifier@0@@Z 00000001800219a4 f i libucrt:output.obj
 0001:000209e8       ??$type_case_integer_parse_into_buffer@I@?$output_processor@_WV?$string_output_adapter@_W@__crt_stdio_output@@V?$standard_base@_WV?$string_output_adapter@_W@__crt_stdio_output@@@2@@__crt_stdio_output@@AEAAXII_N@Z 00000001800219e8 f i libucrt:output.obj
 0001:000209e8       ??$type_case_integer_parse_into_buffer@I@?$output_processor@_WV?$stream_output_adapter@_W@__crt_stdio_output@@V?$standard_base@_WV?$stream_output_adapter@_W@__crt_stdio_output@@@2@@__crt_stdio_output@@AEAAXII_N@Z 00000001800219e8 f i libucrt:output.obj
 0001:000209e8       ??$type_case_integer_parse_into_buffer@I@?$output_processor@DV?$string_output_adapter@D@__crt_stdio_output@@V?$standard_base@DV?$string_output_adapter@D@__crt_stdio_output@@@2@@__crt_stdio_output@@AEAAXII_N@Z 00000001800219e8 f i libucrt:output.obj
 0001:00020a84       ??$type_case_integer_parse_into_buffer@_K@?$output_processor@_WV?$string_output_adapter@_W@__crt_stdio_output@@V?$standard_base@_WV?$string_output_adapter@_W@__crt_stdio_output@@@2@@__crt_stdio_output@@AEAAX_KI_N@Z 0000000180021a84 f i libucrt:output.obj
 0001:00020a84       ??$type_case_integer_parse_into_buffer@_K@?$output_processor@DV?$string_output_adapter@D@__crt_stdio_output@@V?$standard_base@DV?$string_output_adapter@D@__crt_stdio_output@@@2@@__crt_stdio_output@@AEAAX_KI_N@Z 0000000180021a84 f i libucrt:output.obj
 0001:00020a84       ??$type_case_integer_parse_into_buffer@_K@?$output_processor@_WV?$stream_output_adapter@_W@__crt_stdio_output@@V?$standard_base@_WV?$stream_output_adapter@_W@__crt_stdio_output@@@2@@__crt_stdio_output@@AEAAX_KI_N@Z 0000000180021a84 f i libucrt:output.obj
 0001:00020b20       ??$write_multiple_characters@V?$stream_output_adapter@_W@__crt_stdio_output@@D@__crt_stdio_output@@YAXAEBV?$stream_output_adapter@_W@0@DHQEAH@Z 0000000180021b20 f i libucrt:output.obj
 0001:00020bb0       ??$write_multiple_characters@V?$string_output_adapter@D@__crt_stdio_output@@D@__crt_stdio_output@@YAXAEBV?$string_output_adapter@D@0@DHQEAH@Z 0000000180021bb0 f i libucrt:output.obj
 0001:00020c0c       ??$write_multiple_characters@V?$string_output_adapter@_W@__crt_stdio_output@@D@__crt_stdio_output@@YAXAEBV?$string_output_adapter@_W@0@DHQEAH@Z 0000000180021c0c f i libucrt:output.obj
 0001:00020c7c       ??0?$output_processor@DV?$string_output_adapter@D@__crt_stdio_output@@V?$standard_base@DV?$string_output_adapter@D@__crt_stdio_output@@@2@@__crt_stdio_output@@QEAA@AEBV?$string_output_adapter@D@1@_KQEBDQEAU__crt_locale_pointers@@QEAD@Z 0000000180021c7c f i libucrt:output.obj
 0001:00020cf8       ??0?$output_processor@_WV?$string_output_adapter@_W@__crt_stdio_output@@V?$standard_base@_WV?$string_output_adapter@_W@__crt_stdio_output@@@2@@__crt_stdio_output@@QEAA@AEBV?$string_output_adapter@_W@1@_KQEB_WQEAU__crt_locale_pointers@@QEAD@Z 0000000180021cf8 f i libucrt:output.obj
 0001:00020cf8       ??0?$output_processor@_WV?$stream_output_adapter@_W@__crt_stdio_output@@V?$standard_base@_WV?$stream_output_adapter@_W@__crt_stdio_output@@@2@@__crt_stdio_output@@QEAA@AEBV?$stream_output_adapter@_W@1@_KQEB_WQEAU__crt_locale_pointers@@QEAD@Z 0000000180021cf8 f i libucrt:output.obj
 0001:00020e68       ?force_decimal_point@__crt_stdio_output@@YAXPEADQEAU__crt_locale_pointers@@@Z 0000000180021e68 f i libucrt:output.obj
 0001:00020ed8       ?parse_int_from_format_string@?$output_processor@DV?$string_output_adapter@D@__crt_stdio_output@@V?$standard_base@DV?$string_output_adapter@D@__crt_stdio_output@@@2@@__crt_stdio_output@@AEAA_NQEAH@Z 0000000180021ed8 f i libucrt:output.obj
 0001:00020f5c       ?parse_int_from_format_string@?$output_processor@_WV?$stream_output_adapter@_W@__crt_stdio_output@@V?$standard_base@_WV?$stream_output_adapter@_W@__crt_stdio_output@@@2@@__crt_stdio_output@@AEAA_NQEAH@Z 0000000180021f5c f i libucrt:output.obj
 0001:00020f5c       ?parse_int_from_format_string@?$output_processor@_WV?$string_output_adapter@_W@__crt_stdio_output@@V?$standard_base@_WV?$string_output_adapter@_W@__crt_stdio_output@@@2@@__crt_stdio_output@@AEAA_NQEAH@Z 0000000180021f5c f i libucrt:output.obj
 0001:00020fdc       ?process@?$output_processor@DV?$string_output_adapter@D@__crt_stdio_output@@V?$standard_base@DV?$string_output_adapter@D@__crt_stdio_output@@@2@@__crt_stdio_output@@QEAAHXZ 0000000180021fdc f i libucrt:output.obj
 0001:000211e0       ?process@?$output_processor@_WV?$stream_output_adapter@_W@__crt_stdio_output@@V?$standard_base@_WV?$stream_output_adapter@_W@__crt_stdio_output@@@2@@__crt_stdio_output@@QEAAHXZ 00000001800221e0 f i libucrt:output.obj
 0001:00021458       ?process@?$output_processor@_WV?$string_output_adapter@_W@__crt_stdio_output@@V?$standard_base@_WV?$string_output_adapter@_W@__crt_stdio_output@@@2@@__crt_stdio_output@@QEAAHXZ 0000000180022458 f i libucrt:output.obj
 0001:000216d4       ?state_case_normal@?$output_processor@DV?$string_output_adapter@D@__crt_stdio_output@@V?$standard_base@DV?$string_output_adapter@D@__crt_stdio_output@@@2@@__crt_stdio_output@@AEAA_NXZ 00000001800226d4 f i libucrt:output.obj
 0001:00021748       ?state_case_normal_tchar@?$output_processor@DV?$string_output_adapter@D@__crt_stdio_output@@V?$standard_base@DV?$string_output_adapter@D@__crt_stdio_output@@@2@@__crt_stdio_output@@AEAA_ND@Z 0000000180022748 f i libucrt:output.obj
 0001:000217e0       ?state_case_size@?$output_processor@DV?$string_output_adapter@D@__crt_stdio_output@@V?$standard_base@DV?$string_output_adapter@D@__crt_stdio_output@@@2@@__crt_stdio_output@@AEAA_NXZ 00000001800227e0 f i libucrt:output.obj
 0001:0002195c       ?state_case_size@?$output_processor@_WV?$stream_output_adapter@_W@__crt_stdio_output@@V?$standard_base@_WV?$stream_output_adapter@_W@__crt_stdio_output@@@2@@__crt_stdio_output@@AEAA_NXZ 000000018002295c f i libucrt:output.obj
 0001:00021b00       ?state_case_size@?$output_processor@_WV?$string_output_adapter@_W@__crt_stdio_output@@V?$standard_base@_WV?$string_output_adapter@_W@__crt_stdio_output@@@2@@__crt_stdio_output@@AEAA_NXZ 0000000180022b00 f i libucrt:output.obj
 0001:00021ca4       ?state_case_type@?$output_processor@DV?$string_output_adapter@D@__crt_stdio_output@@V?$standard_base@DV?$string_output_adapter@D@__crt_stdio_output@@@2@@__crt_stdio_output@@AEAA_NXZ 0000000180022ca4 f i libucrt:output.obj
 0001:00021f20       ?state_case_type@?$output_processor@_WV?$stream_output_adapter@_W@__crt_stdio_output@@V?$standard_base@_WV?$stream_output_adapter@_W@__crt_stdio_output@@@2@@__crt_stdio_output@@AEAA_NXZ 0000000180022f20 f i libucrt:output.obj
 0001:000221ec       ?state_case_type@?$output_processor@_WV?$string_output_adapter@_W@__crt_stdio_output@@V?$standard_base@_WV?$string_output_adapter@_W@__crt_stdio_output@@@2@@__crt_stdio_output@@AEAA_NXZ 00000001800231ec f i libucrt:output.obj
 0001:000224b8       ?type_case_Z@?$output_processor@DV?$string_output_adapter@D@__crt_stdio_output@@V?$standard_base@DV?$string_output_adapter@D@__crt_stdio_output@@@2@@__crt_stdio_output@@AEAA_NXZ 00000001800234b8 f i libucrt:output.obj
 0001:00022538       ?type_case_Z@?$output_processor@_WV?$string_output_adapter@_W@__crt_stdio_output@@V?$standard_base@_WV?$string_output_adapter@_W@__crt_stdio_output@@@2@@__crt_stdio_output@@AEAA_NXZ 0000000180023538 f i libucrt:output.obj
 0001:00022538       ?type_case_Z@?$output_processor@_WV?$stream_output_adapter@_W@__crt_stdio_output@@V?$standard_base@_WV?$stream_output_adapter@_W@__crt_stdio_output@@@2@@__crt_stdio_output@@AEAA_NXZ 0000000180023538 f i libucrt:output.obj
 0001:000225b8       ?type_case_a@?$output_processor@DV?$string_output_adapter@D@__crt_stdio_output@@V?$standard_base@DV?$string_output_adapter@D@__crt_stdio_output@@@2@@__crt_stdio_output@@AEAA_NXZ 00000001800235b8 f i libucrt:output.obj
 0001:000227d4       ?type_case_a@?$output_processor@_WV?$string_output_adapter@_W@__crt_stdio_output@@V?$standard_base@_WV?$string_output_adapter@_W@__crt_stdio_output@@@2@@__crt_stdio_output@@AEAA_NXZ 00000001800237d4 f i libucrt:output.obj
 0001:000227d4       ?type_case_a@?$output_processor@_WV?$stream_output_adapter@_W@__crt_stdio_output@@V?$standard_base@_WV?$stream_output_adapter@_W@__crt_stdio_output@@@2@@__crt_stdio_output@@AEAA_NXZ 00000001800237d4 f i libucrt:output.obj
 0001:00022a18       ?type_case_c_tchar@?$output_processor@DV?$string_output_adapter@D@__crt_stdio_output@@V?$standard_base@DV?$string_output_adapter@D@__crt_stdio_output@@@2@@__crt_stdio_output@@AEAA_ND@Z 0000000180023a18 f i libucrt:output.obj
 0001:00022acc       ?type_case_c_tchar@?$output_processor@_WV?$stream_output_adapter@_W@__crt_stdio_output@@V?$standard_base@_WV?$stream_output_adapter@_W@__crt_stdio_output@@@2@@__crt_stdio_output@@AEAA_N_W@Z 0000000180023acc f i libucrt:output.obj
 0001:00022acc       ?type_case_c_tchar@?$output_processor@_WV?$string_output_adapter@_W@__crt_stdio_output@@V?$standard_base@_WV?$string_output_adapter@_W@__crt_stdio_output@@@2@@__crt_stdio_output@@AEAA_N_W@Z 0000000180023acc f i libucrt:output.obj
 0001:00022b74       ?type_case_integer@?$output_processor@_WV?$string_output_adapter@_W@__crt_stdio_output@@V?$standard_base@_WV?$string_output_adapter@_W@__crt_stdio_output@@@2@@__crt_stdio_output@@AEAA_NI_N@Z 0000000180023b74 f i libucrt:output.obj
 0001:00022b74       ?type_case_integer@?$output_processor@DV?$string_output_adapter@D@__crt_stdio_output@@V?$standard_base@DV?$string_output_adapter@D@__crt_stdio_output@@@2@@__crt_stdio_output@@AEAA_NI_N@Z 0000000180023b74 f i libucrt:output.obj
 0001:00022b74       ?type_case_integer@?$output_processor@_WV?$stream_output_adapter@_W@__crt_stdio_output@@V?$standard_base@_WV?$stream_output_adapter@_W@__crt_stdio_output@@@2@@__crt_stdio_output@@AEAA_NI_N@Z 0000000180023b74 f i libucrt:output.obj
 0001:00022d14       ?type_case_n@?$output_processor@_WV?$stream_output_adapter@_W@__crt_stdio_output@@V?$standard_base@_WV?$stream_output_adapter@_W@__crt_stdio_output@@@2@@__crt_stdio_output@@AEAA_NXZ 0000000180023d14 f i libucrt:output.obj
 0001:00022d14       ?type_case_n@?$output_processor@_WV?$string_output_adapter@_W@__crt_stdio_output@@V?$standard_base@_WV?$string_output_adapter@_W@__crt_stdio_output@@@2@@__crt_stdio_output@@AEAA_NXZ 0000000180023d14 f i libucrt:output.obj
 0001:00022d14       ?type_case_n@?$output_processor@DV?$string_output_adapter@D@__crt_stdio_output@@V?$standard_base@DV?$string_output_adapter@D@__crt_stdio_output@@@2@@__crt_stdio_output@@AEAA_NXZ 0000000180023d14 f i libucrt:output.obj
 0001:00022df0       ?type_case_s@?$output_processor@DV?$string_output_adapter@D@__crt_stdio_output@@V?$standard_base@DV?$string_output_adapter@D@__crt_stdio_output@@@2@@__crt_stdio_output@@AEAA_NXZ 0000000180023df0 f i libucrt:output.obj
 0001:00022e80       ?type_case_s@?$output_processor@_WV?$string_output_adapter@_W@__crt_stdio_output@@V?$standard_base@_WV?$string_output_adapter@_W@__crt_stdio_output@@@2@@__crt_stdio_output@@AEAA_NXZ 0000000180023e80 f i libucrt:output.obj
 0001:00022e80       ?type_case_s@?$output_processor@_WV?$stream_output_adapter@_W@__crt_stdio_output@@V?$standard_base@_WV?$stream_output_adapter@_W@__crt_stdio_output@@@2@@__crt_stdio_output@@AEAA_NXZ 0000000180023e80 f i libucrt:output.obj
 0001:00022f48       ?write_stored_string_tchar@?$output_processor@DV?$string_output_adapter@D@__crt_stdio_output@@V?$standard_base@DV?$string_output_adapter@D@__crt_stdio_output@@@2@@__crt_stdio_output@@AEAA_ND@Z 0000000180023f48 f i libucrt:output.obj
 0001:00023020       ?write_stored_string_tchar@?$output_processor@_WV?$stream_output_adapter@_W@__crt_stdio_output@@V?$standard_base@_WV?$stream_output_adapter@_W@__crt_stdio_output@@@2@@__crt_stdio_output@@AEAA_N_W@Z 0000000180024020 f i libucrt:output.obj
 0001:0002310c       ?write_stored_string_tchar@?$output_processor@_WV?$string_output_adapter@_W@__crt_stdio_output@@V?$standard_base@_WV?$string_output_adapter@_W@__crt_stdio_output@@@2@@__crt_stdio_output@@AEAA_N_W@Z 000000018002410c f i libucrt:output.obj
 0001:000231fc       ?write_string@?$stream_output_adapter@_W@__crt_stdio_output@@QEBAXQEB_WHQEAH1@Z 00000001800241fc f i libucrt:output.obj
 0001:00023308       ?write_string@?$string_output_adapter@D@__crt_stdio_output@@QEBAXQEBDHQEAH1@Z 0000000180024308 f i libucrt:output.obj
 0001:000233c4       ?write_string@?$string_output_adapter@_W@__crt_stdio_output@@QEBAXQEB_WHQEAH1@Z 00000001800243c4 f i libucrt:output.obj
 0001:00023484       __stdio_common_vfwprintf   0000000180024484 f   libucrt:output.obj
 0001:00023510       __stdio_common_vsprintf    0000000180024510 f   libucrt:output.obj
 0001:00023744       __stdio_common_vswprintf   0000000180024744 f   libucrt:output.obj
 0001:0002397c       calloc                     000000018002497c f   libucrt:calloc.obj
 0001:000239a0       strcmp                     00000001800249a0 f   libucrt:strcmp.obj
 0001:00023a08       __acrt_initialize_new_handler 0000000180024a08 f   libucrt:new_handler.obj
 0001:00023a10       _callnewh                  0000000180024a10 f   libucrt:new_handler.obj
 0001:00023a50       _query_new_handler         0000000180024a50 f   libucrt:new_handler.obj
 0001:00023a84       _initterm                  0000000180024a84 f   libucrt:initterm.obj
 0001:00023afc       _initterm_e                0000000180024afc f   libucrt:initterm.obj
 0001:00023b48       _seh_filter_dll            0000000180024b48 f   libucrt:exception_filter.obj
 0001:00023b5c       _seh_filter_exe            0000000180024b5c f   libucrt:exception_filter.obj
 0001:00023f1c       __acrt_initialize_thread_local_exit_callback 0000000180024f1c f   libucrt:exit.obj
 0001:00023f24       _cexit                     0000000180024f24 f   libucrt:exit.obj
 0001:00023f34       _exit                      0000000180024f34 f   libucrt:exit.obj
 0001:00023f40       _is_c_termination_complete 0000000180024f40 f   libucrt:exit.obj
 0001:00024104       __acrt_allocate_buffer_for_argv 0000000180025104 f   libucrt:argv_parsing.obj
 0001:00024168       _configure_narrow_argv     0000000180025168 f   libucrt:argv_parsing.obj
 0001:000244c4       __dcrt_uninitialize_environments_nolock 00000001800254c4 f   libucrt:environment_initialization.obj
 0001:000244fc       _initialize_narrow_environment 00000001800254fc f   libucrt:environment_initialization.obj
 0001:00024504       ??$?RV<lambda_b8c45f8f788dd370798f47cfe8ac3a86>@@AEAV<lambda_4e60a939b0d047cfe11ddc22648dfba9>@@V<lambda_332c3edc96d0294ec56c57d38c1cdfd5>@@@?$__crt_seh_guarded_call@H@@QEAAH$$QEAV<lambda_b8c45f8f788dd370798f47cfe8ac3a86>@@AEAV<lambda_4e60a939b0d047cfe11ddc22648dfba9>@@$$QEAV<lambda_332c3edc96d0294ec56c57d38c1cdfd5>@@@Z 0000000180025504 f i libucrt:onexit.obj
 0001:00024540       ??$?RV<lambda_e24bbb7b643b32fcea6fa61b31d4c984>@@AEAV<lambda_275893d493268fdec8709772e3fcec0e>@@V<lambda_9d71df4d7cf3f480f8d633942495c3b0>@@@?$__crt_seh_guarded_call@H@@QEAAH$$QEAV<lambda_e24bbb7b643b32fcea6fa61b31d4c984>@@AEAV<lambda_275893d493268fdec8709772e3fcec0e>@@$$QEAV<lambda_9d71df4d7cf3f480f8d633942495c3b0>@@@Z 0000000180025540 f i libucrt:onexit.obj
 0001:000248bc       _crt_atexit                00000001800258bc f   libucrt:onexit.obj
 0001:000248cc       _execute_onexit_table      00000001800258cc f   libucrt:onexit.obj
 0001:00024908       _initialize_onexit_table   0000000180025908 f   libucrt:onexit.obj
 0001:00024948       _register_onexit_function  0000000180025948 f   libucrt:onexit.obj
 0001:000249c8       __acrt_uninitialize_command_line 00000001800259c8 f   libucrt:argv_data.obj
 0001:00024ac8       __acrt_initialize          0000000180025ac8 f   libucrt:initialization.obj
 0001:00024adc       __acrt_thread_attach       0000000180025adc f   libucrt:initialization.obj
 0001:00024af0       __acrt_thread_detach       0000000180025af0 f   libucrt:initialization.obj
 0001:00024b00       __acrt_uninitialize        0000000180025b00 f   libucrt:initialization.obj
 0001:00024b14       __acrt_uninitialize_critical 0000000180025b14 f   libucrt:initialization.obj
 0001:00024b24       terminate                  0000000180025b24 f   libucrt:terminate.obj
 0001:00024b4c       abort                      0000000180025b4c f   libucrt:abort.obj
 0001:00024ba4       strcpy_s                   0000000180025ba4 f   libucrt:strcpy_s.obj
 0001:00024c04       _free_base                 0000000180025c04 f   libucrt:free_base.obj
 0001:00024c44       _malloc_base               0000000180025c44 f   libucrt:malloc_base.obj
 0001:00024ca4       _calloc_base               0000000180025ca4 f   libucrt:calloc_base.obj
 0001:00024d1c       ??$is_overflow_condition@K@__crt_strtox@@YA_NIK@Z 0000000180025d1c f i libucrt:atox.obj
 0001:00024d48       ??$parse_integer@KV?$c_string_character_source@D@__crt_strtox@@@__crt_strtox@@YAKQEAU__crt_locale_pointers@@V?$c_string_character_source@D@0@H_N@Z 0000000180025d48 f i libucrt:atox.obj
 0001:0002505c       ??$parse_integer@KV?$c_string_character_source@_W@__crt_strtox@@@__crt_strtox@@YAKQEAU__crt_locale_pointers@@V?$c_string_character_source@_W@0@H_N@Z 000000018002605c f i libucrt:atox.obj
 0001:00025730       ??$?RV<lambda_46352004c1216016012b18bd6f87e700>@@AEAV<lambda_3bd07e1a1191394380780325891bf33f>@@V<lambda_334532d3f185bcaa59b5be82d7d22bff>@@@?$__crt_seh_guarded_call@X@@QEAAX$$QEAV<lambda_46352004c1216016012b18bd6f87e700>@@AEAV<lambda_3bd07e1a1191394380780325891bf33f>@@$$QEAV<lambda_334532d3f185bcaa59b5be82d7d22bff>@@@Z 0000000180026730 f i libucrt:per_thread_data.obj
 0001:00025790       ??$?RV<lambda_5e887d1dcbef67a5eb4283622ba103bf>@@AEAV<lambda_4466841279450cc726390878d4a41900>@@V<lambda_341c25c0346d94847f1f3c463c57e077>@@@?$__crt_seh_guarded_call@X@@QEAAX$$QEAV<lambda_5e887d1dcbef67a5eb4283622ba103bf>@@AEAV<lambda_4466841279450cc726390878d4a41900>@@$$QEAV<lambda_341c25c0346d94847f1f3c463c57e077>@@@Z 0000000180026790 f i libucrt:per_thread_data.obj
 0001:000257d8       ??$?RV<lambda_72d1df2b273a38828b1ce30cbf4cdab5>@@AEAV<lambda_876a65b173b8412d3a47c70a915b0cf4>@@V<lambda_41932305e351933ebe8f8be3ed8bb5dc>@@@?$__crt_seh_guarded_call@X@@QEAAX$$QEAV<lambda_72d1df2b273a38828b1ce30cbf4cdab5>@@AEAV<lambda_876a65b173b8412d3a47c70a915b0cf4>@@$$QEAV<lambda_41932305e351933ebe8f8be3ed8bb5dc>@@@Z 00000001800267d8 f i libucrt:per_thread_data.obj
 0001:00025818       ??$?RV<lambda_fb3a7dec4e47f37f22dae91bb15c9095>@@AEAV<lambda_698284760c8add0bfb0756c19673e34b>@@V<lambda_dfb8eca1e75fef3034a8fb18dd509707>@@@?$__crt_seh_guarded_call@X@@QEAAX$$QEAV<lambda_fb3a7dec4e47f37f22dae91bb15c9095>@@AEAV<lambda_698284760c8add0bfb0756c19673e34b>@@$$QEAV<lambda_dfb8eca1e75fef3034a8fb18dd509707>@@@Z 0000000180026818 f i libucrt:per_thread_data.obj
 0001:00025aa8       __acrt_freeptd             0000000180026aa8 f   libucrt:per_thread_data.obj
 0001:00025aec       __acrt_getptd              0000000180026aec f   libucrt:per_thread_data.obj
 0001:00025b80       __acrt_getptd_noexit       0000000180026b80 f   libucrt:per_thread_data.obj
 0001:00025c20       __acrt_initialize_ptd      0000000180026c20 f   libucrt:per_thread_data.obj
 0001:00025c5c       __acrt_uninitialize_ptd    0000000180026c5c f   libucrt:per_thread_data.obj
 0001:00025c80       _query_app_type            0000000180026c80 f   libucrt:report_runtime_error.obj
 0001:00025c88       __acrt_errno_from_os_error 0000000180026c88 f   libucrt:errno.obj
 0001:00025cd0       __acrt_errno_map_os_error  0000000180026cd0 f   libucrt:errno.obj
 0001:00025d20       __doserrno                 0000000180026d20 f   libucrt:errno.obj
 0001:00025d40       _errno                     0000000180026d40 f   libucrt:errno.obj
 0001:00025e88       _itow_s                    0000000180026e88 f   libucrt:xtoa.obj
 0001:00025ea8       _set_error_mode            0000000180026ea8 f   libucrt:set_error_mode.obj
 0001:00025ee8       wcscat_s                   0000000180026ee8 f   libucrt:wcscat_s.obj
 0001:00025f68       wcscpy_s                   0000000180026f68 f   libucrt:wcscpy_s.obj
 0001:00025fd0       wcsncat_s                  0000000180026fd0 f   libucrt:wcsncat_s.obj
 0001:000260f8       __acrt_show_wide_message_box 00000001800270f8 f   libucrt:crtmbox.obj
 0001:00026214       __acrt_initialize_stdio    0000000180027214 f   libucrt:_file.obj
 0001:00026334       __acrt_iob_func            0000000180027334 f   libucrt:_file.obj
 0001:00026348       __acrt_uninitialize_stdio  0000000180027348 f   libucrt:_file.obj
 0001:000263a4       _lock_file                 00000001800273a4 f   libucrt:_file.obj
 0001:000263b0       _unlock_file               00000001800273b0 f   libucrt:_file.obj
 0001:000263bc       __acrt_stdio_flush_nolock  00000001800273bc f   libucrt:fflush.obj
 0001:00026434       _fflush_nolock             0000000180027434 f   libucrt:fflush.obj
 0001:00026480       _flushall                  0000000180027480 f   libucrt:fflush.obj
 0001:00026570       fflush                     0000000180027570 f   libucrt:fflush.obj
 0001:000265b4       ??$?RV<lambda_7a5ef57ff966f610505f1d28a3d40618>@@AEAV<lambda_b721fa326cdb32351d23dfa67958c160>@@V<lambda_5e0fb27672408a07956fe59e48ccb2aa>@@@?$__crt_seh_guarded_call@H@@QEAAH$$QEAV<lambda_7a5ef57ff966f610505f1d28a3d40618>@@AEAV<lambda_b721fa326cdb32351d23dfa67958c160>@@$$QEAV<lambda_5e0fb27672408a07956fe59e48ccb2aa>@@@Z 00000001800275b4 f i libucrt:setvbuf.obj
 0001:000266e4       setvbuf                    00000001800276e4 f   libucrt:setvbuf.obj
 0001:00026784       ??$?RV<lambda_c36588078e9f5dfd39652860aa6b3aaf>@@AEAV<lambda_ec61778202f4f5fc7e7711acc23c3bca>@@V<lambda_dc9d2797ccde5d239b4a0efae8ebd7db>@@@?$__crt_seh_guarded_call@P6AXH@Z@@QEAAP6AXH@Z$$QEAV<lambda_c36588078e9f5dfd39652860aa6b3aaf>@@AEAV<lambda_ec61778202f4f5fc7e7711acc23c3bca>@@$$QEAV<lambda_dc9d2797ccde5d239b4a0efae8ebd7db>@@@Z 0000000180027784 f i libucrt:signal.obj
 0001:000267cc       __acrt_get_sigabrt_handler 00000001800277cc f   libucrt:signal.obj
 0001:000267fc       __acrt_initialize_signal_handlers 00000001800277fc f   libucrt:signal.obj
 0001:0002681c       raise                      000000018002781c f   libucrt:signal.obj
 0001:00026b08       _tolower_l                 0000000180027b08 f   libucrt:tolower_toupper.obj
 0001:00026c48       tolower                    0000000180027c48 f   libucrt:tolower_toupper.obj
 0001:00026c74       __acrt_update_locale_info  0000000180027c74 f   libucrt:locale_update.obj
 0001:00026ca8       __acrt_update_multibyte_info 0000000180027ca8 f   libucrt:locale_update.obj
 0001:00026cdc       __acrt_set_locale_changed  0000000180027cdc f   libucrt:wsetlocale.obj
 0001:00026ce8       __acrt_uninitialize_locale 0000000180027ce8 f   libucrt:wsetlocale.obj
 0001:00026d30       _realloc_base              0000000180027d30 f   libucrt:realloc_base.obj
 0001:00026db4       isdigit                    0000000180027db4 f i libucrt:_ctype.obj
 0001:00026e28       ??$make_c_string_character_source@_WPEAPEA_W@__crt_strtox@@YA?AV?$c_string_character_source@_W@0@QEB_WQEAPEA_W@Z 0000000180027e28 f i libucrt:strtox.obj
 0001:00026e28       ??$make_c_string_character_source@DPEAPEAD@__crt_strtox@@YA?AV?$c_string_character_source@D@0@QEBDQEAPEAD@Z 0000000180027e28 f i libucrt:strtox.obj
 0001:00026e3c       strtol                     0000000180027e3c f   libucrt:strtox.obj
 0001:00026e6c       wcstol                     0000000180027e6c f   libucrt:strtox.obj
 0001:00026e9c       _mbtowc_l                  0000000180027e9c f   libucrt:mbtowc.obj
 0001:00026fe4       mbtowc                     0000000180027fe4 f   libucrt:mbtowc.obj
 0001:00026fec       _wctomb_s_l                0000000180027fec f   libucrt:wctomb.obj
 0001:00027170       wctomb_s                   0000000180028170 f   libucrt:wctomb.obj
 0001:00027184       strnlen                    0000000180028184 f   libucrt:strnlen.obj
 0001:000272e0       wcsnlen                    00000001800282e0 f   libucrt:strnlen.obj
 0001:000274d0       ?__acrt_fp_classify@@YA?AW4__acrt_fp_class@@AEBN@Z 00000001800284d0 f i libucrt:cvt.obj
 0001:00027f08       __acrt_fp_format           0000000180028f08 f   libucrt:cvt.obj
 0001:0002814c       _fputwc_nolock             000000018002914c f   libucrt:fputwc.obj
 0001:000282c8       _fileno                    00000001800292c8 f   libucrt:fileno.obj
 0001:000282f0       _fputc_nolock              00000001800292f0 f   libucrt:fputc.obj
 0001:00028308       _get_printf_count_output   0000000180029308 f   libucrt:printf_count_output.obj
 0001:00028320       __acrt_stdio_begin_temporary_buffering_nolock 0000000180029320 f   libucrt:_sftbuf.obj
 0001:000283f0       __acrt_stdio_end_temporary_buffering_nolock 00000001800293f0 f   libucrt:_sftbuf.obj
 0001:00028614       __acrt_initialize_lowio    0000000180029614 f   libucrt:ioinit.obj
 0001:00028650       __acrt_uninitialize_lowio  0000000180029650 f   libucrt:ioinit.obj
 0001:00028690       __acrt_initialize_locks    0000000180029690 f   libucrt:locks.obj
 0001:000286d8       __acrt_lock                00000001800296d8 f   libucrt:locks.obj
 0001:000286f4       __acrt_uninitialize_locks  00000001800296f4 f   libucrt:locks.obj
 0001:0002872c       __acrt_unlock              000000018002972c f   libucrt:locks.obj
 0001:000288e8       __acrt_FlsAlloc            00000001800298e8 f   libucrt:winapi_thunks.obj
 0001:00028940       __acrt_FlsFree             0000000180029940 f   libucrt:winapi_thunks.obj
 0001:00028998       __acrt_FlsGetValue         0000000180029998 f   libucrt:winapi_thunks.obj
 0001:000289f0       __acrt_FlsSetValue         00000001800299f0 f   libucrt:winapi_thunks.obj
 0001:00028a58       __acrt_InitializeCriticalSectionEx 0000000180029a58 f   libucrt:winapi_thunks.obj
 0001:00028ad0       __acrt_LCMapStringEx       0000000180029ad0 f   libucrt:winapi_thunks.obj
 0001:00028bc0       __acrt_LocaleNameToLCID    0000000180029bc0 f   libucrt:winapi_thunks.obj
 0001:00028c28       __acrt_MessageBoxW         0000000180029c28 f   libucrt:winapi_thunks.obj
 0001:00028cb0       __acrt_can_show_message_box 0000000180029cb0 f   libucrt:winapi_thunks.obj
 0001:00028d0c       __acrt_get_parent_window   0000000180029d0c f   libucrt:winapi_thunks.obj
 0001:00028d9c       __acrt_initialize_winapi_thunks 0000000180029d9c f   libucrt:winapi_thunks.obj
 0001:00028dd4       __acrt_is_interactive      0000000180029dd4 f   libucrt:winapi_thunks.obj
 0001:00028ea8       __acrt_is_packaged_app     0000000180029ea8 f   libucrt:winapi_thunks.obj
 0001:00028f30       __acrt_uninitialize_winapi_thunks 0000000180029f30 f   libucrt:winapi_thunks.obj
 0001:00029450       ?expand_if_necessary@?$argument_list@D@?A0xca0879c4@@AEAAHXZ 000000018002a450 f i libucrt:argv_wildcards.obj
 0001:00029518       __acrt_expand_narrow_argv_wildcards 000000018002a518 f   libucrt:argv_wildcards.obj
 0001:00029520       ??$?RV<lambda_99476a1ad63dd22509b5d3e65b0ffc95>@@AEAV<lambda_ad1ced32f4ac17aa236e5ef05d6b3b7c>@@V<lambda_f7424dd8d45958661754dc4f2697e9c3>@@@?$__crt_seh_guarded_call@X@@QEAAX$$QEAV<lambda_99476a1ad63dd22509b5d3e65b0ffc95>@@AEAV<lambda_ad1ced32f4ac17aa236e5ef05d6b3b7c>@@$$QEAV<lambda_f7424dd8d45958661754dc4f2697e9c3>@@@Z 000000018002a520 f i libucrt:mbctype.obj
 0001:00029c1c       __acrt_initialize_multibyte 000000018002ac1c f   libucrt:mbctype.obj
 0001:00029c44       __acrt_update_thread_multibyte_data 000000018002ac44 f   libucrt:mbctype.obj
 0001:00029d04       _setmbcp_nolock            000000018002ad04 f   libucrt:mbctype.obj
 0001:0002a024       _ismbblead                 000000018002b024 f   libucrt:ismbbyte.obj
 0001:0002a038       __acrt_initialize_command_line 000000018002b038 f   libucrt:argv_data.obj
 0001:0002a060       __dcrt_get_narrow_environment_from_os 000000018002b060 f   libucrt:get_environment_from_os.obj
 0001:0002a164       _recalloc                  000000018002b164 f   libucrt:recalloc.obj
 0001:0002a16c       _recalloc_base             000000018002b16c f   libucrt:recalloc.obj
 0001:0002a204       __acrt_initialize_heap     000000018002b204 f   libucrt:heap_handle.obj
 0001:0002a220       __acrt_uninitialize_heap   000000018002b220 f   libucrt:heap_handle.obj
 0001:0002a22c       __acrt_execute_initializers 000000018002b22c f   libucrt:shared_initialization.obj
 0001:0002a2c0       __acrt_execute_uninitializers 000000018002b2c0 f   libucrt:shared_initialization.obj
 0001:0002a310       __acrt_has_user_matherr    000000018002b310 f   libucrt:matherr.obj
 0001:0002a330       __acrt_initialize_user_matherr 000000018002b330 f   libucrt:matherr.obj
 0001:0002a338       __acrt_invoke_user_matherr 000000018002b338 f   libucrt:matherr.obj
 0001:0002a380       _query_new_mode            000000018002b380 f   libucrt:new_mode.obj
 0001:0002a388       __pctype_func              000000018002b388 f   libucrt:ctype.obj
 0001:0002a3b8       iswctype                   000000018002b3b8 f   libucrt:iswctype.obj
 0001:0002a428       _isctype_l                 000000018002b428 f   libucrt:isctype.obj
 0001:0002a538       __acrt_add_locale_ref      000000018002b538 f   libucrt:locale_refcounting.obj
 0001:0002a5c4       __acrt_free_locale         000000018002b5c4 f   libucrt:locale_refcounting.obj
 0001:0002a73c       __acrt_locale_add_lc_time_reference 000000018002b73c f   libucrt:locale_refcounting.obj
 0001:0002a764       __acrt_locale_free_lc_time_if_unreferenced 000000018002b764 f   libucrt:locale_refcounting.obj
 0001:0002a79c       __acrt_locale_release_lc_time_reference 000000018002b79c f   libucrt:locale_refcounting.obj
 0001:0002a7c4       __acrt_release_locale_ref  000000018002b7c4 f   libucrt:locale_refcounting.obj
 0001:0002a86c       __acrt_update_thread_locale_data 000000018002b86c f   libucrt:locale_refcounting.obj
 0001:0002a8dc       _updatetlocinfoEx_nolock   000000018002b8dc f   libucrt:locale_refcounting.obj
 0001:0002a944       _fcloseall                 000000018002b944 f   libucrt:closeall.obj
 0001:0002a9f8       __acrt_stdio_free_buffer_nolock 000000018002b9f8 f   libucrt:_freebuf.obj
 0001:0002aa38       ??$?RV<lambda_b521505b218e5242e90febf6bfebc422>@@AEAV<lambda_6978c1fb23f02e42e1d9e99668cc68aa>@@V<lambda_314360699dd331753a4119843814e9a7>@@@?$__crt_seh_guarded_call@H@@QEAAH$$QEAV<lambda_b521505b218e5242e90febf6bfebc422>@@AEAV<lambda_6978c1fb23f02e42e1d9e99668cc68aa>@@$$QEAV<lambda_314360699dd331753a4119843814e9a7>@@@Z 000000018002ba38 f i libucrt:commit.obj
 0001:0002aac4       _commit                    000000018002bac4 f   libucrt:commit.obj
 0001:0002b0f8       _write                     000000018002c0f8 f   libucrt:write.obj
 0001:0002b1e4       _write_nolock              000000018002c1e4 f   libucrt:write.obj
 0001:0002b4c8       _isleadbyte_l              000000018002c4c8 f i libucrt:_wctype.obj
 0001:0002b864       __acrt_LCMapStringA        000000018002c864 f   libucrt:lcmapstringa.obj
 0001:0002b8fc       __acrt_locale_free_monetary 000000018002c8fc f   libucrt:initmon.obj
 0001:0002ba08       __acrt_locale_free_numeric 000000018002ca08 f   libucrt:initnum.obj
 0001:0002bacc       __acrt_locale_free_time    000000018002cacc f   libucrt:inittime.obj
 0001:0002bbd4       __acrt_GetStringTypeA      000000018002cbd4 f   libucrt:getstringtypea.obj
 0001:0002bd88       __acrt_fp_strflt_to_string 000000018002cd88 f   libucrt:_fptostr.obj
 0001:0002be50       ?divide@__crt_strtox@@YA_KAEAUbig_integer@1@AEBU21@@Z 000000018002ce50 f i libucrt:cfout.obj
 0001:0002c320       __acrt_fltout              000000018002d320 f   libucrt:cfout.obj
 0001:0002d924       __acrt_stdio_flush_and_write_narrow_nolock 000000018002e924 f   libucrt:_flsbuf.obj
 0001:0002da0c       __acrt_stdio_flush_and_write_wide_nolock 000000018002ea0c f   libucrt:_flsbuf.obj
 0001:0002daf8       _isatty                    000000018002eaf8 f   libucrt:isatty.obj
 0001:0002db58       __acrt_lowio_create_handle_array 000000018002eb58 f   libucrt:osfinfo.obj
 0001:0002dbf0       __acrt_lowio_destroy_handle_array 000000018002ebf0 f   libucrt:osfinfo.obj
 0001:0002dc40       __acrt_lowio_ensure_fh_exists 000000018002ec40 f   libucrt:osfinfo.obj
 0001:0002dcf8       __acrt_lowio_lock_fh       000000018002ecf8 f   libucrt:osfinfo.obj
 0001:0002dd1c       __acrt_lowio_unlock_fh     000000018002ed1c f   libucrt:osfinfo.obj
 0001:0002dd40       _free_osfhnd               000000018002ed40 f   libucrt:osfinfo.obj
 0001:0002ddfc       _get_osfhandle             000000018002edfc f   libucrt:osfinfo.obj
 0001:0002df3c       __acrt_DownlevelLocaleNameToLCID 000000018002ef3c f   libucrt:lcidtoname_downlevel.obj
 0001:0002e040       qsort                      000000018002f040 f   libucrt:qsort.obj
 0001:0002e374       strncpy_s                  000000018002f374 f   libucrt:strncpy_s.obj
 0001:0002e448       strpbrk                    000000018002f448 f   libucrt:strpbrk.obj
 0001:0002e4e8       _mbsdec                    000000018002f4e8 f   libucrt:mbsdec.obj
 0001:0002e4f0       _mbsdec_l                  000000018002f4f0 f   libucrt:mbsdec.obj
 0001:0002e5a0       _msize                     000000018002f5a0 f   libucrt:msize.obj
 0001:0002e5dc       _fclose_nolock             000000018002f5dc f   libucrt:fclose.obj
 0001:0002e660       fclose                     000000018002f660 f   libucrt:fclose.obj
 0001:0002e858       _lseeki64                  000000018002f858 f   libucrt:lseek.obj
 0001:0002e860       _lseeki64_nolock           000000018002f860 f   libucrt:lseek.obj
 0001:0002e868       _putwch_nolock             000000018002f868 f   libucrt:putwch.obj
 0001:0002e8c4       __strncnt                  000000018002f8c4 f   libucrt:strncnt.obj
 0001:0002e8dc       fegetenv                   000000018002f8dc f   libucrt:fegetenv.obj
 0001:0002e8fc       fesetenv                   000000018002f8fc f   libucrt:fesetenv.obj
 0001:0002e948       feholdexcept               000000018002f948 f   libucrt:feholdexcept.obj
 0001:0002e998       ceil                       000000018002f998 f   libucrt:ceil.obj
 0001:0002ea60       log10                      000000018002fa60 f   libucrt:log10.obj
 0001:0002f00c       __acrt_stdio_allocate_buffer_nolock 000000018003000c f   libucrt:_getbuf.obj
 0001:0002f070       ??$?RV<lambda_bfedae4ebbf01fab1bb6dcc6a9e276e0>@@AEAV<lambda_2fe9b910cf3cbf4a0ab98a02ba45b3ec>@@V<lambda_237c231691f317818eb88cc1d5d642d6>@@@?$__crt_seh_guarded_call@H@@QEAAH$$QEAV<lambda_bfedae4ebbf01fab1bb6dcc6a9e276e0>@@AEAV<lambda_2fe9b910cf3cbf4a0ab98a02ba45b3ec>@@$$QEAV<lambda_237c231691f317818eb88cc1d5d642d6>@@@Z 0000000180030070 f i libucrt:close.obj
 0001:0002f0e4       _close                     00000001800300e4 f   libucrt:close.obj
 0001:0002f188       _close_nolock              0000000180030188 f   libucrt:close.obj
 0001:0002f244       ?__acrt_stdio_free_stream@@YAXV__crt_stdio_stream@@@Z 0000000180030244 f   libucrt:stream.obj
 0001:0002f288       __dcrt_lowio_initialize_console_output 0000000180030288 f   libucrt:initcon.obj
 0001:0002f2c4       __dcrt_terminate_console_output 00000001800302c4 f   libucrt:initcon.obj
 0001:0002f2e4       _getfpcontrolword          00000001800302e4 f   libucrt:_fenvutils.obj
 0001:0002f2fc       _getfpstatusword           00000001800302fc f   libucrt:_fenvutils.obj
 0001:0002f310       _setfpcontrolword          0000000180030310 f   libucrt:_fenvutils.obj
 0001:0002f31c       _setfpstatusword           000000018003031c f   libucrt:_fenvutils.obj
 0001:0002f36c       _clearfp                   000000018003036c f   libucrt:ieee.obj
 0001:0002f3c0       _controlfp                 00000001800303c0 f   libucrt:ieee.obj
 0001:0002f3cc       _statusfp                  00000001800303cc f   libucrt:ieee.obj
 0001:0002f7d0       _handle_error              00000001800307d0 f   libucrt:libm_error.obj
 0001:0002f8f8       _handle_nan                00000001800308f8 f   libucrt:libm_error.obj
 0001:0002f920       __acrt_initialize_fma3     0000000180030920 f   libucrt:fma3_available.obj
 0001:0002f990       _log10_special             0000000180030990 f   libucrt:log_special.obj
 0001:0002fa60       _get_fpsr                  0000000180030a60 f   libucrt:fpsr.obj
 0001:0002fa70       _set_fpsr                  0000000180030a70 f   libucrt:fpsr.obj
 0001:0002fa7a       _fclrf                     0000000180030a7a f   libucrt:fpsr.obj
 0001:0002fa8e       _frnd                      0000000180030a8e f   libucrt:fpsr.obj
 0001:0002fab0       _raise_exc                 0000000180030ab0 f   libucrt:fpexcept.obj
 0001:0002fad8       _raise_exc_ex              0000000180030ad8 f   libucrt:fpexcept.obj
 0001:0002fde0       _set_errno_from_matherr    0000000180030de0 f   libucrt:fpexcept.obj
 0001:0002fe10       _clrfp                     0000000180030e10 f   libucrt:fpctrl.obj
 0001:0002fe30       _ctrlfp                    0000000180030e30 f   libucrt:fpctrl.obj
 0001:0002feac       _set_statfp                0000000180030eac f   libucrt:fpctrl.obj
 0001:0002fecc       _statfp                    0000000180030ecc f   libucrt:fpctrl.obj
 0001:0002fede       IsProcessorFeaturePresent  0000000180030ede f   kernel32:KERNEL32.dll
 0001:0002fee4       RtlUnwindEx                0000000180030ee4 f   kernel32:KERNEL32.dll
 0001:0002feec       ?DloadAcquireSectionWriteAccess@@YAXXZ 0000000180030eec f i DelayImp:delayhlp.obj
 0001:0002ffa8       ?DloadGetSRWLockFunctionPointers@@YAEXZ 0000000180030fa8 f i DelayImp:delayhlp.obj
 0001:00030044       ?DloadMakePermanentImageCommit@@YAXPEAX_K@Z 0000000180031044 f i DelayImp:delayhlp.obj
 0001:000300dc       ?DloadObtainSection@@YAPEAXPEAK0@Z 00000001800310dc f i DelayImp:delayhlp.obj
 0001:00030174       ?DloadProtectSection@@YAXKPEAK@Z 0000000180031174 f i DelayImp:delayhlp.obj
 0001:00030204       ?DloadReleaseSectionWriteAccess@@YAXXZ 0000000180031204 f i DelayImp:delayhlp.obj
 0001:000302a8       __delayLoadHelper2         00000001800312a8 f   DelayImp:delayhlp.obj
 0001:000305b0       _FindPESection             00000001800315b0 f   LIBCMT:pesect.obj
 0001:00030600       _IsNonwritableInCurrentImage 0000000180031600 f   LIBCMT:pesect.obj
 0001:00030650       _ValidateImageBase         0000000180031650 f   LIBCMT:pesect.obj
 0001:00030680       __GSHandlerCheck           0000000180031680 f   LIBCMT:_gshandler_.obj
 0001:000306a0       __GSHandlerCheckCommon     00000001800316a0 f   LIBCMT:_gshandler_.obj
 0001:00030710       _alloca_probe              0000000180031710 f   LIBCMT:_chkstk_.obj
 0001:00030710       __chkstk                   0000000180031710 f   LIBCMT:_chkstk_.obj
 0001:00030780       memcmp                     0000000180031780 f   libvcruntime:memcmp.obj
 0001:00030848       strrchr                    0000000180031848 f   libvcruntime:strrchr.obj
 0001:00030988       __GSHandlerCheck_EH        0000000180031988 f   LIBCMT:gshandlereh.obj
 0001:00030a20       _guard_dispatch_icall_nop  0000000180031a20 f   LIBCMT:_guard_dispatch_.obj
 0002:00000000       __imp_GetModuleHandleA     0000000180033000     kernel32:KERNEL32.dll
 0002:00000008       __imp_RtlCaptureContext    0000000180033008     kernel32:KERNEL32.dll
 0002:00000010       __imp_RtlLookupFunctionEntry 0000000180033010     kernel32:KERNEL32.dll
 0002:00000018       __imp_RtlVirtualUnwind     0000000180033018     kernel32:KERNEL32.dll
 0002:00000020       __imp_UnhandledExceptionFilter 0000000180033020     kernel32:KERNEL32.dll
 0002:00000028       __imp_SetUnhandledExceptionFilter 0000000180033028     kernel32:KERNEL32.dll
 0002:00000030       __imp_GetCurrentProcess    0000000180033030     kernel32:KERNEL32.dll
 0002:00000038       __imp_TerminateProcess     0000000180033038     kernel32:KERNEL32.dll
 0002:00000040       __imp_IsProcessorFeaturePresent 0000000180033040     kernel32:KERNEL32.dll
 0002:00000048       __imp_QueryPerformanceCounter 0000000180033048     kernel32:KERNEL32.dll
 0002:00000050       __imp_GetCurrentProcessId  0000000180033050     kernel32:KERNEL32.dll
 0002:00000058       __imp_GetCurrentThreadId   0000000180033058     kernel32:KERNEL32.dll
 0002:00000060       __imp_GetSystemTimeAsFileTime 0000000180033060     kernel32:KERNEL32.dll
 0002:00000068       __imp_InitializeSListHead  0000000180033068     kernel32:KERNEL32.dll
 0002:00000070       __imp_IsDebuggerPresent    0000000180033070     kernel32:KERNEL32.dll
 0002:00000078       __imp_GetStartupInfoW      0000000180033078     kernel32:KERNEL32.dll
 0002:00000080       __imp_GetModuleHandleW     0000000180033080     kernel32:KERNEL32.dll
 0002:00000088       __imp_RtlPcToFileHeader    0000000180033088     kernel32:KERNEL32.dll
 0002:00000090       __imp_EncodePointer        0000000180033090     kernel32:KERNEL32.dll
 0002:00000098       __imp_RaiseException       0000000180033098     kernel32:KERNEL32.dll
 0002:000000a0       __imp_RtlUnwindEx          00000001800330a0     kernel32:KERNEL32.dll
 0002:000000a8       __imp_InterlockedFlushSList 00000001800330a8     kernel32:KERNEL32.dll
 0002:000000b0       __imp_GetLastError         00000001800330b0     kernel32:KERNEL32.dll
 0002:000000b8       __imp_SetLastError         00000001800330b8     kernel32:KERNEL32.dll
 0002:000000c0       __imp_EnterCriticalSection 00000001800330c0     kernel32:KERNEL32.dll
 0002:000000c8       __imp_LeaveCriticalSection 00000001800330c8     kernel32:KERNEL32.dll
 0002:000000d0       __imp_DeleteCriticalSection 00000001800330d0     kernel32:KERNEL32.dll
 0002:000000d8       __imp_InitializeCriticalSectionAndSpinCount 00000001800330d8     kernel32:KERNEL32.dll
 0002:000000e0       __imp_TlsAlloc             00000001800330e0     kernel32:KERNEL32.dll
 0002:000000e8       __imp_TlsGetValue          00000001800330e8     kernel32:KERNEL32.dll
 0002:000000f0       __imp_TlsSetValue          00000001800330f0     kernel32:KERNEL32.dll
 0002:000000f8       __imp_TlsFree              00000001800330f8     kernel32:KERNEL32.dll
 0002:00000100       __imp_FreeLibrary          0000000180033100     kernel32:KERNEL32.dll
 0002:00000108       __imp_GetProcAddress       0000000180033108     kernel32:KERNEL32.dll
 0002:00000110       __imp_LoadLibraryExW       0000000180033110     kernel32:KERNEL32.dll
 0002:00000118       __imp_GetStdHandle         0000000180033118     kernel32:KERNEL32.dll
 0002:00000120       __imp_GetFileType          0000000180033120     kernel32:KERNEL32.dll
 0002:00000128       __imp_GetModuleFileNameA   0000000180033128     kernel32:KERNEL32.dll
 0002:00000130       __imp_GetModuleFileNameW   0000000180033130     kernel32:KERNEL32.dll
 0002:00000138       __imp_GetModuleHandleExW   0000000180033138     kernel32:KERNEL32.dll
 0002:00000140       __imp_WriteConsoleW        0000000180033140     kernel32:KERNEL32.dll
 0002:00000148       __imp_ExitProcess          0000000180033148     kernel32:KERNEL32.dll
 0002:00000150       __imp_MultiByteToWideChar  0000000180033150     kernel32:KERNEL32.dll
 0002:00000158       __imp_WideCharToMultiByte  0000000180033158     kernel32:KERNEL32.dll
 0002:00000160       __imp_HeapFree             0000000180033160     kernel32:KERNEL32.dll
 0002:00000168       __imp_HeapAlloc            0000000180033168     kernel32:KERNEL32.dll
 0002:00000170       __imp_WriteFile            0000000180033170     kernel32:KERNEL32.dll
 0002:00000178       __imp_OutputDebugStringW   0000000180033178     kernel32:KERNEL32.dll
 0002:00000180       __imp_CloseHandle          0000000180033180     kernel32:KERNEL32.dll
 0002:00000188       __imp_WaitForSingleObjectEx 0000000180033188     kernel32:KERNEL32.dll
 0002:00000190       __imp_CreateThread         0000000180033190     kernel32:KERNEL32.dll
 0002:00000198       __imp_GetACP               0000000180033198     kernel32:KERNEL32.dll
 0002:000001a0       __imp_HeapReAlloc          00000001800331a0     kernel32:KERNEL32.dll
 0002:000001a8       __imp_LCMapStringW         00000001800331a8     kernel32:KERNEL32.dll
 0002:000001b0       __imp_FindClose            00000001800331b0     kernel32:KERNEL32.dll
 0002:000001b8       __imp_FindFirstFileExA     00000001800331b8     kernel32:KERNEL32.dll
 0002:000001c0       __imp_FindNextFileA        00000001800331c0     kernel32:KERNEL32.dll
 0002:000001c8       __imp_IsValidCodePage      00000001800331c8     kernel32:KERNEL32.dll
 0002:000001d0       __imp_GetOEMCP             00000001800331d0     kernel32:KERNEL32.dll
 0002:000001d8       __imp_GetCPInfo            00000001800331d8     kernel32:KERNEL32.dll
 0002:000001e0       __imp_GetCommandLineA      00000001800331e0     kernel32:KERNEL32.dll
 0002:000001e8       __imp_GetCommandLineW      00000001800331e8     kernel32:KERNEL32.dll
 0002:000001f0       __imp_GetEnvironmentStringsW 00000001800331f0     kernel32:KERNEL32.dll
 0002:000001f8       __imp_FreeEnvironmentStringsW 00000001800331f8     kernel32:KERNEL32.dll
 0002:00000200       __imp_GetProcessHeap       0000000180033200     kernel32:KERNEL32.dll
 0002:00000208       __imp_GetStringTypeW       0000000180033208     kernel32:KERNEL32.dll
 0002:00000210       __imp_FlushFileBuffers     0000000180033210     kernel32:KERNEL32.dll
 0002:00000218       __imp_GetConsoleCP         0000000180033218     kernel32:KERNEL32.dll
 0002:00000220       __imp_GetConsoleMode       0000000180033220     kernel32:KERNEL32.dll
 0002:00000228       __imp_SetStdHandle         0000000180033228     kernel32:KERNEL32.dll
 0002:00000230       __imp_HeapSize             0000000180033230     kernel32:KERNEL32.dll
 0002:00000238       __imp_SetFilePointerEx     0000000180033238     kernel32:KERNEL32.dll
 0002:00000240       __imp_CreateFileW          0000000180033240     kernel32:KERNEL32.dll
 0002:00000248       __imp_GetSystemInfo        0000000180033248     kernel32:KERNEL32.dll
 0002:00000250       __imp_VirtualProtect       0000000180033250     kernel32:KERNEL32.dll
 0002:00000258       __imp_VirtualQuery         0000000180033258     kernel32:KERNEL32.dll
 0002:00000260       __imp_LoadLibraryExA       0000000180033260     kernel32:KERNEL32.dll
 0002:00000268       \177KERNEL32_NULL_THUNK_DATA 0000000180033268     kernel32:KERNEL32.dll
 0002:00000270       __guard_check_icall_fptr   0000000180033270     LIBCMT:guard_support.obj
 0002:00000278       __guard_dispatch_icall_fptr 0000000180033278     LIBCMT:guard_support.obj
 0002:00000280       __xc_a                     0000000180033280     LIBCMT:initializers.obj
 0002:00000288       _register_onig_scanner_    0000000180033288     onig-scanner.obj
 0002:00000290       __xc_z                     0000000180033290     LIBCMT:initializers.obj
 0002:00000298       __xi_a                     0000000180033298     LIBCMT:initializers.obj
 0002:000002a0       __acrt_stdio_initializer   00000001800332a0     libucrt:stdio_initializer.obj
 0002:000002a8       __acrt_multibyte_initializer 00000001800332a8     libucrt:multibyte_initializer.obj
 0002:000002b0       __acrt_tran_fma3_initializer 00000001800332b0     libucrt:fma3_initializer.obj
 0002:000002b8       __xi_z                     00000001800332b8     LIBCMT:initializers.obj
 0002:000002c0       __xp_a                     00000001800332c0     LIBCMT:initializers.obj
 0002:000002c8       __acrt_locale_terminator   00000001800332c8     libucrt:locale_initializer.obj
 0002:000002d0       __dcrt_console_output_terminator 00000001800332d0     libucrt:console_output_initializer.obj
 0002:000002d8       __acrt_stdio_terminator    00000001800332d8     libucrt:stdio_initializer.obj
 0002:000002e0       __xp_z                     00000001800332e0     LIBCMT:initializers.obj
 0002:000002e8       __xt_a                     00000001800332e8     LIBCMT:initializers.obj
 0002:000002f0       __xt_z                     00000001800332f0     LIBCMT:initializers.obj
 0002:00000300       __sz_node_exe              0000000180033300     node:node.exe
 0002:00000318       ??_7exception@std@@6B@     0000000180033318     libcpmt:xthrow.obj
 0002:00000328       ??_C@_0BC@EOODALEL@Unknown?5exception?$AA@ 0000000180033328     libcpmt:xthrow.obj
 0002:00000348       ??_7bad_alloc@std@@6B@     0000000180033348     libcpmt:xthrow.obj
 0002:00000358       ??_C@_0P@GHFPNOJB@bad?5allocation?$AA@ 0000000180033358     libcpmt:xthrow.obj
 0002:00000370       ??_7logic_error@std@@6B@   0000000180033370     libcpmt:xthrow.obj
 0002:00000388       ??_7length_error@std@@6B@  0000000180033388     libcpmt:xthrow.obj
 0002:000003a0       ??_7out_of_range@std@@6B@  00000001800333a0     libcpmt:xthrow.obj
 0002:000003b0       _pRawDllMain               00000001800333b0     LIBCMT:dll_dllmain.obj
 0002:000003b0       _pDefaultRawDllMain        00000001800333b0     LIBCMT:dll_dllmain.obj
 0002:000003d0       ??_7type_info@@6B@         00000001800333d0     LIBCMT:std_type_info_static.obj
 0002:000003e0       ??_7bad_array_new_length@std@@6B@ 00000001800333e0     LIBCMT:throw_bad_alloc.obj
 0002:000003f0       ??_C@_0BF@KINCDENJ@bad?5array?5new?5length?$AA@ 00000001800333f0     LIBCMT:throw_bad_alloc.obj
 0002:00000408       _pDestructExceptionObject  0000000180033408     libvcruntime:frame.obj
 0002:00000418       ??_7bad_exception@std@@6B@ 0000000180033418     libvcruntime:frame.obj
 0002:00000428       ??_C@_0O@DPKOEFFH@bad?5exception?$AA@ 0000000180033428     libvcruntime:frame.obj
 0002:00000538       ??_C@_1BC@DNHGCMLG@?$AAa?$AAd?$AAv?$AAa?$AAp?$AAi?$AA3?$AA2?$AA?$AA@ 0000000180033538     libvcruntime:winapi_downlevel.obj
 0002:00000550       ??_C@_1DM@KHCHBNEB@?$AAa?$AAp?$AAi?$AA?9?$AAm?$AAs?$AA?9?$AAw?$AAi?$AAn?$AA?9?$AAc?$AAo?$AAr?$AAe?$AA?9?$AAf?$AAi?$AAb?$AAe?$AAr?$AAs?$AA?9?$AAl?$AA1?$AA?9?$AA1?$AA?9?$AA1?$AA?$AA@ 0000000180033550     libvcruntime:winapi_downlevel.obj
 0002:00000590       ??_C@_1DK@LPPGFMPP@?$AAa?$AAp?$AAi?$AA?9?$AAm?$AAs?$AA?9?$AAw?$AAi?$AAn?$AA?9?$AAc?$AAo?$AAr?$AAe?$AA?9?$AAs?$AAy?$AAn?$AAc?$AAh?$AA?9?$AAl?$AA1?$AA?9?$AA2?$AA?9?$AA0?$AA?$AA@ 0000000180033590     libvcruntime:winapi_downlevel.obj
 0002:000005d0       ??_C@_1BC@GDMECMAK@?$AAk?$AAe?$AAr?$AAn?$AAe?$AAl?$AA3?$AA2?$AA?$AA@ 00000001800335d0     libvcruntime:winapi_downlevel.obj
 0002:000005f0       ??_C@_08KNHFBNJ@FlsAlloc?$AA@ 00000001800335f0     libvcruntime:winapi_downlevel.obj
 0002:00000608       ??_C@_07PEJMOBNF@FlsFree?$AA@ 0000000180033608     libvcruntime:winapi_downlevel.obj
 0002:00000618       ??_C@_0M@GDNOONDI@FlsGetValue?$AA@ 0000000180033618     libvcruntime:winapi_downlevel.obj
 0002:00000630       ??_C@_0M@JCPCPOEF@FlsSetValue?$AA@ 0000000180033630     libvcruntime:winapi_downlevel.obj
 0002:00000648       ??_C@_0BM@HCFOFFN@InitializeCriticalSectionEx?$AA@ 0000000180033648     libvcruntime:winapi_downlevel.obj
 0002:00000990       ??_C@_08EHJDFFNH@__based?$CI?$AA@ 0000000180033990     libvcruntime:undname.obj
 0002:000009a0       ??_C@_07KOLFKCDI@__cdecl?$AA@ 00000001800339a0     libvcruntime:undname.obj
 0002:000009a8       ??_C@_08GHMPAG@__pascal?$AA@ 00000001800339a8     libvcruntime:undname.obj
 0002:000009b8       ??_C@_09IFJBGAPI@__stdcall?$AA@ 00000001800339b8     libvcruntime:undname.obj
 0002:000009c8       ??_C@_0L@NPHFGOKO@__thiscall?$AA@ 00000001800339c8     libvcruntime:undname.obj
 0002:000009d8       ??_C@_0L@JMKHOMEK@__fastcall?$AA@ 00000001800339d8     libvcruntime:undname.obj
 0002:000009e8       ??_C@_0N@BCKKPABJ@__vectorcall?$AA@ 00000001800339e8     libvcruntime:undname.obj
 0002:000009f8       ??_C@_09HIJEGCPM@__clrcall?$AA@ 00000001800339f8     libvcruntime:undname.obj
 0002:00000a04       ??_C@_06GHPCKEAG@__eabi?$AA@ 0000000180033a04     libvcruntime:undname.obj
 0002:00000a10       ??_C@_07JOMMBBKO@__ptr64?$AA@ 0000000180033a10     libvcruntime:undname.obj
 0002:00000a18       ??_C@_0L@PILCLIHE@__restrict?$AA@ 0000000180033a18     libvcruntime:undname.obj
 0002:00000a28       ??_C@_0M@GFIIJFMG@__unaligned?$AA@ 0000000180033a28     libvcruntime:undname.obj
 0002:00000a38       ??_C@_09DHDLOLLB@restrict?$CI?$AA@ 0000000180033a38     libvcruntime:undname.obj
 0002:00000a44       ??_C@_04NIHEBCM@?5new?$AA@ 0000000180033a44     libvcruntime:undname.obj
 0002:00000a50       ??_C@_07FPCDHGMM@?5delete?$AA@ 0000000180033a50     libvcruntime:undname.obj
 0002:00000a58       ??_C@_01NEMOKFLO@?$DN?$AA@ 0000000180033a58     libvcruntime:undname.obj
 0002:00000a5c       ??_C@_02GPIOPFAK@?$DO?$DO?$AA@ 0000000180033a5c     libvcruntime:undname.obj
 0002:00000a60       ??_C@_02FODMEDOG@?$DM?$DM?$AA@ 0000000180033a60     libvcruntime:undname.obj
 0002:00000a64       ??_C@_01DCLJPIOD@?$CB?$AA@ 0000000180033a64     libvcruntime:undname.obj
 0002:00000a68       ??_C@_02EGOFBIJA@?$DN?$DN?$AA@ 0000000180033a68     libvcruntime:undname.obj
 0002:00000a6c       ??_C@_02FDNJECIE@?$CB?$DN?$AA@ 0000000180033a6c     libvcruntime:undname.obj
 0002:00000a70       ??_C@_02GPECMEKF@?$FL?$FN?$AA@ 0000000180033a70     libvcruntime:undname.obj
 0002:00000a78       ??_C@_08LHJFAFGD@operator?$AA@ 0000000180033a78     libvcruntime:undname.obj
 0002:00000a84       ??_C@_02HBOOOICD@?9?$DO?$AA@ 0000000180033a84     libvcruntime:undname.obj
 0002:00000a88       ??_C@_02ECNGHCIF@?$CL?$CL?$AA@ 0000000180033a88     libvcruntime:undname.obj
 0002:00000a8c       ??_C@_02BAABKJLB@?9?9?$AA@ 0000000180033a8c     libvcruntime:undname.obj
 0002:00000a90       ??_C@_01HNPIGOCE@?$CG?$AA@ 0000000180033a90     libvcruntime:undname.obj
 0002:00000a94       ??_C@_03MNHNFDLC@?9?$DO?$CK?$AA@ 0000000180033a94     libvcruntime:undname.obj
 0002:00000a98       ??_C@_01KMDKNFGN@?1?$AA@   0000000180033a98     libvcruntime:undname.obj
 0002:00000a9c       ??_C@_01FGNFDNOH@?$CF?$AA@ 0000000180033a9c     libvcruntime:undname.obj
 0002:00000aa0       ??_C@_01MNNFJEPP@?$DM?$AA@ 0000000180033aa0     libvcruntime:undname.obj
 0002:00000aa4       ??_C@_02EHCHHCKH@?$DM?$DN?$AA@ 0000000180033aa4     libvcruntime:undname.obj
 0002:00000aa8       ??_C@_01PPODPGHN@?$DO?$AA@ 0000000180033aa8     libvcruntime:undname.obj
 0002:00000aac       ??_C@_02EEKDKGMJ@?$DO?$DN?$AA@ 0000000180033aac     libvcruntime:undname.obj
 0002:00000ab0       ??_C@_01IHBHIGKO@?0?$AA@   0000000180033ab0     libvcruntime:undname.obj
 0002:00000ab4       ??_C@_02HCKGKOFO@?$CI?$CJ?$AA@ 0000000180033ab4     libvcruntime:undname.obj
 0002:00000ab8       ??_C@_01PJKLJHI@?$HO?$AA@  0000000180033ab8     libvcruntime:undname.obj
 0002:00000abc       ??_C@_01JKBOJNNK@?$FO?$AA@ 0000000180033abc     libvcruntime:undname.obj
 0002:00000ac0       ??_C@_01DNKMNLPK@?$HM?$AA@ 0000000180033ac0     libvcruntime:undname.obj
 0002:00000ac4       ??_C@_02PPKAJPJL@?$CG?$CG?$AA@ 0000000180033ac4     libvcruntime:undname.obj
 0002:00000ac8       ??_C@_02NONPIBCD@?$HM?$HM?$AA@ 0000000180033ac8     libvcruntime:undname.obj
 0002:00000acc       ??_C@_02FPIMKNGF@?$CK?$DN?$AA@ 0000000180033acc     libvcruntime:undname.obj
 0002:00000ad0       ??_C@_02FOEOMHFC@?$CL?$DN?$AA@ 0000000180033ad0     libvcruntime:undname.obj
 0002:00000ad4       ??_C@_02FKMDLLOA@?9?$DN?$AA@ 0000000180033ad4     libvcruntime:undname.obj
 0002:00000ad8       ??_C@_02FJEHGPIO@?1?$DN?$AA@ 0000000180033ad8     libvcruntime:undname.obj
 0002:00000adc       ??_C@_02FENAOKFI@?$CF?$DN?$AA@ 0000000180033adc     libvcruntime:undname.obj
 0002:00000ae0       ??_C@_03IKFCCPFF@?$DO?$DO?$DN?$AA@ 0000000180033ae0     libvcruntime:undname.obj
 0002:00000ae4       ??_C@_03CDNPDDLA@?$DM?$DM?$DN?$AA@ 0000000180033ae4     libvcruntime:undname.obj
 0002:00000ae8       ??_C@_02FGJGFEAB@?$CG?$DN?$AA@ 0000000180033ae8     libvcruntime:undname.obj
 0002:00000aec       ??_C@_02DHLNPPGH@?$HM?$DN?$AA@ 0000000180033aec     libvcruntime:undname.obj
 0002:00000af0       ??_C@_02MHEGNOJ@?$FO?$DN?$AA@ 0000000180033af0     libvcruntime:undname.obj
 0002:00000af8       ??_C@_09IFPLHPGF@?$GAvftable?8?$AA@ 0000000180033af8     libvcruntime:undname.obj
 0002:00000b08       ??_C@_09BLBHBJP@?$GAvbtable?8?$AA@ 0000000180033b08     libvcruntime:undname.obj
 0002:00000b18       ??_C@_07FEEIOKP@?$GAvcall?8?$AA@ 0000000180033b18     libvcruntime:undname.obj
 0002:00000b20       ??_C@_08LLFFHHDJ@?$GAtypeof?8?$AA@ 0000000180033b20     libvcruntime:undname.obj
 0002:00000b30       ??_C@_0BF@KDPPACIK@?$GAlocal?5static?5guard?8?$AA@ 0000000180033b30     libvcruntime:undname.obj
 0002:00000b48       ??_C@_08OBABFOLI@?$GAstring?8?$AA@ 0000000180033b48     libvcruntime:undname.obj
 0002:00000b58       ??_C@_0BD@JDLKDPAB@?$GAvbase?5destructor?8?$AA@ 0000000180033b58     libvcruntime:undname.obj
 0002:00000b70       ??_C@_0BN@DEGPLNFK@?$GAvector?5deleting?5destructor?8?$AA@ 0000000180033b70     libvcruntime:undname.obj
 0002:00000b90       ??_C@_0BO@OBMKPJIG@?$GAdefault?5constructor?5closure?8?$AA@ 0000000180033b90     libvcruntime:undname.obj
 0002:00000bb0       ??_C@_0BN@IMDCHIKM@?$GAscalar?5deleting?5destructor?8?$AA@ 0000000180033bb0     libvcruntime:undname.obj
 0002:00000bd0       ??_C@_0BO@PFGOCPJJ@?$GAvector?5constructor?5iterator?8?$AA@ 0000000180033bd0     libvcruntime:undname.obj
 0002:00000bf0       ??_C@_0BN@LFPFMEDL@?$GAvector?5destructor?5iterator?8?$AA@ 0000000180033bf0     libvcruntime:undname.obj
 0002:00000c10       ??_C@_0CE@IKBNEHA@?$GAvector?5vbase?5constructor?5iterat@ 0000000180033c10     libvcruntime:undname.obj
 0002:00000c38       ??_C@_0BL@NILFHHPC@?$GAvirtual?5displacement?5map?8?$AA@ 0000000180033c38     libvcruntime:undname.obj
 0002:00000c58       ??_C@_0CB@JONCMFFK@?$GAeh?5vector?5constructor?5iterator?8@ 0000000180033c58     libvcruntime:undname.obj
 0002:00000c80       ??_C@_0CA@GCEOPDGL@?$GAeh?5vector?5destructor?5iterator?8?$AA@ 0000000180033c80     libvcruntime:undname.obj
 0002:00000ca0       ??_C@_0CH@OOJPLCPH@?$GAeh?5vector?5vbase?5constructor?5ite@ 0000000180033ca0     libvcruntime:undname.obj
 0002:00000cc8       ??_C@_0BL@LLKPOHJI@?$GAcopy?5constructor?5closure?8?$AA@ 0000000180033cc8     libvcruntime:undname.obj
 0002:00000ce8       ??_C@_0BA@KBCDOMBN@?$GAudt?5returning?8?$AA@ 0000000180033ce8     libvcruntime:undname.obj
 0002:00000cf8       ??_C@_03KLGMFNMG@?$GAEH?$AA@ 0000000180033cf8     libvcruntime:undname.obj
 0002:00000cfc       ??_C@_05KHLCHHI@?$GARTTI?$AA@ 0000000180033cfc     libvcruntime:undname.obj
 0002:00000d08       ??_C@_0BA@KKLDJDLB@?$GAlocal?5vftable?8?$AA@ 0000000180033d08     libvcruntime:undname.obj
 0002:00000d18       ??_C@_0CE@IIHCMGGL@?$GAlocal?5vftable?5constructor?5closu@ 0000000180033d18     libvcruntime:undname.obj
 0002:00000d3c       ??_C@_06FHBGPFGH@?5new?$FL?$FN?$AA@ 0000000180033d3c     libvcruntime:undname.obj
 0002:00000d48       ??_C@_09LBNFPBCA@?5delete?$FL?$FN?$AA@ 0000000180033d48     libvcruntime:undname.obj
 0002:00000d58       ??_C@_0P@HJKNJFNN@?$GAomni?5callsig?8?$AA@ 0000000180033d58     libvcruntime:undname.obj
 0002:00000d68       ??_C@_0BL@CNOONJFP@?$GAplacement?5delete?5closure?8?$AA@ 0000000180033d68     libvcruntime:undname.obj
 0002:00000d88       ??_C@_0BN@CKNJLHMB@?$GAplacement?5delete?$FL?$FN?5closure?8?$AA@ 0000000180033d88     libvcruntime:undname.obj
 0002:00000da8       ??_C@_0CG@CFDHKGGD@?$GAmanaged?5vector?5constructor?5iter@ 0000000180033da8     libvcruntime:undname.obj
 0002:00000dd0       ??_C@_0CF@IMGKMJNO@?$GAmanaged?5vector?5destructor?5itera@ 0000000180033dd0     libvcruntime:undname.obj
 0002:00000df8       ??_C@_0CG@HLDDJMAG@?$GAeh?5vector?5copy?5constructor?5iter@ 0000000180033df8     libvcruntime:undname.obj
 0002:00000e20       ??_C@_0CM@FCBBDIGB@?$GAeh?5vector?5vbase?5copy?5constructo@ 0000000180033e20     libvcruntime:undname.obj
 0002:00000e50       ??_C@_0BL@CLIPGLGB@?$GAdynamic?5initializer?5for?5?8?$AA@ 0000000180033e50     libvcruntime:undname.obj
 0002:00000e70       ??_C@_0CB@PDBIFEP@?$GAdynamic?5atexit?5destructor?5for?5?8@ 0000000180033e70     libvcruntime:undname.obj
 0002:00000e98       ??_C@_0CD@CGAJBKEJ@?$GAvector?5copy?5constructor?5iterato@ 0000000180033e98     libvcruntime:undname.obj
 0002:00000ec0       ??_C@_0CJ@GJELGAMM@?$GAvector?5vbase?5copy?5constructor?5i@ 0000000180033ec0     libvcruntime:undname.obj
 0002:00000ef0       ??_C@_0CL@FGIJHLCE@?$GAmanaged?5vector?5copy?5constructor@ 0000000180033ef0     libvcruntime:undname.obj
 0002:00000f20       ??_C@_0BM@PMGGMLDN@?$GAlocal?5static?5thread?5guard?8?$AA@ 0000000180033f20     libvcruntime:undname.obj
 0002:00000f40       ??_C@_0N@BDNMDMOL@operator?5?$CC?$CC?5?$AA@ 0000000180033f40     libvcruntime:undname.obj
 0002:00000f50       ??_C@_0BC@DAFEJGAK@?5Type?5Descriptor?8?$AA@ 0000000180033f50     libvcruntime:undname.obj
 0002:00000f68       ??_C@_0BM@LDKODKLH@?5Base?5Class?5Descriptor?5at?5?$CI?$AA@ 0000000180033f68     libvcruntime:undname.obj
 0002:00000f88       ??_C@_0BD@LGICGFMM@?5Base?5Class?5Array?8?$AA@ 0000000180033f88     libvcruntime:undname.obj
 0002:00000fa0       ??_C@_0BN@MECKDCOJ@?5Class?5Hierarchy?5Descriptor?8?$AA@ 0000000180033fa0     libvcruntime:undname.obj
 0002:00000fc0       ??_C@_0BK@CFCOFLF@?5Complete?5Object?5Locator?8?$AA@ 0000000180033fc0     libvcruntime:undname.obj
 0002:00000fe0       ??_C@_1EK@MBDPDCGA@?$AAM?$AAi?$AAc?$AAr?$AAo?$AAs?$AAo?$AAf?$AAt?$AA?5?$AAV?$AAi?$AAs?$AAu?$AAa?$AAl?$AA?5?$AAC?$AA?$CL?$AA?$CL?$AA?5?$AAR?$AAu?$AAn?$AAt?$AAi?$AAm?$AAe?$AA?5?$AAL?$AAi?$AAb@ 0000000180033fe0     libucrt:assert.obj
 0002:00001030       ??_C@_1FE@LHBLIKM@?$AAA?$AAs?$AAs?$AAe?$AAr?$AAt?$AAi?$AAo?$AAn?$AA?5?$AAf?$AAa?$AAi?$AAl?$AAe?$AAd?$AA?3?$AA?5?$AA?$CF?$AAT?$AAs?$AA?0?$AA?5?$AAf?$AAi?$AAl?$AAe?$AA?5?$AA?$CF?$AAT?$AAs?$AA?0@ 0000000180034030     libucrt:assert.obj
 0002:00001088       ??_C@_1CE@OJBNHDMO@?$AAA?$AAs?$AAs?$AAe?$AAr?$AAt?$AAi?$AAo?$AAn?$AA?5?$AAf?$AAa?$AAi?$AAl?$AAe?$AAd?$AA?$CB?$AA?$AA@ 0000000180034088     libucrt:assert.obj
 0002:000010b0       ??_C@_1BE@PHKBBGE@?$AAP?$AAr?$AAo?$AAg?$AAr?$AAa?$AAm?$AA?3?$AA?5?$AA?$AA@ 00000001800340b0     libucrt:assert.obj
 0002:000010c8       ??_C@_1O@HEMHKNDC@?$AAF?$AAi?$AAl?$AAe?$AA?3?$AA?5?$AA?$AA@ 00000001800340c8     libucrt:assert.obj
 0002:000010d8       ??_C@_1O@KCAFKHJE@?$AAL?$AAi?$AAn?$AAe?$AA?3?$AA?5?$AA?$AA@ 00000001800340d8     libucrt:assert.obj
 0002:000010e8       ??_C@_1BK@PEDCIPMA@?$AAE?$AAx?$AAp?$AAr?$AAe?$AAs?$AAs?$AAi?$AAo?$AAn?$AA?3?$AA?5?$AA?$AA@ 00000001800340e8     libucrt:assert.obj
 0002:00001110       ??_C@_1OA@EGMLFBHJ@?$AAF?$AAo?$AAr?$AA?5?$AAi?$AAn?$AAf?$AAo?$AAr?$AAm?$AAa?$AAt?$AAi?$AAo?$AAn?$AA?5?$AAo?$AAn?$AA?5?$AAh?$AAo?$AAw?$AA?5?$AAy?$AAo?$AAu?$AAr?$AA?5?$AAp?$AAr?$AAo?$AAg@ 0000000180034110     libucrt:assert.obj
 0002:000011f0       ??_C@_1HK@POCJMFGK@?$AA?$CI?$AAP?$AAr?$AAe?$AAs?$AAs?$AA?5?$AAR?$AAe?$AAt?$AAr?$AAy?$AA?5?$AAt?$AAo?$AA?5?$AAd?$AAe?$AAb?$AAu?$AAg?$AA?5?$AAt?$AAh?$AAe?$AA?5?$AAa?$AAp?$AAp?$AAl?$AAi?$AAc@ 00000001800341f0     libucrt:assert.obj
 0002:00001270       ??_C@_17LGKOMLJ@?$AA?4?$AA?4?$AA?4?$AA?$AA@ 0000000180034270     libucrt:assert.obj
 0002:00001278       ??_C@_13LBAGMAIH@?$AA?6?$AA?$AA@ 0000000180034278     libucrt:assert.obj
 0002:0000127c       ??_C@_15IABLJNFO@?$AA?6?$AA?6?$AA?$AA@ 000000018003427c     libucrt:assert.obj
 0002:00001288       ??_C@_1CO@EAEJAADC@?$AA?$DM?$AAp?$AAr?$AAo?$AAg?$AAr?$AAa?$AAm?$AA?5?$AAn?$AAa?$AAm?$AAe?$AA?5?$AAu?$AAn?$AAk?$AAn?$AAo?$AAw?$AAn?$AA?$DO?$AA?$AA@ 0000000180034288     libucrt:assert.obj
 0002:000012c0       standard_lookup_table      00000001800342c0     libucrt:output.obj
 0002:0000131c       ??_C@_06OJHGLDPL@?$CInull?$CJ?$AA@ 000000018003431c     libucrt:output.obj
 0002:00001328       ??_C@_1O@CEDCILHN@?$AA?$CI?$AAn?$AAu?$AAl?$AAl?$AA?$CJ?$AA?$AA@ 0000000180034328     libucrt:output.obj
 0002:00001340       __acrt_exception_action_table 0000000180034340     libucrt:exception_filter.obj
 0002:00001400       __acrt_signal_action_table_count 0000000180034400     libucrt:exception_filter.obj
 0002:00001408       __acrt_signal_action_first_fpe_index 0000000180034408     libucrt:exception_filter.obj
 0002:00001410       __acrt_signal_action_fpe_count 0000000180034410     libucrt:exception_filter.obj
 0002:00001418       ??_C@_1BI@BGOHAHKC@?$AAm?$AAs?$AAc?$AAo?$AAr?$AAe?$AAe?$AA?4?$AAd?$AAl?$AAl?$AA?$AA@ 0000000180034418     libucrt:exit.obj
 0002:00001430       ??_C@_0P@MIGLKIOC@CorExitProcess?$AA@ 0000000180034430     libucrt:exit.obj
 0002:000016a0       __lc_time_c                00000001800346a0     libucrt:nlsdata.obj
 0002:00001960       ??_C@_03KOEHGMDN@Sun?$AA@  0000000180034960     libucrt:nlsdata.obj
 0002:00001964       ??_C@_03PDAGKDH@Mon?$AA@   0000000180034964     libucrt:nlsdata.obj
 0002:00001968       ??_C@_03NAGEINEP@Tue?$AA@  0000000180034968     libucrt:nlsdata.obj
 0002:0000196c       ??_C@_03MHOMLAJA@Wed?$AA@  000000018003496c     libucrt:nlsdata.obj
 0002:00001970       ??_C@_03IOFIKPDN@Thu?$AA@  0000000180034970     libucrt:nlsdata.obj
 0002:00001974       ??_C@_03IDIOELNC@Fri?$AA@  0000000180034974     libucrt:nlsdata.obj
 0002:00001978       ??_C@_03FEFJNEK@Sat?$AA@   0000000180034978     libucrt:nlsdata.obj
 0002:0000197c       ??_C@_06OOPIFAJ@Sunday?$AA@ 000000018003497c     libucrt:nlsdata.obj
 0002:00001984       ??_C@_06JLEDEDGH@Monday?$AA@ 0000000180034984     libucrt:nlsdata.obj
 0002:00001990       ??_C@_07BAAGCFCM@Tuesday?$AA@ 0000000180034990     libucrt:nlsdata.obj
 0002:00001998       ??_C@_09DLIGFAKA@Wednesday?$AA@ 0000000180034998     libucrt:nlsdata.obj
 0002:000019a8       ??_C@_08HACCIKIA@Thursday?$AA@ 00000001800349a8     libucrt:nlsdata.obj
 0002:000019b4       ??_C@_06JECMNKMI@Friday?$AA@ 00000001800349b4     libucrt:nlsdata.obj
 0002:000019c0       ??_C@_08INBOOONO@Saturday?$AA@ 00000001800349c0     libucrt:nlsdata.obj
 0002:000019cc       ??_C@_03JIHJHPIE@Jan?$AA@  00000001800349cc     libucrt:nlsdata.obj
 0002:000019d0       ??_C@_03HJBDCHOM@Feb?$AA@  00000001800349d0     libucrt:nlsdata.obj
 0002:000019d4       ??_C@_03ODNJBKGA@Mar?$AA@  00000001800349d4     libucrt:nlsdata.obj
 0002:000019d8       ??_C@_03LEOLGMJP@Apr?$AA@  00000001800349d8     libucrt:nlsdata.obj
 0002:000019dc       ??_C@_03CNMDKL@May?$AA@    00000001800349dc     libucrt:nlsdata.obj
 0002:000019e0       ??_C@_03IDFGHECI@Jun?$AA@  00000001800349e0     libucrt:nlsdata.obj
 0002:000019e4       ??_C@_03LBGABGKK@Jul?$AA@  00000001800349e4     libucrt:nlsdata.obj
 0002:000019e8       ??_C@_03IFJFEIGA@Aug?$AA@  00000001800349e8     libucrt:nlsdata.obj
 0002:000019ec       ??_C@_03GGCAPAJC@Sep?$AA@  00000001800349ec     libucrt:nlsdata.obj
 0002:000019f0       ??_C@_03BMAOKBAD@Oct?$AA@  00000001800349f0     libucrt:nlsdata.obj
 0002:000019f4       ??_C@_03JPJOFNIA@Nov?$AA@  00000001800349f4     libucrt:nlsdata.obj
 0002:000019f8       ??_C@_03MKABNOCG@Dec?$AA@  00000001800349f8     libucrt:nlsdata.obj
 0002:00001a00       ??_C@_07CGJPFGJA@January?$AA@ 0000000180034a00     libucrt:nlsdata.obj
 0002:00001a08       ??_C@_08GNJGEPFN@February?$AA@ 0000000180034a08     libucrt:nlsdata.obj
 0002:00001a14       ??_C@_05HPCKOFNC@March?$AA@ 0000000180034a14     libucrt:nlsdata.obj
 0002:00001a1c       ??_C@_05DMJDNLEJ@April?$AA@ 0000000180034a1c     libucrt:nlsdata.obj
 0002:00001a24       ??_C@_04CNLMGBGM@June?$AA@ 0000000180034a24     libucrt:nlsdata.obj
 0002:00001a2c       ??_C@_04MIEPOIFP@July?$AA@ 0000000180034a2c     libucrt:nlsdata.obj
 0002:00001a34       ??_C@_06LBBHFDDG@August?$AA@ 0000000180034a34     libucrt:nlsdata.obj
 0002:00001a40       ??_C@_09BHHEALKD@September?$AA@ 0000000180034a40     libucrt:nlsdata.obj
 0002:00001a50       ??_C@_07JJNFCEND@October?$AA@ 0000000180034a50     libucrt:nlsdata.obj
 0002:00001a58       ??_C@_08HCHEGEOA@November?$AA@ 0000000180034a58     libucrt:nlsdata.obj
 0002:00001a68       ??_C@_08EDHMEBNP@December?$AA@ 0000000180034a68     libucrt:nlsdata.obj
 0002:00001a74       ??_C@_02DEDBPAFC@AM?$AA@   0000000180034a74     libucrt:nlsdata.obj
 0002:00001a78       ??_C@_02CJNFDJBF@PM?$AA@   0000000180034a78     libucrt:nlsdata.obj
 0002:00001a80       ??_C@_08BPBNCDIB@MM?1dd?1yy?$AA@ 0000000180034a80     libucrt:nlsdata.obj
 0002:00001a90       ??_C@_0BE@CKGJFCPC@dddd?0?5MMMM?5dd?0?5yyyy?$AA@ 0000000180034a90     libucrt:nlsdata.obj
 0002:00001aa8       ??_C@_08JCCMCCIL@HH?3mm?3ss?$AA@ 0000000180034aa8     libucrt:nlsdata.obj
 0002:00001ab8       ??_C@_17MBGCMIPB@?$AAS?$AAu?$AAn?$AA?$AA@ 0000000180034ab8     libucrt:nlsdata.obj
 0002:00001ac0       ??_C@_17KBOMKBF@?$AAM?$AAo?$AAn?$AA?$AA@ 0000000180034ac0     libucrt:nlsdata.obj
 0002:00001ac8       ??_C@_17BMKGEGOJ@?$AAT?$AAu?$AAe?$AA?$AA@ 0000000180034ac8     libucrt:nlsdata.obj
 0002:00001ad0       ??_C@_17CJEDCEPE@?$AAW?$AAe?$AAd?$AA?$AA@ 0000000180034ad0     libucrt:nlsdata.obj
 0002:00001ad8       ??_C@_17PDPHAADD@?$AAT?$AAh?$AAu?$AA?$AA@ 0000000180034ad8     libucrt:nlsdata.obj
 0002:00001ae0       ??_C@_17HFOLPPLP@?$AAF?$AAr?$AAi?$AA?$AA@ 0000000180034ae0     libucrt:nlsdata.obj
 0002:00001ae8       ??_C@_17GGIBDPIH@?$AAS?$AAa?$AAt?$AA?$AA@ 0000000180034ae8     libucrt:nlsdata.obj
 0002:00001af0       ??_C@_1O@IHNHDHPB@?$AAS?$AAu?$AAn?$AAd?$AAa?$AAy?$AA?$AA@ 0000000180034af0     libucrt:nlsdata.obj
 0002:00001b00       ??_C@_1O@MMNBFLIA@?$AAM?$AAo?$AAn?$AAd?$AAa?$AAy?$AA?$AA@ 0000000180034b00     libucrt:nlsdata.obj
 0002:00001b10       ??_C@_1BA@ENFBFFEK@?$AAT?$AAu?$AAe?$AAs?$AAd?$AAa?$AAy?$AA?$AA@ 0000000180034b10     libucrt:nlsdata.obj
 0002:00001b20       ??_C@_1BE@EBOGMDOH@?$AAW?$AAe?$AAd?$AAn?$AAe?$AAs?$AAd?$AAa?$AAy?$AA?$AA@ 0000000180034b20     libucrt:nlsdata.obj
 0002:00001b38       ??_C@_1BC@HHMNLIHE@?$AAT?$AAh?$AAu?$AAr?$AAs?$AAd?$AAa?$AAy?$AA?$AA@ 0000000180034b38     libucrt:nlsdata.obj
 0002:00001b50       ??_C@_1O@PDICJHAG@?$AAF?$AAr?$AAi?$AAd?$AAa?$AAy?$AA?$AA@ 0000000180034b50     libucrt:nlsdata.obj
 0002:00001b60       ??_C@_1BC@ENMNNPAJ@?$AAS?$AAa?$AAt?$AAu?$AAr?$AAd?$AAa?$AAy?$AA?$AA@ 0000000180034b60     libucrt:nlsdata.obj
 0002:00001b78       ??_C@_17DKNBKCHM@?$AAJ?$AAa?$AAn?$AA?$AA@ 0000000180034b78     libucrt:nlsdata.obj
 0002:00001b80       ??_C@_17LMDJEKJN@?$AAF?$AAe?$AAb?$AA?$AA@ 0000000180034b80     libucrt:nlsdata.obj
 0002:00001b88       ??_C@_17CKNLEDEC@?$AAM?$AAa?$AAr?$AA?$AA@ 0000000180034b88     libucrt:nlsdata.obj
 0002:00001b90       ??_C@_17LFPOIHDD@?$AAA?$AAp?$AAr?$AA?$AA@ 0000000180034b90     libucrt:nlsdata.obj
 0002:00001b98       ??_C@_17PNNKMEED@?$AAM?$AAa?$AAy?$AA?$AA@ 0000000180034b98     libucrt:nlsdata.obj
 0002:00001ba0       ??_C@_17KCJGOCPB@?$AAJ?$AAu?$AAn?$AA?$AA@ 0000000180034ba0     libucrt:nlsdata.obj
 0002:00001ba8       ??_C@_17IJPCKHK@?$AAJ?$AAu?$AAl?$AA?$AA@ 0000000180034ba8     libucrt:nlsdata.obj
 0002:00001bb0       ??_C@_17ICPELBCN@?$AAA?$AAu?$AAg?$AA?$AA@ 0000000180034bb0     libucrt:nlsdata.obj
 0002:00001bb8       ??_C@_17HCHCOKMG@?$AAS?$AAe?$AAp?$AA?$AA@ 0000000180034bb8     libucrt:nlsdata.obj
 0002:00001bc0       ??_C@_17FNLKOI@?$AAO?$AAc?$AAt?$AA?$AA@ 0000000180034bc0     libucrt:nlsdata.obj
 0002:00001bc8       ??_C@_17BBDMLCIG@?$AAN?$AAo?$AAv?$AA?$AA@ 0000000180034bc8     libucrt:nlsdata.obj
 0002:00001bd0       ??_C@_17EGKACKIF@?$AAD?$AAe?$AAc?$AA?$AA@ 0000000180034bd0     libucrt:nlsdata.obj
 0002:00001bd8       ??_C@_1BA@EFMEIEBA@?$AAJ?$AAa?$AAn?$AAu?$AAa?$AAr?$AAy?$AA?$AA@ 0000000180034bd8     libucrt:nlsdata.obj
 0002:00001be8       ??_C@_1BC@JGDDFFAM@?$AAF?$AAe?$AAb?$AAr?$AAu?$AAa?$AAr?$AAy?$AA?$AA@ 0000000180034be8     libucrt:nlsdata.obj
 0002:00001c00       ??_C@_1M@IKEENEDF@?$AAM?$AAa?$AAr?$AAc?$AAh?$AA?$AA@ 0000000180034c00     libucrt:nlsdata.obj
 0002:00001c10       ??_C@_1M@GJNLMHFD@?$AAA?$AAp?$AAr?$AAi?$AAl?$AA?$AA@ 0000000180034c10     libucrt:nlsdata.obj
 0002:00001c20       ??_C@_19EPFLPGAP@?$AAJ?$AAu?$AAn?$AAe?$AA?$AA@ 0000000180034c20     libucrt:nlsdata.obj
 0002:00001c30       ??_C@_19BIFMLPCD@?$AAJ?$AAu?$AAl?$AAy?$AA?$AA@ 0000000180034c30     libucrt:nlsdata.obj
 0002:00001c40       ??_C@_1O@PAHLKOAC@?$AAA?$AAu?$AAg?$AAu?$AAs?$AAt?$AA?$AA@ 0000000180034c40     libucrt:nlsdata.obj
 0002:00001c50       ??_C@_1BE@DKAAMBJL@?$AAS?$AAe?$AAp?$AAt?$AAe?$AAm?$AAb?$AAe?$AAr?$AA?$AA@ 0000000180034c50     libucrt:nlsdata.obj
 0002:00001c68       ??_C@_1BA@EPANDLNG@?$AAO?$AAc?$AAt?$AAo?$AAb?$AAe?$AAr?$AA?$AA@ 0000000180034c68     libucrt:nlsdata.obj
 0002:00001c78       ??_C@_1BC@BGLIFPF@?$AAN?$AAo?$AAv?$AAe?$AAm?$AAb?$AAe?$AAr?$AA?$AA@ 0000000180034c78     libucrt:nlsdata.obj
 0002:00001c90       ??_C@_1BC@FEMKIFH@?$AAD?$AAe?$AAc?$AAe?$AAm?$AAb?$AAe?$AAr?$AA?$AA@ 0000000180034c90     libucrt:nlsdata.obj
 0002:00001ca4       ??_C@_15ODEHAHHF@?$AAA?$AAM?$AA?$AA@ 0000000180034ca4     libucrt:nlsdata.obj
 0002:00001cac       ??_C@_15CLMNNGEL@?$AAP?$AAM?$AA?$AA@ 0000000180034cac     libucrt:nlsdata.obj
 0002:00001cb8       ??_C@_1BC@IEBCMHCM@?$AAM?$AAM?$AA?1?$AAd?$AAd?$AA?1?$AAy?$AAy?$AA?$AA@ 0000000180034cb8     libucrt:nlsdata.obj
 0002:00001cd0       ??_C@_1CI@KNAKOEBC@?$AAd?$AAd?$AAd?$AAd?$AA?0?$AA?5?$AAM?$AAM?$AAM?$AAM?$AA?5?$AAd?$AAd?$AA?0?$AA?5?$AAy?$AAy?$AAy?$AAy?$AA?$AA@ 0000000180034cd0     libucrt:nlsdata.obj
 0002:00001cf8       ??_C@_1BC@GDGBMEMK@?$AAH?$AAH?$AA?3?$AAm?$AAm?$AA?3?$AAs?$AAs?$AA?$AA@ 0000000180034cf8     libucrt:nlsdata.obj
 0002:00001d10       ??_C@_1M@BMHNFIME@?$AAe?$AAn?$AA?9?$AAU?$AAS?$AA?$AA@ 0000000180034d10     libucrt:nlsdata.obj
 0002:00001d1c       ??_C@_03OEIAHPBN@INF?$AA@  0000000180034d1c     libucrt:cvt.obj
 0002:00001d20       ??_C@_03OJHLLCGB@inf?$AA@  0000000180034d20     libucrt:cvt.obj
 0002:00001d24       ??_C@_03LKNCIKJB@NAN?$AA@  0000000180034d24     libucrt:cvt.obj
 0002:00001d28       ??_C@_03LHCJEHON@nan?$AA@  0000000180034d28     libucrt:cvt.obj
 0002:00001d30       ??_C@_09OFJJIMPC@NAN?$CISNAN?$CJ?$AA@ 0000000180034d30     libucrt:cvt.obj
 0002:00001d40       ??_C@_09IPFBKMDL@nan?$CIsnan?$CJ?$AA@ 0000000180034d40     libucrt:cvt.obj
 0002:00001d50       ??_C@_08IKHNHAJ@NAN?$CIIND?$CJ?$AA@ 0000000180034d50     libucrt:cvt.obj
 0002:00001d60       ??_C@_08OFCDMILK@nan?$CIind?$CJ?$AA@ 0000000180034d60     libucrt:cvt.obj
 0002:00001d6c       ??_C@_05KLBDPFGC@e?$CL000?$AA@ 0000000180034d6c     libucrt:cvt.obj
 0002:00001e20       ??_C@_1EG@CNNIPFIM@?$AAa?$AAp?$AAi?$AA?9?$AAm?$AAs?$AA?9?$AAw?$AAi?$AAn?$AA?9?$AAa?$AAp?$AAp?$AAm?$AAo?$AAd?$AAe?$AAl?$AA?9?$AAr?$AAu?$AAn?$AAt?$AAi?$AAm?$AAe?$AA?9?$AAl?$AA1?$AA?9?$AA1@ 0000000180034e20     libucrt:winapi_thunks.obj
 0002:00001e70       ??_C@_1EA@JGEFHKEI@?$AAa?$AAp?$AAi?$AA?9?$AAm?$AAs?$AA?9?$AAw?$AAi?$AAn?$AA?9?$AAc?$AAo?$AAr?$AAe?$AA?9?$AAd?$AAa?$AAt?$AAe?$AAt?$AAi?$AAm?$AAe?$AA?9?$AAl?$AA1?$AA?9?$AA1?$AA?9?$AA1?$AA?$AA@ 0000000180034e70     libucrt:winapi_thunks.obj
 0002:00001eb0       ??_C@_1DI@GCIAAENM@?$AAa?$AAp?$AAi?$AA?9?$AAm?$AAs?$AA?9?$AAw?$AAi?$AAn?$AA?9?$AAc?$AAo?$AAr?$AAe?$AA?9?$AAf?$AAi?$AAl?$AAe?$AA?9?$AAl?$AA2?$AA?9?$AA1?$AA?9?$AA1?$AA?$AA@ 0000000180034eb0     libucrt:winapi_thunks.obj
 0002:00001ef0       ??_C@_1EI@MPIAOHOC@?$AAa?$AAp?$AAi?$AA?9?$AAm?$AAs?$AA?9?$AAw?$AAi?$AAn?$AA?9?$AAc?$AAo?$AAr?$AAe?$AA?9?$AAl?$AAo?$AAc?$AAa?$AAl?$AAi?$AAz?$AAa?$AAt?$AAi?$AAo?$AAn?$AA?9?$AAl?$AA1?$AA?9@ 0000000180034ef0     libucrt:winapi_thunks.obj
 0002:00001f40       ??_C@_1FK@FPHCKFIE@?$AAa?$AAp?$AAi?$AA?9?$AAm?$AAs?$AA?9?$AAw?$AAi?$AAn?$AA?9?$AAc?$AAo?$AAr?$AAe?$AA?9?$AAl?$AAo?$AAc?$AAa?$AAl?$AAi?$AAz?$AAa?$AAt?$AAi?$AAo?$AAn?$AA?9?$AAo?$AAb?$AAs@ 0000000180034f40     libucrt:winapi_thunks.obj
 0002:00001fa0       ??_C@_1EM@DILCGIIO@?$AAa?$AAp?$AAi?$AA?9?$AAm?$AAs?$AA?9?$AAw?$AAi?$AAn?$AA?9?$AAc?$AAo?$AAr?$AAe?$AA?9?$AAp?$AAr?$AAo?$AAc?$AAe?$AAs?$AAs?$AAt?$AAh?$AAr?$AAe?$AAa?$AAd?$AAs?$AA?9?$AAl@ 0000000180034fa0     libucrt:winapi_thunks.obj
 0002:00001ff0       ??_C@_1DM@LNCGDDPN@?$AAa?$AAp?$AAi?$AA?9?$AAm?$AAs?$AA?9?$AAw?$AAi?$AAn?$AA?9?$AAc?$AAo?$AAr?$AAe?$AA?9?$AAs?$AAt?$AAr?$AAi?$AAn?$AAg?$AA?9?$AAl?$AA1?$AA?9?$AA1?$AA?9?$AA0?$AA?$AA@ 0000000180034ff0     libucrt:winapi_thunks.obj
 0002:00002030       ??_C@_1DO@FPAPJEMD@?$AAa?$AAp?$AAi?$AA?9?$AAm?$AAs?$AA?9?$AAw?$AAi?$AAn?$AA?9?$AAc?$AAo?$AAr?$AAe?$AA?9?$AAs?$AAy?$AAs?$AAi?$AAn?$AAf?$AAo?$AA?9?$AAl?$AA1?$AA?9?$AA2?$AA?9?$AA1?$AA?$AA@ 0000000180035030     libucrt:winapi_thunks.obj
 0002:00002070       ??_C@_1DK@NDHNAHIO@?$AAa?$AAp?$AAi?$AA?9?$AAm?$AAs?$AA?9?$AAw?$AAi?$AAn?$AA?9?$AAc?$AAo?$AAr?$AAe?$AA?9?$AAw?$AAi?$AAn?$AAr?$AAt?$AA?9?$AAl?$AA1?$AA?9?$AA1?$AA?9?$AA0?$AA?$AA@ 0000000180035070     libucrt:winapi_thunks.obj
 0002:000020b0       ??_C@_1DM@KGHDGBCM@?$AAa?$AAp?$AAi?$AA?9?$AAm?$AAs?$AA?9?$AAw?$AAi?$AAn?$AA?9?$AAc?$AAo?$AAr?$AAe?$AA?9?$AAx?$AAs?$AAt?$AAa?$AAt?$AAe?$AA?9?$AAl?$AA2?$AA?9?$AA1?$AA?9?$AA0?$AA?$AA@ 00000001800350b0     libucrt:winapi_thunks.obj
 0002:000020f0       ??_C@_1EO@IJIOEFOH@?$AAa?$AAp?$AAi?$AA?9?$AAm?$AAs?$AA?9?$AAw?$AAi?$AAn?$AA?9?$AAr?$AAt?$AAc?$AAo?$AAr?$AAe?$AA?9?$AAn?$AAt?$AAu?$AAs?$AAe?$AAr?$AA?9?$AAw?$AAi?$AAn?$AAd?$AAo?$AAw?$AA?9@ 00000001800350f0     libucrt:winapi_thunks.obj
 0002:00002140       ??_C@_1FG@HHGEKANL@?$AAa?$AAp?$AAi?$AA?9?$AAm?$AAs?$AA?9?$AAw?$AAi?$AAn?$AA?9?$AAs?$AAe?$AAc?$AAu?$AAr?$AAi?$AAt?$AAy?$AA?9?$AAs?$AAy?$AAs?$AAt?$AAe?$AAm?$AAf?$AAu?$AAn?$AAc?$AAt?$AAi@ 0000000180035140     libucrt:winapi_thunks.obj
 0002:000021a0       ??_C@_1FG@NCKKOLKO@?$AAe?$AAx?$AAt?$AA?9?$AAm?$AAs?$AA?9?$AAw?$AAi?$AAn?$AA?9?$AAk?$AAe?$AAr?$AAn?$AAe?$AAl?$AA3?$AA2?$AA?9?$AAp?$AAa?$AAc?$AAk?$AAa?$AAg?$AAe?$AA?9?$AAc?$AAu?$AAr?$AAr@ 00000001800351a0     libucrt:winapi_thunks.obj
 0002:00002200       ??_C@_1EG@DBIOJECG@?$AAe?$AAx?$AAt?$AA?9?$AAm?$AAs?$AA?9?$AAw?$AAi?$AAn?$AA?9?$AAn?$AAt?$AAu?$AAs?$AAe?$AAr?$AA?9?$AAd?$AAi?$AAa?$AAl?$AAo?$AAg?$AAb?$AAo?$AAx?$AA?9?$AAl?$AA1?$AA?9?$AA1@ 0000000180035200     libucrt:winapi_thunks.obj
 0002:00002250       ??_C@_1EO@FIHMJCLF@?$AAe?$AAx?$AAt?$AA?9?$AAm?$AAs?$AA?9?$AAw?$AAi?$AAn?$AA?9?$AAn?$AAt?$AAu?$AAs?$AAe?$AAr?$AA?9?$AAw?$AAi?$AAn?$AAd?$AAo?$AAw?$AAs?$AAt?$AAa?$AAt?$AAi?$AAo?$AAn?$AA?9@ 0000000180035250     libucrt:winapi_thunks.obj
 0002:000022a0       ??_C@_1O@BCCLBEOE@?$AAu?$AAs?$AAe?$AAr?$AA3?$AA2?$AA?$AA@ 00000001800352a0     libucrt:winapi_thunks.obj
 0002:000022d8       ??_C@_0BA@HNOPNCHB@GetActiveWindow?$AA@ 00000001800352d8     libucrt:winapi_thunks.obj
 0002:000022f0       ??_C@_0BE@JOGNEJCI@GetCurrentPackageId?$AA@ 00000001800352f0     libucrt:winapi_thunks.obj
 0002:00002310       ??_C@_0BD@HHGDFDBJ@GetLastActivePopup?$AA@ 0000000180035310     libucrt:winapi_thunks.obj
 0002:00002330       ??_C@_0BI@DFKBFLJE@GetProcessWindowStation?$AA@ 0000000180035330     libucrt:winapi_thunks.obj
 0002:00002350       ??_C@_0BK@DEKFELLI@GetUserObjectInformationW?$AA@ 0000000180035350     libucrt:winapi_thunks.obj
 0002:00002380       ??_C@_0O@KKBNKAPF@LCMapStringEx?$AA@ 0000000180035380     libucrt:winapi_thunks.obj
 0002:00002398       ??_C@_0BB@HBDEELFH@LocaleNameToLCID?$AA@ 0000000180035398     libucrt:winapi_thunks.obj
 0002:000023b8       ??_C@_0M@CHKKJDAI@MessageBoxA?$AA@ 00000001800353b8     libucrt:winapi_thunks.obj
 0002:000023d0       ??_C@_0M@DLDCCGNP@MessageBoxW?$AA@ 00000001800353d0     libucrt:winapi_thunks.obj
 0002:00002400       ??_C@_1M@HPNHIDJI@?$AAj?$AAa?$AA?9?$AAJ?$AAP?$AA?$AA@ 0000000180035400     libucrt:mbctype.obj
 0002:00002410       ??_C@_1M@BIBDDEMK@?$AAz?$AAh?$AA?9?$AAC?$AAN?$AA?$AA@ 0000000180035410     libucrt:mbctype.obj
 0002:00002420       ??_C@_1M@JLOOOEGK@?$AAk?$AAo?$AA?9?$AAK?$AAR?$AA?$AA@ 0000000180035420     libucrt:mbctype.obj
 0002:00002430       ??_C@_1M@CLNBBOPM@?$AAz?$AAh?$AA?9?$AAT?$AAW?$AA?$AA@ 0000000180035430     libucrt:mbctype.obj
 0002:00002440       __newctype                 0000000180035440     libucrt:ctype.obj
 0002:00002740       __newclmap                 0000000180035740     libucrt:ctype.obj
 0002:000028c0       __newcumap                 00000001800358c0     libucrt:ctype.obj
 0002:00002a40       _wctype                    0000000180035a40     libucrt:ctype.obj
 0002:00002c44       ??_C@_15PJPFLCCM@?$AAu?$AAk?$AA?$AA@ 0000000180035c44     libucrt:get_qualified_locale.obj
 0002:00002c50       ?large_power_data@?1??multiply_by_power_of_ten@__crt_strtox@@YA_NAEAUbig_integer@2@I@Z@4QBIB 0000000180035c50     libucrt:cfout.obj
 0002:00003560       ?large_power_indices@?1??multiply_by_power_of_ten@__crt_strtox@@YA_NAEAUbig_integer@2@I@Z@4QBUunpack_index@?1??12@YA_N0I@Z@B 0000000180036560     libucrt:cfout.obj
 0002:000035f8       ?small_powers_of_ten@?6??multiply_by_power_of_ten@__crt_strtox@@YA_NAEAUbig_integer@2@I@Z@4QBIB 00000001800365f8     libucrt:cfout.obj
 0002:0000361c       ??_C@_01GBGANLPD@0?$AA@    000000018003661c     libucrt:cfout.obj
 0002:00003620       ??_C@_05DNEBIAHO@1?$CDINF?$AA@ 0000000180036620     libucrt:cfout.obj
 0002:00003628       ??_C@_06IMKFLFPG@1?$CDQNAN?$AA@ 0000000180036628     libucrt:cfout.obj
 0002:00003630       ??_C@_06PGGFOGJG@1?$CDSNAN?$AA@ 0000000180036630     libucrt:cfout.obj
 0002:00003638       ??_C@_05PHHOCPM@1?$CDIND?$AA@ 0000000180036638     libucrt:cfout.obj
 0002:00004480       ??_C@_15EMKDOKLE@?$AAa?$AAr?$AA?$AA@ 0000000180037480     libucrt:lcidtoname_downlevel.obj
 0002:00004488       ??_C@_15KNPADPLH@?$AAb?$AAg?$AA?$AA@ 0000000180037488     libucrt:lcidtoname_downlevel.obj
 0002:00004490       ??_C@_15EDMHLDMO@?$AAc?$AAa?$AA?$AA@ 0000000180037490     libucrt:lcidtoname_downlevel.obj
 0002:00004498       ??_C@_1O@BPEAJADD@?$AAz?$AAh?$AA?9?$AAC?$AAH?$AAS?$AA?$AA@ 0000000180037498     libucrt:lcidtoname_downlevel.obj
 0002:000044a8       ??_C@_15LJNHCMNK@?$AAc?$AAs?$AA?$AA@ 00000001800374a8     libucrt:lcidtoname_downlevel.obj
 0002:000044b0       ??_C@_15FOMCIDHG@?$AAd?$AAa?$AA?$AA@ 00000001800374b0     libucrt:lcidtoname_downlevel.obj
 0002:000044b8       ??_C@_15NBKABECB@?$AAd?$AAe?$AA?$AA@ 00000001800374b8     libucrt:lcidtoname_downlevel.obj
 0002:000044c0       ??_C@_15GHPEIIAO@?$AAe?$AAl?$AA?$AA@ 00000001800374c0     libucrt:lcidtoname_downlevel.obj
 0002:000044c8       ??_C@_15MNPNEAIF@?$AAe?$AAn?$AA?$AA@ 00000001800374c8     libucrt:lcidtoname_downlevel.obj
 0002:000044d0       ??_C@_15GPIOMPMH@?$AAe?$AAs?$AA?$AA@ 00000001800374d0     libucrt:lcidtoname_downlevel.obj
 0002:000044d8       ??_C@_15NGLOAKJC@?$AAf?$AAi?$AA?$AA@ 00000001800374d8     libucrt:lcidtoname_downlevel.obj
 0002:000044e0       ??_C@_15FBKGNKAM@?$AAf?$AAr?$AA?$AA@ 00000001800374e0     libucrt:lcidtoname_downlevel.obj
 0002:000044e8       ??_C@_15KGGCNEFK@?$AAh?$AAe?$AA?$AA@ 00000001800374e8     libucrt:lcidtoname_downlevel.obj
 0002:000044f0       ??_C@_15PGHLIDMF@?$AAh?$AAu?$AA?$AA@ 00000001800374f0     libucrt:lcidtoname_downlevel.obj
 0002:000044f8       ??_C@_15BIEMAPLM@?$AAi?$AAs?$AA?$AA@ 00000001800374f8     libucrt:lcidtoname_downlevel.obj
 0002:00004500       ??_C@_15IFJLDHAF@?$AAi?$AAt?$AA?$AA@ 0000000180037500     libucrt:lcidtoname_downlevel.obj
 0002:00004508       ??_C@_15GEMIOCAG@?$AAj?$AAa?$AA?$AA@ 0000000180037508     libucrt:lcidtoname_downlevel.obj
 0002:00004510       ??_C@_15EPELEGJA@?$AAk?$AAo?$AA?$AA@ 0000000180037510     libucrt:lcidtoname_downlevel.obj
 0002:00004518       ??_C@_15NDDHIMN@?$AAn?$AAl?$AA?$AA@ 0000000180037518     libucrt:lcidtoname_downlevel.obj
 0002:00004520       ??_C@_15BPIGNHCD@?$AAn?$AAo?$AA?$AA@ 0000000180037520     libucrt:lcidtoname_downlevel.obj
 0002:00004528       ??_C@_15DEOPBLCG@?$AAp?$AAl?$AA?$AA@ 0000000180037528     libucrt:lcidtoname_downlevel.obj
 0002:00004530       ??_C@_15KBECGEFG@?$AAp?$AAt?$AA?$AA@ 0000000180037530     libucrt:lcidtoname_downlevel.obj
 0002:00004538       ??_C@_15GLJCBFMD@?$AAr?$AAo?$AA?$AA@ 0000000180037538     libucrt:lcidtoname_downlevel.obj
 0002:00004540       ??_C@_15FEDGKCDI@?$AAr?$AAu?$AA?$AA@ 0000000180037540     libucrt:lcidtoname_downlevel.obj
 0002:00004548       ??_C@_15GLKMLLHM@?$AAh?$AAr?$AA?$AA@ 0000000180037548     libucrt:lcidtoname_downlevel.obj
 0002:00004550       ??_C@_15CPKMFBDB@?$AAs?$AAk?$AA?$AA@ 0000000180037550     libucrt:lcidtoname_downlevel.obj
 0002:00004558       ??_C@_15BAAIOGMK@?$AAs?$AAq?$AA?$AA@ 0000000180037558     libucrt:lcidtoname_downlevel.obj
 0002:00004560       ??_C@_15INNPNOHD@?$AAs?$AAv?$AA?$AA@ 0000000180037560     libucrt:lcidtoname_downlevel.obj
 0002:00004568       ??_C@_15CABMMOGH@?$AAt?$AAh?$AA?$AA@ 0000000180037568     libucrt:lcidtoname_downlevel.obj
 0002:00004570       ??_C@_15BPLIHJJM@?$AAt?$AAr?$AA?$AA@ 0000000180037570     libucrt:lcidtoname_downlevel.obj
 0002:00004578       ??_C@_15NEOEKKDJ@?$AAu?$AAr?$AA?$AA@ 0000000180037578     libucrt:lcidtoname_downlevel.obj
 0002:00004580       ??_C@_15NFICGAJK@?$AAi?$AAd?$AA?$AA@ 0000000180037580     libucrt:lcidtoname_downlevel.obj
 0002:00004588       ??_C@_15HPJPHDM@?$AAb?$AAe?$AA?$AA@ 0000000180037588     libucrt:lcidtoname_downlevel.obj
 0002:00004590       ??_C@_15LCHLGJII@?$AAs?$AAl?$AA?$AA@ 0000000180037590     libucrt:lcidtoname_downlevel.obj
 0002:00004598       ??_C@_15PCFJPHHO@?$AAe?$AAt?$AA?$AA@ 0000000180037598     libucrt:lcidtoname_downlevel.obj
 0002:000045a0       ??_C@_15HPFPGODN@?$AAl?$AAv?$AA?$AA@ 00000001800375a0     libucrt:lcidtoname_downlevel.obj
 0002:000045a8       ??_C@_15NFFGKGLG@?$AAl?$AAt?$AA?$AA@ 00000001800375a8     libucrt:lcidtoname_downlevel.obj
 0002:000045b0       ??_C@_15BDAKCCHN@?$AAf?$AAa?$AA?$AA@ 00000001800375b0     libucrt:lcidtoname_downlevel.obj
 0002:000045b8       ??_C@_15NFGIAIAJ@?$AAv?$AAi?$AA?$AA@ 00000001800375b8     libucrt:lcidtoname_downlevel.obj
 0002:000045c0       ??_C@_15LMKNDMHN@?$AAh?$AAy?$AA?$AA@ 00000001800375c0     libucrt:lcidtoname_downlevel.obj
 0002:000045c8       ??_C@_15IJBHMCFL@?$AAa?$AAz?$AA?$AA@ 00000001800375c8     libucrt:lcidtoname_downlevel.obj
 0002:000045d0       ??_C@_15EKOFJABL@?$AAe?$AAu?$AA?$AA@ 00000001800375d0     libucrt:lcidtoname_downlevel.obj
 0002:000045d8       ??_C@_15BGHADCNK@?$AAm?$AAk?$AA?$AA@ 00000001800375d8     libucrt:lcidtoname_downlevel.obj
 0002:000045e0       ??_C@_15JDNICKHM@?$AAa?$AAf?$AA?$AA@ 00000001800375e0     libucrt:lcidtoname_downlevel.obj
 0002:000045e8       ??_C@_15KPJEDBKD@?$AAk?$AAa?$AA?$AA@ 00000001800375e8     libucrt:lcidtoname_downlevel.obj
 0002:000045f0       ??_C@_15PDNFFFEO@?$AAf?$AAo?$AA?$AA@ 00000001800375f0     libucrt:lcidtoname_downlevel.obj
 0002:000045f8       ??_C@_15OMLEGLOC@?$AAh?$AAi?$AA?$AA@ 00000001800375f8     libucrt:lcidtoname_downlevel.obj
 0002:00004600       ??_C@_15IDNNENKK@?$AAm?$AAs?$AA?$AA@ 0000000180037600     libucrt:lcidtoname_downlevel.obj
 0002:00004608       ??_C@_15MACJNBMH@?$AAk?$AAk?$AA?$AA@ 0000000180037608     libucrt:lcidtoname_downlevel.obj
 0002:00004610       ??_C@_15DKDJEOND@?$AAk?$AAy?$AA?$AA@ 0000000180037610     libucrt:lcidtoname_downlevel.obj
 0002:00004618       ??_C@_15DFGDLJBG@?$AAs?$AAw?$AA?$AA@ 0000000180037618     libucrt:lcidtoname_downlevel.obj
 0002:00004620       ??_C@_15BBFAICNG@?$AAu?$AAz?$AA?$AA@ 0000000180037620     libucrt:lcidtoname_downlevel.obj
 0002:00004628       ??_C@_15DKNDCGEA@?$AAt?$AAt?$AA?$AA@ 0000000180037628     libucrt:lcidtoname_downlevel.obj
 0002:00004630       ??_C@_15MGIFMDPL@?$AAp?$AAa?$AA?$AA@ 0000000180037630     libucrt:lcidtoname_downlevel.obj
 0002:00004638       ??_C@_15HCNDBBA@?$AAg?$AAu?$AA?$AA@ 0000000180037638     libucrt:lcidtoname_downlevel.obj
 0002:00004640       ??_C@_15FNBEIBON@?$AAt?$AAa?$AA?$AA@ 0000000180037640     libucrt:lcidtoname_downlevel.obj
 0002:00004648       ??_C@_15NCHGBGLK@?$AAt?$AAe?$AA?$AA@ 0000000180037648     libucrt:lcidtoname_downlevel.obj
 0002:00004650       ??_C@_15PHPHCBPF@?$AAk?$AAn?$AA?$AA@ 0000000180037650     libucrt:lcidtoname_downlevel.obj
 0002:00004658       ??_C@_15DLGBCKMP@?$AAm?$AAr?$AA?$AA@ 0000000180037658     libucrt:lcidtoname_downlevel.obj
 0002:00004660       ??_C@_15EABBLBFF@?$AAs?$AAa?$AA?$AA@ 0000000180037660     libucrt:lcidtoname_downlevel.obj
 0002:00004668       ??_C@_15CBKOMCOI@?$AAm?$AAn?$AA?$AA@ 0000000180037668     libucrt:lcidtoname_downlevel.obj
 0002:00004670       ??_C@_15CKDMCJAF@?$AAg?$AAl?$AA?$AA@ 0000000180037670     libucrt:lcidtoname_downlevel.obj
 0002:00004678       ??_C@_17CNJFBPG@?$AAk?$AAo?$AAk?$AA?$AA@ 0000000180037678     libucrt:lcidtoname_downlevel.obj
 0002:00004680       ??_C@_17FFBJICPL@?$AAs?$AAy?$AAr?$AA?$AA@ 0000000180037680     libucrt:lcidtoname_downlevel.obj
 0002:00004688       ??_C@_17KPNDCPAF@?$AAd?$AAi?$AAv?$AA?$AA@ 0000000180037688     libucrt:lcidtoname_downlevel.obj
 0002:00004690       ??_C@_11LOCGONAA@?$AA?$AA@ 0000000180037690     libucrt:lcidtoname_downlevel.obj
 0002:00004698       ??_C@_1M@OKAHONE@?$AAa?$AAr?$AA?9?$AAS?$AAA?$AA?$AA@ 0000000180037698     libucrt:lcidtoname_downlevel.obj
 0002:000046a8       ??_C@_1M@FFFIGIGK@?$AAb?$AAg?$AA?9?$AAB?$AAG?$AA?$AA@ 00000001800376a8     libucrt:lcidtoname_downlevel.obj
 0002:000046b8       ??_C@_1M@BJNKEDC@?$AAc?$AAa?$AA?9?$AAE?$AAS?$AA?$AA@ 00000001800376b8     libucrt:lcidtoname_downlevel.obj
 0002:000046c8       ??_C@_1M@IJJHFJHA@?$AAc?$AAs?$AA?9?$AAC?$AAZ?$AA?$AA@ 00000001800376c8     libucrt:lcidtoname_downlevel.obj
 0002:000046d8       ??_C@_1M@CLPEOBGI@?$AAd?$AAa?$AA?9?$AAD?$AAK?$AA?$AA@ 00000001800376d8     libucrt:lcidtoname_downlevel.obj
 0002:000046e8       ??_C@_1M@MCMADGCB@?$AAd?$AAe?$AA?9?$AAD?$AAE?$AA?$AA@ 00000001800376e8     libucrt:lcidtoname_downlevel.obj
 0002:000046f8       ??_C@_1M@OOCKEMAM@?$AAe?$AAl?$AA?9?$AAG?$AAR?$AA?$AA@ 00000001800376f8     libucrt:lcidtoname_downlevel.obj
 0002:00004708       ??_C@_1M@DDNJFGID@?$AAf?$AAi?$AA?9?$AAF?$AAI?$AA?$AA@ 0000000180037708     libucrt:lcidtoname_downlevel.obj
 0002:00004718       ??_C@_1M@GLIPPMAC@?$AAf?$AAr?$AA?9?$AAF?$AAR?$AA?$AA@ 0000000180037718     libucrt:lcidtoname_downlevel.obj
 0002:00004728       ??_C@_1M@GFMCHPE@?$AAh?$AAe?$AA?9?$AAI?$AAL?$AA?$AA@ 0000000180037728     libucrt:lcidtoname_downlevel.obj
 0002:00004738       ??_C@_1M@MHLPGNKM@?$AAh?$AAu?$AA?9?$AAH?$AAU?$AA?$AA@ 0000000180037738     libucrt:lcidtoname_downlevel.obj
 0002:00004748       ??_C@_1M@LPDDNNPN@?$AAi?$AAs?$AA?9?$AAI?$AAS?$AA?$AA@ 0000000180037748     libucrt:lcidtoname_downlevel.obj
 0002:00004758       ??_C@_1M@MADIPODN@?$AAi?$AAt?$AA?9?$AAI?$AAT?$AA?$AA@ 0000000180037758     libucrt:lcidtoname_downlevel.obj
 0002:00004768       ??_C@_1M@IHBJJGG@?$AAn?$AAl?$AA?9?$AAN?$AAL?$AA?$AA@ 0000000180037768     libucrt:lcidtoname_downlevel.obj
 0002:00004778       ??_C@_1M@EANAGDL@?$AAn?$AAb?$AA?9?$AAN?$AAO?$AA?$AA@ 0000000180037778     libucrt:lcidtoname_downlevel.obj
 0002:00004788       ??_C@_1M@NEIEMEGP@?$AAp?$AAl?$AA?9?$AAP?$AAL?$AA?$AA@ 0000000180037788     libucrt:lcidtoname_downlevel.obj
 0002:00004798       ??_C@_1M@BOCFIGEP@?$AAp?$AAt?$AA?9?$AAB?$AAR?$AA?$AA@ 0000000180037798     libucrt:lcidtoname_downlevel.obj
 0002:000047a8       ??_C@_1M@IMPFOPBG@?$AAr?$AAo?$AA?9?$AAR?$AAO?$AA?$AA@ 00000001800377a8     libucrt:lcidtoname_downlevel.obj
 0002:000047b8       ??_C@_1M@IDNNEJMM@?$AAr?$AAu?$AA?9?$AAR?$AAU?$AA?$AA@ 00000001800377b8     libucrt:lcidtoname_downlevel.obj
 0002:000047c8       ??_C@_1M@LILEEOGM@?$AAh?$AAr?$AA?9?$AAH?$AAR?$AA?$AA@ 00000001800377c8     libucrt:lcidtoname_downlevel.obj
 0002:000047d8       ??_C@_1M@FKIFEHPB@?$AAs?$AAk?$AA?9?$AAS?$AAK?$AA?$AA@ 00000001800377d8     libucrt:lcidtoname_downlevel.obj
 0002:000047e8       ??_C@_1M@LJMAMNPJ@?$AAs?$AAq?$AA?9?$AAA?$AAL?$AA?$AA@ 00000001800377e8     libucrt:lcidtoname_downlevel.obj
 0002:000047f8       ??_C@_1M@GIAKDKJK@?$AAs?$AAv?$AA?9?$AAS?$AAE?$AA?$AA@ 00000001800377f8     libucrt:lcidtoname_downlevel.obj
 0002:00004808       ??_C@_1M@MKJKIKCL@?$AAt?$AAh?$AA?9?$AAT?$AAH?$AA?$AA@ 0000000180037808     libucrt:lcidtoname_downlevel.obj
 0002:00004818       ??_C@_1M@MFLCCMPB@?$AAt?$AAr?$AA?9?$AAT?$AAR?$AA?$AA@ 0000000180037818     libucrt:lcidtoname_downlevel.obj
 0002:00004828       ??_C@_1M@OIJHDKJN@?$AAu?$AAr?$AA?9?$AAP?$AAK?$AA?$AA@ 0000000180037828     libucrt:lcidtoname_downlevel.obj
 0002:00004838       ??_C@_1M@LHIPCIEK@?$AAi?$AAd?$AA?9?$AAI?$AAD?$AA?$AA@ 0000000180037838     libucrt:lcidtoname_downlevel.obj
 0002:00004848       ??_C@_1M@MFMOBGI@?$AAu?$AAk?$AA?9?$AAU?$AAA?$AA?$AA@ 0000000180037848     libucrt:lcidtoname_downlevel.obj
 0002:00004858       ??_C@_1M@OBGLJIPL@?$AAb?$AAe?$AA?9?$AAB?$AAY?$AA?$AA@ 0000000180037858     libucrt:lcidtoname_downlevel.obj
 0002:00004868       ??_C@_1M@BCFAJEAD@?$AAs?$AAl?$AA?9?$AAS?$AAI?$AA?$AA@ 0000000180037868     libucrt:lcidtoname_downlevel.obj
 0002:00004878       ??_C@_1M@FKFFEDDN@?$AAe?$AAt?$AA?9?$AAE?$AAE?$AA?$AA@ 0000000180037878     libucrt:lcidtoname_downlevel.obj
 0002:00004888       ??_C@_1M@KGKKAACI@?$AAl?$AAv?$AA?9?$AAL?$AAV?$AA?$AA@ 0000000180037888     libucrt:lcidtoname_downlevel.obj
 0002:00004898       ??_C@_1M@IFGBIJO@?$AAl?$AAt?$AA?9?$AAL?$AAT?$AA?$AA@ 0000000180037898     libucrt:lcidtoname_downlevel.obj
 0002:000048a8       ??_C@_1M@FGEAHEDM@?$AAf?$AAa?$AA?9?$AAI?$AAR?$AA?$AA@ 00000001800378a8     libucrt:lcidtoname_downlevel.obj
 0002:000048b8       ??_C@_1M@KBMAIBFN@?$AAv?$AAi?$AA?9?$AAV?$AAN?$AA?$AA@ 00000001800378b8     libucrt:lcidtoname_downlevel.obj
 0002:000048c8       ??_C@_1M@GPCBKDJK@?$AAh?$AAy?$AA?9?$AAA?$AAM?$AA?$AA@ 00000001800378c8     libucrt:lcidtoname_downlevel.obj
 0002:000048d8       ??_C@_1BG@BECMDDJB@?$AAa?$AAz?$AA?9?$AAA?$AAZ?$AA?9?$AAL?$AAa?$AAt?$AAn?$AA?$AA@ 00000001800378d8     libucrt:lcidtoname_downlevel.obj
 0002:000048f0       ??_C@_1M@MAOFCAEA@?$AAe?$AAu?$AA?9?$AAE?$AAS?$AA?$AA@ 00000001800378f0     libucrt:lcidtoname_downlevel.obj
 0002:00004900       ??_C@_1M@IGHABKPI@?$AAm?$AAk?$AA?9?$AAM?$AAK?$AA?$AA@ 0000000180037900     libucrt:lcidtoname_downlevel.obj
 0002:00004910       ??_C@_1M@IAIGNEJG@?$AAt?$AAn?$AA?9?$AAZ?$AAA?$AA?$AA@ 0000000180037910     libucrt:lcidtoname_downlevel.obj
 0002:00004920       ??_C@_1M@IIJCOJFA@?$AAx?$AAh?$AA?9?$AAZ?$AAA?$AA?$AA@ 0000000180037920     libucrt:lcidtoname_downlevel.obj
 0002:00004930       ??_C@_1M@LGPJHNJH@?$AAz?$AAu?$AA?9?$AAZ?$AAA?$AA?$AA@ 0000000180037930     libucrt:lcidtoname_downlevel.obj
 0002:00004940       ??_C@_1M@HOKAOIO@?$AAa?$AAf?$AA?9?$AAZ?$AAA?$AA?$AA@ 0000000180037940     libucrt:lcidtoname_downlevel.obj
 0002:00004950       ??_C@_1M@DPCLHLIE@?$AAk?$AAa?$AA?9?$AAG?$AAE?$AA?$AA@ 0000000180037950     libucrt:lcidtoname_downlevel.obj
 0002:00004960       ??_C@_1M@BLKMHJBI@?$AAf?$AAo?$AA?9?$AAF?$AAO?$AA?$AA@ 0000000180037960     libucrt:lcidtoname_downlevel.obj
 0002:00004970       ??_C@_1M@LGGJAPPB@?$AAh?$AAi?$AA?9?$AAI?$AAN?$AA?$AA@ 0000000180037970     libucrt:lcidtoname_downlevel.obj
 0002:00004980       ??_C@_1M@FIKPIHFE@?$AAm?$AAt?$AA?9?$AAM?$AAT?$AA?$AA@ 0000000180037980     libucrt:lcidtoname_downlevel.obj
 0002:00004990       ??_C@_1M@HEGGPBFA@?$AAs?$AAe?$AA?9?$AAN?$AAO?$AA?$AA@ 0000000180037990     libucrt:lcidtoname_downlevel.obj
 0002:000049a0       ??_C@_1M@EIBJEEPA@?$AAm?$AAs?$AA?9?$AAM?$AAY?$AA?$AA@ 00000001800379a0     libucrt:lcidtoname_downlevel.obj
 0002:000049b0       ??_C@_1M@FHLBGMPP@?$AAk?$AAk?$AA?9?$AAK?$AAZ?$AA?$AA@ 00000001800379b0     libucrt:lcidtoname_downlevel.obj
 0002:000049c0       ??_C@_1M@NGJJLCGI@?$AAk?$AAy?$AA?9?$AAK?$AAG?$AA?$AA@ 00000001800379c0     libucrt:lcidtoname_downlevel.obj
 0002:000049d0       ??_C@_1M@GIENNBFC@?$AAs?$AAw?$AA?9?$AAK?$AAE?$AA?$AA@ 00000001800379d0     libucrt:lcidtoname_downlevel.obj
 0002:000049e0       ??_C@_1BG@NDGMJIMJ@?$AAu?$AAz?$AA?9?$AAU?$AAZ?$AA?9?$AAL?$AAa?$AAt?$AAn?$AA?$AA@ 00000001800379e0     libucrt:lcidtoname_downlevel.obj
 0002:000049f8       ??_C@_1M@IDCCIHBC@?$AAt?$AAt?$AA?9?$AAR?$AAU?$AA?$AA@ 00000001800379f8     libucrt:lcidtoname_downlevel.obj
 0002:00004a08       ??_C@_1M@LOICPMOJ@?$AAb?$AAn?$AA?9?$AAI?$AAN?$AA?$AA@ 0000000180037a08     libucrt:lcidtoname_downlevel.obj
 0002:00004a18       ??_C@_1M@KPKKNEAH@?$AAp?$AAa?$AA?9?$AAI?$AAN?$AA?$AA@ 0000000180037a18     libucrt:lcidtoname_downlevel.obj
 0002:00004a28       ??_C@_1M@PJGPPBOG@?$AAg?$AAu?$AA?9?$AAI?$AAN?$AA?$AA@ 0000000180037a28     libucrt:lcidtoname_downlevel.obj
 0002:00004a38       ??_C@_1M@KMKMOPHI@?$AAt?$AAa?$AA?9?$AAI?$AAN?$AA?$AA@ 0000000180037a38     libucrt:lcidtoname_downlevel.obj
 0002:00004a48       ??_C@_1M@KFEHEPAC@?$AAt?$AAe?$AA?9?$AAI?$AAN?$AA?$AA@ 0000000180037a48     libucrt:lcidtoname_downlevel.obj
 0002:00004a58       ??_C@_1M@CDCLMGHI@?$AAk?$AAn?$AA?9?$AAI?$AAN?$AA?$AA@ 0000000180037a58     libucrt:lcidtoname_downlevel.obj
 0002:00004a68       ??_C@_1M@MIODLDKF@?$AAm?$AAl?$AA?9?$AAI?$AAN?$AA?$AA@ 0000000180037a68     libucrt:lcidtoname_downlevel.obj
 0002:00004a78       ??_C@_1M@PBIEACPO@?$AAm?$AAr?$AA?9?$AAI?$AAN?$AA?$AA@ 0000000180037a78     libucrt:lcidtoname_downlevel.obj
 0002:00004a88       ??_C@_1M@NIDEAGPH@?$AAs?$AAa?$AA?9?$AAI?$AAN?$AA?$AA@ 0000000180037a88     libucrt:lcidtoname_downlevel.obj
 0002:00004a98       ??_C@_1M@FHIHCBIO@?$AAm?$AAn?$AA?9?$AAM?$AAN?$AA?$AA@ 0000000180037a98     libucrt:lcidtoname_downlevel.obj
 0002:00004aa8       ??_C@_1M@JAIJPENP@?$AAc?$AAy?$AA?9?$AAG?$AAB?$AA?$AA@ 0000000180037aa8     libucrt:lcidtoname_downlevel.obj
 0002:00004ab8       ??_C@_1M@PHGFBEPN@?$AAg?$AAl?$AA?9?$AAE?$AAS?$AA?$AA@ 0000000180037ab8     libucrt:lcidtoname_downlevel.obj
 0002:00004ac8       ??_C@_1O@KPIPDNCP@?$AAk?$AAo?$AAk?$AA?9?$AAI?$AAN?$AA?$AA@ 0000000180037ac8     libucrt:lcidtoname_downlevel.obj
 0002:00004ad8       ??_C@_1O@KNHJLDJA@?$AAs?$AAy?$AAr?$AA?9?$AAS?$AAY?$AA?$AA@ 0000000180037ad8     libucrt:lcidtoname_downlevel.obj
 0002:00004ae8       ??_C@_1O@MKEKBLAH@?$AAd?$AAi?$AAv?$AA?9?$AAM?$AAV?$AA?$AA@ 0000000180037ae8     libucrt:lcidtoname_downlevel.obj
 0002:00004af8       ??_C@_1O@OHDCKDDF@?$AAq?$AAu?$AAz?$AA?9?$AAB?$AAO?$AA?$AA@ 0000000180037af8     libucrt:lcidtoname_downlevel.obj
 0002:00004b08       ??_C@_1M@LEPJNLFD@?$AAn?$AAs?$AA?9?$AAZ?$AAA?$AA?$AA@ 0000000180037b08     libucrt:lcidtoname_downlevel.obj
 0002:00004b18       ??_C@_1M@OMLEIIJB@?$AAm?$AAi?$AA?9?$AAN?$AAZ?$AA?$AA@ 0000000180037b18     libucrt:lcidtoname_downlevel.obj
 0002:00004b28       ??_C@_1M@PMPEAILG@?$AAa?$AAr?$AA?9?$AAI?$AAQ?$AA?$AA@ 0000000180037b28     libucrt:lcidtoname_downlevel.obj
 0002:00004b38       ??_C@_1M@CNKPNOEE@?$AAd?$AAe?$AA?9?$AAC?$AAH?$AA?$AA@ 0000000180037b38     libucrt:lcidtoname_downlevel.obj
 0002:00004b48       ??_C@_1M@LKMGMLKO@?$AAe?$AAn?$AA?9?$AAG?$AAB?$AA?$AA@ 0000000180037b48     libucrt:lcidtoname_downlevel.obj
 0002:00004b58       ??_C@_1M@PGKJFFGL@?$AAe?$AAs?$AA?9?$AAM?$AAX?$AA?$AA@ 0000000180037b58     libucrt:lcidtoname_downlevel.obj
 0002:00004b68       ??_C@_1M@DNNANBDC@?$AAf?$AAr?$AA?9?$AAB?$AAE?$AA?$AA@ 0000000180037b68     libucrt:lcidtoname_downlevel.obj
 0002:00004b78       ??_C@_1M@HLGMDFHM@?$AAi?$AAt?$AA?9?$AAC?$AAH?$AA?$AA@ 0000000180037b78     libucrt:lcidtoname_downlevel.obj
 0002:00004b88       ??_C@_1M@CLLBGJH@?$AAn?$AAl?$AA?9?$AAB?$AAE?$AA?$AA@ 0000000180037b88     libucrt:lcidtoname_downlevel.obj
 0002:00004b98       ??_C@_1M@BODBOGLF@?$AAn?$AAn?$AA?9?$AAN?$AAO?$AA?$AA@ 0000000180037b98     libucrt:lcidtoname_downlevel.obj
 0002:00004ba8       ??_C@_1M@HFFAHKAD@?$AAp?$AAt?$AA?9?$AAP?$AAT?$AA?$AA@ 0000000180037ba8     libucrt:lcidtoname_downlevel.obj
 0002:00004bb8       ??_C@_1BG@LNOAKHIE@?$AAs?$AAr?$AA?9?$AAS?$AAP?$AA?9?$AAL?$AAa?$AAt?$AAn?$AA?$AA@ 0000000180037bb8     libucrt:lcidtoname_downlevel.obj
 0002:00004bd0       ??_C@_1M@HBMHBGAK@?$AAs?$AAv?$AA?9?$AAF?$AAI?$AA?$AA@ 0000000180037bd0     libucrt:lcidtoname_downlevel.obj
 0002:00004be0       ??_C@_1BG@DGCJGJBE@?$AAa?$AAz?$AA?9?$AAA?$AAZ?$AA?9?$AAC?$AAy?$AAr?$AAl?$AA?$AA@ 0000000180037be0     libucrt:lcidtoname_downlevel.obj
 0002:00004bf8       ??_C@_1M@KEJDAAHB@?$AAs?$AAe?$AA?9?$AAS?$AAE?$AA?$AA@ 0000000180037bf8     libucrt:lcidtoname_downlevel.obj
 0002:00004c08       ??_C@_1M@HEIBJJAD@?$AAm?$AAs?$AA?9?$AAB?$AAN?$AA?$AA@ 0000000180037c08     libucrt:lcidtoname_downlevel.obj
 0002:00004c18       ??_C@_1BG@PBGJMCEM@?$AAu?$AAz?$AA?9?$AAU?$AAZ?$AA?9?$AAC?$AAy?$AAr?$AAl?$AA?$AA@ 0000000180037c18     libucrt:lcidtoname_downlevel.obj
 0002:00004c30       ??_C@_1O@LAOBCMDF@?$AAq?$AAu?$AAz?$AA?9?$AAE?$AAC?$AA?$AA@ 0000000180037c30     libucrt:lcidtoname_downlevel.obj
 0002:00004c40       ??_C@_1M@POEEMAIO@?$AAa?$AAr?$AA?9?$AAE?$AAG?$AA?$AA@ 0000000180037c40     libucrt:lcidtoname_downlevel.obj
 0002:00004c50       ??_C@_1M@EFAKDEDL@?$AAz?$AAh?$AA?9?$AAH?$AAK?$AA?$AA@ 0000000180037c50     libucrt:lcidtoname_downlevel.obj
 0002:00004c60       ??_C@_1M@HKKIJHGI@?$AAd?$AAe?$AA?9?$AAA?$AAT?$AA?$AA@ 0000000180037c60     libucrt:lcidtoname_downlevel.obj
 0002:00004c70       ??_C@_1M@KBFBEHJF@?$AAe?$AAn?$AA?9?$AAA?$AAU?$AA?$AA@ 0000000180037c70     libucrt:lcidtoname_downlevel.obj
 0002:00004c80       ??_C@_1M@MNPLFAAH@?$AAe?$AAs?$AA?9?$AAE?$AAS?$AA?$AA@ 0000000180037c80     libucrt:lcidtoname_downlevel.obj
 0002:00004c90       ??_C@_1M@HJOOJFMA@?$AAf?$AAr?$AA?9?$AAC?$AAA?$AA?$AA@ 0000000180037c90     libucrt:lcidtoname_downlevel.obj
 0002:00004ca0       ??_C@_1BG@JPOFPNAB@?$AAs?$AAr?$AA?9?$AAS?$AAP?$AA?9?$AAC?$AAy?$AAr?$AAl?$AA?$AA@ 0000000180037ca0     libucrt:lcidtoname_downlevel.obj
 0002:00004cb8       ??_C@_1M@LNFOCMOB@?$AAs?$AAe?$AA?9?$AAF?$AAI?$AA?$AA@ 0000000180037cb8     libucrt:lcidtoname_downlevel.obj
 0002:00004cc8       ??_C@_1O@MGJBOAMB@?$AAq?$AAu?$AAz?$AA?9?$AAP?$AAE?$AA?$AA@ 0000000180037cc8     libucrt:lcidtoname_downlevel.obj
 0002:00004cd8       ??_C@_1M@GJINLBOK@?$AAa?$AAr?$AA?9?$AAL?$AAY?$AA?$AA@ 0000000180037cd8     libucrt:lcidtoname_downlevel.obj
 0002:00004ce8       ??_C@_1M@GGMNHJNL@?$AAz?$AAh?$AA?9?$AAS?$AAG?$AA?$AA@ 0000000180037ce8     libucrt:lcidtoname_downlevel.obj
 0002:00004cf8       ??_C@_1M@HOIKODND@?$AAd?$AAe?$AA?9?$AAL?$AAU?$AA?$AA@ 0000000180037cf8     libucrt:lcidtoname_downlevel.obj
 0002:00004d08       ??_C@_1M@DDOCCGFG@?$AAe?$AAn?$AA?9?$AAC?$AAA?$AA?$AA@ 0000000180037d08     libucrt:lcidtoname_downlevel.obj
 0002:00004d18       ??_C@_1M@BNOEMJLF@?$AAe?$AAs?$AA?9?$AAG?$AAT?$AA?$AA@ 0000000180037d18     libucrt:lcidtoname_downlevel.obj
 0002:00004d28       ??_C@_1M@EOGNKEK@?$AAf?$AAr?$AA?9?$AAC?$AAH?$AA?$AA@ 0000000180037d28     libucrt:lcidtoname_downlevel.obj
 0002:00004d38       ??_C@_1M@FLIDJFHL@?$AAh?$AAr?$AA?9?$AAB?$AAA?$AA?$AA@ 0000000180037d38     libucrt:lcidtoname_downlevel.obj
 0002:00004d48       ??_C@_1O@FMCELNAJ@?$AAs?$AAm?$AAj?$AA?9?$AAN?$AAO?$AA?$AA@ 0000000180037d48     libucrt:lcidtoname_downlevel.obj
 0002:00004d58       ??_C@_1M@JHGLJMGJ@?$AAa?$AAr?$AA?9?$AAD?$AAZ?$AA?$AA@ 0000000180037d58     libucrt:lcidtoname_downlevel.obj
 0002:00004d68       ??_C@_1M@JKKFDCNP@?$AAz?$AAh?$AA?9?$AAM?$AAO?$AA?$AA@ 0000000180037d68     libucrt:lcidtoname_downlevel.obj
 0002:00004d78       ??_C@_1M@GEEFALPE@?$AAd?$AAe?$AA?9?$AAL?$AAI?$AA?$AA@ 0000000180037d78     libucrt:lcidtoname_downlevel.obj
 0002:00004d88       ??_C@_1M@IGEOFBG@?$AAe?$AAn?$AA?9?$AAN?$AAZ?$AA?$AA@ 0000000180037d88     libucrt:lcidtoname_downlevel.obj
 0002:00004d98       ??_C@_1M@KDBONEHP@?$AAe?$AAs?$AA?9?$AAC?$AAR?$AA?$AA@ 0000000180037d98     libucrt:lcidtoname_downlevel.obj
 0002:00004da8       ??_C@_1M@FHMDOHNN@?$AAf?$AAr?$AA?9?$AAL?$AAU?$AA?$AA@ 0000000180037da8     libucrt:lcidtoname_downlevel.obj
 0002:00004db8       ??_C@_1BG@NFKKMAFG@?$AAb?$AAs?$AA?9?$AAB?$AAA?$AA?9?$AAL?$AAa?$AAt?$AAn?$AA?$AA@ 0000000180037db8     libucrt:lcidtoname_downlevel.obj
 0002:00004dd0       ??_C@_1O@IMNBEMCI@?$AAs?$AAm?$AAj?$AA?9?$AAS?$AAE?$AA?$AA@ 0000000180037dd0     libucrt:lcidtoname_downlevel.obj
 0002:00004de0       ??_C@_1M@DHHMBNDP@?$AAa?$AAr?$AA?9?$AAM?$AAA?$AA?$AA@ 0000000180037de0     libucrt:lcidtoname_downlevel.obj
 0002:00004df0       ??_C@_1M@BNBLJCGH@?$AAe?$AAn?$AA?9?$AAI?$AAE?$AA?$AA@ 0000000180037df0     libucrt:lcidtoname_downlevel.obj
 0002:00004e00       ??_C@_1M@GEPAFMDL@?$AAe?$AAs?$AA?9?$AAP?$AAA?$AA?$AA@ 0000000180037e00     libucrt:lcidtoname_downlevel.obj
 0002:00004e10       ??_C@_1M@OJONDMDL@?$AAf?$AAr?$AA?9?$AAM?$AAC?$AA?$AA@ 0000000180037e10     libucrt:lcidtoname_downlevel.obj
 0002:00004e20       ??_C@_1BG@OBCNFJB@?$AAs?$AAr?$AA?9?$AAB?$AAA?$AA?9?$AAL?$AAa?$AAt?$AAn?$AA?$AA@ 0000000180037e20     libucrt:lcidtoname_downlevel.obj
 0002:00004e38       ??_C@_1O@KEMEEGPO@?$AAs?$AAm?$AAa?$AA?9?$AAN?$AAO?$AA?$AA@ 0000000180037e38     libucrt:lcidtoname_downlevel.obj
 0002:00004e48       ??_C@_1M@ELMGFODK@?$AAa?$AAr?$AA?9?$AAT?$AAN?$AA?$AA@ 0000000180037e48     libucrt:lcidtoname_downlevel.obj
 0002:00004e58       ??_C@_1M@BHDLHFAF@?$AAe?$AAn?$AA?9?$AAZ?$AAA?$AA?$AA@ 0000000180037e58     libucrt:lcidtoname_downlevel.obj
 0002:00004e68       ??_C@_1M@BMGIGLIF@?$AAe?$AAs?$AA?9?$AAD?$AAO?$AA?$AA@ 0000000180037e68     libucrt:lcidtoname_downlevel.obj
 0002:00004e78       ??_C@_1BG@CMBHIPBE@?$AAs?$AAr?$AA?9?$AAB?$AAA?$AA?9?$AAC?$AAy?$AAr?$AAl?$AA?$AA@ 0000000180037e78     libucrt:lcidtoname_downlevel.obj
 0002:00004e90       ??_C@_1O@HEDBLHNP@?$AAs?$AAm?$AAa?$AA?9?$AAS?$AAE?$AA?$AA@ 0000000180037e90     libucrt:lcidtoname_downlevel.obj
 0002:00004ea0       ??_C@_1M@DAGCADIM@?$AAa?$AAr?$AA?9?$AAO?$AAM?$AA?$AA@ 0000000180037ea0     libucrt:lcidtoname_downlevel.obj
 0002:00004eb0       ??_C@_1M@FODLMICG@?$AAe?$AAn?$AA?9?$AAJ?$AAM?$AA?$AA@ 0000000180037eb0     libucrt:lcidtoname_downlevel.obj
 0002:00004ec0       ??_C@_1M@DNMLCIHB@?$AAe?$AAs?$AA?9?$AAV?$AAE?$AA?$AA@ 0000000180037ec0     libucrt:lcidtoname_downlevel.obj
 0002:00004ed0       ??_C@_1O@EOKHMKJK@?$AAs?$AAm?$AAs?$AA?9?$AAF?$AAI?$AA?$AA@ 0000000180037ed0     libucrt:lcidtoname_downlevel.obj
 0002:00004ee0       ??_C@_1M@CAFJMKOF@?$AAa?$AAr?$AA?9?$AAY?$AAE?$AA?$AA@ 0000000180037ee0     libucrt:lcidtoname_downlevel.obj
 0002:00004ef0       ??_C@_1M@CBFHIJLI@?$AAe?$AAn?$AA?9?$AAC?$AAB?$AA?$AA@ 0000000180037ef0     libucrt:lcidtoname_downlevel.obj
 0002:00004f00       ??_C@_1M@BGNFLDN@?$AAe?$AAs?$AA?9?$AAC?$AAO?$AA?$AA@ 0000000180037f00     libucrt:lcidtoname_downlevel.obj
 0002:00004f10       ??_C@_1O@JMPHMAMC@?$AAs?$AAm?$AAn?$AA?9?$AAF?$AAI?$AA?$AA@ 0000000180037f10     libucrt:lcidtoname_downlevel.obj
 0002:00004f20       ??_C@_1M@JLANABKE@?$AAa?$AAr?$AA?9?$AAS?$AAY?$AA?$AA@ 0000000180037f20     libucrt:lcidtoname_downlevel.obj
 0002:00004f30       ??_C@_1M@HPKGCFGN@?$AAe?$AAn?$AA?9?$AAB?$AAZ?$AA?$AA@ 0000000180037f30     libucrt:lcidtoname_downlevel.obj
 0002:00004f40       ??_C@_1M@OLJCMLGM@?$AAe?$AAs?$AA?9?$AAP?$AAE?$AA?$AA@ 0000000180037f40     libucrt:lcidtoname_downlevel.obj
 0002:00004f50       ??_C@_1M@MKKGFKLE@?$AAa?$AAr?$AA?9?$AAJ?$AAO?$AA?$AA@ 0000000180037f50     libucrt:lcidtoname_downlevel.obj
 0002:00004f60       ??_C@_1M@EKPGLDNI@?$AAe?$AAn?$AA?9?$AAT?$AAT?$AA?$AA@ 0000000180037f60     libucrt:lcidtoname_downlevel.obj
 0002:00004f70       ??_C@_1M@OONGHFHE@?$AAe?$AAs?$AA?9?$AAA?$AAR?$AA?$AA@ 0000000180037f70     libucrt:lcidtoname_downlevel.obj
 0002:00004f80       ??_C@_1M@OOJFGBHE@?$AAa?$AAr?$AA?9?$AAL?$AAB?$AA?$AA@ 0000000180037f80     libucrt:lcidtoname_downlevel.obj
 0002:00004f90       ??_C@_1M@GCEJHNEG@?$AAe?$AAn?$AA?9?$AAZ?$AAW?$AA?$AA@ 0000000180037f90     libucrt:lcidtoname_downlevel.obj
 0002:00004fa0       ??_C@_1M@JNOCAHJI@?$AAe?$AAs?$AA?9?$AAE?$AAC?$AA?$AA@ 0000000180037fa0     libucrt:lcidtoname_downlevel.obj
 0002:00004fb0       ??_C@_1M@JEFHPGGB@?$AAa?$AAr?$AA?9?$AAK?$AAW?$AA?$AA@ 0000000180037fb0     libucrt:lcidtoname_downlevel.obj
 0002:00004fc0       ??_C@_1M@MLKIBJOJ@?$AAe?$AAn?$AA?9?$AAP?$AAH?$AA?$AA@ 0000000180037fc0     libucrt:lcidtoname_downlevel.obj
 0002:00004fd0       ??_C@_1M@BDNIPEND@?$AAe?$AAs?$AA?9?$AAC?$AAL?$AA?$AA@ 0000000180037fd0     libucrt:lcidtoname_downlevel.obj
 0002:00004fe0       ??_C@_1M@MPNMEKBD@?$AAa?$AAr?$AA?9?$AAA?$AAE?$AA?$AA@ 0000000180037fe0     libucrt:lcidtoname_downlevel.obj
 0002:00004ff0       ??_C@_1M@KBJALCPI@?$AAe?$AAs?$AA?9?$AAU?$AAY?$AA?$AA@ 0000000180037ff0     libucrt:lcidtoname_downlevel.obj
 0002:00005000       ??_C@_1M@LLCCOAGA@?$AAa?$AAr?$AA?9?$AAB?$AAH?$AA?$AA@ 0000000180038000     libucrt:lcidtoname_downlevel.obj
 0002:00005010       ??_C@_1M@PBFNCDEL@?$AAe?$AAs?$AA?9?$AAP?$AAY?$AA?$AA@ 0000000180038010     libucrt:lcidtoname_downlevel.obj
 0002:00005020       ??_C@_1M@EDGINPNP@?$AAa?$AAr?$AA?9?$AAQ?$AAA?$AA?$AA@ 0000000180038020     libucrt:lcidtoname_downlevel.obj
 0002:00005030       ??_C@_1M@MKDBIIJI@?$AAe?$AAs?$AA?9?$AAB?$AAO?$AA?$AA@ 0000000180038030     libucrt:lcidtoname_downlevel.obj
 0002:00005040       ??_C@_1M@CPKKEBLD@?$AAe?$AAs?$AA?9?$AAS?$AAV?$AA?$AA@ 0000000180038040     libucrt:lcidtoname_downlevel.obj
 0002:00005050       ??_C@_1M@NDBGMMJL@?$AAe?$AAs?$AA?9?$AAH?$AAN?$AA?$AA@ 0000000180038050     libucrt:lcidtoname_downlevel.obj
 0002:00005060       ??_C@_1M@JIJIBHDP@?$AAe?$AAs?$AA?9?$AAN?$AAI?$AA?$AA@ 0000000180038060     libucrt:lcidtoname_downlevel.obj
 0002:00005070       ??_C@_1M@CGFMKEEK@?$AAe?$AAs?$AA?9?$AAP?$AAR?$AA?$AA@ 0000000180038070     libucrt:lcidtoname_downlevel.obj
 0002:00005080       ??_C@_1O@ICJHKIIK@?$AAz?$AAh?$AA?9?$AAC?$AAH?$AAT?$AA?$AA@ 0000000180038080     libucrt:lcidtoname_downlevel.obj
 0002:00005090       ??_C@_15CLNEJCE@?$AAs?$AAr?$AA?$AA@ 0000000180038090     libucrt:lcidtoname_downlevel.obj
 0002:00005ee0       ??_C@_1M@KAHEKEIG@?$AAa?$AAf?$AA?9?$AAz?$AAa?$AA?$AA@ 0000000180038ee0     libucrt:lcidtoname_downlevel.obj
 0002:00005ef0       ??_C@_1M@GIECOABL@?$AAa?$AAr?$AA?9?$AAa?$AAe?$AA?$AA@ 0000000180038ef0     libucrt:lcidtoname_downlevel.obj
 0002:00005f00       ??_C@_1M@BMLMEKGI@?$AAa?$AAr?$AA?9?$AAb?$AAh?$AA?$AA@ 0000000180038f00     libucrt:lcidtoname_downlevel.obj
 0002:00005f10       ??_C@_1M@DAPFDGGB@?$AAa?$AAr?$AA?9?$AAd?$AAz?$AA?$AA@ 0000000180038f10     libucrt:lcidtoname_downlevel.obj
 0002:00005f20       ??_C@_1M@FJNKGKIG@?$AAa?$AAr?$AA?9?$AAe?$AAg?$AA?$AA@ 0000000180038f20     libucrt:lcidtoname_downlevel.obj
 0002:00005f30       ??_C@_1M@FLGKKCLO@?$AAa?$AAr?$AA?9?$AAi?$AAq?$AA?$AA@ 0000000180038f30     libucrt:lcidtoname_downlevel.obj
 0002:00005f40       ??_C@_1M@GNDIPALM@?$AAa?$AAr?$AA?9?$AAj?$AAo?$AA?$AA@ 0000000180038f40     libucrt:lcidtoname_downlevel.obj
 0002:00005f50       ??_C@_1M@DDMJFMGJ@?$AAa?$AAr?$AA?9?$AAk?$AAw?$AA?$AA@ 0000000180038f50     libucrt:lcidtoname_downlevel.obj
 0002:00005f60       ??_C@_1M@EJALMLHM@?$AAa?$AAr?$AA?9?$AAl?$AAb?$AA?$AA@ 0000000180038f60     libucrt:lcidtoname_downlevel.obj
 0002:00005f70       ??_C@_1M@MOBDBLOC@?$AAa?$AAr?$AA?9?$AAl?$AAy?$AA?$AA@ 0000000180038f70     libucrt:lcidtoname_downlevel.obj
 0002:00005f80       ??_C@_1M@JAOCLHDH@?$AAa?$AAr?$AA?9?$AAm?$AAa?$AA?$AA@ 0000000180038f80     libucrt:lcidtoname_downlevel.obj
 0002:00005f90       ??_C@_1M@JHPMKJIE@?$AAa?$AAr?$AA?9?$AAo?$AAm?$AA?$AA@ 0000000180038f90     libucrt:lcidtoname_downlevel.obj
 0002:00005fa0       ??_C@_1M@OEPGHFNH@?$AAa?$AAr?$AA?9?$AAq?$AAa?$AA?$AA@ 0000000180038fa0     libucrt:lcidtoname_downlevel.obj
 0002:00005fb0       ??_C@_1M@KJDONENM@?$AAa?$AAr?$AA?9?$AAs?$AAa?$AA?$AA@ 0000000180038fb0     libucrt:lcidtoname_downlevel.obj
 0002:00005fc0       ??_C@_1M@DMJDKLKM@?$AAa?$AAr?$AA?9?$AAs?$AAy?$AA?$AA@ 0000000180038fc0     libucrt:lcidtoname_downlevel.obj
 0002:00005fd0       ??_C@_1M@OMFIPEDC@?$AAa?$AAr?$AA?9?$AAt?$AAn?$AA?$AA@ 0000000180038fd0     libucrt:lcidtoname_downlevel.obj
 0002:00005fe0       ??_C@_1M@IHMHGAON@?$AAa?$AAr?$AA?9?$AAy?$AAe?$AA?$AA@ 0000000180038fe0     libucrt:lcidtoname_downlevel.obj
 0002:00005ff0       ??_C@_1BG@KDCPGJGB@?$AAa?$AAz?$AA?9?$AAa?$AAz?$AA?9?$AAc?$AAy?$AAr?$AAl?$AA?$AA@ 0000000180038ff0     libucrt:lcidtoname_downlevel.obj
 0002:00006008       ??_C@_1BG@IBCKDDOE@?$AAa?$AAz?$AA?9?$AAa?$AAz?$AA?9?$AAl?$AAa?$AAt?$AAn?$AA?$AA@ 0000000180039008     libucrt:lcidtoname_downlevel.obj
 0002:00006020       ??_C@_1M@EGPFDCPD@?$AAb?$AAe?$AA?9?$AAb?$AAy?$AA?$AA@ 0000000180039020     libucrt:lcidtoname_downlevel.obj
 0002:00006030       ??_C@_1M@PCMGMCGC@?$AAb?$AAg?$AA?9?$AAb?$AAg?$AA?$AA@ 0000000180039030     libucrt:lcidtoname_downlevel.obj
 0002:00006040       ??_C@_1M@BJBMFGOB@?$AAb?$AAn?$AA?9?$AAi?$AAn?$AA?$AA@ 0000000180039040     libucrt:lcidtoname_downlevel.obj
 0002:00006050       ??_C@_1BG@EAKMMACD@?$AAb?$AAs?$AA?9?$AAb?$AAa?$AA?9?$AAl?$AAa?$AAt?$AAn?$AA?$AA@ 0000000180039050     libucrt:lcidtoname_downlevel.obj
 0002:00006068       ??_C@_1M@KGADAODK@?$AAc?$AAa?$AA?9?$AAe?$AAs?$AA?$AA@ 0000000180039068     libucrt:lcidtoname_downlevel.obj
 0002:00006078       ??_C@_1M@COAJPDHI@?$AAc?$AAs?$AA?9?$AAc?$AAz?$AA?$AA@ 0000000180039078     libucrt:lcidtoname_downlevel.obj
 0002:00006088       ??_C@_1M@DHBHFONH@?$AAc?$AAy?$AA?9?$AAg?$AAb?$AA?$AA@ 0000000180039088     libucrt:lcidtoname_downlevel.obj
 0002:00006098       ??_C@_1M@IMGKELGA@?$AAd?$AAa?$AA?9?$AAd?$AAk?$AA?$AA@ 0000000180039098     libucrt:lcidtoname_downlevel.obj
 0002:000060a8       ??_C@_1M@NNDGDNGA@?$AAd?$AAe?$AA?9?$AAa?$AAt?$AA?$AA@ 00000001800390a8     libucrt:lcidtoname_downlevel.obj
 0002:000060b8       ??_C@_1M@IKDBHEEM@?$AAd?$AAe?$AA?9?$AAc?$AAh?$AA?$AA@ 00000001800390b8     libucrt:lcidtoname_downlevel.obj
 0002:000060c8       ??_C@_1M@GFFOJMCJ@?$AAd?$AAe?$AA?9?$AAd?$AAe?$AA?$AA@ 00000001800390c8     libucrt:lcidtoname_downlevel.obj
 0002:000060d8       ??_C@_1M@MDNLKBPM@?$AAd?$AAe?$AA?9?$AAl?$AAi?$AA?$AA@ 00000001800390d8     libucrt:lcidtoname_downlevel.obj
 0002:000060e8       ??_C@_1M@NJBEEJNL@?$AAd?$AAe?$AA?9?$AAl?$AAu?$AA?$AA@ 00000001800390e8     libucrt:lcidtoname_downlevel.obj
 0002:000060f8       ??_C@_1O@GNNELBAP@?$AAd?$AAi?$AAv?$AA?9?$AAm?$AAv?$AA?$AA@ 00000001800390f8     libucrt:lcidtoname_downlevel.obj
 0002:00006108       ??_C@_1M@EJLEOGAE@?$AAe?$AAl?$AA?9?$AAg?$AAr?$AA?$AA@ 0000000180039108     libucrt:lcidtoname_downlevel.obj
 0002:00006118       ??_C@_1M@GMPONJN@?$AAe?$AAn?$AA?9?$AAa?$AAu?$AA?$AA@ 0000000180039118     libucrt:lcidtoname_downlevel.obj
 0002:00006128       ??_C@_1M@NIDIIPGF@?$AAe?$AAn?$AA?9?$AAb?$AAz?$AA?$AA@ 0000000180039128     libucrt:lcidtoname_downlevel.obj
 0002:00006138       ??_C@_1M@JEHMIMFO@?$AAe?$AAn?$AA?9?$AAc?$AAa?$AA?$AA@ 0000000180039138     libucrt:lcidtoname_downlevel.obj
 0002:00006148       ??_C@_1M@IGMJCDLA@?$AAe?$AAn?$AA?9?$AAc?$AAb?$AA?$AA@ 0000000180039148     libucrt:lcidtoname_downlevel.obj
 0002:00006158       ??_C@_1M@BNFIGBKG@?$AAe?$AAn?$AA?9?$AAg?$AAb?$AA?$AA@ 0000000180039158     libucrt:lcidtoname_downlevel.obj
 0002:00006168       ??_C@_1M@LKIFDIGP@?$AAe?$AAn?$AA?9?$AAi?$AAe?$AA?$AA@ 0000000180039168     libucrt:lcidtoname_downlevel.obj
 0002:00006178       ??_C@_1M@PJKFGCCO@?$AAe?$AAn?$AA?9?$AAj?$AAm?$AA?$AA@ 0000000180039178     libucrt:lcidtoname_downlevel.obj
 0002:00006188       ??_C@_1M@KPPKEPBO@?$AAe?$AAn?$AA?9?$AAn?$AAz?$AA?$AA@ 0000000180039188     libucrt:lcidtoname_downlevel.obj
 0002:00006198       ??_C@_1M@GMDGLDOB@?$AAe?$AAn?$AA?9?$AAp?$AAh?$AA?$AA@ 0000000180039198     libucrt:lcidtoname_downlevel.obj
 0002:000061a8       ??_C@_1M@ONGIBJNA@?$AAe?$AAn?$AA?9?$AAt?$AAt?$AA?$AA@ 00000001800391a8     libucrt:lcidtoname_downlevel.obj
 0002:000061b8       ??_C@_1M@LLODPCMM@?$AAe?$AAn?$AA?9?$AAu?$AAs?$AA?$AA@ 00000001800391b8     libucrt:lcidtoname_downlevel.obj
 0002:000061c8       ??_C@_1M@LAKFNPAN@?$AAe?$AAn?$AA?9?$AAz?$AAa?$AA?$AA@ 00000001800391c8     libucrt:lcidtoname_downlevel.obj
 0002:000061d8       ??_C@_1M@MFNHNHEO@?$AAe?$AAn?$AA?9?$AAz?$AAw?$AA?$AA@ 00000001800391d8     libucrt:lcidtoname_downlevel.obj
 0002:000061e8       ??_C@_1M@EJEINPHM@?$AAe?$AAs?$AA?9?$AAa?$AAr?$AA?$AA@ 00000001800391e8     libucrt:lcidtoname_downlevel.obj
 0002:000061f8       ??_C@_1M@GNKPCCJA@?$AAe?$AAs?$AA?9?$AAb?$AAo?$AA?$AA@ 00000001800391f8     libucrt:lcidtoname_downlevel.obj
 0002:00006208       ??_C@_1M@LEEGFONL@?$AAe?$AAs?$AA?9?$AAc?$AAl?$AA?$AA@ 0000000180039208     libucrt:lcidtoname_downlevel.obj
 0002:00006218       ??_C@_1M@KGPDPBDF@?$AAe?$AAs?$AA?9?$AAc?$AAo?$AA?$AA@ 0000000180039218     libucrt:lcidtoname_downlevel.obj
 0002:00006228       ??_C@_1M@EIAHOHH@?$AAe?$AAs?$AA?9?$AAc?$AAr?$AA?$AA@ 0000000180039228     libucrt:lcidtoname_downlevel.obj
 0002:00006238       ??_C@_1M@LLPGMBIN@?$AAe?$AAs?$AA?9?$AAd?$AAo?$AA?$AA@ 0000000180039238     libucrt:lcidtoname_downlevel.obj
 0002:00006248       ??_C@_1M@DKHMKNJA@?$AAe?$AAs?$AA?9?$AAe?$AAc?$AA?$AA@ 0000000180039248     libucrt:lcidtoname_downlevel.obj
 0002:00006258       ??_C@_1M@GKGFPKAP@?$AAe?$AAs?$AA?9?$AAe?$AAs?$AA?$AA@ 0000000180039258     libucrt:lcidtoname_downlevel.obj
 0002:00006268       ??_C@_1M@LKHKGDLN@?$AAe?$AAs?$AA?9?$AAg?$AAt?$AA?$AA@ 0000000180039268     libucrt:lcidtoname_downlevel.obj
 0002:00006278       ??_C@_1M@HEIIGGJD@?$AAe?$AAs?$AA?9?$AAh?$AAn?$AA?$AA@ 0000000180039278     libucrt:lcidtoname_downlevel.obj
 0002:00006288       ??_C@_1M@FBDHPPGD@?$AAe?$AAs?$AA?9?$AAm?$AAx?$AA?$AA@ 0000000180039288     libucrt:lcidtoname_downlevel.obj
 0002:00006298       ??_C@_1M@DPAGLNDH@?$AAe?$AAs?$AA?9?$AAn?$AAi?$AA?$AA@ 0000000180039298     libucrt:lcidtoname_downlevel.obj
 0002:000062a8       ??_C@_1M@MDGOPGDD@?$AAe?$AAs?$AA?9?$AAp?$AAa?$AA?$AA@ 00000001800392a8     libucrt:lcidtoname_downlevel.obj
 0002:000062b8       ??_C@_1M@EMAMGBGE@?$AAe?$AAs?$AA?9?$AAp?$AAe?$AA?$AA@ 00000001800392b8     libucrt:lcidtoname_downlevel.obj
 0002:000062c8       ??_C@_1M@IBMCAOEC@?$AAe?$AAs?$AA?9?$AAp?$AAr?$AA?$AA@ 00000001800392c8     libucrt:lcidtoname_downlevel.obj
 0002:000062d8       ??_C@_1M@FGMDIJED@?$AAe?$AAs?$AA?9?$AAp?$AAy?$AA?$AA@ 00000001800392d8     libucrt:lcidtoname_downlevel.obj
 0002:000062e8       ??_C@_1M@IIDEOLLL@?$AAe?$AAs?$AA?9?$AAs?$AAv?$AA?$AA@ 00000001800392e8     libucrt:lcidtoname_downlevel.obj
 0002:000062f8       ??_C@_1M@GAOBIPA@?$AAe?$AAs?$AA?9?$AAu?$AAy?$AA?$AA@ 00000001800392f8     libucrt:lcidtoname_downlevel.obj
 0002:00006308       ??_C@_1M@JKFFICHJ@?$AAe?$AAs?$AA?9?$AAv?$AAe?$AA?$AA@ 0000000180039308     libucrt:lcidtoname_downlevel.obj
 0002:00006318       ??_C@_1M@PNMLOJDF@?$AAe?$AAt?$AA?9?$AAe?$AAe?$AA?$AA@ 0000000180039318     libucrt:lcidtoname_downlevel.obj
 0002:00006328       ??_C@_1M@GHHLIKEI@?$AAe?$AAu?$AA?9?$AAe?$AAs?$AA?$AA@ 0000000180039328     libucrt:lcidtoname_downlevel.obj
 0002:00006338       ??_C@_1M@PBNONODE@?$AAf?$AAa?$AA?9?$AAi?$AAr?$AA?$AA@ 0000000180039338     libucrt:lcidtoname_downlevel.obj
 0002:00006348       ??_C@_1M@JEEHPMIL@?$AAf?$AAi?$AA?9?$AAf?$AAi?$AA?$AA@ 0000000180039348     libucrt:lcidtoname_downlevel.obj
 0002:00006358       ??_C@_1M@LMDCNDBA@?$AAf?$AAo?$AA?9?$AAf?$AAo?$AA?$AA@ 0000000180039358     libucrt:lcidtoname_downlevel.obj
 0002:00006368       ??_C@_1M@JKEOHLDK@?$AAf?$AAr?$AA?9?$AAb?$AAe?$AA?$AA@ 0000000180039368     libucrt:lcidtoname_downlevel.obj
 0002:00006378       ??_C@_1M@NOHADPMI@?$AAf?$AAr?$AA?9?$AAc?$AAa?$AA?$AA@ 0000000180039378     libucrt:lcidtoname_downlevel.obj
 0002:00006388       ??_C@_1M@KDHIHAEC@?$AAf?$AAr?$AA?9?$AAc?$AAh?$AA?$AA@ 0000000180039388     libucrt:lcidtoname_downlevel.obj
 0002:00006398       ??_C@_1M@MMBBFGAK@?$AAf?$AAr?$AA?9?$AAf?$AAr?$AA?$AA@ 0000000180039398     libucrt:lcidtoname_downlevel.obj
 0002:000063a8       ??_C@_1M@PAFNENNF@?$AAf?$AAr?$AA?9?$AAl?$AAu?$AA?$AA@ 00000001800393a8     libucrt:lcidtoname_downlevel.obj
 0002:000063b8       ??_C@_1M@EOHDJGDD@?$AAf?$AAr?$AA?9?$AAm?$AAc?$AA?$AA@ 00000001800393b8     libucrt:lcidtoname_downlevel.obj
 0002:000063c8       ??_C@_1M@FAPLLOPF@?$AAg?$AAl?$AA?9?$AAe?$AAs?$AA?$AA@ 00000001800393c8     libucrt:lcidtoname_downlevel.obj
 0002:000063d8       ??_C@_1M@FOPBFLOO@?$AAg?$AAu?$AA?9?$AAi?$AAn?$AA?$AA@ 00000001800393d8     libucrt:lcidtoname_downlevel.obj
 0002:000063e8       ??_C@_1M@KBMCINPM@?$AAh?$AAe?$AA?9?$AAi?$AAl?$AA?$AA@ 00000001800393e8     libucrt:lcidtoname_downlevel.obj
 0002:000063f8       ??_C@_1M@BBPHKFPJ@?$AAh?$AAi?$AA?9?$AAi?$AAn?$AA?$AA@ 00000001800393f8     libucrt:lcidtoname_downlevel.obj
 0002:00006408       ??_C@_1M@PMBNDPHD@?$AAh?$AAr?$AA?9?$AAb?$AAa?$AA?$AA@ 0000000180039408     libucrt:lcidtoname_downlevel.obj
 0002:00006418       ??_C@_1M@BPCKOEGE@?$AAh?$AAr?$AA?9?$AAh?$AAr?$AA?$AA@ 0000000180039418     libucrt:lcidtoname_downlevel.obj
 0002:00006428       ??_C@_1M@GACBMHKE@?$AAh?$AAu?$AA?9?$AAh?$AAu?$AA?$AA@ 0000000180039428     libucrt:lcidtoname_downlevel.obj
 0002:00006438       ??_C@_1M@MILPAJJC@?$AAh?$AAy?$AA?9?$AAa?$AAm?$AA?$AA@ 0000000180039438     libucrt:lcidtoname_downlevel.obj
 0002:00006448       ??_C@_1M@BABBICEC@?$AAi?$AAd?$AA?9?$AAi?$AAd?$AA?$AA@ 0000000180039448     libucrt:lcidtoname_downlevel.obj
 0002:00006458       ??_C@_1M@BIKNHHPF@?$AAi?$AAs?$AA?9?$AAi?$AAs?$AA?$AA@ 0000000180039458     libucrt:lcidtoname_downlevel.obj
 0002:00006468       ??_C@_1M@NMPCJPHE@?$AAi?$AAt?$AA?9?$AAc?$AAh?$AA?$AA@ 0000000180039468     libucrt:lcidtoname_downlevel.obj
 0002:00006478       ??_C@_1M@GHKGFEDF@?$AAi?$AAt?$AA?9?$AAi?$AAt?$AA?$AA@ 0000000180039478     libucrt:lcidtoname_downlevel.obj
 0002:00006488       ??_C@_1M@NIEJCJJA@?$AAj?$AAa?$AA?9?$AAj?$AAp?$AA?$AA@ 0000000180039488     libucrt:lcidtoname_downlevel.obj
 0002:00006498       ??_C@_1M@JILFNBIM@?$AAk?$AAa?$AA?9?$AAg?$AAe?$AA?$AA@ 0000000180039498     libucrt:lcidtoname_downlevel.obj
 0002:000064a8       ??_C@_1M@PACPMGPH@?$AAk?$AAk?$AA?9?$AAk?$AAz?$AA?$AA@ 00000001800394a8     libucrt:lcidtoname_downlevel.obj
 0002:000064b8       ??_C@_1M@IELFGMHA@?$AAk?$AAn?$AA?9?$AAi?$AAn?$AA?$AA@ 00000001800394b8     libucrt:lcidtoname_downlevel.obj
 0002:000064c8       ??_C@_1O@IBBJHCH@?$AAk?$AAo?$AAk?$AA?9?$AAi?$AAn?$AA?$AA@ 00000001800394c8     libucrt:lcidtoname_downlevel.obj
 0002:000064d8       ??_C@_1M@DMHAEOGC@?$AAk?$AAo?$AA?9?$AAk?$AAr?$AA?$AA@ 00000001800394d8     libucrt:lcidtoname_downlevel.obj
 0002:000064e8       ??_C@_1M@HBAHBIGA@?$AAk?$AAy?$AA?9?$AAk?$AAg?$AA?$AA@ 00000001800394e8     libucrt:lcidtoname_downlevel.obj
 0002:000064f8       ??_C@_1M@KPMILCJG@?$AAl?$AAt?$AA?9?$AAl?$AAt?$AA?$AA@ 00000001800394f8     libucrt:lcidtoname_downlevel.obj
 0002:00006508       ??_C@_1M@BDEKKCA@?$AAl?$AAv?$AA?9?$AAl?$AAv?$AA?$AA@ 0000000180039508     libucrt:lcidtoname_downlevel.obj
 0002:00006518       ??_C@_1M@ELCKCCJJ@?$AAm?$AAi?$AA?9?$AAn?$AAz?$AA?$AA@ 0000000180039518     libucrt:lcidtoname_downlevel.obj
 0002:00006528       ??_C@_1M@CBOOLAPA@?$AAm?$AAk?$AA?9?$AAm?$AAk?$AA?$AA@ 0000000180039528     libucrt:lcidtoname_downlevel.obj
 0002:00006538       ??_C@_1M@GPHNBJKN@?$AAm?$AAl?$AA?9?$AAi?$AAn?$AA?$AA@ 0000000180039538     libucrt:lcidtoname_downlevel.obj
 0002:00006548       ??_C@_1M@PABJILIG@?$AAm?$AAn?$AA?9?$AAm?$AAn?$AA?$AA@ 0000000180039548     libucrt:lcidtoname_downlevel.obj
 0002:00006558       ??_C@_1M@FGBKKIPG@?$AAm?$AAr?$AA?9?$AAi?$AAn?$AA?$AA@ 0000000180039558     libucrt:lcidtoname_downlevel.obj
 0002:00006568       ??_C@_1M@NDBPDDAL@?$AAm?$AAs?$AA?9?$AAb?$AAn?$AA?$AA@ 0000000180039568     libucrt:lcidtoname_downlevel.obj
 0002:00006578       ??_C@_1M@OPIHOOPI@?$AAm?$AAs?$AA?9?$AAm?$AAy?$AA?$AA@ 0000000180039578     libucrt:lcidtoname_downlevel.obj
 0002:00006588       ??_C@_1M@PPDBCNFM@?$AAm?$AAt?$AA?9?$AAm?$AAt?$AA?$AA@ 0000000180039588     libucrt:lcidtoname_downlevel.obj
 0002:00006598       ??_C@_1M@KDJDKMDD@?$AAn?$AAb?$AA?9?$AAn?$AAo?$AA?$AA@ 0000000180039598     libucrt:lcidtoname_downlevel.obj
 0002:000065a8       ??_C@_1M@KFCFLMJP@?$AAn?$AAl?$AA?9?$AAb?$AAe?$AA?$AA@ 00000001800395a8     libucrt:lcidtoname_downlevel.obj
 0002:000065b8       ??_C@_1M@KPOPDDGO@?$AAn?$AAl?$AA?9?$AAn?$AAl?$AA?$AA@ 00000001800395b8     libucrt:lcidtoname_downlevel.obj
 0002:000065c8       ??_C@_1M@LJKPEMLN@?$AAn?$AAn?$AA?9?$AAn?$AAo?$AA?$AA@ 00000001800395c8     libucrt:lcidtoname_downlevel.obj
 0002:000065d8       ??_C@_1M@BDGHHBFL@?$AAn?$AAs?$AA?9?$AAz?$AAa?$AA?$AA@ 00000001800395d8     libucrt:lcidtoname_downlevel.obj
 0002:000065e8       ??_C@_1M@IDEHOAP@?$AAp?$AAa?$AA?9?$AAi?$AAn?$AA?$AA@ 00000001800395e8     libucrt:lcidtoname_downlevel.obj
 0002:000065f8       ??_C@_1M@HDBKGOGH@?$AAp?$AAl?$AA?9?$AAp?$AAl?$AA?$AA@ 00000001800395f8     libucrt:lcidtoname_downlevel.obj
 0002:00006608       ??_C@_1M@LJLLCMEH@?$AAp?$AAt?$AA?9?$AAb?$AAr?$AA?$AA@ 0000000180039608     libucrt:lcidtoname_downlevel.obj
 0002:00006618       ??_C@_1M@NCMONAAL@?$AAp?$AAt?$AA?9?$AAp?$AAt?$AA?$AA@ 0000000180039618     libucrt:lcidtoname_downlevel.obj
 0002:00006628       ??_C@_1O@EAKMAJDN@?$AAq?$AAu?$AAz?$AA?9?$AAb?$AAo?$AA?$AA@ 0000000180039628     libucrt:lcidtoname_downlevel.obj
 0002:00006638       ??_C@_1O@BHHPIGDN@?$AAq?$AAu?$AAz?$AA?9?$AAe?$AAc?$AA?$AA@ 0000000180039638     libucrt:lcidtoname_downlevel.obj
 0002:00006648       ??_C@_1O@GBAPEKMJ@?$AAq?$AAu?$AAz?$AA?9?$AAp?$AAe?$AA?$AA@ 0000000180039648     libucrt:lcidtoname_downlevel.obj
 0002:00006658       ??_C@_1M@CLGLEFBO@?$AAr?$AAo?$AA?9?$AAr?$AAo?$AA?$AA@ 0000000180039658     libucrt:lcidtoname_downlevel.obj
 0002:00006668       ??_C@_1M@CEEDODME@?$AAr?$AAu?$AA?9?$AAr?$AAu?$AA?$AA@ 0000000180039668     libucrt:lcidtoname_downlevel.obj
 0002:00006678       ??_C@_1M@HPKKKMPP@?$AAs?$AAa?$AA?9?$AAi?$AAn?$AA?$AA@ 0000000180039678     libucrt:lcidtoname_downlevel.obj
 0002:00006688       ??_C@_1M@BKMAIGOJ@?$AAs?$AAe?$AA?9?$AAf?$AAi?$AA?$AA@ 0000000180039688     libucrt:lcidtoname_downlevel.obj
 0002:00006698       ??_C@_1M@NDPIFLFI@?$AAs?$AAe?$AA?9?$AAn?$AAo?$AA?$AA@ 0000000180039698     libucrt:lcidtoname_downlevel.obj
 0002:000066a8       ??_C@_1M@DANKKHJ@?$AAs?$AAe?$AA?9?$AAs?$AAe?$AA?$AA@ 00000001800396a8     libucrt:lcidtoname_downlevel.obj
 0002:000066b8       ??_C@_1M@PNBLONPJ@?$AAs?$AAk?$AA?9?$AAs?$AAk?$AA?$AA@ 00000001800396b8     libucrt:lcidtoname_downlevel.obj
 0002:000066c8       ??_C@_1M@LFMODOAL@?$AAs?$AAl?$AA?9?$AAs?$AAi?$AA?$AA@ 00000001800396c8     libucrt:lcidtoname_downlevel.obj
 0002:000066d8       ??_C@_1O@DFKOMPG@?$AAs?$AAm?$AAa?$AA?9?$AAn?$AAo?$AA?$AA@ 00000001800396d8     libucrt:lcidtoname_downlevel.obj
 0002:000066e8       ??_C@_1O@NDKPBNNH@?$AAs?$AAm?$AAa?$AA?9?$AAs?$AAe?$AA?$AA@ 00000001800396e8     libucrt:lcidtoname_downlevel.obj
 0002:000066f8       ??_C@_1O@PLLKBHAB@?$AAs?$AAm?$AAj?$AA?9?$AAn?$AAo?$AA?$AA@ 00000001800396f8     libucrt:lcidtoname_downlevel.obj
 0002:00006708       ??_C@_1O@CLEPOGCA@?$AAs?$AAm?$AAj?$AA?9?$AAs?$AAe?$AA?$AA@ 0000000180039708     libucrt:lcidtoname_downlevel.obj
 0002:00006718       ??_C@_1O@DLGJGKMK@?$AAs?$AAm?$AAn?$AA?9?$AAf?$AAi?$AA?$AA@ 0000000180039718     libucrt:lcidtoname_downlevel.obj
 0002:00006728       ??_C@_1O@OJDJGAJC@?$AAs?$AAm?$AAs?$AA?9?$AAf?$AAi?$AA?$AA@ 0000000180039728     libucrt:lcidtoname_downlevel.obj
 0002:00006738       ??_C@_1M@BOFOGHPB@?$AAs?$AAq?$AA?9?$AAa?$AAl?$AA?$AA@ 0000000180039738     libucrt:lcidtoname_downlevel.obj
 0002:00006748       ??_C@_1BG@LJBBIPGB@?$AAs?$AAr?$AA?9?$AAb?$AAa?$AA?9?$AAc?$AAy?$AAr?$AAl?$AA?$AA@ 0000000180039748     libucrt:lcidtoname_downlevel.obj
 0002:00006760       ??_C@_1BG@JLBENFOE@?$AAs?$AAr?$AA?9?$AAb?$AAa?$AA?9?$AAl?$AAa?$AAt?$AAn?$AA?$AA@ 0000000180039760     libucrt:lcidtoname_downlevel.obj
 0002:00006778       ??_C@_1BG@KODPNHE@?$AAs?$AAr?$AA?9?$AAs?$AAp?$AA?9?$AAc?$AAy?$AAr?$AAl?$AA?$AA@ 0000000180039778     libucrt:lcidtoname_downlevel.obj
 0002:00006790       ??_C@_1BG@CIOGKHPB@?$AAs?$AAr?$AA?9?$AAs?$AAp?$AA?9?$AAl?$AAa?$AAt?$AAn?$AA?$AA@ 0000000180039790     libucrt:lcidtoname_downlevel.obj
 0002:000067a8       ??_C@_1M@NGFJLMAC@?$AAs?$AAv?$AA?9?$AAf?$AAi?$AA?$AA@ 00000001800397a8     libucrt:lcidtoname_downlevel.obj
 0002:000067b8       ??_C@_1M@MPJEJAJC@?$AAs?$AAv?$AA?9?$AAs?$AAe?$AA?$AA@ 00000001800397b8     libucrt:lcidtoname_downlevel.obj
 0002:000067c8       ??_C@_1M@MPNDHLFK@?$AAs?$AAw?$AA?9?$AAk?$AAe?$AA?$AA@ 00000001800397c8     libucrt:lcidtoname_downlevel.obj
 0002:000067d8       ??_C@_1O@KOHBJJI@?$AAs?$AAy?$AAr?$AA?9?$AAs?$AAy?$AA?$AA@ 00000001800397d8     libucrt:lcidtoname_downlevel.obj
 0002:000067e8       ??_C@_1M@LDCEFHA@?$AAt?$AAa?$AA?9?$AAi?$AAn?$AA?$AA@ 00000001800397e8     libucrt:lcidtoname_downlevel.obj
 0002:000067f8       ??_C@_1M@CNJOFAK@?$AAt?$AAe?$AA?9?$AAi?$AAn?$AA?$AA@ 00000001800397f8     libucrt:lcidtoname_downlevel.obj
 0002:00006808       ??_C@_1M@GNAECACD@?$AAt?$AAh?$AA?9?$AAt?$AAh?$AA?$AA@ 0000000180039808     libucrt:lcidtoname_downlevel.obj
 0002:00006818       ??_C@_1M@CHBIHOJO@?$AAt?$AAn?$AA?9?$AAz?$AAa?$AA?$AA@ 0000000180039818     libucrt:lcidtoname_downlevel.obj
 0002:00006828       ??_C@_1M@GCCMIGPJ@?$AAt?$AAr?$AA?9?$AAt?$AAr?$AA?$AA@ 0000000180039828     libucrt:lcidtoname_downlevel.obj
 0002:00006838       ??_C@_1M@CELMCNBK@?$AAt?$AAt?$AA?9?$AAr?$AAu?$AA?$AA@ 0000000180039838     libucrt:lcidtoname_downlevel.obj
 0002:00006848       ??_C@_1M@KLMCELGA@?$AAu?$AAk?$AA?9?$AAu?$AAa?$AA?$AA@ 0000000180039848     libucrt:lcidtoname_downlevel.obj
 0002:00006858       ??_C@_1M@EPAJJAJF@?$AAu?$AAr?$AA?9?$AAp?$AAk?$AA?$AA@ 0000000180039858     libucrt:lcidtoname_downlevel.obj
 0002:00006868       ??_C@_1BG@GEGPMCDJ@?$AAu?$AAz?$AA?9?$AAu?$AAz?$AA?9?$AAc?$AAy?$AAr?$AAl?$AA?$AA@ 0000000180039868     libucrt:lcidtoname_downlevel.obj
 0002:00006880       ??_C@_1BG@EGGKJILM@?$AAu?$AAz?$AA?9?$AAu?$AAz?$AA?9?$AAl?$AAa?$AAt?$AAn?$AA?$AA@ 0000000180039880     libucrt:lcidtoname_downlevel.obj
 0002:00006898       ??_C@_1M@GFOCLFF@?$AAv?$AAi?$AA?9?$AAv?$AAn?$AA?$AA@ 0000000180039898     libucrt:lcidtoname_downlevel.obj
 0002:000068a8       ??_C@_1M@CPAMEDFI@?$AAx?$AAh?$AA?9?$AAz?$AAa?$AA?$AA@ 00000001800398a8     libucrt:lcidtoname_downlevel.obj
 0002:000068b8       ??_C@_1O@EBKIFIGN@?$AAz?$AAh?$AA?9?$AAc?$AAh?$AAs?$AA?$AA@ 00000001800398b8     libucrt:lcidtoname_downlevel.obj
 0002:000068c8       ??_C@_1O@NMHPGANE@?$AAz?$AAh?$AA?9?$AAc?$AAh?$AAt?$AA?$AA@ 00000001800398c8     libucrt:lcidtoname_downlevel.obj
 0002:000068d8       ??_C@_1M@LPINJOMC@?$AAz?$AAh?$AA?9?$AAc?$AAn?$AA?$AA@ 00000001800398d8     libucrt:lcidtoname_downlevel.obj
 0002:000068e8       ??_C@_1M@OCJEJODD@?$AAz?$AAh?$AA?9?$AAh?$AAk?$AA?$AA@ 00000001800398e8     libucrt:lcidtoname_downlevel.obj
 0002:000068f8       ??_C@_1M@DNDLJINH@?$AAz?$AAh?$AA?9?$AAm?$AAo?$AA?$AA@ 00000001800398f8     libucrt:lcidtoname_downlevel.obj
 0002:00006908       ??_C@_1M@MBFDNDND@?$AAz?$AAh?$AA?9?$AAs?$AAg?$AA?$AA@ 0000000180039908     libucrt:lcidtoname_downlevel.obj
 0002:00006918       ??_C@_1M@IMEPLEPE@?$AAz?$AAh?$AA?9?$AAt?$AAw?$AA?$AA@ 0000000180039918     libucrt:lcidtoname_downlevel.obj
 0002:00006928       ??_C@_1M@BBGHNHJP@?$AAz?$AAu?$AA?9?$AAz?$AAa?$AA?$AA@ 0000000180039928     libucrt:lcidtoname_downlevel.obj
 0002:00006938       __real@3ff0000000000000    0000000180039938     libucrt:ceil.obj
 0002:00006b90       ??_C@_1BA@BALFACEM@?$AAC?$AAO?$AAN?$AAO?$AAU?$AAT?$AA$?$AA?$AA@ 0000000180039b90     libucrt:initcon.obj
 0002:00006ba0       __log10_256_lead           0000000180039ba0     libucrt:log10_256_lead_tail_table.obj
 0002:000073b0       __log10_256_tail           000000018003a3b0     libucrt:log10_256_lead_tail_table.obj
 0002:00007bc0       __log_F_inv_qword          000000018003abc0     libucrt:log_f_inv_qword_table.obj
 0002:000083d0       ??_C@_05HGHHAHAP@log10?$AA@ 000000018003b3d0     libucrt:log_special.obj
 0002:000083f0       ??_C@_1BK@DBDEIDLH@?$AAK?$AAE?$AAR?$AAN?$AAE?$AAL?$AA3?$AA2?$AA?4?$AAD?$AAL?$AAL?$AA?$AA@ 000000018003b3f0     DelayImp:delayhlp.obj
 0002:00008410       ??_C@_0BI@OMNLIJDB@AcquireSRWLockExclusive?$AA@ 000000018003b410     DelayImp:delayhlp.obj
 0002:00008428       ??_C@_0BI@HMIEPCNJ@ReleaseSRWLockExclusive?$AA@ 000000018003b428     DelayImp:delayhlp.obj
 0002:00008440       __pfnDliFailureHook2       000000018003b440     DelayImp:delayhk1.obj
 0002:00008450       _load_config_used          000000018003b450     LIBCMT:loadcfg.obj
 0002:000084e8       ??_C@_0BA@JFNIOLAK@string?5too?5long?$AA@ 000000018003b4e8     onig-reg-exp.obj
 0002:000084f8       ??_C@_0BE@MLKPLNJG@RegExp?5is?5not?5valid?$AA@ 000000018003b4f8     onig-reg-exp.obj
 0002:00008510       ??_C@_0BI@CFPLBAOH@invalid?5string?5position?$AA@ 000000018003b510     onig-reg-exp.obj
 0002:00008528       ??_7?$_Ref_count@VOnigResult@@@std@@6B@ 000000018003b528     onig-reg-exp.obj
 0002:00008548       ??_7_Ref_count_base@std@@6B@ 000000018003b548     onig-reg-exp.obj
 0002:00008570       ??_C@_1IE@KACBNCFM@?$AAC?$AA?3?$AA?2?$AAU?$AAs?$AAe?$AAr?$AAs?$AA?2?$AAa?$AAp?$AAp?$AAv?$AAe?$AAy?$AAo?$AAr?$AA?2?$AA?4?$AAn?$AAo?$AAd?$AAe?$AA?9?$AAg?$AAy?$AAp?$AA?2?$AA6?$AA?4?$AA9?$AA?4@ 000000018003b570     onig-scanner.obj
 0002:000085f8       ??_C@_1DG@OKCGPKIB@?$AAp?$AAe?$AAr?$AAs?$AAi?$AAs?$AAt?$AAe?$AAn?$AAt?$AA?$CI?$AA?$CJ?$AA?4?$AAI?$AAs?$AAN?$AAe?$AAa?$AAr?$AAD?$AAe?$AAa?$AAt?$AAh?$AA?$CI?$AA?$CJ?$AA?$AA@ 000000018003b5f8     onig-scanner.obj
 0002:00008630       ??_C@_1CO@EGNPJLKI@?$AAp?$AAe?$AAr?$AAs?$AAi?$AAs?$AAt?$AAe?$AAn?$AAt?$AA?$CI?$AA?$CJ?$AA?4?$AAI?$AAs?$AAE?$AAm?$AAp?$AAt?$AAy?$AA?$CI?$AA?$CJ?$AA?$AA@ 000000018003b630     onig-scanner.obj
 0002:00008660       ??_C@_1EC@NOLNIHNJ@?$AAh?$AAa?$AAn?$AAd?$AAl?$AAe?$AA?9?$AA?$DO?$AAI?$AAn?$AAt?$AAe?$AAr?$AAn?$AAa?$AAl?$AAF?$AAi?$AAe?$AAl?$AAd?$AAC?$AAo?$AAu?$AAn?$AAt?$AA?$CI?$AA?$CJ?$AA?5?$AA?$DO?$AA?5?$AA0@ 000000018003b660     onig-scanner.obj
 0002:000086a8       ??_C@_1DA@FBGAEOIO@?$AA?$CB?$AAp?$AAe?$AAr?$AAs?$AAi?$AAs?$AAt?$AAe?$AAn?$AAt?$AA?$CI?$AA?$CJ?$AA?4?$AAI?$AAs?$AAE?$AAm?$AAp?$AAt?$AAy?$AA?$CI?$AA?$CJ?$AA?$AA@ 000000018003b6a8     onig-scanner.obj
 0002:000086d8       ??_C@_1CO@JCKLEFMA@?$AA?$CB?$AAp?$AAe?$AAr?$AAs?$AAi?$AAs?$AAt?$AAe?$AAn?$AAt?$AA?$CI?$AA?$CJ?$AA?4?$AAI?$AAs?$AAW?$AAe?$AAa?$AAk?$AA?$CI?$AA?$CJ?$AA?$AA@ 000000018003b6d8     onig-scanner.obj
 0002:00008708       ??_C@_1BE@GMLLOIPJ@?$AAr?$AAe?$AAf?$AAs?$AA_?$AA?5?$AA?$DO?$AA?5?$AA0?$AA?$AA@ 000000018003b708     onig-scanner.obj
 0002:00008720       ??_C@_1CC@GBFLAAPF@?$AAw?$AAr?$AAa?$AAp?$AA?9?$AA?$DO?$AAr?$AAe?$AAf?$AAs?$AA_?$AA?5?$AA?$DN?$AA?$DN?$AA?5?$AA0?$AA?$AA@ 000000018003b720     onig-scanner.obj
 0002:00008748       ??_C@_0M@NNDOEKPJ@OnigScanner?$AA@ 000000018003b748     onig-scanner.obj
 0002:00008758       ??_C@_0P@MLEDPMIF@_findNextMatch?$AA@ 000000018003b758     onig-scanner.obj
 0002:00008768       ??_C@_0BD@NEKGEPAA@_findNextMatchSync?$AA@ 000000018003b768     onig-scanner.obj
 0002:00008780       ??_C@_0BH@EPKNIIGA@?4?4?2src?2onig?9scanner?4cc?$AA@ 000000018003b780     onig-scanner.obj
 0002:00008798       ??_C@_0N@FIOFHHEE@onig_scanner?$AA@ 000000018003b798     onig-scanner.obj
 0002:000087a8       ??_C@_05FKHKFDID@index?$AA@ 000000018003b7a8     onig-scanner.obj
 0002:000087b0       ??_C@_0P@BFLJNJDA@captureIndices?$AA@ 000000018003b7b0     onig-scanner.obj
 0002:000087c0       ??_C@_05FAGFPHJG@start?$AA@ 000000018003b7c0     onig-scanner.obj
 0002:000087c8       ??_C@_03JBJLGPFL@end?$AA@  000000018003b7c8     onig-scanner.obj
 0002:000087cc       ??_C@_06IJDLPEM@length?$AA@ 000000018003b7cc     onig-scanner.obj
 0002:000087d8       ??_C@_0BD@OLBABOEK@vector?$DMT?$DO?5too?5long?$AA@ 000000018003b7d8     onig-scanner.obj
 0002:000087f0       ??_C@_1CE@IAEMMFJ@?$AA?$CB?$AAh?$AAa?$AAn?$AAd?$AAl?$AAe?$AA?4?$AAI?$AAs?$AAE?$AAm?$AAp?$AAt?$AAy?$AA?$CI?$AA?$CJ?$AA?$AA@ 000000018003b7f0     onig-scanner.obj
 0002:00008818       ??_7ObjectWrap@node@@6B@   000000018003b818     onig-scanner.obj
 0002:00008830       ??_7AsyncWorker@Nan@@6B@   000000018003b830     onig-scanner.obj
 0002:00008860       ??_7?$_Ref_count@VOnigRegExp@@@std@@6B@ 000000018003b860     onig-scanner.obj
 0002:00008880       ??_7OnigScanner@@6B@       000000018003b880     onig-scanner.obj
 0002:00008898       ??_7?$_Ref_count@VOnigSearcher@@@std@@6B@ 000000018003b898     onig-scanner.obj
 0002:000088b8       ??_7OnigScannerWorker@@6B@ 000000018003b8b8     onig-scanner.obj
 0002:000088e8       ??_C@_0L@BLEPKFDF@OnigString?$AA@ 000000018003b8e8     onig-string.obj
 0002:000088f8       ??_C@_0BK@LBAGLMO@Argument?5must?5be?5a?5string?$AA@ 000000018003b8f8     onig-string.obj
 0002:00008918       ??_C@_07ICAJMOAO@content?$AA@ 000000018003b918     onig-string.obj
 0002:00008920       ??_7OnigString@@6B@        000000018003b920     onig-string.obj
 0002:00008938       ??_C@_08HCOMDCCD@iojs?4exe?$AA@ 000000018003b938     win_delay_load_hook.obj
 0002:00008948       ??_C@_08JDDNMFDB@node?4exe?$AA@ 000000018003b948     win_delay_load_hook.obj
 0002:00008960       __pfnDliNotifyHook2        000000018003b960     win_delay_load_hook.obj
 0002:00008f38       OnigDefaultCaseFoldFlag    000000018003bf38     oniguruma:regcomp.obj
 0002:00009058       OnigDefaultSyntax          000000018003c058     oniguruma:regparse.obj
 0002:00009180       OnigEncAsciiToLowerCaseTable 000000018003c180     oniguruma:regenc.obj
 0002:00009280       OnigAsciiLowerMap          000000018003c280     oniguruma:regenc.obj
 0002:00009420       OnigEncAsciiCtypeTable     000000018003c420     oniguruma:regenc.obj
 0002:0003b484       ??_C@_00CNPNBAHC@?$AA@     000000018006e484     oniguruma:regexec.obj
 0002:0003b488       ??_C@_05EGJIMALK@UTF?98?$AA@ 000000018006e488     oniguruma:utf8.obj
 0002:0003b490       ??_C@_05IIMHCHIO@alnum?$AA@ 000000018006e490     oniguruma:regparse.obj
 0002:0003b498       ??_C@_05IAEKHIAN@alpha?$AA@ 000000018006e498     oniguruma:regparse.obj
 0002:0003b4a0       ??_C@_05BABJKOGB@blank?$AA@ 000000018006e4a0     oniguruma:regparse.obj
 0002:0003b4a8       ??_C@_05JMDPEFNK@cntrl?$AA@ 000000018006e4a8     oniguruma:regparse.obj
 0002:0003b4b0       ??_C@_05ODNOIFML@digit?$AA@ 000000018006e4b0     oniguruma:regparse.obj
 0002:0003b4b8       ??_C@_05KCJBMLII@graph?$AA@ 000000018006e4b8     oniguruma:regparse.obj
 0002:0003b4c0       ??_C@_05IPJEPLHL@lower?$AA@ 000000018006e4c0     oniguruma:regparse.obj
 0002:0003b4c8       ??_C@_05IJDJACGD@print?$AA@ 000000018006e4c8     oniguruma:regparse.obj
 0002:0003b4d0       ??_C@_05KOBGHFJJ@punct?$AA@ 000000018006e4d0     oniguruma:regparse.obj
 0002:0003b4d8       ??_C@_05OLNILLAB@space?$AA@ 000000018006e4d8     oniguruma:regparse.obj
 0002:0003b4e0       ??_C@_05NECKJAMC@upper?$AA@ 000000018006e4e0     oniguruma:regparse.obj
 0002:0003b4e8       ??_C@_06BAPHGFFK@xdigit?$AA@ 000000018006e4e8     oniguruma:regparse.obj
 0002:0003b4f0       ??_C@_05OJENGABA@ascii?$AA@ 000000018006e4f0     oniguruma:regparse.obj
 0002:0003b4f8       ??_C@_04EHIOMBPF@word?$AA@ 000000018006e4f8     oniguruma:regparse.obj
 0002:0003b500       ??_C@_02CGFHGFLC@?3?$FN?$AA@ 000000018006e500     oniguruma:regparse.obj
 0002:0003b504       ??_C@_01JOAMLHOP@?9?$AA@   000000018006e504     oniguruma:regparse.obj
 0002:0003b508       ??_C@_01OGPIMHDM@?$DP?$AA@ 000000018006e508     oniguruma:regparse.obj
 0002:0003b50c       ??_C@_01NBENCBCI@?$CK?$AA@ 000000018006e50c     oniguruma:regparse.obj
 0002:0003b510       ??_C@_01MIFGBAGJ@?$CL?$AA@ 000000018006e510     oniguruma:regparse.obj
 0002:0003b514       ??_C@_02HHFHKOHM@?$DP?$DP?$AA@ 000000018006e514     oniguruma:regparse.obj
 0002:0003b518       ??_C@_02GNLKMPOH@?$CK?$DP?$AA@ 000000018006e518     oniguruma:regparse.obj
 0002:0003b51c       ??_C@_02GMHIKFNA@?$CL?$DP?$AA@ 000000018006e51c     oniguruma:regparse.obj
 0002:0003b520       ??_C@_08EEHCEKCA@?$CL?5and?5?$DP?$DP?$AA@ 000000018006e520     oniguruma:regparse.obj
 0002:0003b530       ??_C@_08LLHPJGDJ@?$CL?$DP?5and?5?$DP?$AA@ 000000018006e530     oniguruma:regparse.obj
 0002:0003b540       ??_C@_08LFCOBNOA@mismatch?$AA@ 000000018006e540     oniguruma:regerror.obj
 0002:0003b550       ??_C@_0CB@LDKFPBBC@no?5support?5in?5this?5configuration@ 000000018006e550     oniguruma:regerror.obj
 0002:0003b578       ??_C@_0BK@DILDECGK@fail?5to?5memory?5allocation?$AA@ 000000018006e578     oniguruma:regerror.obj
 0002:0003b598       ??_C@_0BH@PIFBMKKD@match?9stack?5limit?5over?$AA@ 000000018006e598     oniguruma:regerror.obj
 0002:0003b5b0       ??_C@_0BF@FDBPJMBJ@undefined?5type?5?$CIbug?$CJ?$AA@ 000000018006e5b0     oniguruma:regerror.obj
 0002:0003b5c8       ??_C@_0BM@LNINNNIH@internal?5parser?5error?5?$CIbug?$CJ?$AA@ 000000018006e5c8     oniguruma:regerror.obj
 0002:0003b5e8       ??_C@_0BC@DGEKJIE@stack?5error?5?$CIbug?$CJ?$AA@ 000000018006e5e8     oniguruma:regerror.obj
 0002:0003b600       ??_C@_0BJ@IAFBPDHD@undefined?5bytecode?5?$CIbug?$CJ?$AA@ 000000018006e600     oniguruma:regerror.obj
 0002:0003b620       ??_C@_0BK@IAPBLDKK@unexpected?5bytecode?5?$CIbug?$CJ?$AA@ 000000018006e620     oniguruma:regerror.obj
 0002:0003b640       ??_C@_0CJ@PGKAOJKF@default?5multibyte?9encoding?5is?5no@ 000000018006e640     oniguruma:regerror.obj
 0002:0003b670       ??_C@_0DL@GAMMMBEO@can?8t?5convert?5to?5wide?9char?5on?5sp@ 000000018006e670     oniguruma:regerror.obj
 0002:0003b6b0       ??_C@_0BB@FCMFBGOM@invalid?5argument?$AA@ 000000018006e6b0     oniguruma:regerror.obj
 0002:0003b6c8       ??_C@_0BK@MNJDPFHJ@end?5pattern?5at?5left?5brace?$AA@ 000000018006e6c8     oniguruma:regerror.obj
 0002:0003b6e8       ??_C@_0BM@NGLKMLLF@end?5pattern?5at?5left?5bracket?$AA@ 000000018006e6e8     oniguruma:regerror.obj
 0002:0003b708       ??_C@_0BB@FCADFFHB@empty?5char?9class?$AA@ 000000018006e708     oniguruma:regerror.obj
 0002:0003b720       ??_C@_0BM@HHLLKMFK@premature?5end?5of?5char?9class?$AA@ 000000018006e720     oniguruma:regerror.obj
 0002:0003b740       ??_C@_0BG@KJCHLIKJ@end?5pattern?5at?5escape?$AA@ 000000018006e740     oniguruma:regerror.obj
 0002:0003b758       ??_C@_0BE@HOFGNLOO@end?5pattern?5at?5meta?$AA@ 000000018006e758     oniguruma:regerror.obj
 0002:0003b770       ??_C@_0BH@LDPKKBBD@end?5pattern?5at?5control?$AA@ 000000018006e770     oniguruma:regerror.obj
 0002:0003b788       ??_C@_0BJ@LBFDJEOC@invalid?5meta?9code?5syntax?$AA@ 000000018006e788     oniguruma:regerror.obj
 0002:0003b7a8       ??_C@_0BM@CFBCEFOC@invalid?5control?9code?5syntax?$AA@ 000000018006e7a8     oniguruma:regerror.obj
 0002:0003b7c8       ??_C@_0CB@MMHIICBD@char?9class?5value?5at?5end?5of?5range@ 000000018006e7c8     oniguruma:regerror.obj
 0002:0003b7f0       ??_C@_0CD@BLJPOII@char?9class?5value?5at?5start?5of?5ran@ 000000018006e7f0     oniguruma:regerror.obj
 0002:0003b818       ??_C@_0CI@OAPLANBE@unmatched?5range?5specifier?5in?5cha@ 000000018006e818     oniguruma:regerror.obj
 0002:0003b840       ??_C@_0CL@JJHDHCPD@target?5of?5repeat?5operator?5is?5not@ 000000018006e840     oniguruma:regerror.obj
 0002:0003b870       ??_C@_0CF@BPKICIBJ@target?5of?5repeat?5operator?5is?5inv@ 000000018006e870     oniguruma:regerror.obj
 0002:0003b898       ??_C@_0BH@OHJPJAAI@nested?5repeat?5operator?$AA@ 000000018006e898     oniguruma:regerror.obj
 0002:0003b8b0       ??_C@_0BM@DLFDPEDE@unmatched?5close?5parenthesis?$AA@ 000000018006e8b0     oniguruma:regerror.obj
 0002:0003b8d0       ??_C@_0CH@IMIDFJKK@end?5pattern?5with?5unmatched?5paren@ 000000018006e8d0     oniguruma:regerror.obj
 0002:0003b8f8       ??_C@_0BF@NBDMNMGP@end?5pattern?5in?5group?$AA@ 000000018006e8f8     oniguruma:regerror.obj
 0002:0003b910       ??_C@_0BH@JEEKCPHM@undefined?5group?5option?$AA@ 000000018006e910     oniguruma:regerror.obj
 0002:0003b928       ??_C@_0BL@OBDNOJHK@invalid?5POSIX?5bracket?5type?$AA@ 000000018006e928     oniguruma:regerror.obj
 0002:0003b948       ??_C@_0BP@GDGBEMD@invalid?5pattern?5in?5look?9behind?$AA@ 000000018006e948     oniguruma:regerror.obj
 0002:0003b968       ??_C@_0CD@MIONPDN@invalid?5repeat?5range?5?$HLlower?0uppe@ 000000018006e968     oniguruma:regerror.obj
 0002:0003b990       ??_C@_0P@IIDHBHOC@too?5big?5number?$AA@ 000000018006e990     oniguruma:regerror.obj
 0002:0003b9a0       ??_C@_0CA@NPNMHIPK@too?5big?5number?5for?5repeat?5range?$AA@ 000000018006e9a0     oniguruma:regerror.obj
 0002:0003b9c0       ??_C@_0CM@FIJIEELP@upper?5is?5smaller?5than?5lower?5in?5r@ 000000018006e9c0     oniguruma:regerror.obj
 0002:0003b9f0       ??_C@_0BK@KPIEDPFM@empty?5range?5in?5char?5class?$AA@ 000000018006e9f0     oniguruma:regerror.obj
 0002:0003ba10       ??_C@_0DD@FDFEGOFC@mismatch?5multibyte?5code?5length?5i@ 000000018006ea10     oniguruma:regerror.obj
 0002:0003ba48       ??_C@_0CN@NLMEAGPN@too?5many?5multibyte?5code?5ranges?5a@ 000000018006ea48     oniguruma:regerror.obj
 0002:0003ba78       ??_C@_0CA@NJAFMILK@too?5short?5multibyte?5code?5string?$AA@ 000000018006ea78     oniguruma:regerror.obj
 0002:0003ba98       ??_C@_0BH@BBIPIEAI@too?5big?5backref?5number?$AA@ 000000018006ea98     oniguruma:regerror.obj
 0002:0003bab0       ??_C@_0BM@MCIKAPCC@invalid?5backref?5number?1name?$AA@ 000000018006eab0     oniguruma:regerror.obj
 0002:0003bad0       ??_C@_0DB@CPIBFLCI@numbered?5backref?1call?5is?5not?5all@ 000000018006ead0     oniguruma:regerror.obj
 0002:0003bb08       ??_C@_0BI@KHOJAKBB@too?5big?5wide?9char?5value?$AA@ 000000018006eb08     oniguruma:regerror.obj
 0002:0003bb20       ??_C@_0BJ@JJGHGKPI@too?5long?5wide?9char?5value?$AA@ 000000018006eb20     oniguruma:regerror.obj
 0002:0003bb40       ??_C@_0BJ@NDLCLPMB@invalid?5code?5point?5value?$AA@ 000000018006eb40     oniguruma:regerror.obj
 0002:0003bb60       ??_C@_0BE@EKBOMMOP@group?5name?5is?5empty?$AA@ 000000018006eb60     oniguruma:regerror.obj
 0002:0003bb78       ??_C@_0BI@IHDEIAPG@invalid?5group?5name?5?$DM?$CFn?$DO?$AA@ 000000018006eb78     oniguruma:regerror.obj
 0002:0003bb90       ??_C@_0CA@CHNGKCNG@invalid?5char?5in?5group?5name?5?$DM?$CFn?$DO?$AA@ 000000018006eb90     oniguruma:regerror.obj
 0002:0003bbb0       ??_C@_0BO@MFFLPIJN@undefined?5name?5?$DM?$CFn?$DO?5reference?$AA@ 000000018006ebb0     oniguruma:regerror.obj
 0002:0003bbd0       ??_C@_0BP@INLOIBDC@undefined?5group?5?$DM?$CFn?$DO?5reference?$AA@ 000000018006ebd0     oniguruma:regerror.obj
 0002:0003bbf0       ??_C@_0BM@GABMFNGE@multiplex?5defined?5name?5?$DM?$CFn?$DO?$AA@ 000000018006ebf0     oniguruma:regerror.obj
 0002:0003bc10       ??_C@_0CE@PAGLFLPA@multiplex?5definition?5name?5?$DM?$CFn?$DO?5c@ 000000018006ec10     oniguruma:regerror.obj
 0002:0003bc38       ??_C@_0BH@LNCEDIHG@never?5ending?5recursion?$AA@ 000000018006ec38     oniguruma:regerror.obj
 0002:0003bc50       ??_C@_0CM@OOFNEEFI@group?5number?5is?5too?5big?5for?5capt@ 000000018006ec50     oniguruma:regerror.obj
 0002:0003bc80       ??_C@_0CF@BCKNNDOL@invalid?5character?5property?5name?5@ 000000018006ec80     oniguruma:regerror.obj
 0002:0003bca8       ??_C@_0CD@BCIDHJLA@not?5supported?5encoding?5combinati@ 000000018006eca8     oniguruma:regerror.obj
 0002:0003bcd0       ??_C@_0BP@CGGHKADK@invalid?5combination?5of?5options?$AA@ 000000018006ecd0     oniguruma:regerror.obj
 0002:0003bcf0       ??_C@_0BN@FLBLNOKB@over?5thread?5pass?5limit?5count?$AA@ 000000018006ecf0     oniguruma:regerror.obj
 0002:0003bd10       ??_C@_0BF@HPOGBCED@undefined?5error?5code?$AA@ 000000018006ed10     oniguruma:regerror.obj
 0002:0003bd28       ??_C@_04NOJCDH@?$CF02x?$AA@ 000000018006ed28     oniguruma:regerror.obj
 0002:0003bd30       ??_C@_06FIJELGDL@?2x?$CF02x?$AA@ 000000018006ed30     oniguruma:regerror.obj
 0002:0003bd38       ??_C@_03KHICJKCI@?4?4?4?$AA@ 000000018006ed38     oniguruma:regerror.obj
 0002:0003bd3c       ??_C@_05IPGLCCLI@Alnum?$AA@ 000000018006ed3c     oniguruma:regenc.obj
 0002:0003bd44       ??_C@_05IHOGHNDL@Alpha?$AA@ 000000018006ed44     oniguruma:regenc.obj
 0002:0003bd4c       ??_C@_05BHLFKLFH@Blank?$AA@ 000000018006ed4c     oniguruma:regenc.obj
 0002:0003bd54       ??_C@_05JLJDEAOM@Cntrl?$AA@ 000000018006ed54     oniguruma:regenc.obj
 0002:0003bd5c       ??_C@_05OEHCIAPN@Digit?$AA@ 000000018006ed5c     oniguruma:regenc.obj
 0002:0003bd64       ??_C@_05KFDNMOLO@Graph?$AA@ 000000018006ed64     oniguruma:regenc.obj
 0002:0003bd6c       ??_C@_05IIDIPOEN@Lower?$AA@ 000000018006ed6c     oniguruma:regenc.obj
 0002:0003bd74       ??_C@_05IOJFAHFF@Print?$AA@ 000000018006ed74     oniguruma:regenc.obj
 0002:0003bd7c       ??_C@_05KJLKHAKP@Punct?$AA@ 000000018006ed7c     oniguruma:regenc.obj
 0002:0003bd84       ??_C@_05OMHELODH@Space?$AA@ 000000018006ed84     oniguruma:regenc.obj
 0002:0003bd8c       ??_C@_05NDIGJFPE@Upper?$AA@ 000000018006ed8c     oniguruma:regenc.obj
 0002:0003bd94       ??_C@_06NIOGFJPA@XDigit?$AA@ 000000018006ed94     oniguruma:regenc.obj
 0002:0003bd9c       ??_C@_05CCNLIHFO@ASCII?$AA@ 000000018006ed9c     oniguruma:regenc.obj
 0002:0003bda4       ??_C@_04IGEPOOPB@Word?$AA@ 000000018006eda4     oniguruma:regenc.obj
 0002:0003bdb0       ??_C@_07CNGHCLKN@NEWLINE?$AA@ 000000018006edb0     oniguruma:unicode.obj
 0002:0003bdb8       ??_C@_03EBKHDLCO@Any?$AA@  000000018006edb8     oniguruma:unicode.obj
 0002:0003bdc0       ??_C@_08LPNNHCEH@Assigned?$AA@ 000000018006edc0     oniguruma:unicode.obj
 0002:0003bdcc       ??_C@_01GFHCPBMG@C?$AA@    000000018006edcc     oniguruma:unicode.obj
 0002:0003bdd0       ??_C@_02DMLCCNBA@Cc?$AA@   000000018006edd0     oniguruma:unicode.obj
 0002:0003bdd4       ??_C@_02EBMFNJFF@Cf?$AA@   000000018006edd4     oniguruma:unicode.obj
 0002:0003bdd8       ??_C@_02IJBMFDFN@Cn?$AA@   000000018006edd8     oniguruma:unicode.obj
 0002:0003bddc       ??_C@_02JAAHGCBM@Co?$AA@   000000018006eddc     oniguruma:unicode.obj
 0002:0003bde0       ??_C@_02HGHADPEB@Cs?$AA@   000000018006ede0     oniguruma:unicode.obj
 0002:0003bde4       ??_C@_01OCOKONAJ@L?$AA@    000000018006ede4     oniguruma:unicode.obj
 0002:0003bde8       ??_C@_02LAHGHGOC@Ll?$AA@   000000018006ede8     oniguruma:unicode.obj
 0002:0003bdec       ??_C@_02KJGNEHKD@Lm?$AA@   000000018006edec     oniguruma:unicode.obj
 0002:0003bdf0       ??_C@_02JLFLCFCB@Lo?$AA@   000000018006edf0     oniguruma:unicode.obj
 0002:0003bdf4       ??_C@_02DCGNOOLL@Lt?$AA@   000000018006edf4     oniguruma:unicode.obj
 0002:0003bdf8       ??_C@_02CLHGNPPK@Lu?$AA@   000000018006edf8     oniguruma:unicode.obj
 0002:0003bdfc       ??_C@_01PLPBNMEI@M?$AA@    000000018006edfc     oniguruma:unicode.obj
 0002:0003be00       ??_C@_02DGCMAABK@Mc?$AA@   000000018006ee00     oniguruma:unicode.obj
 0002:0003be04       ??_C@_02GAHGKHJM@Me?$AA@   000000018006ee04     oniguruma:unicode.obj
 0002:0003be08       ??_C@_02IDICHOFH@Mn?$AA@   000000018006ee08     oniguruma:unicode.obj
 0002:0003be0c       ??_C@_01NANMIPIL@N?$AA@    000000018006ee0c     oniguruma:unicode.obj
 0002:0003be10       ??_C@_02HLCLCIIE@Nd?$AA@   000000018006ee10     oniguruma:unicode.obj
 0002:0003be14       ??_C@_02LDPCKCIM@Nl?$AA@   000000018006ee14     oniguruma:unicode.obj
 0002:0003be18       ??_C@_02JINPPBEP@No?$AA@   000000018006ee18     oniguruma:unicode.obj
 0002:0003be1c       ??_C@_01EJNLAFE@P?$AA@     000000018006ee1c     oniguruma:unicode.obj
 0002:0003be20       ??_C@_02CCNCDADJ@Pc?$AA@   000000018006ee20     oniguruma:unicode.obj
 0002:0003be24       ??_C@_02GNJDKGPO@Pd?$AA@   000000018006ee24     oniguruma:unicode.obj
 0002:0003be28       ??_C@_02HEIIJHLP@Pe?$AA@   000000018006ee28     oniguruma:unicode.obj
 0002:0003be2c       ??_C@_02FPKFMEHM@Pf?$AA@   000000018006ee2c     oniguruma:unicode.obj
 0002:0003be30       ??_C@_02NIDNNILD@Pi?$AA@   000000018006ee30     oniguruma:unicode.obj
 0002:0003be34       ??_C@_02IOGHHPDF@Po?$AA@   000000018006ee34     oniguruma:unicode.obj
 0002:0003be38       ??_C@_02GIBACCGI@Ps?$AA@   000000018006ee38     oniguruma:unicode.obj
 0002:0003be3c       ??_C@_01CPLAODJH@S?$AA@    000000018006ee3c     oniguruma:unicode.obj
 0002:0003be40       ??_C@_02CAJEIOGA@Sc?$AA@   000000018006ee40     oniguruma:unicode.obj
 0002:0003be44       ??_C@_02OIENAEGI@Sk?$AA@   000000018006ee44     oniguruma:unicode.obj
 0002:0003be48       ??_C@_02LOBHKDOO@Sm?$AA@   000000018006ee48     oniguruma:unicode.obj
 0002:0003be4c       ??_C@_02IMCBMBGM@So?$AA@   000000018006ee4c     oniguruma:unicode.obj
 0002:0003be50       ??_C@_01POHCFINO@Z?$AA@    000000018006ee50     oniguruma:unicode.obj
 0002:0003be54       ??_C@_02KINNKJCA@Zl?$AA@   000000018006ee54     oniguruma:unicode.obj
 0002:0003be58       ??_C@_02EOKKPEHN@Zp?$AA@   000000018006ee58     oniguruma:unicode.obj
 0002:0003be5c       ??_C@_02GFIHKHLO@Zs?$AA@   000000018006ee5c     oniguruma:unicode.obj
 0002:0003be60       ??_C@_06PKKOFLDI@Arabic?$AA@ 000000018006ee60     oniguruma:unicode.obj
 0002:0003be68       ??_C@_08FOHFEPKP@Armenian?$AA@ 000000018006ee68     oniguruma:unicode.obj
 0002:0003be78       ??_C@_07EHGPDBPP@Bengali?$AA@ 000000018006ee78     oniguruma:unicode.obj
 0002:0003be80       ??_C@_08FJELILDA@Bopomofo?$AA@ 000000018006ee80     oniguruma:unicode.obj
 0002:0003be90       ??_C@_07PFKPAINK@Braille?$AA@ 000000018006ee90     oniguruma:unicode.obj
 0002:0003be98       ??_C@_08IAPPECL@Buginese?$AA@ 000000018006ee98     oniguruma:unicode.obj
 0002:0003bea4       ??_C@_05IFJKBLGE@Buhid?$AA@ 000000018006eea4     oniguruma:unicode.obj
 0002:0003beb0       ??_C@_0BE@MFIGNHIA@Canadian_Aboriginal?$AA@ 000000018006eeb0     oniguruma:unicode.obj
 0002:0003bec8       ??_C@_08MDFAKGKC@Cherokee?$AA@ 000000018006eec8     oniguruma:unicode.obj
 0002:0003bed4       ??_C@_06POMJKEPM@Common?$AA@ 000000018006eed4     oniguruma:unicode.obj
 0002:0003bedc       ??_C@_06PKILONCF@Coptic?$AA@ 000000018006eedc     oniguruma:unicode.obj
 0002:0003bee8       ??_C@_07ICPJEGGI@Cypriot?$AA@ 000000018006eee8     oniguruma:unicode.obj
 0002:0003bef0       ??_C@_08DNBONLIE@Cyrillic?$AA@ 000000018006eef0     oniguruma:unicode.obj
 0002:0003bf00       ??_C@_07PGJJNFLP@Deseret?$AA@ 000000018006ef00     oniguruma:unicode.obj
 0002:0003bf08       ??_C@_0L@JDMENJM@Devanagari?$AA@ 000000018006ef08     oniguruma:unicode.obj
 0002:0003bf18       ??_C@_08ELMAOGKI@Ethiopic?$AA@ 000000018006ef18     oniguruma:unicode.obj
 0002:0003bf28       ??_C@_08NPENEPGM@Georgian?$AA@ 000000018006ef28     oniguruma:unicode.obj
 0002:0003bf38       ??_C@_0L@EKIHIDNF@Glagolitic?$AA@ 000000018006ef38     oniguruma:unicode.obj
 0002:0003bf44       ??_C@_06OBILIHNB@Gothic?$AA@ 000000018006ef44     oniguruma:unicode.obj
 0002:0003bf4c       ??_C@_05BLJPGLLB@Greek?$AA@ 000000018006ef4c     oniguruma:unicode.obj
 0002:0003bf58       ??_C@_08EMJEOGJE@Gujarati?$AA@ 000000018006ef58     oniguruma:unicode.obj
 0002:0003bf68       ??_C@_08KHMGJCCG@Gurmukhi?$AA@ 000000018006ef68     oniguruma:unicode.obj
 0002:0003bf74       ??_C@_03DCHALHAP@Han?$AA@  000000018006ef74     oniguruma:unicode.obj
 0002:0003bf78       ??_C@_06MNFOEPOG@Hangul?$AA@ 000000018006ef78     oniguruma:unicode.obj
 0002:0003bf80       ??_C@_07DELPMEEP@Hanunoo?$AA@ 000000018006ef80     oniguruma:unicode.obj
 0002:0003bf88       ??_C@_06EBOICPLG@Hebrew?$AA@ 000000018006ef88     oniguruma:unicode.obj
 0002:0003bf90       ??_C@_08JNGAGLNE@Hiragana?$AA@ 000000018006ef90     oniguruma:unicode.obj
 0002:0003bfa0       ??_C@_09EJODBAMM@Inherited?$AA@ 000000018006efa0     oniguruma:unicode.obj
 0002:0003bfb0       ??_C@_07GHLFLHAG@Kannada?$AA@ 000000018006efb0     oniguruma:unicode.obj
 0002:0003bfb8       ??_C@_08NBCIJEJP@Katakana?$AA@ 000000018006efb8     oniguruma:unicode.obj
 0002:0003bfc8       ??_C@_0L@EJOAJFGE@Kharoshthi?$AA@ 000000018006efc8     oniguruma:unicode.obj
 0002:0003bfd4       ??_C@_05BILJKFBO@Khmer?$AA@ 000000018006efd4     oniguruma:unicode.obj
 0002:0003bfdc       ??_C@_03KEAJBBBJ@Lao?$AA@  000000018006efdc     oniguruma:unicode.obj
 0002:0003bfe0       ??_C@_05MKNAELPL@Latin?$AA@ 000000018006efe0     oniguruma:unicode.obj
 0002:0003bfe8       ??_C@_05HCNCDMFE@Limbu?$AA@ 000000018006efe8     oniguruma:unicode.obj
 0002:0003bff0       ??_C@_08KNIPHLGD@Linear_B?$AA@ 000000018006eff0     oniguruma:unicode.obj
 0002:0003c000       ??_C@_09PGGFICGJ@Malayalam?$AA@ 000000018006f000     oniguruma:unicode.obj
 0002:0003c010       ??_C@_09COLOONHK@Mongolian?$AA@ 000000018006f010     oniguruma:unicode.obj
 0002:0003c020       ??_C@_07CJEPOCDM@Myanmar?$AA@ 000000018006f020     oniguruma:unicode.obj
 0002:0003c028       ??_C@_0M@DHOCBJHL@New_Tai_Lue?$AA@ 000000018006f028     oniguruma:unicode.obj
 0002:0003c034       ??_C@_05PMPFCGKJ@Ogham?$AA@ 000000018006f034     oniguruma:unicode.obj
 0002:0003c040       ??_C@_0L@KMONHPG@Old_Italic?$AA@ 000000018006f040     oniguruma:unicode.obj
 0002:0003c050       ??_C@_0M@GJIBMGKF@Old_Persian?$AA@ 000000018006f050     oniguruma:unicode.obj
 0002:0003c05c       ??_C@_05FCMJOEPK@Oriya?$AA@ 000000018006f05c     oniguruma:unicode.obj
 0002:0003c068       ??_C@_07FLOHPBBB@Osmanya?$AA@ 000000018006f068     oniguruma:unicode.obj
 0002:0003c070       ??_C@_05OMGGNAOE@Runic?$AA@ 000000018006f070     oniguruma:unicode.obj
 0002:0003c078       ??_C@_07LIFCEABG@Shavian?$AA@ 000000018006f078     oniguruma:unicode.obj
 0002:0003c080       ??_C@_07HKFHHHOH@Sinhala?$AA@ 000000018006f080     oniguruma:unicode.obj
 0002:0003c088       ??_C@_0N@OEMHCEDJ@Syloti_Nagri?$AA@ 000000018006f088     oniguruma:unicode.obj
 0002:0003c098       ??_C@_06JOHKBNPH@Syriac?$AA@ 000000018006f098     oniguruma:unicode.obj
 0002:0003c0a0       ??_C@_07MPBEMCCC@Tagalog?$AA@ 000000018006f0a0     oniguruma:unicode.obj
 0002:0003c0a8       ??_C@_08HDNHHNMK@Tagbanwa?$AA@ 000000018006f0a8     oniguruma:unicode.obj
 0002:0003c0b4       ??_C@_06BAOHNAFE@Tai_Le?$AA@ 000000018006f0b4     oniguruma:unicode.obj
 0002:0003c0bc       ??_C@_05DKHCLBJK@Tamil?$AA@ 000000018006f0bc     oniguruma:unicode.obj
 0002:0003c0c4       ??_C@_06PCMDOJDI@Telugu?$AA@ 000000018006f0c4     oniguruma:unicode.obj
 0002:0003c0cc       ??_C@_06EIMJBCEF@Thaana?$AA@ 000000018006f0cc     oniguruma:unicode.obj
 0002:0003c0d4       ??_C@_04PHPGMPPM@Thai?$AA@ 000000018006f0d4     oniguruma:unicode.obj
 0002:0003c0e0       ??_C@_07BHEHFCAF@Tibetan?$AA@ 000000018006f0e0     oniguruma:unicode.obj
 0002:0003c0e8       ??_C@_08HLFFACLG@Tifinagh?$AA@ 000000018006f0e8     oniguruma:unicode.obj
 0002:0003c0f8       ??_C@_08OJJPEHGN@Ugaritic?$AA@ 000000018006f0f8     oniguruma:unicode.obj
 0002:0003c104       ??_C@_02NHOMODDM@Yi?$AA@   000000018006f104     oniguruma:unicode.obj
 0002:0003c108       ??_C@_08DIBGJKBD@US?9ASCII?$AA@ 000000018006f108     oniguruma:ascii.obj
 0002:0003c140       __xmm@ffffffffffffffffffffffffffffffff 000000018006f140     oniguruma:regparse.obj
 0002:0003c638       ??_R4exception@std@@6B@    000000018006f638     libcpmt:xthrow.obj
 0002:0003c660       ??_R3exception@std@@8      000000018006f660     libcpmt:xthrow.obj
 0002:0003c678       ??_R2exception@std@@8      000000018006f678     libcpmt:xthrow.obj
 0002:0003c688       ??_R1A@?0A@EA@exception@std@@8 000000018006f688     libcpmt:xthrow.obj
 0002:0003c6b0       ??_R4bad_alloc@std@@6B@    000000018006f6b0     libcpmt:xthrow.obj
 0002:0003c6d8       ??_R3bad_alloc@std@@8      000000018006f6d8     libcpmt:xthrow.obj
 0002:0003c6f0       ??_R2bad_alloc@std@@8      000000018006f6f0     libcpmt:xthrow.obj
 0002:0003c708       ??_R1A@?0A@EA@bad_alloc@std@@8 000000018006f708     libcpmt:xthrow.obj
 0002:0003c730       ??_R4logic_error@std@@6B@  000000018006f730     libcpmt:xthrow.obj
 0002:0003c758       ??_R3logic_error@std@@8    000000018006f758     libcpmt:xthrow.obj
 0002:0003c770       ??_R2logic_error@std@@8    000000018006f770     libcpmt:xthrow.obj
 0002:0003c788       ??_R1A@?0A@EA@logic_error@std@@8 000000018006f788     libcpmt:xthrow.obj
 0002:0003c7b0       ??_R4length_error@std@@6B@ 000000018006f7b0     libcpmt:xthrow.obj
 0002:0003c7d8       ??_R3length_error@std@@8   000000018006f7d8     libcpmt:xthrow.obj
 0002:0003c7f0       ??_R2length_error@std@@8   000000018006f7f0     libcpmt:xthrow.obj
 0002:0003c810       ??_R1A@?0A@EA@length_error@std@@8 000000018006f810     libcpmt:xthrow.obj
 0002:0003c838       ??_R4out_of_range@std@@6B@ 000000018006f838     libcpmt:xthrow.obj
 0002:0003c860       ??_R3out_of_range@std@@8   000000018006f860     libcpmt:xthrow.obj
 0002:0003c878       ??_R2out_of_range@std@@8   000000018006f878     libcpmt:xthrow.obj
 0002:0003c898       ??_R1A@?0A@EA@out_of_range@std@@8 000000018006f898     libcpmt:xthrow.obj
 0002:0003c8c0       ??_R4type_info@@6B@        000000018006f8c0     LIBCMT:std_type_info_static.obj
 0002:0003c8e8       ??_R3type_info@@8          000000018006f8e8     LIBCMT:std_type_info_static.obj
 0002:0003c900       ??_R2type_info@@8          000000018006f900     LIBCMT:std_type_info_static.obj
 0002:0003c910       ??_R1A@?0A@EA@type_info@@8 000000018006f910     LIBCMT:std_type_info_static.obj
 0002:0003c938       ??_R4bad_array_new_length@std@@6B@ 000000018006f938     LIBCMT:throw_bad_alloc.obj
 0002:0003c960       ??_R3bad_array_new_length@std@@8 000000018006f960     LIBCMT:throw_bad_alloc.obj
 0002:0003c978       ??_R2bad_array_new_length@std@@8 000000018006f978     LIBCMT:throw_bad_alloc.obj
 0002:0003c998       ??_R1A@?0A@EA@bad_array_new_length@std@@8 000000018006f998     LIBCMT:throw_bad_alloc.obj
 0002:0003c9c0       ??_R4bad_exception@std@@6B@ 000000018006f9c0     libvcruntime:frame.obj
 0002:0003c9e8       ??_R3bad_exception@std@@8  000000018006f9e8     libvcruntime:frame.obj
 0002:0003ca00       ??_R2bad_exception@std@@8  000000018006fa00     libvcruntime:frame.obj
 0002:0003ca18       ??_R1A@?0A@EA@bad_exception@std@@8 000000018006fa18     libvcruntime:frame.obj
 0002:0003ce40       __rtc_iaa                  000000018006fe40     LIBCMT:_initsect_.obj
 0002:0003ce48       __rtc_izz                  000000018006fe48     LIBCMT:_initsect_.obj
 0002:0003ce50       __rtc_taa                  000000018006fe50     LIBCMT:_initsect_.obj
 0002:0003ce58       __rtc_tzz                  000000018006fe58     LIBCMT:_initsect_.obj
 0002:0003f900       _TI2?AVbad_alloc@std@@     0000000180072900     libcpmt:xthrow.obj
 0002:0003f920       _CTA2?AVbad_alloc@std@@    0000000180072920     libcpmt:xthrow.obj
 0002:0003f938       _CT??_R0?AVbad_alloc@std@@@8??0bad_alloc@std@@QEAA@AEBV01@@Z24 0000000180072938     libcpmt:xthrow.obj
 0002:0003f960       _CT??_R0?AVexception@std@@@8??0exception@std@@QEAA@AEBV01@@Z24 0000000180072960     libcpmt:xthrow.obj
 0002:0003f988       _CT??_R0?AVlogic_error@std@@@8??0logic_error@std@@QEAA@AEBV01@@Z24 0000000180072988     libcpmt:xthrow.obj
 0002:0003f9b0       _TI3?AVlength_error@std@@  00000001800729b0     libcpmt:xthrow.obj
 0002:0003f9d0       _CTA3?AVlength_error@std@@ 00000001800729d0     libcpmt:xthrow.obj
 0002:0003f9f0       _CT??_R0?AVlength_error@std@@@8??0length_error@std@@QEAA@AEBV01@@Z24 00000001800729f0     libcpmt:xthrow.obj
 0002:0003fa18       _TI3?AVout_of_range@std@@  0000000180072a18     libcpmt:xthrow.obj
 0002:0003fa38       _CTA3?AVout_of_range@std@@ 0000000180072a38     libcpmt:xthrow.obj
 0002:0003fa58       _CT??_R0?AVout_of_range@std@@@8??0out_of_range@std@@QEAA@AEBV01@@Z24 0000000180072a58     libcpmt:xthrow.obj
 0002:0003fa80       _TI3?AVbad_array_new_length@std@@ 0000000180072a80     LIBCMT:throw_bad_alloc.obj
 0002:0003faa0       _CTA3?AVbad_array_new_length@std@@ 0000000180072aa0     LIBCMT:throw_bad_alloc.obj
 0002:0003fac0       _CT??_R0?AVbad_array_new_length@std@@@8??0bad_array_new_length@std@@QEAA@AEBV01@@Z24 0000000180072ac0     LIBCMT:throw_bad_alloc.obj
 0002:0003fae8       _TI2?AVbad_exception@std@@ 0000000180072ae8     libvcruntime:frame.obj
 0002:0003fb08       _CTA2?AVbad_exception@std@@ 0000000180072b08     libvcruntime:frame.obj
 0002:0003fb20       _CT??_R0?AVbad_exception@std@@@8??0bad_exception@std@@QEAA@AEBV01@@Z24 0000000180072b20     libvcruntime:frame.obj
 0002:0003fb44       __DELAY_IMPORT_DESCRIPTOR_node_exe 0000000180072b44     node:node.exe
 0002:0003fb64       __NULL_DELAY_IMPORT_DESCRIPTOR 0000000180072b64     node:node.exe
 0002:0003fd30       \177node_NULL_THUNK_DATA_DLN 0000000180072d30     node:node.exe
 0002:00040a50       \177node_NULL_THUNK_DATA_DLB 0000000180073a50     node:node.exe
 0002:00040c5c       __IMPORT_DESCRIPTOR_KERNEL32 0000000180073c5c     kernel32:KERNEL32.dll
 0002:00040c70       __NULL_IMPORT_DESCRIPTOR   0000000180073c70     kernel32:KERNEL32.dll
 0003:00000000       __security_cookie          0000000180075000     LIBCMT:gs_cookie.obj
 0003:00000008       __security_cookie_complement 0000000180075008     LIBCMT:gs_cookie.obj
 0003:00000010       __scrt_native_dllmain_reason 0000000180075010     LIBCMT:utility.obj
 0003:00000018       __isa_available            0000000180075018     LIBCMT:_cpu_disp_.obj
 0003:0000001c       __isa_enabled              000000018007501c     LIBCMT:_cpu_disp_.obj
 0003:00000020       __memcpy_nt_iters          0000000180075020     LIBCMT:_cpu_disp_.obj
 0003:00000040       __abort_behavior           0000000180075040     libucrt:abort.obj
 0003:00000050       _iob                       0000000180075050     libucrt:_file.obj
 0003:00000160       __acrt_initial_locale_data 0000000180075160     libucrt:nlsdata.obj
 0003:000002b8       __acrt_initial_locale_pointers 00000001800752b8     libucrt:nlsdata.obj
 0003:000002c8       __acrt_wide_c_locale_string 00000001800752c8     libucrt:nlsdata.obj
 0003:000002d0       __badioinfo                00000001800752d0     libucrt:ioinit.obj
 0003:00000310       __acrt_initial_multibyte_data 0000000180075310     libucrt:mbctype.obj
 0003:00000538       __acrt_current_multibyte_data 0000000180075538     libucrt:mbctype.obj
 0003:00000640       _mbctype                   0000000180075640     libucrt:mbctype.obj
 0003:00000750       _mbcasemap                 0000000180075750     libucrt:mbctype.obj
 0003:00000850       _pwctype                   0000000180075850     libucrt:ctype.obj
 0003:00000858       __globallocalestatus       0000000180075858     libucrt:glstatus.obj
 0003:00000860       __acrt_lconv_c             0000000180075860     libucrt:localeconv.obj
 0003:000008f8       __acrt_lconv_static_decimal 00000001800758f8     libucrt:localeconv.obj
 0003:000008fc       __acrt_lconv_static_W_decimal 00000001800758fc     libucrt:localeconv.obj
 0003:00000900       __dcrt_lowio_console_output_handle 0000000180075900     libucrt:initcon.obj
 0003:00000920       _fltused                   0000000180075920     LIBCMT:fltused.obj
 0003:00000970       OnigEncodingUTF8           0000000180075970     oniguruma:utf8.obj
 0003:00000af0       OnigSyntaxRuby             0000000180075af0     oniguruma:regparse.obj
 0003:000013c0       OnigEncodingASCII          00000001800763c0     oniguruma:ascii.obj
 0003:00001438       ??_R0?AVbad_alloc@std@@@8  0000000180076438     libcpmt:xthrow.obj
 0003:00001460       ??_R0?AVexception@std@@@8  0000000180076460     libcpmt:xthrow.obj
 0003:00001488       ??_R0?AVlogic_error@std@@@8 0000000180076488     libcpmt:xthrow.obj
 0003:000014b0       ??_R0?AVlength_error@std@@@8 00000001800764b0     libcpmt:xthrow.obj
 0003:000014d8       ??_R0?AVout_of_range@std@@@8 00000001800764d8     libcpmt:xthrow.obj
 0003:00001500       ??_R0?AVtype_info@@@8      0000000180076500     LIBCMT:std_type_info_static.obj
 0003:00001520       ??_R0?AVbad_array_new_length@std@@@8 0000000180076520     LIBCMT:throw_bad_alloc.obj
 0003:00001550       ??_R0?AVbad_exception@std@@@8 0000000180076550     libvcruntime:frame.obj
 0003:00001578       __imp_?ThrowException@Isolate@v8@@QEAA?AV?$Local@VValue@v8@@@2@V32@@Z 0000000180076578     node:node.exe
 0003:00001580       __imp_?GetCurrent@Isolate@v8@@SAPEAV12@XZ 0000000180076580     node:node.exe
 0003:00001588       __imp_?Error@Exception@v8@@SA?AV?$Local@VValue@v8@@@2@V?$Local@VString@v8@@@2@@Z 0000000180076588     node:node.exe
 0003:00001590       __imp_?ToLocalEmpty@V8@v8@@CAXXZ 0000000180076590     node:node.exe
 0003:00001598       __imp_?NewFromUtf8@String@v8@@SA?AV?$MaybeLocal@VString@v8@@@2@PEAVIsolate@2@PEBDW4NewStringType@2@H@Z 0000000180076598     node:node.exe
 0003:000015a0       __imp_uv_queue_work        00000001800765a0     node:node.exe
 0003:000015a8       __imp_?Global@Context@v8@@QEAA?AV?$Local@VObject@v8@@@2@XZ 00000001800765a8     node:node.exe
 0003:000015b0       __imp_?Value@External@v8@@QEBAPEAXXZ 00000001800765b0     node:node.exe
 0003:000015b8       __imp_?New@External@v8@@SA?AV?$Local@VExternal@v8@@@2@PEAVIsolate@2@PEAX@Z 00000001800765b8     node:node.exe
 0003:000015c0       __imp_?GetCurrentContext@Isolate@v8@@QEAA?AV?$Local@VContext@v8@@@2@XZ 00000001800765c0     node:node.exe
 0003:000015c8       __imp_?CreateHandle@HandleScope@v8@@KAPEAPEAVObject@internal@2@PEAVIsolate@42@PEAV342@@Z 00000001800765c8     node:node.exe
 0003:000015d0       __imp_?CreateHandle@HandleScope@v8@@CAPEAPEAVObject@internal@2@PEAVHeapObject@42@PEAV342@@Z 00000001800765d0     node:node.exe
 0003:000015d8       __imp_??1HandleScope@v8@@QEAA@XZ 00000001800765d8     node:node.exe
 0003:000015e0       __imp_??0HandleScope@v8@@QEAA@PEAVIsolate@1@@Z 00000001800765e0     node:node.exe
 0003:000015e8       __imp_?Set@Template@v8@@QEAAXV?$Local@VName@v8@@@2@V?$Local@VData@v8@@@2@W4PropertyAttribute@2@@Z 00000001800765e8     node:node.exe
 0003:000015f0       __imp_?New@Array@v8@@SA?AV?$Local@VArray@v8@@@2@PEAVIsolate@2@H@Z 00000001800765f0     node:node.exe
 0003:000015f8       __imp_?Length@Array@v8@@QEBAIXZ 00000001800765f8     node:node.exe
 0003:00001600       __imp_?SetClassName@FunctionTemplate@v8@@QEAAXV?$Local@VString@v8@@@2@@Z 0000000180076600     node:node.exe
 0003:00001608       __imp_?PrototypeTemplate@FunctionTemplate@v8@@QEAA?AV?$Local@VObjectTemplate@v8@@@2@XZ 0000000180076608     node:node.exe
 0003:00001610       __imp_?InstanceTemplate@FunctionTemplate@v8@@QEAA?AV?$Local@VObjectTemplate@v8@@@2@XZ 0000000180076610     node:node.exe
 0003:00001618       __imp_?GetFunction@FunctionTemplate@v8@@QEAA?AV?$Local@VFunction@v8@@@2@XZ 0000000180076618     node:node.exe
 0003:00001620       __imp_?New@FunctionTemplate@v8@@SA?AV?$Local@VFunctionTemplate@v8@@@2@PEAVIsolate@2@P6AXAEBV?$FunctionCallbackInfo@VValue@v8@@@2@@ZV?$Local@VValue@v8@@@2@V?$Local@VSignature@v8@@@2@H@Z 0000000180076620     node:node.exe
 0003:00001628       __imp_?ClearWeak@V8@v8@@CAPEAXPEAPEAVObject@internal@2@@Z 0000000180076628     node:node.exe
 0003:00001630       __imp_?MakeWeak@V8@v8@@CAXPEAPEAVObject@internal@2@PEAXP6AXAEBV?$WeakCallbackInfo@X@2@@ZW4WeakCallbackType@2@@Z 0000000180076630     node:node.exe
 0003:00001638       __imp_?DisposeGlobal@V8@v8@@CAXPEAPEAVObject@internal@2@@Z 0000000180076638     node:node.exe
 0003:00001640       __imp_?GlobalizeReference@V8@v8@@CAPEAPEAVObject@internal@2@PEAVIsolate@42@PEAPEAV342@@Z 0000000180076640     node:node.exe
 0003:00001648       __imp_?Escape@EscapableHandleScope@v8@@AEAAPEAPEAVObject@internal@2@PEAPEAV342@@Z 0000000180076648     node:node.exe
 0003:00001650       __imp_??0EscapableHandleScope@v8@@QEAA@PEAVIsolate@1@@Z 0000000180076650     node:node.exe
 0003:00001658       __imp_??1Utf8Value@String@v8@@QEAA@XZ 0000000180076658     node:node.exe
 0003:00001660       __imp_??0Utf8Value@String@v8@@QEAA@V?$Local@VValue@v8@@@2@@Z 0000000180076660     node:node.exe
 0003:00001668       __imp_?New@Number@v8@@SA?AV?$Local@VNumber@v8@@@2@PEAVIsolate@2@N@Z 0000000180076668     node:node.exe
 0003:00001670       __imp_?Value@Number@v8@@QEBANXZ 0000000180076670     node:node.exe
 0003:00001678       __imp_?SlowGetAlignedPointerFromInternalField@Object@v8@@AEAAPEAXH@Z 0000000180076678     node:node.exe
 0003:00001680       __imp_?SlowGetInternalField@Object@v8@@AEAA?AV?$Local@VValue@v8@@@2@H@Z 0000000180076680     node:node.exe
 0003:00001688       __imp_?New@Object@v8@@SA?AV?$Local@VObject@v8@@@2@PEAVIsolate@2@@Z 0000000180076688     node:node.exe
 0003:00001690       __imp_?SetAlignedPointerInInternalField@Object@v8@@QEAAXHPEAX@Z 0000000180076690     node:node.exe
 0003:00001698       __imp_?SetInternalField@Object@v8@@QEAAXHV?$Local@VValue@v8@@@2@@Z 0000000180076698     node:node.exe
 0003:000016a0       __imp_?InternalFieldCount@Object@v8@@QEAAHXZ 00000001800766a0     node:node.exe
 0003:000016a8       __imp_?Get@Object@v8@@QEAA?AV?$Local@VValue@v8@@@2@I@Z 00000001800766a8     node:node.exe
 0003:000016b0       __imp_?Set@Object@v8@@QEAA_NV?$Local@VValue@v8@@@2@0@Z 00000001800766b0     node:node.exe
 0003:000016b8       __imp_?Set@Object@v8@@QEAA_NIV?$Local@VValue@v8@@@2@@Z 00000001800766b8     node:node.exe
 0003:000016c0       __imp_?SetInternalFieldCount@ObjectTemplate@v8@@QEAAXH@Z 00000001800766c0     node:node.exe
 0003:000016c8       __imp_?NewInstance@ObjectTemplate@v8@@QEAA?AV?$MaybeLocal@VObject@v8@@@2@V?$Local@VContext@v8@@@2@@Z 00000001800766c8     node:node.exe
 0003:000016d0       __imp_?New@ObjectTemplate@v8@@SA?AV?$Local@VObjectTemplate@v8@@@2@PEAVIsolate@2@V?$Local@VFunctionTemplate@v8@@@2@@Z 00000001800766d0     node:node.exe
 0003:000016d8       __imp_node_module_register 00000001800766d8     node:node.exe
 0003:000016e0       __imp_?MakeCallback@node@@YA?AV?$Local@VValue@v8@@@v8@@PEAVIsolate@3@V?$Local@VObject@v8@@@3@V?$Local@VFunction@v8@@@3@HPEAV23@@Z 00000001800766e0     node:node.exe
 0003:000016e8       __imp_uv_default_loop      00000001800766e8     node:node.exe
 0003:000016f0       __imp_?ToObject@Value@v8@@QEBA?AV?$Local@VObject@v8@@@2@XZ 00000001800766f0     node:node.exe
 0003:000016f8       __imp_??1EscapableHandleScope@v8@@QEAA@XZ 00000001800766f8     node:node.exe
 0003:00001700       __imp_?TypeError@Exception@v8@@SA?AV?$Local@VValue@v8@@@2@V?$Local@VString@v8@@@2@@Z 0000000180076700     node:node.exe
 0003:00001708       __imp_??1Value@String@v8@@QEAA@XZ 0000000180076708     node:node.exe
 0003:00001710       __imp_??0Value@String@v8@@QEAA@V?$Local@VValue@v8@@@2@@Z 0000000180076710     node:node.exe
 0003:00001718       __imp_?Length@String@v8@@QEBAHXZ 0000000180076718     node:node.exe
 0003:00001720       \177node_NULL_THUNK_DATA_DLA 0000000180076720     node:node.exe
 0003:00001730       __hmod__node_exe           0000000180076730     node:node.exe
 0003:00001cb0       __scrt_current_native_startup_state 0000000180076cb0     LIBCMT:utility.obj
 0003:00001cb8       __scrt_native_startup_lock 0000000180076cb8     LIBCMT:utility.obj
 0003:00001d00       ?__type_info_root_node@@3U__type_info_node@@A 0000000180076d00     LIBCMT:tncleanup.obj
 0003:00001d10       ?_OptionsStorage@?1??__local_stdio_scanf_options@@9@4_KA 0000000180076d10     LIBCMT:default_local_stdio_options.obj
 0003:00001d18       __scrt_debugger_hook_flag  0000000180076d18     LIBCMT:utility_desktop.obj
 0003:00001d1c       __favor                    0000000180076d1c     LIBCMT:_cpu_disp_.obj
 0003:00001d20       ?g_OutOfMemoryExceptionCallback@@3P6APEAXXZEA 0000000180076d20     libvcruntime:frame.obj
 0003:00001da8       __pPurecall                0000000180076da8     libvcruntime:purevirt_data.obj
 0003:00001e48       ?pArgList@UnDecorator@@0PEAVReplicator@@EA 0000000180076e48     libvcruntime:undname.obj
 0003:00001e50       ?pZNameList@UnDecorator@@0PEAVReplicator@@EA 0000000180076e50     libvcruntime:undname.obj
 0003:00001e58       ?pTemplateArgList@UnDecorator@@0PEAVReplicator@@EA 0000000180076e58     libvcruntime:undname.obj
 0003:00001e60       ?gName@UnDecorator@@0PEBDEB 0000000180076e60     libvcruntime:undname.obj
 0003:00001e68       ?name@UnDecorator@@0PEBDEB 0000000180076e68     libvcruntime:undname.obj
 0003:00001e70       ?outputString@UnDecorator@@0PEADEA 0000000180076e70     libvcruntime:undname.obj
 0003:00001e78       ?maxStringLength@UnDecorator@@0HA 0000000180076e78     libvcruntime:undname.obj
 0003:00001e7c       ?disableFlags@UnDecorator@@0KA 0000000180076e7c     libvcruntime:undname.obj
 0003:00001e80       ?fExplicitTemplateParams@UnDecorator@@0_NA 0000000180076e80     libvcruntime:undname.obj
 0003:00001e81       ?fGetTemplateArgumentList@UnDecorator@@0_NA 0000000180076e81     libvcruntime:undname.obj
 0003:00001e88       ?m_pGetParameter@UnDecorator@@0P6APEADJ@ZEA 0000000180076e88     libvcruntime:undname.obj
 0003:00001fe8       _environ_table             0000000180076fe8     libucrt:environment_initialization.obj
 0003:00001ff0       _wenviron_table            0000000180076ff0     libucrt:environment_initialization.obj
 0003:00001ff8       __dcrt_initial_wide_environment 0000000180076ff8     libucrt:environment_initialization.obj
 0003:00002000       __dcrt_initial_narrow_environment 0000000180077000     libucrt:environment_initialization.obj
 0003:00002008       __acrt_atexit_table        0000000180077008     libucrt:onexit.obj
 0003:00002020       __acrt_at_quick_exit_table 0000000180077020     libucrt:onexit.obj
 0003:00002040       _nstream                   0000000180077040     libucrt:_file.obj
 0003:00002048       __piob                     0000000180077048     libucrt:_file.obj
 0003:00002050       _cflush                    0000000180077050     libucrt:_file.obj
 0003:00002078       __acrt_locale_changed_data 0000000180077078     libucrt:wsetlocale.obj
 0003:00002080       __acrt_current_locale_data 0000000180077080     libucrt:nlsdata.obj
 0003:00002090       __acrt_stdout_buffer       0000000180077090     libucrt:_sftbuf.obj
 0003:00002098       __acrt_stderr_buffer       0000000180077098     libucrt:_sftbuf.obj
 0003:000020a0       __pioinfo                  00000001800770a0     libucrt:ioinit.obj
 0003:000024a0       _nhandle                   00000001800774a0     libucrt:ioinit.obj
 0003:00002864       __mbcodepage               0000000180077864     libucrt:mbctype.obj
 0003:00002868       __ismbcodepage             0000000180077868     libucrt:mbctype.obj
 0003:00002870       __mbulinfo                 0000000180077870     libucrt:mbctype.obj
 0003:00002880       __mblocalename             0000000180077880     libucrt:mbctype.obj
 0003:0000288c       __argc                     000000018007788c     libucrt:argv_data.obj
 0003:00002890       __argv                     0000000180077890     libucrt:argv_data.obj
 0003:00002898       __wargv                    0000000180077898     libucrt:argv_data.obj
 0003:000028a0       _acmdln                    00000001800778a0     libucrt:argv_data.obj
 0003:000028a8       _wcmdln                    00000001800778a8     libucrt:argv_data.obj
 0003:000028b0       _pgmptr                    00000001800778b0     libucrt:argv_data.obj
 0003:000028b8       __acrt_heap                00000001800778b8     libucrt:heap_handle.obj
 0003:000028cc       __acrt_lconv_static_null   00000001800778cc     libucrt:localeconv.obj
 0003:000028d0       __acrt_lconv_static_W_null 00000001800778d0     libucrt:localeconv.obj
 0003:000028d4       __fma3_is_available        00000001800778d4     libucrt:fma3_available.obj
 0003:000028d8       __use_fma3_lib             00000001800778d8     libucrt:fma3_available.obj
 0003:000028e0       ?DloadKernel32@@3PEAUHINSTANCE__@@EA 00000001800778e0     DelayImp:delayhlp.obj
 0003:000028e8       ?DloadAcquireSRWLockExclusive@@3P6AXPEA_K@ZEA 00000001800778e8     DelayImp:delayhlp.obj
 0003:000028f0       ?DloadReleaseSRWLockExclusive@@3P6AXPEA_K@ZEA 00000001800778f0     DelayImp:delayhlp.obj
 0003:000028f8       ?DloadSrwLock@@3_KA        00000001800778f8     DelayImp:delayhlp.obj
 0003:00002900       ?DloadSectionLockCount@@3KA 0000000180077900     DelayImp:delayhlp.obj
 0003:00002904       ?DloadSectionOldProtection@@3KA 0000000180077904     DelayImp:delayhlp.obj
 0003:00002908       ?DloadSectionCommitPermanent@@3KA 0000000180077908     DelayImp:delayhlp.obj
 0003:00002d08       __scrt_ucrt_dll_is_in_use  0000000180077d08     <common>
 0003:00002d10       __dyn_tls_init_callback    0000000180077d10     <common>
 0003:00002d18       ?_OptionsStorage@?1??__local_stdio_printf_options@@9@9 0000000180077d18     <common>

 entry point at        0001:0001be64

 Static symbols

 0000:fff82000       .debug$S                   0000000180000000     kernel32:KERNEL32.dll
 0000:fff82000       .debug$S                   0000000180000000     node:node.exe
 0000:fff82000       .debug$S                   0000000180000000     node:node.exe
 0000:fff82000       .debug$S                   0000000180000000     kernel32:KERNEL32.dll
 0000:fff82000       .debug$S                   0000000180000000     node:node.exe
 0000:fff82000       .debug$S                   0000000180000000     node:node.exe
 0000:fff82000       .debug$S                   0000000180000000     node:node.exe
 0000:fff82000       .debug$S                   0000000180000000     kernel32:KERNEL32.dll
 0000:fff82000       .debug$S                   0000000180000000     kernel32:KERNEL32.dll
 0000:fff82000       .debug$S                   0000000180000000     node:node.exe
 0000:fff82000       .debug$S                   0000000180000000     kernel32:KERNEL32.dll
 0000:fff82000       .debug$S                   0000000180000000     kernel32:KERNEL32.dll
 0000:fff82000       .debug$S                   0000000180000000     kernel32:KERNEL32.dll
 0000:fff82000       .debug$S                   0000000180000000     node:node.exe
 0000:fff82000       .debug$S                   0000000180000000     kernel32:KERNEL32.dll
 0000:fff82000       .debug$S                   0000000180000000     node:node.exe
 0000:fff82000       .debug$S                   0000000180000000     node:node.exe
 0000:fff82000       .debug$S                   0000000180000000     node:node.exe
 0000:fff82000       .debug$S                   0000000180000000     kernel32:KERNEL32.dll
 0000:fff82000       .debug$S                   0000000180000000     kernel32:KERNEL32.dll
 0000:fff82000       .debug$S                   0000000180000000     node:node.exe
 0000:fff82000       .debug$S                   0000000180000000     node:node.exe
 0000:fff82000       .debug$S                   0000000180000000     kernel32:KERNEL32.dll
 0000:fff82000       .debug$S                   0000000180000000     kernel32:KERNEL32.dll
 0000:fff82000       .debug$S                   0000000180000000     node:node.exe
 0000:fff82000       .debug$S                   0000000180000000     kernel32:KERNEL32.dll
 0000:fff82000       .debug$S                   0000000180000000     node:node.exe
 0000:fff82000       .debug$S                   0000000180000000     kernel32:KERNEL32.dll
 0000:fff82000       .debug$S                   0000000180000000     node:node.exe
 0000:fff82000       .debug$S                   0000000180000000     kernel32:KERNEL32.dll
 0000:fff82000       .debug$S                   0000000180000000     node:node.exe
 0000:fff82000       .debug$S                   0000000180000000     kernel32:KERNEL32.dll
 0000:fff82000       .debug$S                   0000000180000000     node:node.exe
 0000:fff82000       .debug$S                   0000000180000000     node:node.exe
 0000:fff82000       .debug$S                   0000000180000000     node:node.exe
 0000:fff82000       .debug$S                   0000000180000000     kernel32:KERNEL32.dll
 0000:fff82000       .debug$S                   0000000180000000     kernel32:KERNEL32.dll
 0000:fff82000       .debug$S                   0000000180000000     node:node.exe
 0000:fff82000       .debug$S                   0000000180000000     node:node.exe
 0000:fff82000       .debug$S                   0000000180000000     node:node.exe
 0000:fff82000       .debug$S                   0000000180000000     kernel32:KERNEL32.dll
 0000:fff82000       .debug$S                   0000000180000000     kernel32:KERNEL32.dll
 0000:fff82000       .debug$S                   0000000180000000     node:node.exe
 0000:fff82000       .debug$S                   0000000180000000     node:node.exe
 0000:fff82000       .debug$S                   0000000180000000     node:node.exe
 0000:fff82000       .debug$S                   0000000180000000     kernel32:KERNEL32.dll
 0000:fff82000       .debug$S                   0000000180000000     kernel32:KERNEL32.dll
 0000:fff82000       .debug$S                   0000000180000000     node:node.exe
 0000:fff82000       .debug$S                   0000000180000000     node:node.exe
 0000:fff82000       .debug$S                   0000000180000000     node:node.exe
 0000:fff82000       .debug$S                   0000000180000000     node:node.exe
 0000:fff82000       .debug$S                   0000000180000000     node:node.exe
 0000:fff82000       .debug$S                   0000000180000000     node:node.exe
 0000:fff82000       .debug$S                   0000000180000000     node:node.exe
 0000:fff82000       .debug$S                   0000000180000000     node:node.exe
 0000:fff82000       .debug$S                   0000000180000000     node:node.exe
 0000:fff82000       .debug$S                   0000000180000000     kernel32:KERNEL32.dll
 0000:fff82000       .debug$S                   0000000180000000     node:node.exe
 0000:fff82000       .debug$S                   0000000180000000     node:node.exe
 0000:fff82000       .debug$S                   0000000180000000     node:node.exe
 0000:fff82000       .debug$S                   0000000180000000     kernel32:KERNEL32.dll
 0000:fff82000       .debug$S                   0000000180000000     node:node.exe
 0000:fff82000       .debug$S                   0000000180000000     node:node.exe
 0000:fff82000       .debug$S                   0000000180000000     kernel32:KERNEL32.dll
 0000:fff82000       .debug$S                   0000000180000000     node:node.exe
 0000:fff82000       .debug$S                   0000000180000000     node:node.exe
 0000:fff82000       .debug$S                   0000000180000000     node:node.exe
 0000:fff82000       .debug$S                   0000000180000000     kernel32:KERNEL32.dll
 0000:fff82000       .debug$S                   0000000180000000     kernel32:KERNEL32.dll
 0000:fff82000       .debug$S                   0000000180000000     node:node.exe
 0000:fff82000       .debug$S                   0000000180000000     kernel32:KERNEL32.dll
 0000:fff82000       .debug$S                   0000000180000000     node:node.exe
 0000:fff82000       .debug$S                   0000000180000000     node:node.exe
 0000:fff82000       .debug$S                   0000000180000000     node:node.exe
 0000:fff82000       .debug$S                   0000000180000000     kernel32:KERNEL32.dll
 0000:fff82000       .debug$S                   0000000180000000     kernel32:KERNEL32.dll
 0000:fff82000       .debug$S                   0000000180000000     node:node.exe
 0000:fff82000       .debug$S                   0000000180000000     node:node.exe
 0000:fff82000       .debug$S                   0000000180000000     node:node.exe
 0000:fff82000       .debug$S                   0000000180000000     kernel32:KERNEL32.dll
 0000:fff82000       .debug$S                   0000000180000000     node:node.exe
 0000:fff82000       .debug$S                   0000000180000000     node:node.exe
 0000:fff82000       .debug$S                   0000000180000000     node:node.exe
 0000:fff82000       .debug$S                   0000000180000000     node:node.exe
 0000:fff82000       .debug$S                   0000000180000000     node:node.exe
 0000:fff82000       .debug$S                   0000000180000000     node:node.exe
 0000:fff82000       .debug$S                   0000000180000000     node:node.exe
 0000:fff82000       .debug$S                   0000000180000000     node:node.exe
 0000:fff82000       .debug$S                   0000000180000000     kernel32:KERNEL32.dll
 0000:fff82000       .debug$S                   0000000180000000     node:node.exe
 0000:fff82000       .debug$S                   0000000180000000     node:node.exe
 0000:fff82000       .debug$S                   0000000180000000     node:node.exe
 0000:fff82000       .debug$S                   0000000180000000     node:node.exe
 0000:fff82000       .debug$S                   0000000180000000     kernel32:KERNEL32.dll
 0000:fff82000       .debug$S                   0000000180000000     node:node.exe
 0000:fff82000       .debug$S                   0000000180000000     node:node.exe
 0000:fff82000       .debug$S                   0000000180000000     node:node.exe
 0000:fff82000       .debug$S                   0000000180000000     node:node.exe
 0000:fff82000       .debug$S                   0000000180000000     node:node.exe
 0000:fff82000       .debug$S                   0000000180000000     node:node.exe
 0000:fff82000       .debug$S                   0000000180000000     node:node.exe
 0000:fff82000       .debug$S                   0000000180000000     kernel32:KERNEL32.dll
 0000:fff82000       .debug$S                   0000000180000000     kernel32:KERNEL32.dll
 0000:fff82000       .debug$S                   0000000180000000     kernel32:KERNEL32.dll
 0000:fff82000       .debug$S                   0000000180000000     kernel32:KERNEL32.dll
 0000:fff82000       .debug$S                   0000000180000000     kernel32:KERNEL32.dll
 0000:fff82000       .debug$S                   0000000180000000     kernel32:KERNEL32.dll
 0000:fff82000       .debug$S                   0000000180000000     kernel32:KERNEL32.dll
 0000:fff82000       .debug$S                   0000000180000000     kernel32:KERNEL32.dll
 0000:fff82000       .debug$S                   0000000180000000     kernel32:KERNEL32.dll
 0000:fff82000       .debug$S                   0000000180000000     kernel32:KERNEL32.dll
 0000:fff82000       .debug$S                   0000000180000000     kernel32:KERNEL32.dll
 0000:fff82000       .debug$S                   0000000180000000     kernel32:KERNEL32.dll
 0000:fff82000       .debug$S                   0000000180000000     kernel32:KERNEL32.dll
 0000:fff82000       .debug$S                   0000000180000000     kernel32:KERNEL32.dll
 0000:fff82000       .debug$S                   0000000180000000     kernel32:KERNEL32.dll
 0000:fff82000       .debug$S                   0000000180000000     kernel32:KERNEL32.dll
 0000:fff82000       .debug$S                   0000000180000000     kernel32:KERNEL32.dll
 0000:fff82000       .debug$S                   0000000180000000     kernel32:KERNEL32.dll
 0000:fff82000       .debug$S                   0000000180000000     kernel32:KERNEL32.dll
 0000:fff82000       .debug$S                   0000000180000000     kernel32:KERNEL32.dll
 0000:fff82000       .debug$S                   0000000180000000     kernel32:KERNEL32.dll
 0000:fff82000       .debug$S                   0000000180000000     kernel32:KERNEL32.dll
 0000:fff82000       .debug$S                   0000000180000000     kernel32:KERNEL32.dll
 0000:fff82000       .debug$S                   0000000180000000     kernel32:KERNEL32.dll
 0000:fff82000       .debug$S                   0000000180000000     kernel32:KERNEL32.dll
 0000:fff82000       .debug$S                   0000000180000000     kernel32:KERNEL32.dll
 0000:fff82000       .debug$S                   0000000180000000     kernel32:KERNEL32.dll
 0000:fff82000       .debug$S                   0000000180000000     kernel32:KERNEL32.dll
 0000:fff82000       .debug$S                   0000000180000000     kernel32:KERNEL32.dll
 0000:fff82000       .debug$S                   0000000180000000     kernel32:KERNEL32.dll
 0000:fff82000       .debug$S                   0000000180000000     kernel32:KERNEL32.dll
 0000:fff82000       .debug$S                   0000000180000000     kernel32:KERNEL32.dll
 0000:fff82000       .debug$S                   0000000180000000     kernel32:KERNEL32.dll
 0000:fff82000       .debug$S                   0000000180000000     kernel32:KERNEL32.dll
 0000:fff82000       .debug$S                   0000000180000000     kernel32:KERNEL32.dll
 0000:fff82000       .debug$S                   0000000180000000     kernel32:KERNEL32.dll
 0000:fff82000       .debug$S                   0000000180000000     kernel32:KERNEL32.dll
 0000:fff82000       .debug$S                   0000000180000000     kernel32:KERNEL32.dll
 0000:fff82000       .debug$S                   0000000180000000     kernel32:KERNEL32.dll
 0000:fff82000       .debug$S                   0000000180000000     kernel32:KERNEL32.dll
 0000:fff82000       .debug$S                   0000000180000000     kernel32:KERNEL32.dll
 0000:fff82000       .debug$S                   0000000180000000     kernel32:KERNEL32.dll
 0000:fff82000       .debug$S                   0000000180000000     kernel32:KERNEL32.dll
 0000:fff82000       .debug$S                   0000000180000000     kernel32:KERNEL32.dll
 0000:fff82000       .debug$S                   0000000180000000     kernel32:KERNEL32.dll
 0000:fff82000       .debug$S                   0000000180000000     kernel32:KERNEL32.dll
 0000:fff82000       .debug$S                   0000000180000000     kernel32:KERNEL32.dll
 0000:fff82000       .debug$S                   0000000180000000     kernel32:KERNEL32.dll
 0000:fff82000       .debug$S                   0000000180000000     kernel32:KERNEL32.dll
 0000:fff82000       .debug$S                   0000000180000000     kernel32:KERNEL32.dll
 0000:fff82000       .debug$S                   0000000180000000     kernel32:KERNEL32.dll
 0000:fff82000       .debug$S                   0000000180000000     kernel32:KERNEL32.dll
 0000:fff82000       .debug$S                   0000000180000000     kernel32:KERNEL32.dll
 0000:fff82000       .debug$S                   0000000180000000     kernel32:KERNEL32.dll
 0000:fff82000       .debug$S                   0000000180000000     kernel32:KERNEL32.dll
 0000:fff82000       .debug$S                   0000000180000000     kernel32:KERNEL32.dll
 0000:fff82000       .debug$S                   0000000180000000     kernel32:KERNEL32.dll
 0000:fff82000       .debug$S                   0000000180000000     kernel32:KERNEL32.dll
 0000:fff82000       .debug$S                   0000000180000000     onig_scanner.exp
 0000:fff82000       .debug$S                   0000000180000000     kernel32:KERNEL32.dll
 0001:00000e90       ?FunctionCallbackWrapper@imp@Nan@@YAXAEBV?$FunctionCallbackInfo@VValue@v8@@@v8@@@Z 0000000180001e90 f   onig-scanner.obj
 0001:00001b10       _register_onig_scanner     0000000180002b10 f   onig-scanner.obj
 0001:00003ca0       ?load_exe_hook@@YAP6A_JXZIPEAUDelayLoadInfo@@@Z 0000000180004ca0 f   win_delay_load_hook.obj
 0001:00003cf0       history_tree_clear         0000000180004cf0 f   oniguruma:regexec.obj
 0001:00003da0       history_node_new           0000000180004da0 f   oniguruma:regexec.obj
 0001:00003de0       history_tree_add_child     0000000180004de0 f   oniguruma:regexec.obj
 0001:00004030       stack_double               0000000180005030 f   oniguruma:regexec.obj
 0001:00004140       string_cmp_ic              0000000180005140 f   oniguruma:regexec.obj
 0001:00004210       make_capture_history_tree  0000000180005210 f   oniguruma:regexec.obj
 0001:00004360       backref_match_at_nested_level 0000000180005360 f   oniguruma:regexec.obj
 0001:00004510       match_at                   0000000180005510 f   oniguruma:regexec.obj
 0001:000082f4       $LN1932                    00000001800092f4     oniguruma:regexec.obj
 0001:00008440       slow_search                0000000180009440 f   oniguruma:regexec.obj
 0001:000084f0       str_lower_case_match       00000001800094f0 f   oniguruma:regexec.obj
 0001:000085b0       slow_search_ic             00000001800095b0 f   oniguruma:regexec.obj
 0001:000086a0       slow_search_backward       00000001800096a0 f   oniguruma:regexec.obj
 0001:00008760       slow_search_backward_ic    0000000180009760 f   oniguruma:regexec.obj
 0001:00008830       bm_search_notrev           0000000180009830 f   oniguruma:regexec.obj
 0001:00008990       bm_search                  0000000180009990 f   oniguruma:regexec.obj
 0001:00008a90       set_bm_backward_skip       0000000180009a90 f   oniguruma:regexec.obj
 0001:00008b70       bm_search_backward         0000000180009b70 f   oniguruma:regexec.obj
 0001:00008c30       forward_search_range       0000000180009c30 f   oniguruma:regexec.obj
 0001:00008fa0       backward_search_range      0000000180009fa0 f   oniguruma:regexec.obj
 0001:00009a00       mbc_enc_len                000000018000aa00 f   oniguruma:utf8.obj
 0001:00009a10       is_mbc_newline             000000018000aa10 f   oniguruma:utf8.obj
 0001:00009a30       mbc_to_code                000000018000aa30 f   oniguruma:utf8.obj
 0001:00009ad0       code_to_mbclen             000000018000aad0 f   oniguruma:utf8.obj
 0001:00009b60       code_to_mbc                000000018000ab60 f   oniguruma:utf8.obj
 0001:00009cb0       mbc_case_fold              000000018000acb0 f   oniguruma:utf8.obj
 0001:00009d00       get_ctype_code_range       000000018000ad00 f   oniguruma:utf8.obj
 0001:00009d40       left_adjust_char_head      000000018000ad40 f   oniguruma:utf8.obj
 0001:00009d70       get_case_fold_codes_by_str 000000018000ad70 f   oniguruma:utf8.obj
 0001:00009d90       swap_node                  000000018000ad90 f   oniguruma:regcomp.obj
 0001:00009e20       unset_addr_list_add        000000018000ae20 f   oniguruma:regcomp.obj
 0001:00009ea0       add_opcode                 000000018000aea0 f   oniguruma:regcomp.obj
 0001:00009f20       add_abs_addr               000000018000af20 f   oniguruma:regcomp.obj
 0001:00009f20       add_option                 000000018000af20 f   oniguruma:regcomp.obj
 0001:00009f20       add_length                 000000018000af20 f   oniguruma:regcomp.obj
 0001:00009f20       add_rel_addr               000000018000af20 f   oniguruma:regcomp.obj
 0001:00009fa0       add_mem_num                000000018000afa0 f   oniguruma:regcomp.obj
 0001:0000a020       add_opcode_rel_addr        000000018000b020 f   oniguruma:regcomp.obj
 0001:0000a0a0       add_bytes                  000000018000b0a0 f   oniguruma:regcomp.obj
 0001:0000a130       add_bitset                 000000018000b130 f   oniguruma:regcomp.obj
 0001:0000a1c0       select_str_opcode          000000018000b1c0 f   oniguruma:regcomp.obj
 0001:0000a260       compile_tree_empty_check   000000018000b260 f   oniguruma:regcomp.obj
 0001:0000a340       compile_call               000000018000b340 f   oniguruma:regcomp.obj
 0001:0000a3e0       compile_tree_n_times       000000018000b3e0 f   oniguruma:regcomp.obj
 0001:0000a430       add_compile_string         000000018000b430 f   oniguruma:regcomp.obj
 0001:0000a520       compile_length_string_node 000000018000b520 f   oniguruma:regcomp.obj
 0001:0000a640       compile_string_node        000000018000b640 f   oniguruma:regcomp.obj
 0001:0000a7d0       add_multi_byte_cclass      000000018000b7d0 f   oniguruma:regcomp.obj
 0001:0000a920       compile_cclass_node        000000018000b920 f   oniguruma:regcomp.obj
 0001:0000aaa0       entry_repeat_range         000000018000baa0 f   oniguruma:regcomp.obj
 0001:0000ab50       compile_range_repeat_node  000000018000bb50 f   oniguruma:regcomp.obj
 0001:0000ac80       compile_length_quantifier_node 000000018000bc80 f   oniguruma:regcomp.obj
 0001:0000ae10       compile_quantifier_node    000000018000be10 f   oniguruma:regcomp.obj
 0001:0000b1c0       compile_length_enclose_node 000000018000c1c0 f   oniguruma:regcomp.obj
 0001:0000b2d0       compile_enclose_node       000000018000c2d0 f   oniguruma:regcomp.obj
 0001:0000b590       compile_anchor_node        000000018000c590 f   oniguruma:regcomp.obj
 0001:0000b880       $LN114                     000000018000c880     oniguruma:regcomp.obj
 0001:0000b8a0       $LN113                     000000018000c8a0     oniguruma:regcomp.obj
 0001:0000b8e0       compile_length_tree        000000018000c8e0 f   oniguruma:regcomp.obj
 0001:0000bc2c       $LN108                     000000018000cc2c     oniguruma:regcomp.obj
 0001:0000bc60       compile_tree               000000018000cc60 f   oniguruma:regcomp.obj
 0001:0000bf6c       $LN105                     000000018000cf6c     oniguruma:regcomp.obj
 0001:0000bfa0       noname_disable_map         000000018000cfa0 f   oniguruma:regcomp.obj
 0001:0000c0a0       renumber_by_map            000000018000d0a0 f   oniguruma:regcomp.obj
 0001:0000c190       numbered_ref_check         000000018000d190 f   oniguruma:regcomp.obj
 0001:0000c210       disable_noname_group_capture 000000018000d210 f   oniguruma:regcomp.obj
 0001:0000c3d0       unset_addr_list_fix        000000018000d3d0 f   oniguruma:regcomp.obj
 0001:0000c490       quantifiers_memory_node_info 000000018000d490 f   oniguruma:regcomp.obj
 0001:0000c550       get_min_match_length       000000018000d550 f   oniguruma:regcomp.obj
 0001:0000c898       $LN543                     000000018000d898     oniguruma:regcomp.obj
 0001:0000c8d0       get_max_match_length       000000018000d8d0 f   oniguruma:regcomp.obj
 0001:0000cc20       $LN467                     000000018000dc20     oniguruma:regcomp.obj
 0001:0000cc50       get_char_length_tree1      000000018000dc50 f   oniguruma:regcomp.obj
 0001:0000cec0       $LN83                      000000018000dec0     oniguruma:regcomp.obj
 0001:0000cef0       is_not_included            000000018000def0 f   oniguruma:regcomp.obj
 0001:0000d1e0       get_head_value_node        000000018000e1e0 f   oniguruma:regcomp.obj
 0001:0000d2c4       $LN25                      000000018000e2c4     oniguruma:regcomp.obj
 0001:0000d2f0       check_type_tree            000000018000e2f0 f   oniguruma:regcomp.obj
 0001:0000d3b0       subexp_inf_recursive_check 000000018000e3b0 f   oniguruma:regcomp.obj
 0001:0000d570       $LN102                     000000018000e570     oniguruma:regcomp.obj
 0001:0000d590       subexp_inf_recursive_check_trav 000000018000e590 f   oniguruma:regcomp.obj
 0001:0000d660       subexp_recursive_check     000000018000e660 f   oniguruma:regcomp.obj
 0001:0000d754       $LN28                      000000018000e754     oniguruma:regcomp.obj
 0001:0000d770       subexp_recursive_check_trav 000000018000e770 f   oniguruma:regcomp.obj
 0001:0000d8b0       setup_subexp_call          000000018000e8b0 f   oniguruma:regcomp.obj
 0001:0000da94       $LN70                      000000018000ea94     oniguruma:regcomp.obj
 0001:0000dab0       divide_look_behind_alternatives 000000018000eab0 f   oniguruma:regcomp.obj
 0001:0000db80       setup_look_behind          000000018000eb80 f   oniguruma:regcomp.obj
 0001:0000dbf0       next_setup                 000000018000ebf0 f   oniguruma:regcomp.obj
 0001:0000dd30       update_string_node_case_fold 000000018000ed30 f   oniguruma:regcomp.obj
 0001:0000deb0       expand_case_fold_make_rem_string 000000018000eeb0 f   oniguruma:regcomp.obj
 0001:0000df40       expand_case_fold_string_alt 000000018000ef40 f   oniguruma:regcomp.obj
 0001:0000e520       expand_case_fold_string    000000018000f520 f   oniguruma:regcomp.obj
 0001:0000e8e0       setup_tree                 000000018000f8e0 f   oniguruma:regcomp.obj
 0001:0000ee0c       $LN185                     000000018000fe0c     oniguruma:regcomp.obj
 0001:0000ee40       set_bm_skip                000000018000fe40 f   oniguruma:regcomp.obj
 0001:0000ef10       comp_distance_value        000000018000ff10 f   oniguruma:regcomp.obj
 0001:0000ef90       concat_opt_exact_info      000000018000ff90 f   oniguruma:regcomp.obj
 0001:0000f090       concat_opt_exact_info_str  0000000180010090 f   oniguruma:regcomp.obj
 0001:0000f130       alt_merge_opt_exact_info   0000000180010130 f   oniguruma:regcomp.obj
 0001:0000f270       select_opt_exact_info      0000000180010270 f   oniguruma:regcomp.obj
 0001:0000f360       add_char_opt_map_info      0000000180010360 f   oniguruma:regcomp.obj
 0001:0000f3b0       add_char_amb_opt_map_info  00000001800103b0 f   oniguruma:regcomp.obj
 0001:0000f4e0       select_opt_map_info        00000001800104e0 f   oniguruma:regcomp.obj
 0001:0000f600       alt_merge_opt_map_info     0000000180010600 f   oniguruma:regcomp.obj
 0001:0000f710       clear_node_opt_info        0000000180010710 f   oniguruma:regcomp.obj
 0001:0000f7d0       concat_left_node_opt_info  00000001800107d0 f   oniguruma:regcomp.obj
 0001:0000f9d0       optimize_node_left         00000001800109d0 f   oniguruma:regcomp.obj
 0001:00010504       $LN492                     0000000180011504     oniguruma:regcomp.obj
 0001:00010530       set_optimize_exact_info    0000000180011530 f   oniguruma:regcomp.obj
 0001:000106b0       set_optimize_info_from_tree 00000001800116b0 f   oniguruma:regcomp.obj
 0001:00010e90       bbuf_free                  0000000180011e90 f   oniguruma:regparse.obj
 0001:00010ec0       bbuf_clone                 0000000180011ec0 f   oniguruma:regparse.obj
 0001:00010f50       strcat_capa                0000000180011f50 f   oniguruma:regparse.obj
 0001:00010fe0       strcat_capa_from_static    0000000180011fe0 f   oniguruma:regparse.obj
 0001:00011090       str_end_cmp                0000000180012090 f   oniguruma:regparse.obj
 0001:000110e0       str_end_hash               00000001800120e0 f   oniguruma:regparse.obj
 0001:00011220       i_free_name_entry          0000000180012220 f   oniguruma:regparse.obj
 0001:00011270       name_find                  0000000180012270 f   oniguruma:regparse.obj
 0001:00011360       i_renumber_name            0000000180012360 f   oniguruma:regparse.obj
 0001:000113c0       name_add                   00000001800123c0 f   oniguruma:regparse.obj
 0001:00011590       scan_env_add_mem_entry     0000000180012590 f   oniguruma:regparse.obj
 0001:0001174c       $LN25                      000000018001274c     oniguruma:regparse.obj
 0001:00011780       node_new_cclass            0000000180012780 f   oniguruma:regparse.obj
 0001:000117e0       node_new_cclass_by_codepoint_range 00000001800127e0 f   oniguruma:regparse.obj
 0001:00011920       node_new_anychar           0000000180012920 f   oniguruma:regparse.obj
 0001:00011970       node_new_list              0000000180012970 f   oniguruma:regparse.obj
 0001:00011b30       node_new_backref           0000000180012b30 f   oniguruma:regparse.obj
 0001:00011c80       node_new_quantifier        0000000180012c80 f   oniguruma:regparse.obj
 0001:00011d10       node_new_enclose           0000000180012d10 f   oniguruma:regparse.obj
 0001:00011d70       node_new_enclose_memory    0000000180012d70 f   oniguruma:regparse.obj
 0001:00011df0       node_new_option            0000000180012df0 f   oniguruma:regparse.obj
 0001:00011f30       node_new_str               0000000180012f30 f   oniguruma:regparse.obj
 0001:00011fd0       node_new_str_raw_char      0000000180012fd0 f   oniguruma:regparse.obj
 0001:00012120       scan_unsigned_hexadecimal_number 0000000180013120 f   oniguruma:regparse.obj
 0001:00012240       scan_unsigned_octal_number 0000000180013240 f   oniguruma:regparse.obj
 0001:00012300       new_code_range             0000000180013300 f   oniguruma:regparse.obj
 0001:000123a0       add_code_range_to_buf      00000001800133a0 f   oniguruma:regparse.obj
 0001:00012660       not_code_range_buf         0000000180013660 f   oniguruma:regparse.obj
 0001:00012760       or_code_range_buf          0000000180013760 f   oniguruma:regparse.obj
 0001:000128b0       and_code_range1            00000001800138b0 f   oniguruma:regparse.obj
 0001:00012bf0       and_code_range_buf         0000000180013bf0 f   oniguruma:regparse.obj
 0001:00012dc0       and_cclass                 0000000180013dc0 f   oniguruma:regparse.obj
 0001:00013090       or_cclass                  0000000180014090 f   oniguruma:regparse.obj
 0001:00013360       conv_backslash_value       0000000180014360 f   oniguruma:regparse.obj
 0001:000133c8       $LN16                      00000001800143c8     oniguruma:regparse.obj
 0001:00013420       is_invalid_quantifier_target 0000000180014420 f   oniguruma:regparse.obj
 0001:00013490       popular_quantifier_num     0000000180014490 f   oniguruma:regparse.obj
 0001:0001371c       $LN50                      000000018001471c     oniguruma:regparse.obj
 0001:00013740       fetch_range_quantifier     0000000180014740 f   oniguruma:regparse.obj
 0001:00013990       fetch_escaped_value        0000000180014990 f   oniguruma:regparse.obj
 0001:00013bd0       fetch_name_with_level      0000000180014bd0 f   oniguruma:regparse.obj
 0001:00013f50       fetch_name                 0000000180014f50 f   oniguruma:regparse.obj
 0001:000141c0       str_exist_check_with_esc   00000001800151c0 f   oniguruma:regparse.obj
 0001:000142e0       fetch_token_in_cc          00000001800152e0 f   oniguruma:regparse.obj
 0001:00014894       $LN124                     0000000180015894     oniguruma:regparse.obj
 0001:000148c8       $LN123                     00000001800158c8     oniguruma:regparse.obj
 0001:00014920       fetch_token                0000000180015920 f   oniguruma:regparse.obj
 0001:00015874       $LN326                     0000000180016874     oniguruma:regparse.obj
 0001:000158b0       $LN325                     00000001800168b0     oniguruma:regparse.obj
 0001:00015924       $LN324                     0000000180016924     oniguruma:regparse.obj
 0001:000159ac       $LN323                     00000001800169ac     oniguruma:regparse.obj
 0001:00015a10       add_ctype_to_cc_by_range   0000000180016a10 f   oniguruma:regparse.obj
 0001:00015c20       add_ctype_to_cc            0000000180016c20 f   oniguruma:regparse.obj
 0001:00015ef4       $LN81                      0000000180016ef4     oniguruma:regparse.obj
 0001:00015f30       parse_posix_bracket        0000000180016f30 f   oniguruma:regparse.obj
 0001:000161a0       fetch_char_property_to_ctype 00000001800171a0 f   oniguruma:regparse.obj
 0001:00016270       parse_char_property        0000000180017270 f   oniguruma:regparse.obj
 0001:00016330       next_state_val             0000000180017330 f   oniguruma:regparse.obj
 0001:00016510       code_exist_check           0000000180017510 f   oniguruma:regparse.obj
 0001:000165b0       parse_char_class           00000001800175b0 f   oniguruma:regparse.obj
 0001:00016e2c       $LN300                     0000000180017e2c     oniguruma:regparse.obj
 0001:00016e90       parse_enclose              0000000180017e90 f   oniguruma:regparse.obj
 0001:000174e4       $LN296                     00000001800184e4     oniguruma:regparse.obj
 0001:00017508       $LN295                     0000000180018508     oniguruma:regparse.obj
 0001:00017560       $LN294                     0000000180018560     oniguruma:regparse.obj
 0001:0001757c       $LN293                     000000018001857c     oniguruma:regparse.obj
 0001:000175d0       set_quantifier             00000001800185d0 f   oniguruma:regparse.obj
 0001:000176f0       type_cclass_cmp            00000001800186f0 f   oniguruma:regparse.obj
 0001:00017720       type_cclass_hash           0000000180018720 f   oniguruma:regparse.obj
 0001:000177d0       i_apply_case_fold          00000001800187d0 f   oniguruma:regparse.obj
 0001:00017a10       parse_exp                  0000000180018a10 f   oniguruma:regparse.obj
 0001:000182ac       $LN190                     00000001800192ac     oniguruma:regparse.obj
 0001:00018300       parse_branch               0000000180019300 f   oniguruma:regparse.obj
 0001:00018470       parse_subexp               0000000180019470 f   oniguruma:regparse.obj
 0001:00018a00       $LN72                      0000000180019a00     oniguruma:regerror.obj
 0001:00018a64       $LN71                      0000000180019a64     oniguruma:regerror.obj
 0001:00018b30       $LN70                      0000000180019b30     oniguruma:regerror.obj
 0001:00018bb8       $LN69                      0000000180019bb8     oniguruma:regerror.obj
 0001:00018c40       to_ascii                   0000000180019c40 f   oniguruma:regerror.obj
 0001:00019300       init_code_range_array      000000018001a300 f   oniguruma:unicode.obj
 0001:00019a30       init_name_ctype_table      000000018001aa30 f   oniguruma:unicode.obj
 0001:00019ca0       code2_cmp                  000000018001aca0 f   oniguruma:unicode.obj
 0001:00019cc0       code2_hash                 000000018001acc0 f   oniguruma:unicode.obj
 0001:00019cd0       code3_cmp                  000000018001acd0 f   oniguruma:unicode.obj
 0001:00019d00       code3_hash                 000000018001ad00 f   oniguruma:unicode.obj
 0001:00019d70       init_case_fold_table       000000018001ad70 f   oniguruma:unicode.obj
 0001:0001b260       rehash                     000000018001c260 f   oniguruma:st.obj
 0001:0001b470       strhash                    000000018001c470 f   oniguruma:st.obj
 0001:0001b4a0       numcmp                     000000018001c4a0 f   oniguruma:st.obj
 0001:0001b4b0       numhash                    000000018001c4b0 f   oniguruma:st.obj
 0001:0001b4c0       ascii_is_code_ctype        000000018001c4c0 f   oniguruma:ascii.obj
 0001:0001ba90       $$000000                   000000018001ca90     LIBCMT:_amdsecgs_.obj
 0001:0001bb18       ?dllmain_crt_dispatch@@YAHQEAUHINSTANCE__@@KQEAX@Z 000000018001cb18 f   LIBCMT:dll_dllmain.obj
 0001:0001bb68       ?dllmain_crt_process_attach@@YAHQEAUHINSTANCE__@@QEAX@Z 000000018001cb68 f   LIBCMT:dll_dllmain.obj
 0001:0001bc94       ?dllmain_crt_process_detach@@YAH_N@Z 000000018001cc94 f   LIBCMT:dll_dllmain.obj
 0001:0001bd18       ?dllmain_dispatch@@YAHQEAUHINSTANCE__@@KQEAX@Z 000000018001cd18 f   LIBCMT:dll_dllmain.obj
 0001:0001be10       ?dllmain_raw@@YAHQEAUHINSTANCE__@@KQEAX@Z 000000018001ce10 f   LIBCMT:dll_dllmain.obj
 0001:0001c05c       capture_current_context    000000018001d05c f   LIBCMT:gs_report.obj
 0001:0001c0cc       capture_previous_context   000000018001d0cc f   LIBCMT:gs_report.obj
 0001:0001cb7c       ?CatchIt@@YAXPEAUEHExceptionRecord@@PEA_KPEAU_CONTEXT@@PEAU_xDISPATCHER_CONTEXT@@PEBU_s_FuncInfo@@PEBU_s_HandlerType@@PEBU_s_CatchableType@@PEBU_s_TryBlockMapEntry@@H1EE@Z 000000018001db7c f   libvcruntime:frame.obj
 0001:0001cc40       ?ExFilterRethrow@@YAHPEAU_EXCEPTION_POINTERS@@PEAUEHExceptionRecord@@PEAH@Z 000000018001dc40 f   libvcruntime:frame.obj
 0001:0001ccc8       ?FindHandler@@YAXPEAUEHExceptionRecord@@PEA_KPEAU_CONTEXT@@PEAU_xDISPATCHER_CONTEXT@@PEBU_s_FuncInfo@@EH1@Z 000000018001dcc8 f   libvcruntime:frame.obj
 0001:0001d198       ?FindHandlerForForeignException@@YAXPEAUEHExceptionRecord@@PEA_KPEAU_CONTEXT@@PEAU_xDISPATCHER_CONTEXT@@PEBU_s_FuncInfo@@HH1@Z 000000018001e198 f   libvcruntime:frame.obj
 0001:0001d404       ?IsInExceptionSpec@@YAEPEAUEHExceptionRecord@@PEBU_s_ESTypeList@@@Z 000000018001e404 f   libvcruntime:frame.obj
 0001:0001df30       $$000000                   000000018001ef30     libvcruntime:memcpy.obj
 0001:0001dfd7       MoveSmall                  000000018001efd7     libvcruntime:memcpy.obj
 0001:0001e820       $$000000                   000000018001f820     libvcruntime:memset.obj
 0001:0001e90c       MsetTab                    000000018001f90c     libvcruntime:memset.obj
 0001:0001ec90       $$000000                   000000018001fc90     libvcruntime:handlers.obj
 0001:0001f390       $$000000                   0000000180020390     libvcruntime:_jmpuwind_.obj
 0001:0001f4a8       ?try_get_function@@YAPEAXW4function_id@?A0x679b24ab@@QEBDQEBW4module_id@2@2@Z 00000001800204a8 f   libvcruntime:winapi_downlevel.obj
 0001:0001fb7c       ??$common_assert_to_message_box@_W@@YAXQEB_W0IQEAX@Z 0000000180020b7c f   libucrt:assert.obj
 0001:0001fc40       ??$common_assert_to_message_box_build_string@_W@@YAXQEA_W_KQEB_W2IQEAX@Z 0000000180020c40 f   libucrt:assert.obj
 0001:00020414       ??$common_assert_to_stderr@_W@@YAXQEB_W0I@Z 0000000180021414 f   libucrt:assert.obj
 0001:00020584       ?get_assert_format@@YAPEB_W_W@Z 0000000180021584 f   libucrt:assert.obj
 0001:00020d78       ??R<lambda_dd75445284c072d0bd3768540cc698fa>@@QEBAHXZ 0000000180021d78 f   libucrt:output.obj
 0001:00023990       $$000000                   0000000180024990     libucrt:strcmp.obj
 0001:00023cec       ?atexit_exception_filter@@YAHK@Z 0000000180024cec f   libucrt:exit.obj
 0001:00023cf8       ?common_exit@@YAXHW4_crt_exit_cleanup_mode@@W4_crt_exit_return_mode@@@Z 0000000180024cf8 f   libucrt:exit.obj
 0001:00023e64       ?exit_or_terminate_process@@YAXI@Z 0000000180024e64 f   libucrt:exit.obj
 0001:00023eb0       ?try_cor_exit_process@@YAXI@Z 0000000180024eb0 f   libucrt:exit.obj
 0001:00023f48       ??$parse_command_line@D@@YAXPEADPEAPEAD0PEA_K2@Z 0000000180024f48 f   libucrt:argv_parsing.obj
 0001:000242e0       ??$common_initialize_environment_nolock@D@@YAHXZ 00000001800252e0 f   libucrt:environment_initialization.obj
 0001:0002434c       ??$create_environment@D@@YAQEAPEADQEAD@Z 000000018002534c f   libucrt:environment_initialization.obj
 0001:00024448       ??$free_environment@_W@@YAXQEAPEA_W@Z 0000000180025448 f   libucrt:environment_initialization.obj
 0001:00024448       ??$free_environment@D@@YAXQEAPEAD@Z 0000000180025448 f   libucrt:environment_initialization.obj
 0001:0002448c       ??$uninitialize_environment_internal@D@@YAXAEAPEAPEAD@Z 000000018002548c f   libucrt:environment_initialization.obj
 0001:000244a8       ??$uninitialize_environment_internal@_W@@YAXAEAPEAPEA_W@Z 00000001800254a8 f   libucrt:environment_initialization.obj
 0001:000246e0       ??R<lambda_4e60a939b0d047cfe11ddc22648dfba9>@@QEBAHXZ 00000001800256e0 f   libucrt:onexit.obj
 0001:00024990       initialize_global_variables 0000000180025990 f   libucrt:initialization.obj
 0001:000249a4       initialize_c               00000001800259a4 f   libucrt:initialization.obj
 0001:000249c8       initialize_environment     00000001800259c8 f   libucrt:initialization.obj
 0001:000249c8       uninitialize_c             00000001800259c8 f   libucrt:initialization.obj
 0001:000249c8       uninitialize_global_state_isolation 00000001800259c8 f   libucrt:initialization.obj
 0001:000249c8       report_memory_leaks        00000001800259c8 f   libucrt:initialization.obj
 0001:000249c8       initialize_global_state_isolation 00000001800259c8 f   libucrt:initialization.obj
 0001:000249cc       uninitialize_environment   00000001800259cc f   libucrt:initialization.obj
 0001:000249dc       initialize_pointers        00000001800259dc f   libucrt:initialization.obj
 0001:00024a30       uninitialize_vcruntime     0000000180025a30 f   libucrt:initialization.obj
 0001:00024a38       uninitialize_allocated_memory 0000000180025a38 f   libucrt:initialization.obj
 0001:00025858       ?construct_ptd_array@@YAXQEAU__acrt_ptd@@@Z 0000000180026858 f   libucrt:per_thread_data.obj
 0001:00025928       ?destroy_fls@@YAXPEAX@Z    0000000180026928 f   libucrt:per_thread_data.obj
 0001:00025948       ?destroy_ptd_array@@YAXQEAU__acrt_ptd@@@Z 0000000180026948 f   libucrt:per_thread_data.obj
 0001:00025a40       ?replace_current_thread_locale_nolock@@YAXQEAU__acrt_ptd@@QEAU__crt_locale_data@@@Z 0000000180026a40 f   libucrt:per_thread_data.obj
 0001:00025d60       ??$common_xtox@K_W@@YAHKQEA_W_KI_N@Z 0000000180026d60 f   libucrt:xtoa.obj
 0001:00025e0c       ??$common_xtox_s@K_W@@YAHKQEA_W_KI_N@Z 0000000180026e0c f   libucrt:xtoa.obj
 0001:000260d0       ??$message_box_wait_thread@_W@@YAKQEAX@Z 00000001800270d0 f   libucrt:crtmbox.obj
 0001:0002648c       common_flush_all           000000018002748c f   libucrt:fflush.obj
 0001:000265f4       ??R<lambda_b721fa326cdb32351d23dfa67958c160>@@QEBAHXZ 00000001800275f4 f   libucrt:setvbuf.obj
 0001:00026ab8       ?internal_isupper_l@@YA_NHQEAU__crt_locale_pointers@@@Z 0000000180027ab8 f   libucrt:tolower_toupper.obj
 0001:00027538       ?fp_format_a@@YAHQEBNPEAD_KQEAD2H_NIQEAU__crt_locale_pointers@@@Z 0000000180028538 f   libucrt:cvt.obj
 0001:00027898       ?fp_format_e@@YAHQEBNQEAD_K12H_NIQEAU__crt_locale_pointers@@@Z 0000000180028898 f   libucrt:cvt.obj
 0001:00027968       ?fp_format_e_internal@@YAHQEAD_KH_NIQEAU_strflt@@2QEAU__crt_locale_pointers@@@Z 0000000180028968 f   libucrt:cvt.obj
 0001:00027b44       ?fp_format_f_internal@@YAHQEAD_KHQEAU_strflt@@_NQEAU__crt_locale_pointers@@@Z 0000000180028b44 f   libucrt:cvt.obj
 0001:00027c8c       ?fp_format_g@@YAHQEBNQEAD_K12H_NIQEAU__crt_locale_pointers@@@Z 0000000180028c8c f   libucrt:cvt.obj
 0001:00027dc4       ?fp_format_nan_or_infinity@@YAHW4__acrt_fp_class@@_NPEAD_K1@Z 0000000180028dc4 f   libucrt:cvt.obj
 0001:0002842c       ?initialize_inherited_file_handles_nolock@@YAXXZ 000000018002942c f   libucrt:ioinit.obj
 0001:00028518       ?initialize_stdio_handles_nolock@@YAXXZ 0000000180029518 f   libucrt:ioinit.obj
 0001:00028748       ?try_get_function@@YAPEAXW4function_id@?A0x63058377@@QEBDQEBW4module_id@2@2@Z 0000000180029748 f   libucrt:winapi_thunks.obj
 0001:00028f74       ?<helper_func_cdecl>@<lambda_2feae5270eb4d0d5532525f423405775>@@CAHPEBX0@Z 0000000180029f74 f   libucrt:argv_wildcards.obj
 0001:00028f88       ??$common_expand_argv_wildcards@D@@YAHQEAPEADQEAPEAPEAD@Z 0000000180029f88 f   libucrt:argv_wildcards.obj
 0001:00029194       ??$copy_and_add_argument_to_buffer@D@@YAHQEBD0_KAEAV?$argument_list@D@?A0xca0879c4@@@Z 000000018002a194 f   libucrt:argv_wildcards.obj
 0001:000292a4       ??$expand_argument_wildcards@D@@YAHQEAD0AEAV?$argument_list@D@?A0xca0879c4@@@Z 000000018002a2a4 f   libucrt:argv_wildcards.obj
 0001:00029558       ??R<lambda_ad1ced32f4ac17aa236e5ef05d6b3b7c>@@QEBAXXZ 000000018002a558 f   libucrt:mbctype.obj
 0001:00029770       ?getSystemCP@@YAHH@Z       000000018002a770 f   libucrt:mbctype.obj
 0001:000297f0       ?setSBCS@@YAXPEAU__crt_multibyte_data@@@Z 000000018002a7f0 f   libucrt:mbctype.obj
 0001:00029880       ?setSBUpLow@@YAXPEAU__crt_multibyte_data@@@Z 000000018002a880 f   libucrt:mbctype.obj
 0001:00029a64       ?setmbcp_internal@@YAHH_N@Z 000000018002aa64 f   libucrt:mbctype.obj
 0001:00029fac       ?x_ismbbtype_l@@YAHPEAU__crt_locale_pointers@@IHH@Z 000000018002afac f   libucrt:ismbbyte.obj
 0001:0002ab58       ?write_double_translated_ansi_nolock@@YA?AUwrite_result@?A0x9c548279@@HQEBDI@Z 000000018002bb58 f   libucrt:write.obj
 0001:0002ad60       ?write_text_ansi_nolock@@YA?AUwrite_result@?A0x9c548279@@HQEBDI@Z 000000018002bd60 f   libucrt:write.obj
 0001:0002ae68       ?write_text_utf16le_nolock@@YA?AUwrite_result@?A0x9c548279@@HQEBDI@Z 000000018002be68 f   libucrt:write.obj
 0001:0002af84       ?write_text_utf8_nolock@@YA?AUwrite_result@?A0x9c548279@@HQEBDI@Z 000000018002bf84 f   libucrt:write.obj
 0001:0002b508       ?__acrt_LCMapStringA_stat@@YAHPEAU__crt_locale_pointers@@PEB_WKPEBDHPEADHHH@Z 000000018002c508 f   libucrt:lcmapstringa.obj
 0001:0002ba74       ?free_crt_array_internal@@YAXQEAPEBX_K@Z 000000018002ca74 f   libucrt:inittime.obj
 0001:0002d68c       memcpy_s                   000000018002e68c f   libucrt:cfout.obj
 0001:0002d714       ??$write_buffer_nolock@D@@YA_NDV__crt_stdio_stream@@@Z 000000018002e714 f   libucrt:_flsbuf.obj
 0001:0002d818       ??$write_buffer_nolock@_W@@YA_N_WV__crt_stdio_stream@@@Z 000000018002e818 f   libucrt:_flsbuf.obj
 0001:0002de74       ?GetTableIndexFromLocaleName@@YAHPEB_W@Z 000000018002ee74 f   libucrt:lcidtoname_downlevel.obj
 0001:0002df70       ?shortsort@@YAXPEAD0_KP6AHPEBX2@Z@Z 000000018002ef70 f   libucrt:qsort.obj
 0001:0002e588       ?initialize_multibyte@@YAHXZ 000000018002f588 f   libucrt:multibyte_initializer.obj
 0001:0002e6cc       ??$common_lseek@_J@@YA_JH_JH@Z 000000018002f6cc f   libucrt:lseek.obj
 0001:0002e7bc       ??$common_lseek_nolock@_J@@YA_JH_JH@Z 000000018002f7bc f   libucrt:lseek.obj
 0001:0002ea60       $$000000                   000000018002fa60     libucrt:log10.obj
 0001:0002f414       common_control87           0000000180030414 f   libucrt:ieee.obj
 0001:0002f6ac       _call_matherr              00000001800306ac f   libucrt:libm_error.obj
 0001:0002f714       _exception_enabled         0000000180030714 f   libucrt:libm_error.obj
 0001:0002f9b0       _log_special_common        00000001800309b0 f   libucrt:log_special.obj
 0001:0002fa50       $$000000                   0000000180030a50     libucrt:fpsr.obj
 0001:00030700       $$000000                   0000000180031700     LIBCMT:_chkstk_.obj
 0001:00030770       $$000000                   0000000180031770     libvcruntime:memcmp.obj
 0001:00030a10       $$000000                   0000000180031a10     LIBCMT:_guard_dispatch_.obj
 0001:00030a30       ?dtor$0@?0???0OnigRegExp@@QEAA@AEBV?$basic_string@DU?$char_traits@D@std@@V?$allocator@D@2@@std@@@Z@4HA 0000000180031a30 f   onig-reg-exp.obj
 0001:00030a3c       ?dtor$1@?0???0OnigRegExp@@QEAA@AEBV?$basic_string@DU?$char_traits@D@std@@V?$allocator@D@2@@std@@@Z@4HA 0000000180031a3c f   onig-reg-exp.obj
 0001:00030a4c       ?dtor$2@?0???0OnigRegExp@@QEAA@AEBV?$basic_string@DU?$char_traits@D@std@@V?$allocator@D@2@@std@@@Z@4HA 0000000180031a4c f   onig-reg-exp.obj
 0001:00030a60       ?dtor$0@?0??Search@OnigRegExp@@AEAA?AV?$shared_ptr@VOnigResult@@@std@@PEBD_K1@Z@4HA 0000000180031a60 f   onig-reg-exp.obj
 0001:00030a89       ?dtor$1@?0??Search@OnigRegExp@@AEAA?AV?$shared_ptr@VOnigResult@@@std@@PEBD_K1@Z@4HA 0000000180031a89 f   onig-reg-exp.obj
 0001:00030aa9       ?dtor$2@?0??Search@OnigRegExp@@AEAA?AV?$shared_ptr@VOnigResult@@@std@@PEBD_K1@Z@4HA 0000000180031aa9 f   onig-reg-exp.obj
 0001:00030ad0       ?dtor$0@?0??NewInstance@Nan@@YA?AV?$MaybeLocal@VObject@v8@@@v8@@V?$Local@VObjectTemplate@v8@@@3@@Z@4HA 0000000180031ad0 f   onig-scanner.obj
 0001:00030ae0       ?dtor$0@?0??Call@Callback@Nan@@QEBA?AV?$Local@VValue@v8@@@v8@@HQEAV34@@Z@4HA 0000000180031ae0 f   onig-scanner.obj
 0001:00030ae0       ?dtor$0@?0??New@?$Factory@VFunctionTemplate@v8@@@imp@Nan@@SA?AV?$Local@VFunctionTemplate@v8@@@v8@@P6AXAEBV?$FunctionCallbackInfo@VValue@v8@@@3@@ZV?$Local@VValue@v8@@@5@V?$Local@VSignature@v8@@@5@@Z@4HA 0000000180031ae0 f   onig-scanner.obj
 0001:00030af0       ?dtor$0@?0??HandleErrorCallback@AsyncWorker@Nan@@MEAAXXZ@4HA 0000000180031af0 f   onig-scanner.obj
 0001:00030af0       ?dtor$0@?0??ThrowTypeError@Nan@@YAXPEBD@Z@4HA 0000000180031af0 f   onig-string.obj
 0001:00030af0       ?dtor$0@?0??Call_@Callback@Nan@@AEBA?AV?$Local@VValue@v8@@@v8@@PEAVIsolate@4@V?$Local@VObject@v8@@@4@HQEAV34@@Z@4HA 0000000180031af0 f   onig-scanner.obj
 0001:00030b00       ?dtor$0@?0???0AsyncWorker@Nan@@QEAA@PEAVCallback@1@@Z@4HA 0000000180031b00 f   onig-scanner.obj
 0001:00030b13       ?dtor$1@?0???0AsyncWorker@Nan@@QEAA@PEAVCallback@1@@Z@4HA 0000000180031b13 f   onig-scanner.obj
 0001:00030b20       ?dtor$0@?0??FindNextMatch@OnigScanner@@CAXAEBV?$FunctionCallbackInfo@VValue@v8@@@Nan@@@Z@4HA 0000000180031b20 f   onig-scanner.obj
 0001:00030b20       ?dtor$0@?0??WorkComplete@AsyncWorker@Nan@@UEAAXXZ@4HA 0000000180031b20 f   onig-scanner.obj
 0001:00030b20       ?dtor$0@?0??HandleOKCallback@AsyncWorker@Nan@@MEAAXXZ@4HA 0000000180031b20 f   onig-scanner.obj
 0001:00030b20       ?dtor$0@?0??FindNextMatchSync@OnigScanner@@CAXAEBV?$FunctionCallbackInfo@VValue@v8@@@Nan@@@Z@4HA 0000000180031b20 f   onig-scanner.obj
 0001:00030b30       ?dtor$0@?0???0OnigScannerWorker@@QEAA@PEAVCallback@Nan@@V?$vector@V?$shared_ptr@VOnigRegExp@@@std@@V?$allocator@V?$shared_ptr@VOnigRegExp@@@std@@@2@@std@@V?$Local@VString@v8@@@v8@@H@Z@4HA 0000000180031b30 f   onig-scanner.obj
 0001:00030b3c       ?dtor$1@?0???0OnigScannerWorker@@QEAA@PEAVCallback@Nan@@V?$vector@V?$shared_ptr@VOnigRegExp@@@std@@V?$allocator@V?$shared_ptr@VOnigRegExp@@@std@@@2@@std@@V?$Local@VString@v8@@@v8@@H@Z@4HA 0000000180031b3c f   onig-scanner.obj
 0001:00030b48       ?dtor$2@?0???0OnigScannerWorker@@QEAA@PEAVCallback@Nan@@V?$vector@V?$shared_ptr@VOnigRegExp@@@std@@V?$allocator@V?$shared_ptr@VOnigRegExp@@@std@@@2@@std@@V?$Local@VString@v8@@@v8@@H@Z@4HA 0000000180031b48 f   onig-scanner.obj
 0001:00030b5b       ?dtor$3@?0???0OnigScannerWorker@@QEAA@PEAVCallback@Nan@@V?$vector@V?$shared_ptr@VOnigRegExp@@@std@@V?$allocator@V?$shared_ptr@VOnigRegExp@@@std@@@2@@std@@V?$Local@VString@v8@@@v8@@H@Z@4HA 0000000180031b5b f   onig-scanner.obj
 0001:00030b6e       ?dtor$4@?0???0OnigScannerWorker@@QEAA@PEAVCallback@Nan@@V?$vector@V?$shared_ptr@VOnigRegExp@@@std@@V?$allocator@V?$shared_ptr@VOnigRegExp@@@std@@@2@@std@@V?$Local@VString@v8@@@v8@@H@Z@4HA 0000000180031b6e f   onig-scanner.obj
 0001:00030b8b       ?dtor$5@?0???0OnigScannerWorker@@QEAA@PEAVCallback@Nan@@V?$vector@V?$shared_ptr@VOnigRegExp@@@std@@V?$allocator@V?$shared_ptr@VOnigRegExp@@@std@@@2@@std@@V?$Local@VString@v8@@@v8@@H@Z@4HA 0000000180031b8b f   onig-scanner.obj
 0001:00030ba8       ?dtor$8@?0???0OnigScannerWorker@@QEAA@PEAVCallback@Nan@@V?$vector@V?$shared_ptr@VOnigRegExp@@@std@@V?$allocator@V?$shared_ptr@VOnigRegExp@@@std@@@2@@std@@V?$Local@VString@v8@@@v8@@H@Z@4HA 0000000180031ba8 f   onig-scanner.obj
 0001:00030bc0       ?dtor$0@?0??New@OnigScanner@@CAXAEBV?$FunctionCallbackInfo@VValue@v8@@@Nan@@@Z@4HA 0000000180031bc0 f   onig-scanner.obj
 0001:00030bcc       ?dtor$1@?0??New@OnigScanner@@CAXAEBV?$FunctionCallbackInfo@VValue@v8@@@Nan@@@Z@4HA 0000000180031bcc f   onig-scanner.obj
 0001:00030bf0       ?dtor$0@?0???0OnigScanner@@AEAA@V?$Local@VArray@v8@@@v8@@@Z@4HA 0000000180031bf0 f   onig-scanner.obj
 0001:00030bfc       ?dtor$1@?0???0OnigScanner@@AEAA@V?$Local@VArray@v8@@@v8@@@Z@4HA 0000000180031bfc f   onig-scanner.obj
 0001:00030c0c       ?dtor$2@?0???0OnigScanner@@AEAA@V?$Local@VArray@v8@@@v8@@@Z@4HA 0000000180031c0c f   onig-scanner.obj
 0001:00030c1c       ?dtor$3@?0???0OnigScanner@@AEAA@V?$Local@VArray@v8@@@v8@@@Z@4HA 0000000180031c1c f   onig-scanner.obj
 0001:00030c2a       ?dtor$4@?0???0OnigScanner@@AEAA@V?$Local@VArray@v8@@@v8@@@Z@4HA 0000000180031c2a f   onig-scanner.obj
 0001:00030c47       ?dtor$5@?0???0OnigScanner@@AEAA@V?$Local@VArray@v8@@@v8@@@Z@4HA 0000000180031c47 f   onig-scanner.obj
 0001:00030c70       ?dtor$7@?0???0OnigScanner@@AEAA@V?$Local@VArray@v8@@@v8@@@Z@4HA 0000000180031c70 f   onig-scanner.obj
 0001:00030c8d       ?dtor$12@?0???0OnigScanner@@AEAA@V?$Local@VArray@v8@@@v8@@@Z@4HA 0000000180031c8d f   onig-scanner.obj
 0001:00030ca0       ?dtor$0@?0??FindNextMatch@OnigScanner@@AEAAXV?$Local@VString@v8@@@v8@@V?$Local@VNumber@v8@@@3@V?$Local@VFunction@v8@@@3@@Z@4HA 0000000180031ca0 f   onig-scanner.obj
 0001:00030cc0       ?dtor$1@?0??FindNextMatch@OnigScanner@@AEAAXV?$Local@VString@v8@@@v8@@V?$Local@VNumber@v8@@@3@V?$Local@VFunction@v8@@@3@@Z@4HA 0000000180031cc0 f   onig-scanner.obj
 0001:00030ce0       ?dtor$0@?0??FindNextMatchSync@OnigScanner@@AEAA?AV?$Local@VValue@v8@@@v8@@V?$Local@VString@v8@@@3@V?$Local@VNumber@v8@@@3@@Z@4HA 0000000180031ce0 f   onig-scanner.obj
 0001:00030d00       ?dtor$0@?0??FindNextMatchSync@OnigScanner@@AEAA?AV?$Local@VValue@v8@@@v8@@PEAVOnigString@@V?$Local@VNumber@v8@@@3@@Z@4HA 0000000180031d00 f   onig-scanner.obj
 0001:00030d10       ?dtor$0@?0??HandleOKCallback@OnigScannerWorker@@UEAAXXZ@4HA 0000000180031d10 f   onig-scanner-worker.obj
 0001:00030d20       ?dtor$0@?0??Search@OnigSearcher@@QEAA?AV?$shared_ptr@VOnigResult@@@std@@PEAVOnigString@@H@Z@4HA 0000000180031d20 f   onig-searcher.obj
 0001:00030d50       ?dtor$0@?0??New@OnigString@@CAXAEBV?$FunctionCallbackInfo@VValue@v8@@@Nan@@@Z@4HA 0000000180031d50 f   onig-string.obj
 0001:00030d70       ?dtor$0@?0???0OnigString@@QEAA@V?$Local@VString@v8@@@v8@@@Z@4HA 0000000180031d70 f   onig-string.obj
 0001:00030d7c       ?dtor$1@?0???0OnigString@@QEAA@V?$Local@VString@v8@@@v8@@@Z@4HA 0000000180031d7c f   onig-string.obj
 0001:00030d8e       ?dtor$2@?0???0OnigString@@QEAA@V?$Local@VString@v8@@@v8@@@Z@4HA 0000000180031d8e f   onig-string.obj
 0001:00030d9c       ?fin$0@?0??dllmain_crt_process_attach@@YAHQEAUHINSTANCE__@@QEAX@Z@4HA 0000000180031d9c f   LIBCMT:dll_dllmain.obj
 0001:00030db3       ?fin$0@?0??dllmain_crt_process_detach@@YAH_N@Z@4HA 0000000180031db3 f   LIBCMT:dll_dllmain.obj
 0001:00030dcf       ?filt$0@?0??dllmain_dispatch@@YAHQEAUHINSTANCE__@@KQEAX@Z@4HA 0000000180031dcf f   LIBCMT:dll_dllmain.obj
 0001:00030e05       __scrt_is_nonwritable_in_current_image$filt$0 0000000180031e05 f   LIBCMT:utility.obj
 0001:00030e1d       __CxxCallCatchBlock$filt$0 0000000180031e1d f   libvcruntime:frame.obj
 0001:00030e42       __CxxCallCatchBlock$fin$1  0000000180031e42 f   libvcruntime:frame.obj
 0001:00030eba       __DestructExceptionObject$filt$0 0000000180031eba f   libvcruntime:frame.obj
 0001:00030ed2       __FrameUnwindToState$filt$0 0000000180031ed2 f   libvcruntime:frame.obj
 0001:00030ee8       __FrameUnwindToState$fin$1 0000000180031ee8 f   libvcruntime:frame.obj
 0001:00030f0b       _CallSETranslator$filt$0   0000000180031f0b f   libvcruntime:trnsctrl.obj
 0001:00030f57       ?fin$0@?0???$?RV<lambda_7b91131dde12e1c3dfc74ff76b3f2eac>@@AEAV<lambda_dd75445284c072d0bd3768540cc698fa>@@V<lambda_16bc4ecb55b4718497c16bceaea2ceaf>@@@?$__crt_seh_guarded_call@H@@QEAAH$$QEAV<lambda_7b91131dde12e1c3dfc74ff76b3f2eac>@@AEAV<lambda_dd75445284c072d0bd3768540cc698fa>@@$$QEAV<lambda_16bc4ecb55b4718497c16bceaea2ceaf>@@@Z@4HA 0000000180031f57 f   libucrt:output.obj
 0001:00030f57       ?fin$0@?0???$?RV<lambda_7a5ef57ff966f610505f1d28a3d40618>@@AEAV<lambda_b721fa326cdb32351d23dfa67958c160>@@V<lambda_5e0fb27672408a07956fe59e48ccb2aa>@@@?$__crt_seh_guarded_call@H@@QEAAH$$QEAV<lambda_7a5ef57ff966f610505f1d28a3d40618>@@AEAV<lambda_b721fa326cdb32351d23dfa67958c160>@@$$QEAV<lambda_5e0fb27672408a07956fe59e48ccb2aa>@@@Z@4HA 0000000180031f57 f   libucrt:setvbuf.obj
 0001:00030f72       _query_new_handler$fin$0   0000000180031f72 f   libucrt:new_handler.obj
 0001:00030f88       ?filt$0@?0??common_exit@@YAXHW4_crt_exit_cleanup_mode@@W4_crt_exit_return_mode@@@Z@4HA 0000000180031f88 f   libucrt:exit.obj
 0001:00030fa3       ?fin$1@?0??common_exit@@YAXHW4_crt_exit_cleanup_mode@@W4_crt_exit_return_mode@@@Z@4HA 0000000180031fa3 f   libucrt:exit.obj
 0001:00030fbc       ?fin$0@?0???$?RV<lambda_e24bbb7b643b32fcea6fa61b31d4c984>@@AEAV<lambda_275893d493268fdec8709772e3fcec0e>@@V<lambda_9d71df4d7cf3f480f8d633942495c3b0>@@@?$__crt_seh_guarded_call@H@@QEAAH$$QEAV<lambda_e24bbb7b643b32fcea6fa61b31d4c984>@@AEAV<lambda_275893d493268fdec8709772e3fcec0e>@@$$QEAV<lambda_9d71df4d7cf3f480f8d633942495c3b0>@@@Z@4HA 0000000180031fbc f   libucrt:onexit.obj
 0001:00030fd9       common_flush_all$fin$0     0000000180031fd9 f   libucrt:fflush.obj
 0001:00030ff3       common_flush_all$fin$1     0000000180031ff3 f   libucrt:fflush.obj
 0001:0003100c       fflush$fin$0               000000018003200c f   libucrt:fflush.obj
 0001:0003100c       fclose$fin$0               000000018003200c f   libucrt:fclose.obj
 0001:00031024       ?fin$0@?0???$?RV<lambda_c36588078e9f5dfd39652860aa6b3aaf>@@AEAV<lambda_ec61778202f4f5fc7e7711acc23c3bca>@@V<lambda_dc9d2797ccde5d239b4a0efae8ebd7db>@@@?$__crt_seh_guarded_call@P6AXH@Z@@QEAAP6AXH@Z$$QEAV<lambda_c36588078e9f5dfd39652860aa6b3aaf>@@AEAV<lambda_ec61778202f4f5fc7e7711acc23c3bca>@@$$QEAV<lambda_dc9d2797ccde5d239b4a0efae8ebd7db>@@@Z@4HA 0000000180032024 f   libucrt:signal.obj
 0001:00031024       ?fin$0@?0???$?RV<lambda_fb3a7dec4e47f37f22dae91bb15c9095>@@AEAV<lambda_698284760c8add0bfb0756c19673e34b>@@V<lambda_dfb8eca1e75fef3034a8fb18dd509707>@@@?$__crt_seh_guarded_call@X@@QEAAX$$QEAV<lambda_fb3a7dec4e47f37f22dae91bb15c9095>@@AEAV<lambda_698284760c8add0bfb0756c19673e34b>@@$$QEAV<lambda_dfb8eca1e75fef3034a8fb18dd509707>@@@Z@4HA 0000000180032024 f   libucrt:per_thread_data.obj
 0001:00031024       ?fin$0@?0???$?RV<lambda_99476a1ad63dd22509b5d3e65b0ffc95>@@AEAV<lambda_ad1ced32f4ac17aa236e5ef05d6b3b7c>@@V<lambda_f7424dd8d45958661754dc4f2697e9c3>@@@?$__crt_seh_guarded_call@X@@QEAAX$$QEAV<lambda_99476a1ad63dd22509b5d3e65b0ffc95>@@AEAV<lambda_ad1ced32f4ac17aa236e5ef05d6b3b7c>@@$$QEAV<lambda_f7424dd8d45958661754dc4f2697e9c3>@@@Z@4HA 0000000180032024 f   libucrt:mbctype.obj
 0001:00031024       ?fin$0@?0???$?RV<lambda_46352004c1216016012b18bd6f87e700>@@AEAV<lambda_3bd07e1a1191394380780325891bf33f>@@V<lambda_334532d3f185bcaa59b5be82d7d22bff>@@@?$__crt_seh_guarded_call@X@@QEAAX$$QEAV<lambda_46352004c1216016012b18bd6f87e700>@@AEAV<lambda_3bd07e1a1191394380780325891bf33f>@@$$QEAV<lambda_334532d3f185bcaa59b5be82d7d22bff>@@@Z@4HA 0000000180032024 f   libucrt:per_thread_data.obj
 0001:00031024       ?fin$0@?0???$?RV<lambda_5e887d1dcbef67a5eb4283622ba103bf>@@AEAV<lambda_4466841279450cc726390878d4a41900>@@V<lambda_341c25c0346d94847f1f3c463c57e077>@@@?$__crt_seh_guarded_call@X@@QEAAX$$QEAV<lambda_5e887d1dcbef67a5eb4283622ba103bf>@@AEAV<lambda_4466841279450cc726390878d4a41900>@@$$QEAV<lambda_341c25c0346d94847f1f3c463c57e077>@@@Z@4HA 0000000180032024 f   libucrt:per_thread_data.obj
 0001:00031024       ?fin$0@?0???$?RV<lambda_72d1df2b273a38828b1ce30cbf4cdab5>@@AEAV<lambda_876a65b173b8412d3a47c70a915b0cf4>@@V<lambda_41932305e351933ebe8f8be3ed8bb5dc>@@@?$__crt_seh_guarded_call@X@@QEAAX$$QEAV<lambda_72d1df2b273a38828b1ce30cbf4cdab5>@@AEAV<lambda_876a65b173b8412d3a47c70a915b0cf4>@@$$QEAV<lambda_41932305e351933ebe8f8be3ed8bb5dc>@@@Z@4HA 0000000180032024 f   libucrt:per_thread_data.obj
 0001:00031024       ?fin$0@?0???$?RV<lambda_b8c45f8f788dd370798f47cfe8ac3a86>@@AEAV<lambda_4e60a939b0d047cfe11ddc22648dfba9>@@V<lambda_332c3edc96d0294ec56c57d38c1cdfd5>@@@?$__crt_seh_guarded_call@H@@QEAAH$$QEAV<lambda_b8c45f8f788dd370798f47cfe8ac3a86>@@AEAV<lambda_4e60a939b0d047cfe11ddc22648dfba9>@@$$QEAV<lambda_332c3edc96d0294ec56c57d38c1cdfd5>@@@Z@4HA 0000000180032024 f   libucrt:onexit.obj
 0001:0003103e       raise$fin$0                000000018003203e f   libucrt:signal.obj
 0001:00031062       __acrt_lowio_ensure_fh_exists$fin$0 0000000180032062 f   libucrt:osfinfo.obj
 0001:00031062       __acrt_initialize_lowio$fin$0 0000000180032062 f   libucrt:ioinit.obj
 0001:0003107b       __acrt_update_thread_multibyte_data$fin$0 000000018003207b f   libucrt:mbctype.obj
 0001:00031094       __acrt_update_thread_locale_data$fin$0 0000000180032094 f   libucrt:locale_refcounting.obj
 0001:00031094       __acrt_uninitialize_locale$fin$0 0000000180032094 f   libucrt:wsetlocale.obj
 0001:000310ad       _fcloseall$fin$0           00000001800320ad f   libucrt:closeall.obj
 0001:000310c6       ?fin$0@?0???$?RV<lambda_bfedae4ebbf01fab1bb6dcc6a9e276e0>@@AEAV<lambda_2fe9b910cf3cbf4a0ab98a02ba45b3ec>@@V<lambda_237c231691f317818eb88cc1d5d642d6>@@@?$__crt_seh_guarded_call@H@@QEAAH$$QEAV<lambda_bfedae4ebbf01fab1bb6dcc6a9e276e0>@@AEAV<lambda_2fe9b910cf3cbf4a0ab98a02ba45b3ec>@@$$QEAV<lambda_237c231691f317818eb88cc1d5d642d6>@@@Z@4HA 00000001800320c6 f   libucrt:close.obj
 0001:000310c6       ?fin$0@?0???$?RV<lambda_b521505b218e5242e90febf6bfebc422>@@AEAV<lambda_6978c1fb23f02e42e1d9e99668cc68aa>@@V<lambda_314360699dd331753a4119843814e9a7>@@@?$__crt_seh_guarded_call@H@@QEAAH$$QEAV<lambda_b521505b218e5242e90febf6bfebc422>@@AEAV<lambda_6978c1fb23f02e42e1d9e99668cc68aa>@@$$QEAV<lambda_314360699dd331753a4119843814e9a7>@@@Z@4HA 00000001800320c6 f   libucrt:commit.obj
 0001:000310e0       ?fin$0@?0???$common_lseek@_J@@YA_JH_JH@Z@4HA 00000001800320e0 f   libucrt:lseek.obj
 0001:000310e0       _write$fin$0               00000001800320e0 f   libucrt:write.obj
 0001:000310f7       common_control87$filt$0    00000001800320f7 f   libucrt:ieee.obj
 0001:000310f7       _ctrlfp$filt$0             00000001800320f7 f   libucrt:fpctrl.obj
 0001:00031130       _IsNonwritableInCurrentImage$filt$0 0000000180032130 f   LIBCMT:pesect.obj
 0002:000003b8       GS_ExceptionPointers       00000001800333b8     LIBCMT:gs_report.obj
 0002:00000440       ?ExceptionTemplate@?1??_CxxThrowException@@9@4UEHExceptionRecord@@B 0000000180033440     libvcruntime:throw.obj
 0002:00000480       ?ExceptionTemplate@?1??_UnwindNestedFrames@@9@4U_EXCEPTION_RECORD@@B 0000000180033480     libvcruntime:trnsctrl.obj
 0002:00000518       ?module_names@?A0x679b24ab@@3QBQEB_WB 0000000180033518     libvcruntime:winapi_downlevel.obj
 0002:000005e8       ?candidate_modules@?1??try_get_FlsAlloc@@YAP6AKP6AXPEAX@Z@ZXZ@4QBW4module_id@?A0x679b24ab@@B 00000001800335e8     libvcruntime:winapi_downlevel.obj
 0002:00000600       ?candidate_modules@?1??try_get_FlsFree@@YAP6AHK@ZXZ@4QBW4module_id@?A0x679b24ab@@B 0000000180033600     libvcruntime:winapi_downlevel.obj
 0002:00000610       ?candidate_modules@?1??try_get_FlsGetValue@@YAP6APEAXK@ZXZ@4QBW4module_id@?A0x679b24ab@@B 0000000180033610     libvcruntime:winapi_downlevel.obj
 0002:00000628       ?candidate_modules@?1??try_get_FlsSetValue@@YAP6AHKPEAX@ZXZ@4QBW4module_id@?A0x679b24ab@@B 0000000180033628     libvcruntime:winapi_downlevel.obj
 0002:00000640       ?candidate_modules@?1??try_get_InitializeCriticalSectionEx@@YAP6AHPEAU_RTL_CRITICAL_SECTION@@KK@ZXZ@4QBW4module_id@?A0x679b24ab@@B 0000000180033640     libvcruntime:winapi_downlevel.obj
 0002:00000670       ?tokenTable@@3QBQEBDB      0000000180033670     libvcruntime:undname.obj
 0002:000006e0       ?nameTable@@3QBQEBDB       00000001800336e0     libvcruntime:undname.obj
 0002:00000968       ?rttiTable@@3QBQEBDB       0000000180033968     libvcruntime:undname.obj
 0002:00001440       __acrt_initializers        0000000180034440     libucrt:initialization.obj
 0002:00001530       errtable                   0000000180034530     libucrt:errno.obj
 0002:00001d80       module_names               0000000180034d80     libucrt:winapi_thunks.obj
 0002:000022b0       ?candidate_modules@?1??try_get_FlsAlloc@@YAP6AKP6AXPEAX@Z@ZXZ@4QBW4module_id@?A0x63058377@@B 00000001800352b0     libucrt:winapi_thunks.obj
 0002:000022b8       ?candidate_modules@?1??try_get_FlsFree@@YAP6AHK@ZXZ@4QBW4module_id@?A0x63058377@@B 00000001800352b8     libucrt:winapi_thunks.obj
 0002:000022c0       ?candidate_modules@?1??try_get_FlsGetValue@@YAP6APEAXK@ZXZ@4QBW4module_id@?A0x63058377@@B 00000001800352c0     libucrt:winapi_thunks.obj
 0002:000022c8       ?candidate_modules@?1??try_get_FlsSetValue@@YAP6AHKPEAX@ZXZ@4QBW4module_id@?A0x63058377@@B 00000001800352c8     libucrt:winapi_thunks.obj
 0002:000022d0       ?candidate_modules@?1??try_get_GetActiveWindow@@YAP6APEAUHWND__@@XZXZ@4QBW4module_id@?A0x63058377@@B 00000001800352d0     libucrt:winapi_thunks.obj
 0002:000022e8       ?candidate_modules@?1??try_get_GetCurrentPackageId@@YAP6AJPEAIPEAE@ZXZ@4QBW4module_id@?A0x63058377@@B 00000001800352e8     libucrt:winapi_thunks.obj
 0002:00002308       ?candidate_modules@?1??try_get_GetLastActivePopup@@YAP6APEAUHWND__@@PEAU2@@ZXZ@4QBW4module_id@?A0x63058377@@B 0000000180035308     libucrt:winapi_thunks.obj
 0002:00002328       ?candidate_modules@?1??try_get_GetProcessWindowStation@@YAP6APEAUHWINSTA__@@XZXZ@4QBW4module_id@?A0x63058377@@B 0000000180035328     libucrt:winapi_thunks.obj
 0002:00002348       ?candidate_modules@?1??try_get_GetUserObjectInformationW@@YAP6AHPEAXH0KPEAK@ZXZ@4QBW4module_id@?A0x63058377@@B 0000000180035348     libucrt:winapi_thunks.obj
 0002:00002370       ?candidate_modules@?1??try_get_InitializeCriticalSectionEx@@YAP6AHPEAU_RTL_CRITICAL_SECTION@@KK@ZXZ@4QBW4module_id@?A0x63058377@@B 0000000180035370     libucrt:winapi_thunks.obj
 0002:00002378       ?candidate_modules@?1??try_get_LCMapStringEx@@YAP6AHPEB_WK0HPEA_WHPEAU_nlsversioninfo@@PEAX_J@ZXZ@4QBW4module_id@?A0x63058377@@B 0000000180035378     libucrt:winapi_thunks.obj
 0002:00002390       ?candidate_modules@?1??try_get_LocaleNameToLCID@@YAP6AKPEB_WK@ZXZ@4QBW4module_id@?A0x63058377@@B 0000000180035390     libucrt:winapi_thunks.obj
 0002:000023b0       ?candidate_modules@?1??try_get_MessageBoxA@@YAP6AHPEAUHWND__@@PEBD1I@ZXZ@4QBW4module_id@?A0x63058377@@B 00000001800353b0     libucrt:winapi_thunks.obj
 0002:000023c8       ?candidate_modules@?1??try_get_MessageBoxW@@YAP6AHPEAUHWND__@@PEB_W1I@ZXZ@4QBW4module_id@?A0x63058377@@B 00000001800353c8     libucrt:winapi_thunks.obj
 0002:000023e0       _mb_locale_names           00000001800353e0     libucrt:mbctype.obj
 0002:00003640       LcidToLocaleNameTable      0000000180036640     libucrt:lcidtoname_downlevel.obj
 0002:000050a0       LocaleNameToIndexTable     00000001800380a0     libucrt:lcidtoname_downlevel.obj
 0002:00006940       __real_ninf                0000000180039940     libucrt:log10.obj
 0002:00006950       __real_inf                 0000000180039950     libucrt:log10.obj
 0002:00006960       __real_neg_qnan            0000000180039960     libucrt:log10.obj
 0002:00006970       __real_qnanbit             0000000180039970     libucrt:log10.obj
 0002:00006980       __int_1023                 0000000180039980     libucrt:log10.obj
 0002:00006990       __mask_001                 0000000180039990     libucrt:log10.obj
 0002:000069a0       __mask_mant                00000001800399a0     libucrt:log10.obj
 0002:000069b0       __mask_mant_top8           00000001800399b0     libucrt:log10.obj
 0002:000069c0       __mask_mant9               00000001800399c0     libucrt:log10.obj
 0002:000069d0       __real_log10_e             00000001800399d0     libucrt:log10.obj
 0002:000069e0       __real_log10_e_lead        00000001800399e0     libucrt:log10.obj
 0002:000069f0       __real_log10_e_tail        00000001800399f0     libucrt:log10.obj
 0002:00006a00       __real_log10_2_lead        0000000180039a00     libucrt:log10.obj
 0002:00006a10       __real_log10_2_tail        0000000180039a10     libucrt:log10.obj
 0002:00006a20       __real_two                 0000000180039a20     libucrt:log10.obj
 0002:00006a30       __real_one                 0000000180039a30     libucrt:log10.obj
 0002:00006a40       __real_half                0000000180039a40     libucrt:log10.obj
 0002:00006a50       __mask_100                 0000000180039a50     libucrt:log10.obj
 0002:00006a60       __real_1_over_512          0000000180039a60     libucrt:log10.obj
 0002:00006a70       __real_1_over_2            0000000180039a70     libucrt:log10.obj
 0002:00006a80       __real_1_over_3            0000000180039a80     libucrt:log10.obj
 0002:00006a90       __real_1_over_4            0000000180039a90     libucrt:log10.obj
 0002:00006aa0       __real_1_over_5            0000000180039aa0     libucrt:log10.obj
 0002:00006ab0       __real_1_over_6            0000000180039ab0     libucrt:log10.obj
 0002:00006ac0       __real_neg_1023            0000000180039ac0     libucrt:log10.obj
 0002:00006ad0       __mask_2045                0000000180039ad0     libucrt:log10.obj
 0002:00006ae0       __real_threshold           0000000180039ae0     libucrt:log10.obj
 0002:00006af0       __real_near_one_lt         0000000180039af0     libucrt:log10.obj
 0002:00006b00       __real_near_one_gt         0000000180039b00     libucrt:log10.obj
 0002:00006b10       __real_min_norm            0000000180039b10     libucrt:log10.obj
 0002:00006b20       __real_notsign             0000000180039b20     libucrt:log10.obj
 0002:00006b30       __real_ca1                 0000000180039b30     libucrt:log10.obj
 0002:00006b40       __real_ca2                 0000000180039b40     libucrt:log10.obj
 0002:00006b50       __real_ca3                 0000000180039b50     libucrt:log10.obj
 0002:00006b60       __real_ca4                 0000000180039b60     libucrt:log10.obj
 0002:00006b70       __mask_lower               0000000180039b70     libucrt:log10.obj
 0002:00006b80       __flag_x_zero              0000000180039b80     libucrt:log10.obj
 0002:00006b84       __flag_x_neg               0000000180039b84     libucrt:log10.obj
 0002:00006b88       __flag_x_nan               0000000180039b88     libucrt:log10.obj
 0002:000083e0       __real@433fffffffffffff    000000018003b3e0     libucrt:fpsr.obj
 0002:000083e8       __real@c33fffffffffffff    000000018003b3e8     libucrt:fpsr.obj
 0002:00008968       ?address_for_empty_string@?BH@??onig_search@@9@9 000000018003b968     oniguruma:regexec.obj
 0002:00008970       EncLen_UTF8                000000018003b970     oniguruma:utf8.obj
 0002:00008d70       ?ByteValTable@?1??map_position_value@@9@9 000000018003bd70     oniguruma:regcomp.obj
 0002:00008e70       ?dist_vals@?1??distance_value@@9@9 000000018003be70     oniguruma:regcomp.obj
 0002:00008f3c       ?z@?1??select_opt_map_info@@9@9 000000018003bf3c     oniguruma:regcomp.obj
 0002:00008f40       ?clean_info@?1??clear_opt_map_info@@9@9 000000018003bf40     oniguruma:regcomp.obj
 0002:00009060       onig_verb_warn             000000018003c060     oniguruma:regparse.obj
 0002:00009068       ReduceQStr                 000000018003c068     oniguruma:regparse.obj
 0002:000090a0       PopularQStr                000000018003c0a0     oniguruma:regparse.obj
 0002:000090d0       ReduceTypeTable            000000018003c0d0     oniguruma:regparse.obj
 0002:00009160       onig_warn                  000000018003c160     oniguruma:regparse.obj
 0002:00009168       CR_Cs                      000000018003c168     oniguruma:unicode.obj
 0002:00009620       CR_Arabic                  000000018003c620     oniguruma:unicode.obj
 0002:00009738       CR_Bopomofo                000000018003c738     oniguruma:unicode.obj
 0002:00009760       CR_Hangul                  000000018003c760     oniguruma:unicode.obj
 0002:00009828       CR_Tifinagh                000000018003c828     oniguruma:unicode.obj
 0002:00009850       CR_L                       000000018003c850     oniguruma:unicode.obj
 0002:0000ae08       CR_Osmanya                 000000018003de08     oniguruma:unicode.obj
 0002:0000ae30       CR_M                       000000018003de30     oniguruma:unicode.obj
 0002:0000b688       CR_Runic                   000000018003e688     oniguruma:unicode.obj
 0002:0000b6b0       CR_Upper                   000000018003e6b0     oniguruma:unicode.obj
 0002:0000d478       CR_Canadian_Aboriginal     0000000180040478     oniguruma:unicode.obj
 0002:0000d490       CR_Cf                      0000000180040490     oniguruma:unicode.obj
 0002:0000d578       CR_Old_Italic              0000000180040578     oniguruma:unicode.obj
 0002:0000d5a0       CR_Malayalam               00000001800405a0     oniguruma:unicode.obj
 0002:0000d658       CR_Zl                      0000000180040658     oniguruma:unicode.obj
 0002:0000d670       CR_Me                      0000000180040670     oniguruma:unicode.obj
 0002:0000d6b8       CR_Thai                    00000001800406b8     oniguruma:unicode.obj
 0002:0000d6e0       CR_Tibetan                 00000001800406e0     oniguruma:unicode.obj
 0002:0000d758       CR_Zp                      0000000180040758     oniguruma:unicode.obj
 0002:0000d770       CR_Sinhala                 0000000180040770     oniguruma:unicode.obj
 0002:0000d828       CR_Tai_Le                  0000000180040828     oniguruma:unicode.obj
 0002:0000d850       CR_Sk                      0000000180040850     oniguruma:unicode.obj
 0002:0000d9c8       CR_Glagolitic              00000001800409c8     oniguruma:unicode.obj
 0002:0000d9f0       CR_N                       00000001800409f0     oniguruma:unicode.obj
 0002:0000dd48       CR_Braille                 0000000180040d48     oniguruma:unicode.obj
 0002:0000dd60       CR_Latin                   0000000180040d60     oniguruma:unicode.obj
 0002:0000ded8       CR_Yi                      0000000180040ed8     oniguruma:unicode.obj
 0002:0000df00       CaseFold_Locale            0000000180040f00     oniguruma:unicode.obj
 0002:0000df50       CR_Ethiopic                0000000180040f50     oniguruma:unicode.obj
 0002:0000e108       CR_Gothic                  0000000180041108     oniguruma:unicode.obj
 0002:0000e120       CR_Hebrew                  0000000180041120     oniguruma:unicode.obj
 0002:0000e1c8       CR_Coptic                  00000001800411c8     oniguruma:unicode.obj
 0002:0000e200       CR_Assigned                0000000180041200     oniguruma:unicode.obj
 0002:0000fc48       CR_Tagalog                 0000000180042c48     oniguruma:unicode.obj
 0002:0000fc70       CR_Armenian                0000000180042c70     oniguruma:unicode.obj
 0002:0000fcc8       CR_Ogham                   0000000180042cc8     oniguruma:unicode.obj
 0002:0000fce0       CR_Lao                     0000000180042ce0     oniguruma:unicode.obj
 0002:0000fe08       CR_Cherokee                0000000180042e08     oniguruma:unicode.obj
 0002:0000fe20       CR_New_Tai_Lue             0000000180042e20     oniguruma:unicode.obj
 0002:0000fe68       CR_Tagbanwa                0000000180042e68     oniguruma:unicode.obj
 0002:0000fea0       CaseUnfold_11              0000000180042ea0     oniguruma:unicode.obj
 0002:00018460       CR_C                       000000018004b460     oniguruma:unicode.obj
 0002:00019ec8       CR_XDigit                  000000018004cec8     oniguruma:unicode.obj
 0002:00019f00       CR_Cn                      000000018004cf00     oniguruma:unicode.obj
 0002:0001b948       CR_Ugaritic                000000018004e948     oniguruma:unicode.obj
 0002:0001b970       CaseUnfold_13              000000018004e970     oniguruma:unicode.obj
 0002:0001bc10       CR_Khmer                   000000018004ec10     oniguruma:unicode.obj
 0002:0001bc58       CR_Buhid                   000000018004ec58     oniguruma:unicode.obj
 0002:0001bc70       CR_Cypriot                 000000018004ec70     oniguruma:unicode.obj
 0002:0001bcd8       CR_Syloti_Nagri            000000018004ecd8     oniguruma:unicode.obj
 0002:0001bcf0       CR_Oriya                   000000018004ecf0     oniguruma:unicode.obj
 0002:0001bdd8       CR_Syriac                  000000018004edd8     oniguruma:unicode.obj
 0002:0001be10       CR_Tamil                   000000018004ee10     oniguruma:unicode.obj
 0002:0001bf08       CR_Buginese                000000018004ef08     oniguruma:unicode.obj
 0002:0001bf30       CR_Lu                      000000018004ef30     oniguruma:unicode.obj
 0002:0001dcf8       CR_Thaana                  0000000180050cf8     oniguruma:unicode.obj
 0002:0001dd10       CR_Limbu                   0000000180050d10     oniguruma:unicode.obj
 0002:0001dd68       CR_Deseret                 0000000180050d68     oniguruma:unicode.obj
 0002:0001dd80       CR_Kharoshthi              0000000180050d80     oniguruma:unicode.obj
 0002:0001de08       CR_ASCII                   0000000180050e08     oniguruma:unicode.obj
 0002:0001de20       CaseUnfold_12_Locale       0000000180050e20     oniguruma:unicode.obj
 0002:0001de48       CR_Co                      0000000180050e48     oniguruma:unicode.obj
 0002:0001de80       CR_Georgian                0000000180050e80     oniguruma:unicode.obj
 0002:0001dec8       CR_NEWLINE                 0000000180050ec8     oniguruma:unicode.obj
 0002:0001dee0       CR_P                       0000000180050ee0     oniguruma:unicode.obj
 0002:0001e4e8       CR_Hanunoo                 00000001800514e8     oniguruma:unicode.obj
 0002:0001e500       CR_Linear_B                0000000180051500     oniguruma:unicode.obj
 0002:0001e578       CR_Cc                      0000000180051578     oniguruma:unicode.obj
 0002:0001e5a0       CR_Nd                      00000001800515a0     oniguruma:unicode.obj
 0002:0001e718       CR_Shavian                 0000000180051718     oniguruma:unicode.obj
 0002:0001e730       CR_Kannada                 0000000180051730     oniguruma:unicode.obj
 0002:0001e808       CR_Old_Persian             0000000180051808     oniguruma:unicode.obj
 0002:0001e830       CR_Gurmukhi                0000000180051830     oniguruma:unicode.obj
 0002:0001e928       CR_Any                     0000000180051928     oniguruma:unicode.obj
 0002:0001e940       CR_Nl                      0000000180051940     oniguruma:unicode.obj
 0002:0001e9c8       CR_Hiragana                00000001800519c8     oniguruma:unicode.obj
 0002:0001e9f0       CR_Punct                   00000001800519f0     oniguruma:unicode.obj
 0002:0001f000       EncUNICODE_ISO_8859_1_CtypeTable 0000000180052000     oniguruma:unicode.obj
 0002:0001f200       CR_Telugu                  0000000180052200     oniguruma:unicode.obj
 0002:0001f2d0       CR_S                       00000001800522d0     oniguruma:unicode.obj
 0002:0001fd00       CaseFold                   0000000180052d00     oniguruma:unicode.obj
 0002:00029600       CR_Inherited               000000018005c600     oniguruma:unicode.obj
 0002:00029700       CR_Po                      000000018005c700     oniguruma:unicode.obj
 0002:00029c90       CR_Sc                      000000018005cc90     oniguruma:unicode.obj
 0002:00029d80       CR_Pe                      000000018005cd80     oniguruma:unicode.obj
 0002:0002a1a0       CR_Myanmar                 000000018005d1a0     oniguruma:unicode.obj
 0002:0002a210       CR_So                      000000018005d210     oniguruma:unicode.obj
 0002:0002a9a0       CR_Ll                      000000018005d9a0     oniguruma:unicode.obj
 0002:0002c7b0       CR_Cntrl                   000000018005f7b0     oniguruma:unicode.obj
 0002:0002c8f0       CR_Ps                      000000018005f8f0     oniguruma:unicode.obj
 0002:0002cd30       CR_Lm                      000000018005fd30     oniguruma:unicode.obj
 0002:0002cee0       CR_Zs                      000000018005fee0     oniguruma:unicode.obj
 0002:0002cf70       CR_Pc                      000000018005ff70     oniguruma:unicode.obj
 0002:0002cfe0       CR_Lower                   000000018005ffe0     oniguruma:unicode.obj
 0002:0002edf0       CR_Print                   0000000180061df0     oniguruma:unicode.obj
 0002:00030870       CR_Blank                   0000000180063870     oniguruma:unicode.obj
 0002:00030910       CR_Pf                      0000000180063910     oniguruma:unicode.obj
 0002:000309b0       CR_Space                   00000001800639b0     oniguruma:unicode.obj
 0002:00030a70       CR_Bengali                 0000000180063a70     oniguruma:unicode.obj
 0002:00030b60       CR_Lt                      0000000180063b60     oniguruma:unicode.obj
 0002:00030c10       CR_Han                     0000000180063c10     oniguruma:unicode.obj
 0002:00030d00       CR_Gujarati                0000000180063d00     oniguruma:unicode.obj
 0002:00030df0       CR_Pi                      0000000180063df0     oniguruma:unicode.obj
 0002:00030ea0       CR_Katakana                0000000180063ea0     oniguruma:unicode.obj
 0002:00030f00       CR_Cyrillic                0000000180063f00     oniguruma:unicode.obj
 0002:00030f70       CR_Word                    0000000180063f70     oniguruma:unicode.obj
 0002:00032c80       CR_Common                  0000000180065c80     oniguruma:unicode.obj
 0002:00033470       CR_Sm                      0000000180066470     oniguruma:unicode.obj
 0002:00033830       CR_Mn                      0000000180066830     oniguruma:unicode.obj
 0002:00034000       CaseUnfold_12              0000000180067000     oniguruma:unicode.obj
 0002:00034910       CR_Alpha                   0000000180067910     oniguruma:unicode.obj
 0002:00036340       CR_No                      0000000180069340     oniguruma:unicode.obj
 0002:000364f0       CR_Digit                   00000001800694f0     oniguruma:unicode.obj
 0002:00036670       CR_Pd                      0000000180069670     oniguruma:unicode.obj
 0002:00036740       CR_Devanagari              0000000180069740     oniguruma:unicode.obj
 0002:000367b0       CR_Graph                   00000001800697b0     oniguruma:unicode.obj
 0002:00038240       CR_Lo                      000000018006b240     oniguruma:unicode.obj
 0002:000391a0       CR_Mc                      000000018006c1a0     oniguruma:unicode.obj
 0002:000395a0       CR_Z                       000000018006c5a0     oniguruma:unicode.obj
 0002:00039640       CR_Greek                   000000018006c640     oniguruma:unicode.obj
 0002:00039840       CR_Mongolian               000000018006c840     oniguruma:unicode.obj
 0002:00039890       CR_Alnum                   000000018006c890     oniguruma:unicode.obj
 0002:0003b3e0       CaseUnfold_11_Locale       000000018006e3e0     oniguruma:unicode.obj
 0002:0003b410       primes                     000000018006e410     oniguruma:st.obj
 0002:0003c118       $cppxdata$??1OnigResult@@QEAA@XZ 000000018006f118     onig-result.obj
 0002:0003c150       $cppxdata$?Search@OnigRegExp@@AEAA?AV?$shared_ptr@VOnigResult@@@std@@PEBD_K1@Z 000000018006f150     onig-reg-exp.obj
 0002:0003c178       $cppxdata$??1OnigRegExp@@QEAA@XZ 000000018006f178     onig-reg-exp.obj
 0002:0003c1a0       $cppxdata$??0OnigRegExp@@QEAA@AEBV?$basic_string@DU?$char_traits@D@std@@V?$allocator@D@2@@std@@@Z 000000018006f1a0     onig-reg-exp.obj
 0002:0003c1c8       $cppxdata$?FindNextMatchSync@OnigScanner@@AEAA?AV?$Local@VValue@v8@@@v8@@PEAVOnigString@@V?$Local@VNumber@v8@@@3@@Z 000000018006f1c8     onig-scanner.obj
 0002:0003c1f0       $cppxdata$?FindNextMatchSync@OnigScanner@@AEAA?AV?$Local@VValue@v8@@@v8@@V?$Local@VString@v8@@@3@V?$Local@VNumber@v8@@@3@@Z 000000018006f1f0     onig-scanner.obj
 0002:0003c218       $cppxdata$?FindNextMatch@OnigScanner@@AEAAXV?$Local@VString@v8@@@v8@@V?$Local@VNumber@v8@@@3@V?$Local@VFunction@v8@@@3@@Z 000000018006f218     onig-scanner.obj
 0002:0003c240       $cppxdata$??1OnigScanner@@EEAA@XZ 000000018006f240     onig-scanner.obj
 0002:0003c268       $cppxdata$??0OnigScanner@@AEAA@V?$Local@VArray@v8@@@v8@@@Z 000000018006f268     onig-scanner.obj
 0002:0003c290       $cppxdata$?FindNextMatch@OnigScanner@@CAXAEBV?$FunctionCallbackInfo@VValue@v8@@@Nan@@@Z 000000018006f290     onig-scanner.obj
 0002:0003c2b8       $cppxdata$?FindNextMatchSync@OnigScanner@@CAXAEBV?$FunctionCallbackInfo@VValue@v8@@@Nan@@@Z 000000018006f2b8     onig-scanner.obj
 0002:0003c2e0       $cppxdata$?New@OnigScanner@@CAXAEBV?$FunctionCallbackInfo@VValue@v8@@@Nan@@@Z 000000018006f2e0     onig-scanner.obj
 0002:0003c308       $cppxdata$??1OnigScannerWorker@@UEAA@XZ 000000018006f308     onig-scanner.obj
 0002:0003c330       $cppxdata$??0OnigScannerWorker@@QEAA@PEAVCallback@Nan@@V?$vector@V?$shared_ptr@VOnigRegExp@@@std@@V?$allocator@V?$shared_ptr@VOnigRegExp@@@std@@@2@@std@@V?$Local@VString@v8@@@v8@@H@Z 000000018006f330     onig-scanner.obj
 0002:0003c358       $cppxdata$??1?$Persistent@VObject@v8@@V?$NonCopyablePersistentTraits@VObject@v8@@@2@@Nan@@QEAA@XZ 000000018006f358     onig-scanner.obj
 0002:0003c380       $cppxdata$?HandleErrorCallback@AsyncWorker@Nan@@MEAAXXZ 000000018006f380     onig-scanner.obj
 0002:0003c3a8       $cppxdata$?HandleOKCallback@AsyncWorker@Nan@@MEAAXXZ 000000018006f3a8     onig-scanner.obj
 0002:0003c3d0       $cppxdata$?WorkComplete@AsyncWorker@Nan@@UEAAXXZ 000000018006f3d0     onig-scanner.obj
 0002:0003c3f8       $cppxdata$??1AsyncWorker@Nan@@UEAA@XZ 000000018006f3f8     onig-scanner.obj
 0002:0003c420       $cppxdata$??0AsyncWorker@Nan@@QEAA@PEAVCallback@1@@Z 000000018006f420     onig-scanner.obj
 0002:0003c448       $cppxdata$?Call_@Callback@Nan@@AEBA?AV?$Local@VValue@v8@@@v8@@PEAVIsolate@4@V?$Local@VObject@v8@@@4@HQEAV34@@Z 000000018006f448     onig-scanner.obj
 0002:0003c470       $cppxdata$?Call@Callback@Nan@@QEBA?AV?$Local@VValue@v8@@@v8@@HQEAV34@@Z 000000018006f470     onig-scanner.obj
 0002:0003c498       $cppxdata$?New@?$Factory@VFunctionTemplate@v8@@@imp@Nan@@SA?AV?$Local@VFunctionTemplate@v8@@@v8@@P6AXAEBV?$FunctionCallbackInfo@VValue@v8@@@3@@ZV?$Local@VValue@v8@@@5@V?$Local@VSignature@v8@@@5@@Z 000000018006f498     onig-scanner.obj
 0002:0003c4c0       $cppxdata$?NewInstance@Nan@@YA?AV?$MaybeLocal@VObject@v8@@@v8@@V?$Local@VObjectTemplate@v8@@@3@@Z 000000018006f4c0     onig-scanner.obj
 0002:0003c4e8       $cppxdata$??1ObjectWrap@node@@UEAA@XZ 000000018006f4e8     onig-scanner.obj
 0002:0003c510       $cppxdata$?HandleOKCallback@OnigScannerWorker@@UEAAXXZ 000000018006f510     onig-scanner-worker.obj
 0002:0003c538       $cppxdata$?Search@OnigSearcher@@QEAA?AV?$shared_ptr@VOnigResult@@@std@@PEAVOnigString@@H@Z 000000018006f538     onig-searcher.obj
 0002:0003c560       $cppxdata$?New@OnigString@@CAXAEBV?$FunctionCallbackInfo@VValue@v8@@@Nan@@@Z 000000018006f560     onig-string.obj
 0002:0003c588       $cppxdata$?ThrowTypeError@Nan@@YAXPEBD@Z 000000018006f588     onig-string.obj
 0002:0003c5b0       $cppxdata$??0OnigString@@QEAA@V?$Local@VString@v8@@@v8@@@Z 000000018006f5b0     onig-string.obj
 0002:0003ce60       $unwind$??1OnigResult@@QEAA@XZ 000000018006fe60     onig-result.obj
 0002:0003ce78       $ip2state$??1OnigResult@@QEAA@XZ 000000018006fe78     onig-result.obj
 0002:0003ce80       $unwind$node_new_option    000000018006fe80     oniguruma:regparse.obj
 0002:0003ce80       $unwind$?type_case_integer@?$output_processor@DV?$string_output_adapter@D@__crt_stdio_output@@V?$standard_base@DV?$string_output_adapter@D@__crt_stdio_output@@@2@@__crt_stdio_output@@AEAA_NI_N@Z 000000018006fe80     libucrt:output.obj
 0002:0003ce80       $unwind$node_new_enclose   000000018006fe80     oniguruma:regparse.obj
 0002:0003ce80       $unwind$node_new_list      000000018006fe80     oniguruma:regparse.obj
 0002:0003ce80       $unwind$?state_case_normal@?$output_processor@DV?$string_output_adapter@D@__crt_stdio_output@@V?$standard_base@DV?$string_output_adapter@D@__crt_stdio_output@@@2@@__crt_stdio_output@@AEAA_NXZ 000000018006fe80     libucrt:output.obj
 0002:0003ce80       $unwind$??0?$output_processor@DV?$string_output_adapter@D@__crt_stdio_output@@V?$standard_base@DV?$string_output_adapter@D@__crt_stdio_output@@@2@@__crt_stdio_output@@QEAA@AEBV?$string_output_adapter@D@1@_KQEBDQEAU__crt_locale_pointers@@QEAD@Z 000000018006fe80     libucrt:output.obj
 0002:0003ce80       $unwind$?type_case_integer@?$output_processor@_WV?$stream_output_adapter@_W@__crt_stdio_output@@V?$standard_base@_WV?$stream_output_adapter@_W@__crt_stdio_output@@@2@@__crt_stdio_output@@AEAA_NI_N@Z 000000018006fe80     libucrt:output.obj
 0002:0003ce80       $unwind$??0?$output_processor@_WV?$string_output_adapter@_W@__crt_stdio_output@@V?$standard_base@_WV?$string_output_adapter@_W@__crt_stdio_output@@@2@@__crt_stdio_output@@QEAA@AEBV?$string_output_adapter@_W@1@_KQEB_WQEAU__crt_locale_pointers@@QEAD@Z 000000018006fe80     libucrt:output.obj
 0002:0003ce80       $unwind$??0logic_error@std@@QEAA@AEBV01@@Z 000000018006fe80     libcpmt:xthrow.obj
 0002:0003ce80       $unwind$__acrt_uninitialize_stdio 000000018006fe80     libucrt:_file.obj
 0002:0003ce80       $unwind$onig_node_new_anchor 000000018006fe80     oniguruma:regparse.obj
 0002:0003ce80       $unwind$__acrt_initialize_locks 000000018006fe80     libucrt:locks.obj
 0002:0003ce80       $unwind$?_Tidy@?$vector@V?$shared_ptr@VOnigRegExp@@@std@@V?$allocator@V?$shared_ptr@VOnigRegExp@@@std@@@2@@std@@IEAAXXZ 000000018006fe80     onig-scanner.obj
 0002:0003ce80       $unwind$?type_case_integer@?$output_processor@_WV?$string_output_adapter@_W@__crt_stdio_output@@V?$standard_base@_WV?$string_output_adapter@_W@__crt_stdio_output@@@2@@__crt_stdio_output@@AEAA_NI_N@Z 000000018006fe80     libucrt:output.obj
 0002:0003ce80       $unwind$__acrt_stdio_free_buffer_nolock 000000018006fe80     libucrt:_freebuf.obj
 0002:0003ce80       $unwind$_purecall          000000018006fe80     libvcruntime:purevirt.obj
 0002:0003ce80       $unwind$__acrt_stdio_allocate_buffer_nolock 000000018006fe80     libucrt:_getbuf.obj
 0002:0003ce80       $unwind$is_invalid_quantifier_target 000000018006fe80     oniguruma:regparse.obj
 0002:0003ce80       $unwind$__acrt_uninitialize_locks 000000018006fe80     libucrt:locks.obj
 0002:0003ce80       $unwind$??$message_box_wait_thread@_W@@YAKQEAX@Z 000000018006fe80     libucrt:crtmbox.obj
 0002:0003ce80       $unwind$??0length_error@std@@QEAA@AEBV01@@Z 000000018006fe80     libcpmt:xthrow.obj
 0002:0003ce80       $unwind$strcpy_s           000000018006fe80     libucrt:strcpy_s.obj
 0002:0003ce80       $unwind$??0bad_alloc@std@@QEAA@AEBV01@@Z 000000018006fe80     libcpmt:xthrow.obj
 0002:0003ce80       $unwind$??0exception@std@@QEAA@AEBV01@@Z 000000018006fe80     libcpmt:xthrow.obj
 0002:0003ce80       $unwind$?WeakCallback@ObjectWrap@node@@CAXAEBV?$WeakCallbackInfo@VObjectWrap@node@@@v8@@@Z 000000018006fe80     onig-scanner.obj
 0002:0003ce80       $unwind$??0out_of_range@std@@QEAA@AEBV01@@Z 000000018006fe80     libcpmt:xthrow.obj
 0002:0003ce80       $unwind$??1?$shared_ptr@VOnigSearcher@@@std@@QEAA@XZ 000000018006fe80     onig-scanner.obj
 0002:0003ce80       $unwind$_setfpstatusword   000000018006fe80     libucrt:_fenvutils.obj
 0002:0003ce80       $unwind$?_Destroy@?$_Ref_count@VOnigRegExp@@@std@@EEAAXXZ 000000018006fe80     onig-scanner.obj
 0002:0003ce80       $unwind$??_G?$_Ref_count@VOnigResult@@@std@@UEAAPEAXI@Z 000000018006fe80     onig-reg-exp.obj
 0002:0003ce80       $unwind$?_Destroy@?$_Ref_count@VOnigResult@@@std@@EEAAXXZ 000000018006fe80     onig-reg-exp.obj
 0002:0003ce80       $unwind$_fflush_nolock     000000018006fe80     libucrt:fflush.obj
 0002:0003ce80       $unwind$?_Destroy@?$_Ref_count@VOnigSearcher@@@std@@EEAAXXZ 000000018006fe80     onig-scanner.obj
 0002:0003ce80       $unwind$??0bad_exception@std@@QEAA@AEBV01@@Z 000000018006fe80     libvcruntime:frame.obj
 0002:0003ce80       $unwind$?__GetUnwindTryBlock@@YAHPEA_KPEAU_xDISPATCHER_CONTEXT@@PEBU_s_FuncInfo@@@Z 000000018006fe80     libvcruntime:ehstate.obj
 0002:0003ce80       $unwind$__acrt_freeptd     000000018006fe80     libucrt:per_thread_data.obj
 0002:0003ce80       $unwind$?__StateFromIp@@YAHPEBU_s_FuncInfo@@PEAU_xDISPATCHER_CONTEXT@@_J@Z 000000018006fe80     libvcruntime:ehstate.obj
 0002:0003ce80       $unwind$??_G?$_Ref_count@VOnigRegExp@@@std@@UEAAPEAXI@Z 000000018006fe80     onig-scanner.obj
 0002:0003ce80       $unwind$?Ref@ObjectWrap@node@@MEAAXXZ 000000018006fe80     onig-scanner.obj
 0002:0003ce80       $unwind$??_G?$_Ref_count@VOnigSearcher@@@std@@UEAAPEAXI@Z 000000018006fe80     onig-scanner.obj
 0002:0003ce80       $unwind$?load_exe_hook@@YAP6A_JXZIPEAUDelayLoadInfo@@@Z 000000018006fe80     win_delay_load_hook.obj
 0002:0003ce80       $unwind$__raise_securityfailure 000000018006fe80     LIBCMT:gs_report.obj
 0002:0003ce80       $unwind$initialize_pointers 000000018006fe80     libucrt:initialization.obj
 0002:0003ce80       $unwind$??1?$basic_string@DU?$char_traits@D@std@@V?$allocator@D@2@@std@@QEAA@XZ 000000018006fe80     onig-reg-exp.obj
 0002:0003ce80       $unwind$uninitialize_allocated_memory 000000018006fe80     libucrt:initialization.obj
 0002:0003ce80       $unwind$_SetImageBase      000000018006fe80     libvcruntime:trnsctrl.obj
 0002:0003ce80       $unwind$_SetThrowImageBase 000000018006fe80     libvcruntime:trnsctrl.obj
 0002:0003ce80       $unwind$_CreateFrameInfo   000000018006fe80     libvcruntime:trnsctrl.obj
 0002:0003ce80       $unwind$??1?$shared_ptr@VOnigResult@@@std@@QEAA@XZ 000000018006fe80     onig-reg-exp.obj
 0002:0003ce80       $unwind$_IsExceptionObjectToBeDestroyed 000000018006fe80     libvcruntime:trnsctrl.obj
 0002:0003ce80       $unwind$__scrt_uninitialize_crt 000000018006fe80     LIBCMT:utility.obj
 0002:0003ce80       $unwind$__scrt_initialize_crt 000000018006fe80     LIBCMT:utility.obj
 0002:0003ce80       $unwind$__scrt_release_startup_lock 000000018006fe80     LIBCMT:utility.obj
 0002:0003ce80       $unwind$__acrt_fp_strflt_to_string 000000018006fe80     libucrt:_fptostr.obj
 0002:0003ce80       $unwind$numbered_ref_check 000000018006fe80     oniguruma:regcomp.obj
 0002:0003ce80       $unwind$mbc_to_code        000000018006fe80     oniguruma:utf8.obj
 0002:0003ce80       $unwind$fesetenv           000000018006fe80     libucrt:fesetenv.obj
 0002:0003ce80       $unwind$__acrt_can_show_message_box 000000018006fe80     libucrt:winapi_thunks.obj
 0002:0003ce80       $unwind$??_Gtype_info@@UEAAPEAXI@Z 000000018006fe80     LIBCMT:std_type_info_static.obj
 0002:0003ce80       $unwind$wcscat_s           000000018006fe80     libucrt:wcscat_s.obj
 0002:0003ce80       $unwind$__acrt_update_multibyte_info 000000018006fe80     libucrt:locale_update.obj
 0002:0003ce80       $unwind$?AsyncExecuteComplete@Nan@@YAXPEAUuv_work_s@@@Z 000000018006fe80     onig-scanner.obj
 0002:0003ce80       $unwind$wcscpy_s           000000018006fe80     libucrt:wcscpy_s.obj
 0002:0003ce80       $unwind$?Unref@ObjectWrap@node@@MEAAXXZ 000000018006fe80     onig-scanner.obj
 0002:0003ce80       $unwind$??_G_Ref_count_base@std@@UEAAPEAXI@Z 000000018006fe80     onig-reg-exp.obj
 0002:0003ce80       $unwind$__std_exception_destroy 000000018006fe80     libvcruntime:std_exception.obj
 0002:0003ce80       $unwind$fegetenv           000000018006fe80     libucrt:fegetenv.obj
 0002:0003ce80       $unwind$_onexit            000000018006fe80     LIBCMT:utility.obj
 0002:0003ce80       $unwind$__acrt_update_locale_info 000000018006fe80     libucrt:locale_update.obj
 0002:0003ce80       $unwind$__std_type_info_destroy_list 000000018006fe80     libvcruntime:std_type_info.obj
 0002:0003ce80       $unwind$??2@YAPEAX_K@Z     000000018006fe80     LIBCMT:new_scalar.obj
 0002:0003ce80       $unwind$_calloc_base       000000018006fe80     libucrt:calloc_base.obj
 0002:0003ce80       $unwind$??0bad_array_new_length@std@@QEAA@AEBV01@@Z 000000018006fe80     LIBCMT:throw_bad_alloc.obj
 0002:0003ce80       $unwind$__acrt_allocate_buffer_for_argv 000000018006fe80     libucrt:argv_parsing.obj
 0002:0003ce80       $unwind$__acrt_uninitialize_winapi_thunks 000000018006fe80     libucrt:winapi_thunks.obj
 0002:0003ce80       $unwind$?exit_or_terminate_process@@YAXI@Z 000000018006fe80     libucrt:exit.obj
 0002:0003ce80       $unwind$_clearfp           000000018006fe80     libucrt:ieee.obj
 0002:0003ce80       $unwind$__vcrt_freeptd     000000018006fe80     libvcruntime:per_thread_data.obj
 0002:0003ce80       $unwind$_clrfp             000000018006fe80     libucrt:fpctrl.obj
 0002:0003ce80       $unwind$_set_statfp        000000018006fe80     libucrt:fpctrl.obj
 0002:0003ce80       $unwind$__vcrt_uninitialize_locks 000000018006fe80     libvcruntime:locks.obj
 0002:0003ce80       $unwind$_malloc_base       000000018006fe80     libucrt:malloc_base.obj
 0002:0003ce80       $unwind$??0?$output_processor@_WV?$stream_output_adapter@_W@__crt_stdio_output@@V?$standard_base@_WV?$stream_output_adapter@_W@__crt_stdio_output@@@2@@__crt_stdio_output@@QEAA@AEBV?$stream_output_adapter@_W@1@_KQEB_WQEAU__crt_locale_pointers@@QEAD@Z 000000018006fe80     libucrt:output.obj
 0002:0003ce80       $unwind$?DloadReleaseSectionWriteAccess@@YAXXZ 000000018006fe80     DelayImp:delayhlp.obj
 0002:0003ce80       $unwind$__vcrt_initialize_locks 000000018006fe80     libvcruntime:locks.obj
 0002:0003ce80       $unwind$feholdexcept       000000018006fe80     libucrt:feholdexcept.obj
 0002:0003ce88       $unwind$??0OnigRegExp@@QEAA@AEBV?$basic_string@DU?$char_traits@D@std@@V?$allocator@D@2@@std@@@Z 000000018006fe88     onig-reg-exp.obj
 0002:0003ceac       $stateUnwindMap$??0OnigRegExp@@QEAA@AEBV?$basic_string@DU?$char_traits@D@std@@V?$allocator@D@2@@std@@@Z 000000018006feac     onig-reg-exp.obj
 0002:0003cec8       $ip2state$??0OnigRegExp@@QEAA@AEBV?$basic_string@DU?$char_traits@D@std@@V?$allocator@D@2@@std@@@Z 000000018006fec8     onig-reg-exp.obj
 0002:0003cef8       $unwind$??1OnigRegExp@@QEAA@XZ 000000018006fef8     onig-reg-exp.obj
 0002:0003cf10       $ip2state$??1OnigRegExp@@QEAA@XZ 000000018006ff10     onig-reg-exp.obj
 0002:0003cf18       $unwind$?Search@OnigRegExp@@QEAA?AV?$shared_ptr@VOnigResult@@@std@@PEAVOnigString@@H@Z 000000018006ff18     onig-reg-exp.obj
 0002:0003cf28       $chain$0$?Search@OnigRegExp@@QEAA?AV?$shared_ptr@VOnigResult@@@std@@PEAVOnigString@@H@Z 000000018006ff28     onig-reg-exp.obj
 0002:0003cf3c       $chain$1$?Search@OnigRegExp@@QEAA?AV?$shared_ptr@VOnigResult@@@std@@PEAVOnigString@@H@Z 000000018006ff3c     onig-reg-exp.obj
 0002:0003cf50       $chain$2$?Search@OnigRegExp@@QEAA?AV?$shared_ptr@VOnigResult@@@std@@PEAVOnigString@@H@Z 000000018006ff50     onig-reg-exp.obj
 0002:0003cf60       $chain$3$?Search@OnigRegExp@@QEAA?AV?$shared_ptr@VOnigResult@@@std@@PEAVOnigString@@H@Z 000000018006ff60     onig-reg-exp.obj
 0002:0003cf70       $unwind$?Search@OnigRegExp@@AEAA?AV?$shared_ptr@VOnigResult@@@std@@PEBD_K1@Z 000000018006ff70     onig-reg-exp.obj
 0002:0003cf8c       $stateUnwindMap$?Search@OnigRegExp@@AEAA?AV?$shared_ptr@VOnigResult@@@std@@PEBD_K1@Z 000000018006ff8c     onig-reg-exp.obj
 0002:0003cfb0       $ip2state$?Search@OnigRegExp@@AEAA?AV?$shared_ptr@VOnigResult@@@std@@PEBD_K1@Z 000000018006ffb0     onig-reg-exp.obj
 0002:0003cfe8       $unwind$?fin$0@?0???$?RV<lambda_fb3a7dec4e47f37f22dae91bb15c9095>@@AEAV<lambda_698284760c8add0bfb0756c19673e34b>@@V<lambda_dfb8eca1e75fef3034a8fb18dd509707>@@@?$__crt_seh_guarded_call@X@@QEAAX$$QEAV<lambda_fb3a7dec4e47f37f22dae91bb15c9095>@@AEAV<lambda_698284760c8add0bfb0756c19673e34b>@@$$QEAV<lambda_dfb8eca1e75fef3034a8fb18dd509707>@@@Z@4HA 000000018006ffe8     libucrt:per_thread_data.obj
 0002:0003cfe8       $unwind$?dtor$0@?0??FindNextMatchSync@OnigScanner@@AEAA?AV?$Local@VValue@v8@@@v8@@V?$Local@VString@v8@@@3@V?$Local@VNumber@v8@@@3@@Z@4HA 000000018006ffe8     onig-scanner.obj
 0002:0003cfe8       $unwind$?fin$0@?0???$?RV<lambda_b521505b218e5242e90febf6bfebc422>@@AEAV<lambda_6978c1fb23f02e42e1d9e99668cc68aa>@@V<lambda_314360699dd331753a4119843814e9a7>@@@?$__crt_seh_guarded_call@H@@QEAAH$$QEAV<lambda_b521505b218e5242e90febf6bfebc422>@@AEAV<lambda_6978c1fb23f02e42e1d9e99668cc68aa>@@$$QEAV<lambda_314360699dd331753a4119843814e9a7>@@@Z@4HA 000000018006ffe8     libucrt:commit.obj
 0002:0003cfe8       $unwind$?dtor$0@?0??Search@OnigSearcher@@QEAA?AV?$shared_ptr@VOnigResult@@@std@@PEAVOnigString@@H@Z@4HA 000000018006ffe8     onig-searcher.obj
 0002:0003cfe8       $unwind$common_flush_all$fin$0 000000018006ffe8     libucrt:fflush.obj
 0002:0003cfe8       $unwind$?dtor$7@?0???0OnigScanner@@AEAA@V?$Local@VArray@v8@@@v8@@@Z@4HA 000000018006ffe8     onig-scanner.obj
 0002:0003cfe8       $unwind$common_flush_all$fin$1 000000018006ffe8     libucrt:fflush.obj
 0002:0003cfe8       $unwind$?dtor$0@?0??FindNextMatch@OnigScanner@@AEAAXV?$Local@VString@v8@@@v8@@V?$Local@VNumber@v8@@@3@V?$Local@VFunction@v8@@@3@@Z@4HA 000000018006ffe8     onig-scanner.obj
 0002:0003cfe8       $unwind$?dtor$1@?0??FindNextMatch@OnigScanner@@AEAAXV?$Local@VString@v8@@@v8@@V?$Local@VNumber@v8@@@3@V?$Local@VFunction@v8@@@3@@Z@4HA 000000018006ffe8     onig-scanner.obj
 0002:0003cfe8       $unwind$?dtor$0@?0??New@OnigString@@CAXAEBV?$FunctionCallbackInfo@VValue@v8@@@Nan@@@Z@4HA 000000018006ffe8     onig-string.obj
 0002:0003cfe8       $unwind$__acrt_uninitialize_locale$fin$0 000000018006ffe8     libucrt:wsetlocale.obj
 0002:0003cfe8       $unwind$?fin$0@?0???$?RV<lambda_7a5ef57ff966f610505f1d28a3d40618>@@AEAV<lambda_b721fa326cdb32351d23dfa67958c160>@@V<lambda_5e0fb27672408a07956fe59e48ccb2aa>@@@?$__crt_seh_guarded_call@H@@QEAAH$$QEAV<lambda_7a5ef57ff966f610505f1d28a3d40618>@@AEAV<lambda_b721fa326cdb32351d23dfa67958c160>@@$$QEAV<lambda_5e0fb27672408a07956fe59e48ccb2aa>@@@Z@4HA 000000018006ffe8     libucrt:setvbuf.obj
 0002:0003cfe8       $unwind$fclose$fin$0       000000018006ffe8     libucrt:fclose.obj
 0002:0003cfe8       $unwind$_query_new_handler$fin$0 000000018006ffe8     libucrt:new_handler.obj
 0002:0003cfe8       $unwind$fflush$fin$0       000000018006ffe8     libucrt:fflush.obj
 0002:0003cfe8       $unwind$?fin$0@?0???$?RV<lambda_bfedae4ebbf01fab1bb6dcc6a9e276e0>@@AEAV<lambda_2fe9b910cf3cbf4a0ab98a02ba45b3ec>@@V<lambda_237c231691f317818eb88cc1d5d642d6>@@@?$__crt_seh_guarded_call@H@@QEAAH$$QEAV<lambda_bfedae4ebbf01fab1bb6dcc6a9e276e0>@@AEAV<lambda_2fe9b910cf3cbf4a0ab98a02ba45b3ec>@@$$QEAV<lambda_237c231691f317818eb88cc1d5d642d6>@@@Z@4HA 000000018006ffe8     libucrt:close.obj
 0002:0003cfe8       $unwind$?fin$1@?0??common_exit@@YAXHW4_crt_exit_cleanup_mode@@W4_crt_exit_return_mode@@@Z@4HA 000000018006ffe8     libucrt:exit.obj
 0002:0003cfe8       $unwind$__acrt_update_thread_locale_data$fin$0 000000018006ffe8     libucrt:locale_refcounting.obj
 0002:0003cfe8       $unwind$?filt$0@?0??common_exit@@YAXHW4_crt_exit_cleanup_mode@@W4_crt_exit_return_mode@@@Z@4HA 000000018006ffe8     libucrt:exit.obj
 0002:0003cfe8       $unwind$__acrt_initialize_lowio$fin$0 000000018006ffe8     libucrt:ioinit.obj
 0002:0003cfe8       $unwind$?dtor$5@?0???0OnigScannerWorker@@QEAA@PEAVCallback@Nan@@V?$vector@V?$shared_ptr@VOnigRegExp@@@std@@V?$allocator@V?$shared_ptr@VOnigRegExp@@@std@@@2@@std@@V?$Local@VString@v8@@@v8@@H@Z@4HA 000000018006ffe8     onig-scanner.obj
 0002:0003cfe8       $unwind$?fin$0@?0??dllmain_crt_process_attach@@YAHQEAUHINSTANCE__@@QEAX@Z@4HA 000000018006ffe8     LIBCMT:dll_dllmain.obj
 0002:0003cfe8       $unwind$_fcloseall$fin$0   000000018006ffe8     libucrt:closeall.obj
 0002:0003cfe8       $unwind$?fin$0@?0???$?RV<lambda_99476a1ad63dd22509b5d3e65b0ffc95>@@AEAV<lambda_ad1ced32f4ac17aa236e5ef05d6b3b7c>@@V<lambda_f7424dd8d45958661754dc4f2697e9c3>@@@?$__crt_seh_guarded_call@X@@QEAAX$$QEAV<lambda_99476a1ad63dd22509b5d3e65b0ffc95>@@AEAV<lambda_ad1ced32f4ac17aa236e5ef05d6b3b7c>@@$$QEAV<lambda_f7424dd8d45958661754dc4f2697e9c3>@@@Z@4HA 000000018006ffe8     libucrt:mbctype.obj
 0002:0003cfe8       $unwind$?fin$0@?0??dllmain_crt_process_detach@@YAH_N@Z@4HA 000000018006ffe8     LIBCMT:dll_dllmain.obj
 0002:0003cfe8       $unwind$?fin$0@?0???$?RV<lambda_7b91131dde12e1c3dfc74ff76b3f2eac>@@AEAV<lambda_dd75445284c072d0bd3768540cc698fa>@@V<lambda_16bc4ecb55b4718497c16bceaea2ceaf>@@@?$__crt_seh_guarded_call@H@@QEAAH$$QEAV<lambda_7b91131dde12e1c3dfc74ff76b3f2eac>@@AEAV<lambda_dd75445284c072d0bd3768540cc698fa>@@$$QEAV<lambda_16bc4ecb55b4718497c16bceaea2ceaf>@@@Z@4HA 000000018006ffe8     libucrt:output.obj
 0002:0003cfe8       $unwind$?dtor$4@?0???0OnigScannerWorker@@QEAA@PEAVCallback@Nan@@V?$vector@V?$shared_ptr@VOnigRegExp@@@std@@V?$allocator@V?$shared_ptr@VOnigRegExp@@@std@@@2@@std@@V?$Local@VString@v8@@@v8@@H@Z@4HA 000000018006ffe8     onig-scanner.obj
 0002:0003cfe8       $unwind$common_control87$filt$0 000000018006ffe8     libucrt:ieee.obj
 0002:0003cfe8       $unwind$?fin$0@?0???$?RV<lambda_46352004c1216016012b18bd6f87e700>@@AEAV<lambda_3bd07e1a1191394380780325891bf33f>@@V<lambda_334532d3f185bcaa59b5be82d7d22bff>@@@?$__crt_seh_guarded_call@X@@QEAAX$$QEAV<lambda_46352004c1216016012b18bd6f87e700>@@AEAV<lambda_3bd07e1a1191394380780325891bf33f>@@$$QEAV<lambda_334532d3f185bcaa59b5be82d7d22bff>@@@Z@4HA 000000018006ffe8     libucrt:per_thread_data.obj
 0002:0003cfe8       $unwind$?dtor$2@?0??Search@OnigRegExp@@AEAA?AV?$shared_ptr@VOnigResult@@@std@@PEBD_K1@Z@4HA 000000018006ffe8     onig-reg-exp.obj
 0002:0003cfe8       $unwind$?dtor$1@?0??Search@OnigRegExp@@AEAA?AV?$shared_ptr@VOnigResult@@@std@@PEBD_K1@Z@4HA 000000018006ffe8     onig-reg-exp.obj
 0002:0003cfe8       $unwind$?dtor$0@?0??Search@OnigRegExp@@AEAA?AV?$shared_ptr@VOnigResult@@@std@@PEBD_K1@Z@4HA 000000018006ffe8     onig-reg-exp.obj
 0002:0003cfe8       $unwind$__acrt_lowio_ensure_fh_exists$fin$0 000000018006ffe8     libucrt:osfinfo.obj
 0002:0003cfe8       $unwind$_write$fin$0       000000018006ffe8     libucrt:write.obj
 0002:0003cfe8       $unwind$_ctrlfp$filt$0     000000018006ffe8     libucrt:fpctrl.obj
 0002:0003cfe8       $unwind$__DestructExceptionObject$filt$0 000000018006ffe8     libvcruntime:frame.obj
 0002:0003cfe8       $unwind$__acrt_update_thread_multibyte_data$fin$0 000000018006ffe8     libucrt:mbctype.obj
 0002:0003cfe8       $unwind$?dtor$1@?0??New@OnigScanner@@CAXAEBV?$FunctionCallbackInfo@VValue@v8@@@Nan@@@Z@4HA 000000018006ffe8     onig-scanner.obj
 0002:0003cfe8       $unwind$?fin$0@?0???$?RV<lambda_5e887d1dcbef67a5eb4283622ba103bf>@@AEAV<lambda_4466841279450cc726390878d4a41900>@@V<lambda_341c25c0346d94847f1f3c463c57e077>@@@?$__crt_seh_guarded_call@X@@QEAAX$$QEAV<lambda_5e887d1dcbef67a5eb4283622ba103bf>@@AEAV<lambda_4466841279450cc726390878d4a41900>@@$$QEAV<lambda_341c25c0346d94847f1f3c463c57e077>@@@Z@4HA 000000018006ffe8     libucrt:per_thread_data.obj
 0002:0003cfe8       $unwind$?dtor$4@?0???0OnigScanner@@AEAA@V?$Local@VArray@v8@@@v8@@@Z@4HA 000000018006ffe8     onig-scanner.obj
 0002:0003cfe8       $unwind$__FrameUnwindToState$fin$1 000000018006ffe8     libvcruntime:frame.obj
 0002:0003cfe8       $unwind$__FrameUnwindToState$filt$0 000000018006ffe8     libvcruntime:frame.obj
 0002:0003cfe8       $unwind$?fin$0@?0???$?RV<lambda_e24bbb7b643b32fcea6fa61b31d4c984>@@AEAV<lambda_275893d493268fdec8709772e3fcec0e>@@V<lambda_9d71df4d7cf3f480f8d633942495c3b0>@@@?$__crt_seh_guarded_call@H@@QEAAH$$QEAV<lambda_e24bbb7b643b32fcea6fa61b31d4c984>@@AEAV<lambda_275893d493268fdec8709772e3fcec0e>@@$$QEAV<lambda_9d71df4d7cf3f480f8d633942495c3b0>@@@Z@4HA 000000018006ffe8     libucrt:onexit.obj
 0002:0003cfe8       $unwind$?dtor$5@?0???0OnigScanner@@AEAA@V?$Local@VArray@v8@@@v8@@@Z@4HA 000000018006ffe8     onig-scanner.obj
 0002:0003cfe8       $unwind$?fin$0@?0???$common_lseek@_J@@YA_JH_JH@Z@4HA 000000018006ffe8     libucrt:lseek.obj
 0002:0003cfe8       $unwind$?fin$0@?0???$?RV<lambda_b8c45f8f788dd370798f47cfe8ac3a86>@@AEAV<lambda_4e60a939b0d047cfe11ddc22648dfba9>@@V<lambda_332c3edc96d0294ec56c57d38c1cdfd5>@@@?$__crt_seh_guarded_call@H@@QEAAH$$QEAV<lambda_b8c45f8f788dd370798f47cfe8ac3a86>@@AEAV<lambda_4e60a939b0d047cfe11ddc22648dfba9>@@$$QEAV<lambda_332c3edc96d0294ec56c57d38c1cdfd5>@@@Z@4HA 000000018006ffe8     libucrt:onexit.obj
 0002:0003cfe8       $unwind$_IsNonwritableInCurrentImage$filt$0 000000018006ffe8     LIBCMT:pesect.obj
 0002:0003cfe8       $unwind$?fin$0@?0???$?RV<lambda_c36588078e9f5dfd39652860aa6b3aaf>@@AEAV<lambda_ec61778202f4f5fc7e7711acc23c3bca>@@V<lambda_dc9d2797ccde5d239b4a0efae8ebd7db>@@@?$__crt_seh_guarded_call@P6AXH@Z@@QEAAP6AXH@Z$$QEAV<lambda_c36588078e9f5dfd39652860aa6b3aaf>@@AEAV<lambda_ec61778202f4f5fc7e7711acc23c3bca>@@$$QEAV<lambda_dc9d2797ccde5d239b4a0efae8ebd7db>@@@Z@4HA 000000018006ffe8     libucrt:signal.obj
 0002:0003cfe8       $unwind$raise$fin$0        000000018006ffe8     libucrt:signal.obj
 0002:0003cfe8       $unwind$__CxxCallCatchBlock$filt$0 000000018006ffe8     libvcruntime:frame.obj
 0002:0003cfe8       $unwind$?fin$0@?0???$?RV<lambda_72d1df2b273a38828b1ce30cbf4cdab5>@@AEAV<lambda_876a65b173b8412d3a47c70a915b0cf4>@@V<lambda_41932305e351933ebe8f8be3ed8bb5dc>@@@?$__crt_seh_guarded_call@X@@QEAAX$$QEAV<lambda_72d1df2b273a38828b1ce30cbf4cdab5>@@AEAV<lambda_876a65b173b8412d3a47c70a915b0cf4>@@$$QEAV<lambda_41932305e351933ebe8f8be3ed8bb5dc>@@@Z@4HA 000000018006ffe8     libucrt:per_thread_data.obj
 0002:0003cff0       $chain$0$??1?$shared_ptr@VOnigSearcher@@@std@@QEAA@XZ 000000018006fff0     onig-scanner.obj
 0002:0003cff0       $chain$0$??1?$shared_ptr@VOnigResult@@@std@@QEAA@XZ 000000018006fff0     onig-reg-exp.obj
 0002:0003d004       $chain$1$??1?$shared_ptr@VOnigResult@@@std@@QEAA@XZ 0000000180070004     onig-reg-exp.obj
 0002:0003d004       $chain$1$??1?$shared_ptr@VOnigSearcher@@@std@@QEAA@XZ 0000000180070004     onig-scanner.obj
 0002:0003d014       $unwind$??4?$shared_ptr@VOnigSearcher@@@std@@QEAAAEAV01@$$QEAV01@@Z 0000000180070014     onig-scanner.obj
 0002:0003d014       $unwind$??4?$shared_ptr@VOnigResult@@@std@@QEAAAEAV01@$$QEAV01@@Z 0000000180070014     onig-reg-exp.obj
 0002:0003d01c       $chain$0$??4?$shared_ptr@VOnigResult@@@std@@QEAAAEAV01@$$QEAV01@@Z 000000018007001c     onig-reg-exp.obj
 0002:0003d01c       $chain$0$??4?$shared_ptr@VOnigSearcher@@@std@@QEAAAEAV01@$$QEAV01@@Z 000000018007001c     onig-scanner.obj
 0002:0003d030       $chain$1$??4?$shared_ptr@VOnigResult@@@std@@QEAAAEAV01@$$QEAV01@@Z 0000000180070030     onig-reg-exp.obj
 0002:0003d030       $chain$1$??4?$shared_ptr@VOnigSearcher@@@std@@QEAAAEAV01@$$QEAV01@@Z 0000000180070030     onig-scanner.obj
 0002:0003d044       $chain$2$??4?$shared_ptr@VOnigSearcher@@@std@@QEAAAEAV01@$$QEAV01@@Z 0000000180070044     onig-scanner.obj
 0002:0003d044       $chain$2$??4?$shared_ptr@VOnigResult@@@std@@QEAAAEAV01@$$QEAV01@@Z 0000000180070044     onig-reg-exp.obj
 0002:0003d054       $chain$3$??4?$shared_ptr@VOnigSearcher@@@std@@QEAAAEAV01@$$QEAV01@@Z 0000000180070054     onig-scanner.obj
 0002:0003d054       $chain$3$??4?$shared_ptr@VOnigResult@@@std@@QEAAAEAV01@$$QEAV01@@Z 0000000180070054     onig-reg-exp.obj
 0002:0003d064       $unwind$__std_exception_copy 0000000180070064     libvcruntime:std_exception.obj
 0002:0003d064       $unwind$_free_osfhnd       0000000180070064     libucrt:osfinfo.obj
 0002:0003d064       $unwind$?assign@?$basic_string@DU?$char_traits@D@std@@V?$allocator@D@2@@std@@QEAAAEAV12@AEBV12@_K1@Z 0000000180070064     onig-reg-exp.obj
 0002:0003d064       $unwind$?initialize_stdio_handles_nolock@@YAXXZ 0000000180070064     libucrt:ioinit.obj
 0002:0003d078       $unwind$?erase@?$basic_string@DU?$char_traits@D@std@@V?$allocator@D@2@@std@@QEAAAEAV12@_K0@Z 0000000180070078     onig-reg-exp.obj
 0002:0003d078       $unwind$?internal_isupper_l@@YA_NHQEAU__crt_locale_pointers@@@Z 0000000180070078     libucrt:tolower_toupper.obj
 0002:0003d078       $unwind$__acrt_uninitialize_lowio 0000000180070078     libucrt:ioinit.obj
 0002:0003d078       $unwind$onig_is_code_in_cc 0000000180070078     oniguruma:regcomp.obj
 0002:0003d078       $unwind$quantifiers_memory_node_info 0000000180070078     oniguruma:regcomp.obj
 0002:0003d078       $unwind$node_new_enclose_memory 0000000180070078     oniguruma:regparse.obj
 0002:0003d078       $unwind$_callnewh          0000000180070078     libucrt:new_handler.obj
 0002:0003d078       $unwind$_fclose_nolock     0000000180070078     libucrt:fclose.obj
 0002:0003d078       $unwind$__acrt_FlsAlloc    0000000180070078     libucrt:winapi_thunks.obj
 0002:0003d078       $unwind$??_Gbad_exception@std@@UEAAPEAXI@Z 0000000180070078     libvcruntime:frame.obj
 0002:0003d078       $unwind$??$common_xtox@K_W@@YAHKQEA_W_KI_N@Z 0000000180070078     libucrt:xtoa.obj
 0002:0003d078       $unwind$__acrt_getptd      0000000180070078     libucrt:per_thread_data.obj
 0002:0003d078       $unwind$??0_LocaleUpdate@@QEAA@QEAU__crt_locale_pointers@@@Z 0000000180070078     libucrt:stricmp.obj
 0002:0003d078       $unwind$subexp_inf_recursive_check_trav 0000000180070078     oniguruma:regcomp.obj
 0002:0003d078       $unwind$?type_case_c_tchar@?$output_processor@DV?$string_output_adapter@D@__crt_stdio_output@@V?$standard_base@DV?$string_output_adapter@D@__crt_stdio_output@@@2@@__crt_stdio_output@@AEAA_ND@Z 0000000180070078     libucrt:output.obj
 0002:0003d078       $unwind$strncpy_s          0000000180070078     libucrt:strncpy_s.obj
 0002:0003d078       $unwind$__acrt_errno_map_os_error 0000000180070078     libucrt:errno.obj
 0002:0003d078       $unwind$select_opt_exact_info 0000000180070078     oniguruma:regcomp.obj
 0002:0003d078       $unwind$wcsncat_s          0000000180070078     libucrt:wcsncat_s.obj
 0002:0003d078       $unwind$__acrt_FlsFree     0000000180070078     libucrt:winapi_thunks.obj
 0002:0003d078       $unwind$??_Gexception@std@@UEAAPEAXI@Z 0000000180070078     libcpmt:xthrow.obj
 0002:0003d078       $unwind$__acrt_invoke_user_matherr 0000000180070078     libucrt:matherr.obj
 0002:0003d078       $unwind$??_Glogic_error@std@@UEAAPEAXI@Z 0000000180070078     libcpmt:xthrow.obj
 0002:0003d078       $unwind$??_Gbad_array_new_length@std@@UEAAPEAXI@Z 0000000180070078     LIBCMT:throw_bad_alloc.obj
 0002:0003d078       $unwind$__vcrt_FlsAlloc    0000000180070078     libvcruntime:winapi_downlevel.obj
 0002:0003d078       $unwind$_close_nolock      0000000180070078     libucrt:close.obj
 0002:0003d078       $unwind$??_Glength_error@std@@UEAAPEAXI@Z 0000000180070078     libcpmt:xthrow.obj
 0002:0003d078       $unwind$__vcrt_FlsFree     0000000180070078     libvcruntime:winapi_downlevel.obj
 0002:0003d078       $unwind$?force_decimal_point@__crt_stdio_output@@YAXPEADQEAU__crt_locale_pointers@@@Z 0000000180070078     libucrt:output.obj
 0002:0003d078       $unwind$?ExFilterRethrow@@YAHPEAU_EXCEPTION_POINTERS@@PEAUEHExceptionRecord@@PEAH@Z 0000000180070078     libvcruntime:frame.obj
 0002:0003d078       $unwind$select_opt_map_info 0000000180070078     oniguruma:regcomp.obj
 0002:0003d078       $unwind$__acrt_get_parent_window 0000000180070078     libucrt:winapi_thunks.obj
 0002:0003d078       $unwind$onig_node_new_alt  0000000180070078     oniguruma:regparse.obj
 0002:0003d078       $unwind$renumber_by_map    0000000180070078     oniguruma:regcomp.obj
 0002:0003d078       $unwind$subexp_recursive_check 0000000180070078     oniguruma:regcomp.obj
 0002:0003d078       $unwind$?DloadGetSRWLockFunctionPointers@@YAEXZ 0000000180070078     DelayImp:delayhlp.obj
 0002:0003d078       $unwind$??_GAsyncWorker@Nan@@UEAAPEAXI@Z 0000000180070078     onig-scanner.obj
 0002:0003d078       $unwind$onig_region_clear  0000000180070078     oniguruma:regexec.obj
 0002:0003d078       $unwind$?try_cor_exit_process@@YAXI@Z 0000000180070078     libucrt:exit.obj
 0002:0003d078       $unwind$_FindAndUnlinkFrame 0000000180070078     libvcruntime:trnsctrl.obj
 0002:0003d078       $unwind$??_GOnigString@@UEAAPEAXI@Z 0000000180070078     onig-string.obj
 0002:0003d078       $unwind$onig_node_list_add 0000000180070078     oniguruma:regparse.obj
 0002:0003d078       $unwind$??_GObjectWrap@node@@UEAAPEAXI@Z 0000000180070078     onig-scanner.obj
 0002:0003d078       $unwind$_realloc_base      0000000180070078     libucrt:realloc_base.obj
 0002:0003d078       $unwind$??_GOnigScannerWorker@@UEAAPEAXI@Z 0000000180070078     onig-scanner.obj
 0002:0003d078       $unwind$?DloadAcquireSectionWriteAccess@@YAXXZ 0000000180070078     DelayImp:delayhlp.obj
 0002:0003d078       $unwind$i_free_name_entry  0000000180070078     oniguruma:regparse.obj
 0002:0003d078       $unwind$??_Gbad_alloc@std@@UEAAPEAXI@Z 0000000180070078     libcpmt:xthrow.obj
 0002:0003d078       $unwind$??_Gout_of_range@std@@UEAAPEAXI@Z 0000000180070078     libcpmt:xthrow.obj
 0002:0003d078       $unwind$onig_st_init_strend_table_with_size 0000000180070078     oniguruma:regparse.obj
 0002:0003d078       $unwind$new_code_range     0000000180070078     oniguruma:regparse.obj
 0002:0003d078       $unwind$__vcrt_FlsGetValue 0000000180070078     libvcruntime:winapi_downlevel.obj
 0002:0003d078       $unwind$_updatetlocinfoEx_nolock 0000000180070078     libucrt:locale_refcounting.obj
 0002:0003d078       $unwind$__acrt_stdio_begin_temporary_buffering_nolock 0000000180070078     libucrt:_sftbuf.obj
 0002:0003d078       $unwind$?__SetUnwindTryBlock@@YAXPEA_KPEAU_xDISPATCHER_CONTEXT@@PEBU_s_FuncInfo@@H@Z 0000000180070078     libvcruntime:ehstate.obj
 0002:0003d078       $unwind$??_GOnigScanner@@EEAAPEAXI@Z 0000000180070078     onig-scanner.obj
 0002:0003d078       $unwind$__acrt_FlsGetValue 0000000180070078     libucrt:winapi_thunks.obj
 0002:0003d078       $unwind$?replace_current_thread_locale_nolock@@YAXQEAU__acrt_ptd@@QEAU__crt_locale_data@@@Z 0000000180070078     libucrt:per_thread_data.obj
 0002:0003d078       $unwind$??$common_initialize_environment_nolock@D@@YAHXZ 0000000180070078     libucrt:environment_initialization.obj
 0002:0003d084       $unwind$?_Copy@?$basic_string@DU?$char_traits@D@std@@V?$allocator@D@2@@std@@QEAAX_K0@Z 0000000180070084     onig-reg-exp.obj
 0002:0003d098       $unwind$?parse_int_from_format_string@?$output_processor@_WV?$string_output_adapter@_W@__crt_stdio_output@@V?$standard_base@_WV?$string_output_adapter@_W@__crt_stdio_output@@@2@@__crt_stdio_output@@AEAA_NQEAH@Z 0000000180070098     libucrt:output.obj
 0002:0003d098       $unwind$?_Reset0@?$_Ptr_base@VOnigRegExp@@@std@@QEAAXPEAVOnigRegExp@@PEAV_Ref_count_base@2@@Z 0000000180070098     onig-scanner.obj
 0002:0003d098       $unwind$?parse_int_from_format_string@?$output_processor@_WV?$stream_output_adapter@_W@__crt_stdio_output@@V?$standard_base@_WV?$stream_output_adapter@_W@__crt_stdio_output@@@2@@__crt_stdio_output@@AEAA_NQEAH@Z 0000000180070098     libucrt:output.obj
 0002:0003d098       $unwind$?_Reset0@?$_Ptr_base@VOnigResult@@@std@@QEAAXPEAVOnigResult@@PEAV_Ref_count_base@2@@Z 0000000180070098     onig-reg-exp.obj
 0002:0003d098       $unwind$setup_subexp_call  0000000180070098     oniguruma:regcomp.obj
 0002:0003d0ac       $chain$0$?_Reset0@?$_Ptr_base@VOnigResult@@@std@@QEAAXPEAVOnigResult@@PEAV_Ref_count_base@2@@Z 00000001800700ac     onig-reg-exp.obj
 0002:0003d0ac       $chain$0$?_Reset0@?$_Ptr_base@VOnigRegExp@@@std@@QEAAXPEAVOnigRegExp@@PEAV_Ref_count_base@2@@Z 00000001800700ac     onig-scanner.obj
 0002:0003d0c0       $chain$3$?_Reset0@?$_Ptr_base@VOnigRegExp@@@std@@QEAAXPEAVOnigRegExp@@PEAV_Ref_count_base@2@@Z 00000001800700c0     onig-scanner.obj
 0002:0003d0c0       $chain$1$?_Reset0@?$_Ptr_base@VOnigResult@@@std@@QEAAXPEAVOnigResult@@PEAV_Ref_count_base@2@@Z 00000001800700c0     onig-reg-exp.obj
 0002:0003d0c0       $chain$3$?_Reset0@?$_Ptr_base@VOnigResult@@@std@@QEAAXPEAVOnigResult@@PEAV_Ref_count_base@2@@Z 00000001800700c0     onig-reg-exp.obj
 0002:0003d0c0       $chain$1$?_Reset0@?$_Ptr_base@VOnigRegExp@@@std@@QEAAXPEAVOnigRegExp@@PEAV_Ref_count_base@2@@Z 00000001800700c0     onig-scanner.obj
 0002:0003d0d0       $chain$2$?_Reset0@?$_Ptr_base@VOnigResult@@@std@@QEAAXPEAVOnigResult@@PEAV_Ref_count_base@2@@Z 00000001800700d0     onig-reg-exp.obj
 0002:0003d0d0       $chain$2$?_Reset0@?$_Ptr_base@VOnigRegExp@@@std@@QEAAXPEAVOnigRegExp@@PEAV_Ref_count_base@2@@Z 00000001800700d0     onig-scanner.obj
 0002:0003d0e4       $unwind$??1ObjectWrap@node@@UEAA@XZ 00000001800700e4     onig-scanner.obj
 0002:0003d0f4       $stateUnwindMap$??1ObjectWrap@node@@UEAA@XZ 00000001800700f4     onig-scanner.obj
 0002:0003d0f4       $stateUnwindMap$??1?$Persistent@VObject@v8@@V?$NonCopyablePersistentTraits@VObject@v8@@@2@@Nan@@QEAA@XZ 00000001800700f4     onig-scanner.obj
 0002:0003d100       $ip2state$??1ObjectWrap@node@@UEAA@XZ 0000000180070100     onig-scanner.obj
 0002:0003d108       $unwind$??$free_environment@_W@@YAXQEAPEA_W@Z 0000000180070108     libucrt:environment_initialization.obj
 0002:0003d108       $unwind$??$free_environment@D@@YAXQEAPEAD@Z 0000000180070108     libucrt:environment_initialization.obj
 0002:0003d108       $unwind$?Wrap@ObjectWrap@node@@IEAAXV?$Local@VObject@v8@@@v8@@@Z 0000000180070108     onig-scanner.obj
 0002:0003d114       $unwind$?FunctionCallbackWrapper@imp@Nan@@YAXAEBV?$FunctionCallbackInfo@VValue@v8@@@v8@@@Z 0000000180070114     onig-scanner.obj
 0002:0003d124       $unwind$?NewInstance@Nan@@YA?AV?$MaybeLocal@VObject@v8@@@v8@@V?$Local@VObjectTemplate@v8@@@3@@Z 0000000180070124     onig-scanner.obj
 0002:0003d138       $stateUnwindMap$?NewInstance@Nan@@YA?AV?$MaybeLocal@VObject@v8@@@v8@@V?$Local@VObjectTemplate@v8@@@3@@Z 0000000180070138     onig-scanner.obj
 0002:0003d140       $ip2state$?NewInstance@Nan@@YA?AV?$MaybeLocal@VObject@v8@@@v8@@V?$Local@VObjectTemplate@v8@@@3@@Z 0000000180070140     onig-scanner.obj
 0002:0003d158       $unwind$?New@?$Factory@VFunctionTemplate@v8@@@imp@Nan@@SA?AV?$Local@VFunctionTemplate@v8@@@v8@@P6AXAEBV?$FunctionCallbackInfo@VValue@v8@@@3@@ZV?$Local@VValue@v8@@@5@V?$Local@VSignature@v8@@@5@@Z 0000000180070158     onig-scanner.obj
 0002:0003d170       $stateUnwindMap$?New@?$Factory@VFunctionTemplate@v8@@@imp@Nan@@SA?AV?$Local@VFunctionTemplate@v8@@@v8@@P6AXAEBV?$FunctionCallbackInfo@VValue@v8@@@3@@ZV?$Local@VValue@v8@@@5@V?$Local@VSignature@v8@@@5@@Z 0000000180070170     onig-scanner.obj
 0002:0003d170       $stateUnwindMap$?Call@Callback@Nan@@QEBA?AV?$Local@VValue@v8@@@v8@@HQEAV34@@Z 0000000180070170     onig-scanner.obj
 0002:0003d178       $ip2state$?New@?$Factory@VFunctionTemplate@v8@@@imp@Nan@@SA?AV?$Local@VFunctionTemplate@v8@@@v8@@P6AXAEBV?$FunctionCallbackInfo@VValue@v8@@@3@@ZV?$Local@VValue@v8@@@5@V?$Local@VSignature@v8@@@5@@Z 0000000180070178     onig-scanner.obj
 0002:0003d190       $unwind$?Call@Callback@Nan@@QEBA?AV?$Local@VValue@v8@@@v8@@HQEAV34@@Z 0000000180070190     onig-scanner.obj
 0002:0003d1b0       $ip2state$?Call@Callback@Nan@@QEBA?AV?$Local@VValue@v8@@@v8@@HQEAV34@@Z 00000001800701b0     onig-scanner.obj
 0002:0003d1c8       $unwind$?Call_@Callback@Nan@@AEBA?AV?$Local@VValue@v8@@@v8@@PEAVIsolate@4@V?$Local@VObject@v8@@@4@HQEAV34@@Z 00000001800701c8     onig-scanner.obj
 0002:0003d1e0       $stateUnwindMap$?ThrowTypeError@Nan@@YAXPEBD@Z 00000001800701e0     onig-string.obj
 0002:0003d1e0       $stateUnwindMap$?HandleErrorCallback@AsyncWorker@Nan@@MEAAXXZ 00000001800701e0     onig-scanner.obj
 0002:0003d1e0       $stateUnwindMap$?Call_@Callback@Nan@@AEBA?AV?$Local@VValue@v8@@@v8@@PEAVIsolate@4@V?$Local@VObject@v8@@@4@HQEAV34@@Z 00000001800701e0     onig-scanner.obj
 0002:0003d1e8       $ip2state$?Call_@Callback@Nan@@AEBA?AV?$Local@VValue@v8@@@v8@@PEAVIsolate@4@V?$Local@VObject@v8@@@4@HQEAV34@@Z 00000001800701e8     onig-scanner.obj
 0002:0003d200       $unwind$??0AsyncWorker@Nan@@QEAA@PEAVCallback@1@@Z 0000000180070200     onig-scanner.obj
 0002:0003d214       $stateUnwindMap$??0AsyncWorker@Nan@@QEAA@PEAVCallback@1@@Z 0000000180070214     onig-scanner.obj
 0002:0003d228       $ip2state$??0AsyncWorker@Nan@@QEAA@PEAVCallback@1@@Z 0000000180070228     onig-scanner.obj
 0002:0003d250       $unwind$??1AsyncWorker@Nan@@UEAA@XZ 0000000180070250     onig-scanner.obj
 0002:0003d264       $stateUnwindMap$??1AsyncWorker@Nan@@UEAA@XZ 0000000180070264     onig-scanner.obj
 0002:0003d278       $ip2state$??1AsyncWorker@Nan@@UEAA@XZ 0000000180070278     onig-scanner.obj
 0002:0003d290       $unwind$?WorkComplete@AsyncWorker@Nan@@UEAAXXZ 0000000180070290     onig-scanner.obj
 0002:0003d2a4       $stateUnwindMap$?WorkComplete@AsyncWorker@Nan@@UEAAXXZ 00000001800702a4     onig-scanner.obj
 0002:0003d2c0       $ip2state$?WorkComplete@AsyncWorker@Nan@@UEAAXXZ 00000001800702c0     onig-scanner.obj
 0002:0003d2e8       $unwind$?HandleOKCallback@AsyncWorker@Nan@@MEAAXXZ 00000001800702e8     onig-scanner.obj
 0002:0003d2f8       $stateUnwindMap$?FindNextMatch@OnigScanner@@CAXAEBV?$FunctionCallbackInfo@VValue@v8@@@Nan@@@Z 00000001800702f8     onig-scanner.obj
 0002:0003d2f8       $stateUnwindMap$?HandleOKCallback@AsyncWorker@Nan@@MEAAXXZ 00000001800702f8     onig-scanner.obj
 0002:0003d2f8       $stateUnwindMap$?FindNextMatchSync@OnigScanner@@CAXAEBV?$FunctionCallbackInfo@VValue@v8@@@Nan@@@Z 00000001800702f8     onig-scanner.obj
 0002:0003d300       $ip2state$?HandleOKCallback@AsyncWorker@Nan@@MEAAXXZ 0000000180070300     onig-scanner.obj
 0002:0003d318       $unwind$?HandleErrorCallback@AsyncWorker@Nan@@MEAAXXZ 0000000180070318     onig-scanner.obj
 0002:0003d330       $ip2state$?HandleErrorCallback@AsyncWorker@Nan@@MEAAXXZ 0000000180070330     onig-scanner.obj
 0002:0003d348       $unwind$??1?$Persistent@VObject@v8@@V?$NonCopyablePersistentTraits@VObject@v8@@@2@@Nan@@QEAA@XZ 0000000180070348     onig-scanner.obj
 0002:0003d358       $ip2state$??1?$Persistent@VObject@v8@@V?$NonCopyablePersistentTraits@VObject@v8@@@2@@Nan@@QEAA@XZ 0000000180070358     onig-scanner.obj
 0002:0003d360       $unwind$??0OnigScannerWorker@@QEAA@PEAVCallback@Nan@@V?$vector@V?$shared_ptr@VOnigRegExp@@@std@@V?$allocator@V?$shared_ptr@VOnigRegExp@@@std@@@2@@std@@V?$Local@VString@v8@@@v8@@H@Z 0000000180070360     onig-scanner.obj
 0002:0003d378       $stateUnwindMap$??0OnigScannerWorker@@QEAA@PEAVCallback@Nan@@V?$vector@V?$shared_ptr@VOnigRegExp@@@std@@V?$allocator@V?$shared_ptr@VOnigRegExp@@@std@@@2@@std@@V?$Local@VString@v8@@@v8@@H@Z 0000000180070378     onig-scanner.obj
 0002:0003d3b0       $ip2state$??0OnigScannerWorker@@QEAA@PEAVCallback@Nan@@V?$vector@V?$shared_ptr@VOnigRegExp@@@std@@V?$allocator@V?$shared_ptr@VOnigRegExp@@@std@@@2@@std@@V?$Local@VString@v8@@@v8@@H@Z 00000001800703b0     onig-scanner.obj
 0002:0003d410       $unwind$??1OnigScannerWorker@@UEAA@XZ 0000000180070410     onig-scanner.obj
 0002:0003d428       $ip2state$??1OnigScannerWorker@@UEAA@XZ 0000000180070428     onig-scanner.obj
 0002:0003d430       $unwind$?Init@OnigScanner@@SAXV?$Local@VObject@v8@@@v8@@@Z 0000000180070430     onig-scanner.obj
 0002:0003d43c       $unwind$??$Unwrap@VOnigString@@@ObjectWrap@node@@SAPEAVOnigString@@V?$Local@VObject@v8@@@v8@@@Z 000000018007043c     onig-scanner.obj
 0002:0003d43c       $unwind$??$Unwrap@VOnigScanner@@@ObjectWrap@node@@SAPEAVOnigScanner@@V?$Local@VObject@v8@@@v8@@@Z 000000018007043c     onig-scanner.obj
 0002:0003d43c       $unwind$?InitModule@@YAXV?$Local@VObject@v8@@@v8@@@Z 000000018007043c     onig-scanner.obj
 0002:0003d444       $unwind$?New@OnigScanner@@CAXAEBV?$FunctionCallbackInfo@VValue@v8@@@Nan@@@Z 0000000180070444     onig-scanner.obj
 0002:0003d454       $stateUnwindMap$?New@OnigScanner@@CAXAEBV?$FunctionCallbackInfo@VValue@v8@@@Nan@@@Z 0000000180070454     onig-scanner.obj
 0002:0003d468       $ip2state$?New@OnigScanner@@CAXAEBV?$FunctionCallbackInfo@VValue@v8@@@Nan@@@Z 0000000180070468     onig-scanner.obj
 0002:0003d490       $unwind$?FindNextMatchSync@OnigScanner@@CAXAEBV?$FunctionCallbackInfo@VValue@v8@@@Nan@@@Z 0000000180070490     onig-scanner.obj
 0002:0003d4a8       $ip2state$?FindNextMatchSync@OnigScanner@@CAXAEBV?$FunctionCallbackInfo@VValue@v8@@@Nan@@@Z 00000001800704a8     onig-scanner.obj
 0002:0003d4c0       $unwind$?FindNextMatch@OnigScanner@@CAXAEBV?$FunctionCallbackInfo@VValue@v8@@@Nan@@@Z 00000001800704c0     onig-scanner.obj
 0002:0003d4d0       $ip2state$?FindNextMatch@OnigScanner@@CAXAEBV?$FunctionCallbackInfo@VValue@v8@@@Nan@@@Z 00000001800704d0     onig-scanner.obj
 0002:0003d4e8       $unwind$??0OnigScanner@@AEAA@V?$Local@VArray@v8@@@v8@@@Z 00000001800704e8     onig-scanner.obj
 0002:0003d510       $stateUnwindMap$??0OnigScanner@@AEAA@V?$Local@VArray@v8@@@v8@@@Z 0000000180070510     onig-scanner.obj
 0002:0003d560       $ip2state$??0OnigScanner@@AEAA@V?$Local@VArray@v8@@@v8@@@Z 0000000180070560     onig-scanner.obj
 0002:0003d5e8       $unwind$??1OnigScanner@@EEAA@XZ 00000001800705e8     onig-scanner.obj
 0002:0003d600       $ip2state$??1OnigScanner@@EEAA@XZ 0000000180070600     onig-scanner.obj
 0002:0003d608       $unwind$?FindNextMatch@OnigScanner@@AEAAXV?$Local@VString@v8@@@v8@@V?$Local@VNumber@v8@@@3@V?$Local@VFunction@v8@@@3@@Z 0000000180070608     onig-scanner.obj
 0002:0003d620       $stateUnwindMap$?FindNextMatch@OnigScanner@@AEAAXV?$Local@VString@v8@@@v8@@V?$Local@VNumber@v8@@@3@V?$Local@VFunction@v8@@@3@@Z 0000000180070620     onig-scanner.obj
 0002:0003d630       $ip2state$?FindNextMatch@OnigScanner@@AEAAXV?$Local@VString@v8@@@v8@@V?$Local@VNumber@v8@@@3@V?$Local@VFunction@v8@@@3@@Z 0000000180070630     onig-scanner.obj
 0002:0003d658       $unwind$?FindNextMatchSync@OnigScanner@@AEAA?AV?$Local@VValue@v8@@@v8@@V?$Local@VString@v8@@@3@V?$Local@VNumber@v8@@@3@@Z 0000000180070658     onig-scanner.obj
 0002:0003d66c       $stateUnwindMap$?FindNextMatchSync@OnigScanner@@AEAA?AV?$Local@VValue@v8@@@v8@@V?$Local@VString@v8@@@3@V?$Local@VNumber@v8@@@3@@Z 000000018007066c     onig-scanner.obj
 0002:0003d678       $ip2state$?FindNextMatchSync@OnigScanner@@AEAA?AV?$Local@VValue@v8@@@v8@@V?$Local@VString@v8@@@3@V?$Local@VNumber@v8@@@3@@Z 0000000180070678     onig-scanner.obj
 0002:0003d690       $unwind$?FindNextMatchSync@OnigScanner@@AEAA?AV?$Local@VValue@v8@@@v8@@PEAVOnigString@@V?$Local@VNumber@v8@@@3@@Z 0000000180070690     onig-scanner.obj
 0002:0003d6b8       $stateUnwindMap$?FindNextMatchSync@OnigScanner@@AEAA?AV?$Local@VValue@v8@@@v8@@PEAVOnigString@@V?$Local@VNumber@v8@@@3@@Z 00000001800706b8     onig-scanner.obj
 0002:0003d6c0       $ip2state$?FindNextMatchSync@OnigScanner@@AEAA?AV?$Local@VValue@v8@@@v8@@PEAVOnigString@@V?$Local@VNumber@v8@@@3@@Z 00000001800706c0     onig-scanner.obj
 0002:0003d6e8       $unwind$?CaptureIndicesForMatch@OnigScanner@@CA?AV?$Local@VValue@v8@@@v8@@PEAVOnigResult@@PEAVOnigString@@@Z 00000001800706e8     onig-scanner.obj
 0002:0003d700       $chain$1$?CaptureIndicesForMatch@OnigScanner@@CA?AV?$Local@VValue@v8@@@v8@@PEAVOnigResult@@PEAVOnigString@@@Z 0000000180070700     onig-scanner.obj
 0002:0003d718       $chain$2$?CaptureIndicesForMatch@OnigScanner@@CA?AV?$Local@VValue@v8@@@v8@@PEAVOnigResult@@PEAVOnigString@@@Z 0000000180070718     onig-scanner.obj
 0002:0003d728       $unwind$node_new_str_raw_char 0000000180070728     oniguruma:regparse.obj
 0002:0003d728       $unwind$iswctype           0000000180070728     libucrt:iswctype.obj
 0002:0003d728       $unwind$compile_anchor_node 0000000180070728     oniguruma:regcomp.obj
 0002:0003d728       $unwind$setup_look_behind  0000000180070728     oniguruma:regcomp.obj
 0002:0003d728       $unwind$?resize@?$vector@V?$shared_ptr@VOnigRegExp@@@std@@V?$allocator@V?$shared_ptr@VOnigRegExp@@@std@@@2@@std@@QEAAX_K@Z 0000000180070728     onig-scanner.obj
 0002:0003d728       $unwind$__acrt_is_packaged_app 0000000180070728     libucrt:winapi_thunks.obj
 0002:0003d734       $chain$0$?resize@?$vector@V?$shared_ptr@VOnigRegExp@@@std@@V?$allocator@V?$shared_ptr@VOnigRegExp@@@std@@@2@@std@@QEAAX_K@Z 0000000180070734     onig-scanner.obj
 0002:0003d748       $chain$1$?resize@?$vector@V?$shared_ptr@VOnigRegExp@@@std@@V?$allocator@V?$shared_ptr@VOnigRegExp@@@std@@@2@@std@@QEAAX_K@Z 0000000180070748     onig-scanner.obj
 0002:0003d758       $chain$2$?resize@?$vector@V?$shared_ptr@VOnigRegExp@@@std@@V?$allocator@V?$shared_ptr@VOnigRegExp@@@std@@@2@@std@@QEAAX_K@Z 0000000180070758     onig-scanner.obj
 0002:0003d76c       $unwind$??R<lambda_ad1ced32f4ac17aa236e5ef05d6b3b7c>@@QEBAXXZ 000000018007076c     libucrt:mbctype.obj
 0002:0003d76c       $unwind$_DllMainCRTStartup 000000018007076c     LIBCMT:dll_dllmain.obj
 0002:0003d76c       $unwind$?type_case_n@?$output_processor@DV?$string_output_adapter@D@__crt_stdio_output@@V?$standard_base@DV?$string_output_adapter@D@__crt_stdio_output@@@2@@__crt_stdio_output@@AEAA_NXZ 000000018007076c     libucrt:output.obj
 0002:0003d76c       $unwind$expand_case_fold_make_rem_string 000000018007076c     oniguruma:regcomp.obj
 0002:0003d76c       $unwind$next_setup         000000018007076c     oniguruma:regcomp.obj
 0002:0003d76c       $unwind$_exception_enabled 000000018007076c     libucrt:libm_error.obj
 0002:0003d76c       $unwind$onigenc_get_right_adjust_char_head 000000018007076c     oniguruma:regenc.obj
 0002:0003d76c       $unwind$__acrt_stdio_flush_nolock 000000018007076c     libucrt:fflush.obj
 0002:0003d76c       $unwind$?type_case_s@?$output_processor@DV?$string_output_adapter@D@__crt_stdio_output@@V?$standard_base@DV?$string_output_adapter@D@__crt_stdio_output@@@2@@__crt_stdio_output@@AEAA_NXZ 000000018007076c     libucrt:output.obj
 0002:0003d76c       $unwind$_RTC_Terminate     000000018007076c     LIBCMT:_initsect_.obj
 0002:0003d76c       $unwind$?type_case_Z@?$output_processor@DV?$string_output_adapter@D@__crt_stdio_output@@V?$standard_base@DV?$string_output_adapter@D@__crt_stdio_output@@@2@@__crt_stdio_output@@AEAA_NXZ 000000018007076c     libucrt:output.obj
 0002:0003d76c       $unwind$subexp_recursive_check_trav 000000018007076c     oniguruma:regcomp.obj
 0002:0003d76c       $unwind$bbuf_clone         000000018007076c     oniguruma:regparse.obj
 0002:0003d76c       $unwind$?type_case_Z@?$output_processor@_WV?$string_output_adapter@_W@__crt_stdio_output@@V?$standard_base@_WV?$string_output_adapter@_W@__crt_stdio_output@@@2@@__crt_stdio_output@@AEAA_NXZ 000000018007076c     libucrt:output.obj
 0002:0003d76c       $unwind$__acrt_LocaleNameToLCID 000000018007076c     libucrt:winapi_thunks.obj
 0002:0003d76c       $unwind$__acrt_stdio_flush_and_write_narrow_nolock 000000018007076c     libucrt:_flsbuf.obj
 0002:0003d76c       $unwind$_initterm_e        000000018007076c     libucrt:initterm.obj
 0002:0003d76c       $unwind$node_new_quantifier 000000018007076c     oniguruma:regparse.obj
 0002:0003d76c       $unwind$__acrt_FlsSetValue 000000018007076c     libucrt:winapi_thunks.obj
 0002:0003d76c       $unwind$__vcrt_FlsSetValue 000000018007076c     libvcruntime:winapi_downlevel.obj
 0002:0003d76c       $unwind$add_opcode         000000018007076c     oniguruma:regcomp.obj
 0002:0003d76c       $unwind$add_rel_addr       000000018007076c     oniguruma:regcomp.obj
 0002:0003d76c       $unwind$__acrt_stdio_flush_and_write_wide_nolock 000000018007076c     libucrt:_flsbuf.obj
 0002:0003d76c       $unwind$add_abs_addr       000000018007076c     oniguruma:regcomp.obj
 0002:0003d76c       $unwind$add_length         000000018007076c     oniguruma:regcomp.obj
 0002:0003d76c       $unwind$add_mem_num        000000018007076c     oniguruma:regcomp.obj
 0002:0003d76c       $unwind$add_option         000000018007076c     oniguruma:regcomp.obj
 0002:0003d76c       $unwind$add_bitset         000000018007076c     oniguruma:regcomp.obj
 0002:0003d76c       $unwind$??0?$vector@V?$shared_ptr@VOnigRegExp@@@std@@V?$allocator@V?$shared_ptr@VOnigRegExp@@@std@@@2@@std@@QEAA@AEBV01@@Z 000000018007076c     onig-scanner.obj
 0002:0003d76c       $unwind$__acrt_getptd_noexit 000000018007076c     libucrt:per_thread_data.obj
 0002:0003d76c       $unwind$node_new_str       000000018007076c     oniguruma:regparse.obj
 0002:0003d76c       $unwind$memcpy_s           000000018007076c     libucrt:cfout.obj
 0002:0003d76c       $unwind$_RTC_Initialize    000000018007076c     LIBCMT:_initsect_.obj
 0002:0003d76c       $unwind$compile_call       000000018007076c     oniguruma:regcomp.obj
 0002:0003d76c       $unwind$?type_case_n@?$output_processor@_WV?$stream_output_adapter@_W@__crt_stdio_output@@V?$standard_base@_WV?$stream_output_adapter@_W@__crt_stdio_output@@@2@@__crt_stdio_output@@AEAA_NXZ 000000018007076c     libucrt:output.obj
 0002:0003d76c       $unwind$__vcrt_getptd_noexit 000000018007076c     libvcruntime:per_thread_data.obj
 0002:0003d76c       $unwind$?type_case_n@?$output_processor@_WV?$string_output_adapter@_W@__crt_stdio_output@@V?$standard_base@_WV?$string_output_adapter@_W@__crt_stdio_output@@@2@@__crt_stdio_output@@AEAA_NXZ 000000018007076c     libucrt:output.obj
 0002:0003d76c       $unwind$onig_st_init_table_with_size 000000018007076c     oniguruma:st.obj
 0002:0003d76c       $unwind$onigenc_step_back  000000018007076c     oniguruma:regenc.obj
 0002:0003d76c       $unwind$__acrt_execute_uninitializers 000000018007076c     libucrt:shared_initialization.obj
 0002:0003d76c       $unwind$?type_case_s@?$output_processor@_WV?$stream_output_adapter@_W@__crt_stdio_output@@V?$standard_base@_WV?$stream_output_adapter@_W@__crt_stdio_output@@@2@@__crt_stdio_output@@AEAA_NXZ 000000018007076c     libucrt:output.obj
 0002:0003d76c       $unwind$?assign@?$basic_string@DU?$char_traits@D@std@@V?$allocator@D@2@@std@@QEAAAEAV12@PEBD_K@Z 000000018007076c     onig-scanner.obj
 0002:0003d76c       $unwind$?type_case_Z@?$output_processor@_WV?$stream_output_adapter@_W@__crt_stdio_output@@V?$standard_base@_WV?$stream_output_adapter@_W@__crt_stdio_output@@@2@@__crt_stdio_output@@AEAA_NXZ 000000018007076c     libucrt:output.obj
 0002:0003d76c       $unwind$??$common_lseek_nolock@_J@@YA_JH_JH@Z 000000018007076c     libucrt:lseek.obj
 0002:0003d76c       $unwind$?type_case_s@?$output_processor@_WV?$string_output_adapter@_W@__crt_stdio_output@@V?$standard_base@_WV?$string_output_adapter@_W@__crt_stdio_output@@@2@@__crt_stdio_output@@AEAA_NXZ 000000018007076c     libucrt:output.obj
 0002:0003d76c       $unwind$history_tree_add_child 000000018007076c     oniguruma:regexec.obj
 0002:0003d76c       $unwind$onig_region_resize 000000018007076c     oniguruma:regexec.obj
 0002:0003d76c       $unwind$?free_crt_array_internal@@YAXQEAPEBX_K@Z 000000018007076c     libucrt:inittime.obj
 0002:0003d76c       $unwind$compile_cclass_node 000000018007076c     oniguruma:regcomp.obj
 0002:0003d76c       $unwind$compile_length_quantifier_node 000000018007076c     oniguruma:regcomp.obj
 0002:0003d77c       $unwind$?_Pop_back_n@?$vector@V?$shared_ptr@VOnigRegExp@@@std@@V?$allocator@V?$shared_ptr@VOnigRegExp@@@std@@@2@@std@@QEAAX_K@Z 000000018007077c     onig-scanner.obj
 0002:0003d78c       $chain$1$?_Pop_back_n@?$vector@V?$shared_ptr@VOnigRegExp@@@std@@V?$allocator@V?$shared_ptr@VOnigRegExp@@@std@@@2@@std@@QEAAX_K@Z 000000018007078c     onig-scanner.obj
 0002:0003d7a4       $chain$2$?_Pop_back_n@?$vector@V?$shared_ptr@VOnigRegExp@@@std@@V?$allocator@V?$shared_ptr@VOnigRegExp@@@std@@@2@@std@@QEAAX_K@Z 00000001800707a4     onig-scanner.obj
 0002:0003d7b4       $unwind$__acrt_uninitialize_ptd 00000001800707b4     libucrt:per_thread_data.obj
 0002:0003d7b4       $unwind$__vcrt_thread_detach 00000001800707b4     libvcruntime:initialization.obj
 0002:0003d7b4       $unwind$node_new_anychar   00000001800707b4     oniguruma:regparse.obj
 0002:0003d7b4       $unwind$?state_case_normal_tchar@?$output_processor@DV?$string_output_adapter@D@__crt_stdio_output@@V?$standard_base@DV?$string_output_adapter@D@__crt_stdio_output@@@2@@__crt_stdio_output@@AEAA_ND@Z 00000001800707b4     libucrt:output.obj
 0002:0003d7b4       $unwind$__acrt_initialize_ptd 00000001800707b4     libucrt:per_thread_data.obj
 0002:0003d7b4       $unwind$?state_case_size@?$output_processor@DV?$string_output_adapter@D@__crt_stdio_output@@V?$standard_base@DV?$string_output_adapter@D@__crt_stdio_output@@@2@@__crt_stdio_output@@AEAA_NXZ 00000001800707b4     libucrt:output.obj
 0002:0003d7b4       $unwind$__acrt_release_locale_ref 00000001800707b4     libucrt:locale_refcounting.obj
 0002:0003d7b4       $unwind$__vcrt_thread_attach 00000001800707b4     libvcruntime:initialization.obj
 0002:0003d7b4       $unwind$__vcrt_initialize_ptd 00000001800707b4     libvcruntime:per_thread_data.obj
 0002:0003d7b4       $unwind$?state_case_size@?$output_processor@_WV?$string_output_adapter@_W@__crt_stdio_output@@V?$standard_base@_WV?$string_output_adapter@_W@__crt_stdio_output@@@2@@__crt_stdio_output@@AEAA_NXZ 00000001800707b4     libucrt:output.obj
 0002:0003d7b4       $unwind$node_new_cclass    00000001800707b4     oniguruma:regparse.obj
 0002:0003d7b4       $unwind$__acrt_DownlevelLocaleNameToLCID 00000001800707b4     libucrt:lcidtoname_downlevel.obj
 0002:0003d7b4       $unwind$?state_case_size@?$output_processor@_WV?$stream_output_adapter@_W@__crt_stdio_output@@V?$standard_base@_WV?$stream_output_adapter@_W@__crt_stdio_output@@@2@@__crt_stdio_output@@AEAA_NXZ 00000001800707b4     libucrt:output.obj
 0002:0003d7b4       $unwind$__vcrt_uninitialize_critical 00000001800707b4     libvcruntime:initialization.obj
 0002:0003d7b4       $unwind$__vcrt_uninitialize_ptd 00000001800707b4     libvcruntime:per_thread_data.obj
 0002:0003d7b4       $unwind$__vcrt_uninitialize 00000001800707b4     libvcruntime:initialization.obj
 0002:0003d7b4       $unwind$?allocate@?$_Wrap_alloc@V?$allocator@V?$shared_ptr@VOnigRegExp@@@std@@@std@@@std@@QEAAPEAV?$shared_ptr@VOnigRegExp@@@2@_K@Z 00000001800707b4     onig-scanner.obj
 0002:0003d7b4       $unwind$history_node_new   00000001800707b4     oniguruma:regexec.obj
 0002:0003d7b4       $unwind$__pctype_func      00000001800707b4     libucrt:ctype.obj
 0002:0003d7b4       $unwind$__vcrt_getptd      00000001800707b4     libvcruntime:per_thread_data.obj
 0002:0003d7b4       $unwind$__vcrt_initialize  00000001800707b4     libvcruntime:initialization.obj
 0002:0003d7b4       $unwind$_getfpstatusword   00000001800707b4     libucrt:_fenvutils.obj
 0002:0003d7b4       $unwind$_getfpcontrolword  00000001800707b4     libucrt:_fenvutils.obj
 0002:0003d7b4       $unwind$__vcrt_freefls     00000001800707b4     libvcruntime:per_thread_data.obj
 0002:0003d7b4       $unwind$_set_errno_from_matherr 00000001800707b4     libucrt:fpexcept.obj
 0002:0003d7b4       $unwind$__dcrt_terminate_console_output 00000001800707b4     libucrt:initcon.obj
 0002:0003d7b4       $unwind$__acrt_uninitialize_critical 00000001800707b4     libucrt:initialization.obj
 0002:0003d7b4       $unwind$_get_osfhandle     00000001800707b4     libucrt:osfinfo.obj
 0002:0003d7b4       $unwind$__acrt_thread_attach 00000001800707b4     libucrt:initialization.obj
 0002:0003d7b4       $unwind$__acrt_thread_detach 00000001800707b4     libucrt:initialization.obj
 0002:0003d7b4       $unwind$__GSHandlerCheck   00000001800707b4     LIBCMT:_gshandler_.obj
 0002:0003d7b4       $unwind$__acrt_initialize_command_line 00000001800707b4     libucrt:argv_data.obj
 0002:0003d7b4       $unwind$initialize_c       00000001800707b4     libucrt:initialization.obj
 0002:0003d7b4       $unwind$__FrameUnwindFilter 00000001800707b4     libvcruntime:frame.obj
 0002:0003d7b4       $unwind$__report_rangecheckfailure 00000001800707b4     LIBCMT:gs_report.obj
 0002:0003d7b4       $unwind$??$uninitialize_environment_internal@_W@@YAXAEAPEAPEA_W@Z 00000001800707b4     libucrt:environment_initialization.obj
 0002:0003d7b4       $unwind$?__GetCurrentState@@YAHPEA_KPEAU_xDISPATCHER_CONTEXT@@PEBU_s_FuncInfo@@@Z 00000001800707b4     libvcruntime:ehstate.obj
 0002:0003d7b4       $unwind$??$uninitialize_environment_internal@D@@YAXAEAPEAPEAD@Z 00000001800707b4     libucrt:environment_initialization.obj
 0002:0003d7b4       $unwind$__dcrt_uninitialize_environments_nolock 00000001800707b4     libucrt:environment_initialization.obj
 0002:0003d7b4       $unwind$uninitialize_environment 00000001800707b4     libucrt:initialization.obj
 0002:0003d7b4       $unwind$_fileno            00000001800707b4     libucrt:fileno.obj
 0002:0003d7b4       $unwind$abort              00000001800707b4     libucrt:abort.obj
 0002:0003d7b4       $unwind$?initialize_multibyte@@YAHXZ 00000001800707b4     libucrt:multibyte_initializer.obj
 0002:0003d7b4       $unwind$get_ctype_code_range 00000001800707b4     oniguruma:utf8.obj
 0002:0003d7b4       $unwind$__std_terminate    00000001800707b4     libvcruntime:frame.obj
 0002:0003d7b4       $unwind$_set_error_mode    00000001800707b4     libucrt:set_error_mode.obj
 0002:0003d7b4       $unwind$__scrt_initialize_default_local_stdio_options 00000001800707b4     LIBCMT:default_local_stdio_options.obj
 0002:0003d7b4       $unwind$_invoke_watson     00000001800707b4     libucrt:invalid_parameter.obj
 0002:0003d7b4       $unwind$_stricmp           00000001800707b4     libucrt:stricmp.obj
 0002:0003d7b4       $unwind$_msize             00000001800707b4     libucrt:msize.obj
 0002:0003d7b4       $unwind$onigenc_end_unicode 00000001800707b4     oniguruma:unicode.obj
 0002:0003d7b4       $unwind$_statfp            00000001800707b4     libucrt:fpctrl.obj
 0002:0003d7b4       $unwind$?dllmain_crt_dispatch@@YAHQEAUHINSTANCE__@@KQEAX@Z 00000001800707b4     LIBCMT:dll_dllmain.obj
 0002:0003d7b4       $unwind$__acrt_initialize_heap 00000001800707b4     libucrt:heap_handle.obj
 0002:0003d7b4       $unwind$tolower            00000001800707b4     libucrt:tolower_toupper.obj
 0002:0003d7b4       $unwind$_isatty            00000001800707b4     libucrt:isatty.obj
 0002:0003d7b4       $unwind$atexit             00000001800707b4     LIBCMT:utility.obj
 0002:0003d7b4       $unwind$_GetImageBase      00000001800707b4     libvcruntime:trnsctrl.obj
 0002:0003d7b4       $unwind$__scrt_acquire_startup_lock 00000001800707b4     LIBCMT:utility.obj
 0002:0003d7b4       $unwind$_GetThrowImageBase 00000001800707b4     libvcruntime:trnsctrl.obj
 0002:0003d7b4       $unwind$_errno             00000001800707b4     libucrt:errno.obj
 0002:0003d7b4       $unwind$__acrt_initialize_multibyte 00000001800707b4     libucrt:mbctype.obj
 0002:0003d7b4       $unwind$__doserrno         00000001800707b4     libucrt:errno.obj
 0002:0003d7b4       $unwind$__scrt_dllmain_crt_thread_detach 00000001800707b4     LIBCMT:utility.obj
 0002:0003d7b4       $unwind$__scrt_dllmain_before_initialize_c 00000001800707b4     LIBCMT:utility.obj
 0002:0003d7b4       $unwind$__scrt_dllmain_after_initialize_c 00000001800707b4     LIBCMT:utility.obj
 0002:0003d7b4       $unwind$__scrt_dllmain_uninitialize_c 00000001800707b4     LIBCMT:utility.obj
 0002:0003d7b4       $unwind$__scrt_dllmain_uninitialize_critical 00000001800707b4     LIBCMT:utility.obj
 0002:0003d7b4       $unwind$__scrt_dllmain_crt_thread_attach 00000001800707b4     LIBCMT:utility.obj
 0002:0003d7bc       $unwind$?_Reallocate@?$vector@V?$shared_ptr@VOnigRegExp@@@std@@V?$allocator@V?$shared_ptr@VOnigRegExp@@@std@@@2@@std@@IEAAX_K@Z 00000001800707bc     onig-scanner.obj
 0002:0003d7bc       $unwind$slow_search_backward 00000001800707bc     oniguruma:regexec.obj
 0002:0003d7bc       $unwind$onig_st_insert_strend 00000001800707bc     oniguruma:regparse.obj
 0002:0003d7bc       $unwind$slow_search        00000001800707bc     oniguruma:regexec.obj
 0002:0003d7bc       $unwind$compile_tree_empty_check 00000001800707bc     oniguruma:regcomp.obj
 0002:0003d7bc       $unwind$rehash             00000001800707bc     oniguruma:st.obj
 0002:0003d7bc       $unwind$node_new_backref   00000001800707bc     oniguruma:regparse.obj
 0002:0003d7bc       $unwind$bm_search_backward 00000001800707bc     oniguruma:regexec.obj
 0002:0003d7bc       $unwind$entry_repeat_range 00000001800707bc     oniguruma:regcomp.obj
 0002:0003d7d4       $unwind$?_Destroy@?$vector@V?$shared_ptr@VOnigRegExp@@@std@@V?$allocator@V?$shared_ptr@VOnigRegExp@@@std@@@2@@std@@IEAAXPEAV?$shared_ptr@VOnigRegExp@@@2@0@Z 00000001800707d4     onig-scanner.obj
 0002:0003d7dc       $chain$1$?_Destroy@?$vector@V?$shared_ptr@VOnigRegExp@@@std@@V?$allocator@V?$shared_ptr@VOnigRegExp@@@std@@@2@@std@@IEAAXPEAV?$shared_ptr@VOnigRegExp@@@2@0@Z 00000001800707dc     onig-scanner.obj
 0002:0003d7f4       $chain$2$?_Destroy@?$vector@V?$shared_ptr@VOnigRegExp@@@std@@V?$allocator@V?$shared_ptr@VOnigRegExp@@@std@@@2@@std@@IEAAXPEAV?$shared_ptr@VOnigRegExp@@@2@0@Z 00000001800707f4     onig-scanner.obj
 0002:0003d804       $unwind$??$_Uninitialized_copy_al_unchecked@PEBV?$shared_ptr@VOnigRegExp@@@std@@PEAV12@V?$allocator@V?$shared_ptr@VOnigRegExp@@@std@@@2@@std@@YAPEAV?$shared_ptr@VOnigRegExp@@@0@PEBV10@0PEAV10@AEAU?$_Wrap_alloc@V?$allocator@V?$shared_ptr@VOnigRegExp@@@std@@@std@@@0@@Z 0000000180070804     onig-scanner.obj
 0002:0003d804       $unwind$set_quantifier     0000000180070804     oniguruma:regparse.obj
 0002:0003d810       $chain$2$??$_Uninitialized_copy_al_unchecked@PEBV?$shared_ptr@VOnigRegExp@@@std@@PEAV12@V?$allocator@V?$shared_ptr@VOnigRegExp@@@std@@@2@@std@@YAPEAV?$shared_ptr@VOnigRegExp@@@0@PEBV10@0PEAV10@AEAU?$_Wrap_alloc@V?$allocator@V?$shared_ptr@VOnigRegExp@@@std@@@std@@@0@@Z 0000000180070810     onig-scanner.obj
 0002:0003d82c       $chain$3$??$_Uninitialized_copy_al_unchecked@PEBV?$shared_ptr@VOnigRegExp@@@std@@PEAV12@V?$allocator@V?$shared_ptr@VOnigRegExp@@@std@@@2@@std@@YAPEAV?$shared_ptr@VOnigRegExp@@@0@PEBV10@0PEAV10@AEAU?$_Wrap_alloc@V?$allocator@V?$shared_ptr@VOnigRegExp@@@std@@@std@@@0@@Z 000000018007082c     onig-scanner.obj
 0002:0003d83c       $unwind$?Execute@OnigScannerWorker@@UEAAXXZ 000000018007083c     onig-scanner-worker.obj
 0002:0003d83c       $unwind$wcstol             000000018007083c     libucrt:strtox.obj
 0002:0003d83c       $unwind$strtol             000000018007083c     libucrt:strtox.obj
 0002:0003d83c       $unwind$??0length_error@std@@QEAA@PEBD@Z 000000018007083c     libcpmt:xthrow.obj
 0002:0003d83c       $unwind$??0out_of_range@std@@QEAA@PEBD@Z 000000018007083c     libcpmt:xthrow.obj
 0002:0003d83c       $unwind$??$common_xtox_s@K_W@@YAHKQEA_W_KI_N@Z 000000018007083c     libucrt:xtoa.obj
 0002:0003d844       $chain$0$?Execute@OnigScannerWorker@@UEAAXXZ 0000000180070844     onig-scanner-worker.obj
 0002:0003d858       $chain$1$?Execute@OnigScannerWorker@@UEAAXXZ 0000000180070858     onig-scanner-worker.obj
 0002:0003d868       $unwind$?HandleOKCallback@OnigScannerWorker@@UEAAXXZ 0000000180070868     onig-scanner-worker.obj
 0002:0003d88c       $stateUnwindMap$?HandleOKCallback@OnigScannerWorker@@UEAAXXZ 000000018007088c     onig-scanner-worker.obj
 0002:0003d898       $ip2state$?HandleOKCallback@OnigScannerWorker@@UEAAXXZ 0000000180070898     onig-scanner-worker.obj
 0002:0003d8b0       $unwind$?Search@OnigSearcher@@QEAA?AV?$shared_ptr@VOnigResult@@@std@@PEAVOnigString@@H@Z 00000001800708b0     onig-searcher.obj
 0002:0003d8d0       $stateUnwindMap$?Search@OnigSearcher@@QEAA?AV?$shared_ptr@VOnigResult@@@std@@PEAVOnigString@@H@Z 00000001800708d0     onig-searcher.obj
 0002:0003d8d8       $ip2state$?Search@OnigSearcher@@QEAA?AV?$shared_ptr@VOnigResult@@@std@@PEAVOnigString@@H@Z 00000001800708d8     onig-searcher.obj
 0002:0003d8e8       $unwind$?ThrowTypeError@Nan@@YAXPEBD@Z 00000001800708e8     onig-string.obj
 0002:0003d8f8       $ip2state$?ThrowTypeError@Nan@@YAXPEBD@Z 00000001800708f8     onig-string.obj
 0002:0003d910       $unwind$?Init@OnigString@@SAXV?$Local@VObject@v8@@@v8@@@Z 0000000180070910     onig-string.obj
 0002:0003d918       $unwind$?New@OnigString@@CAXAEBV?$FunctionCallbackInfo@VValue@v8@@@Nan@@@Z 0000000180070918     onig-string.obj
 0002:0003d92c       $stateUnwindMap$?New@OnigString@@CAXAEBV?$FunctionCallbackInfo@VValue@v8@@@Nan@@@Z 000000018007092c     onig-string.obj
 0002:0003d938       $ip2state$?New@OnigString@@CAXAEBV?$FunctionCallbackInfo@VValue@v8@@@Nan@@@Z 0000000180070938     onig-string.obj
 0002:0003d950       $unwind$??0OnigString@@QEAA@V?$Local@VString@v8@@@v8@@@Z 0000000180070950     onig-string.obj
 0002:0003d970       $stateUnwindMap$??0OnigString@@QEAA@V?$Local@VString@v8@@@v8@@@Z 0000000180070970     onig-string.obj
 0002:0003d988       $ip2state$??0OnigString@@QEAA@V?$Local@VString@v8@@@v8@@@Z 0000000180070988     onig-string.obj
 0002:0003d9b8       $unwind$onig_node_free     00000001800709b8     oniguruma:regparse.obj
 0002:0003d9b8       $unwind$onig_free_body     00000001800709b8     oniguruma:regcomp.obj
 0002:0003d9b8       $unwind$__acrt_locale_free_monetary 00000001800709b8     libucrt:initmon.obj
 0002:0003d9b8       $unwind$history_tree_clear 00000001800709b8     oniguruma:regexec.obj
 0002:0003d9c0       $chain$0$history_tree_clear 00000001800709c0     oniguruma:regexec.obj
 0002:0003d9d4       $chain$2$history_tree_clear 00000001800709d4     oniguruma:regexec.obj
 0002:0003d9ec       $chain$3$history_tree_clear 00000001800709ec     oniguruma:regexec.obj
 0002:0003d9fc       $chain$4$history_tree_clear 00000001800709fc     oniguruma:regexec.obj
 0002:0003da0c       $unwind$bbuf_free          0000000180070a0c     oniguruma:regparse.obj
 0002:0003da0c       $unwind$_free_base         0000000180070a0c     libucrt:free_base.obj
 0002:0003da0c       $unwind$onig_region_free   0000000180070a0c     oniguruma:regexec.obj
 0002:0003da0c       $unwind$__acrt_locale_free_lc_time_if_unreferenced 0000000180070a0c     libucrt:locale_refcounting.obj
 0002:0003da0c       $unwind$__acrt_locale_free_numeric 0000000180070a0c     libucrt:initnum.obj
 0002:0003da0c       $unwind$?destroy_fls@@YAXPEAX@Z 0000000180070a0c     libucrt:per_thread_data.obj
 0002:0003da14       $chain$0$onig_region_free  0000000180070a14     oniguruma:regexec.obj
 0002:0003da28       $chain$1$onig_region_free  0000000180070a28     oniguruma:regexec.obj
 0002:0003da38       $unwind$stack_double       0000000180070a38     oniguruma:regexec.obj
 0002:0003da50       $unwind$string_cmp_ic      0000000180070a50     oniguruma:regexec.obj
 0002:0003da6c       $unwind$make_capture_history_tree 0000000180070a6c     oniguruma:regexec.obj
 0002:0003da7c       $unwind$backref_match_at_nested_level 0000000180070a7c     oniguruma:regexec.obj
 0002:0003da94       $unwind$match_at           0000000180070a94     oniguruma:regexec.obj
 0002:0003dab8       $unwind$str_lower_case_match 0000000180070ab8     oniguruma:regexec.obj
 0002:0003dad4       $unwind$slow_search_ic     0000000180070ad4     oniguruma:regexec.obj
 0002:0003daf4       $unwind$and_code_range1    0000000180070af4     oniguruma:regparse.obj
 0002:0003daf4       $unwind$slow_search_backward_ic 0000000180070af4     oniguruma:regexec.obj
 0002:0003daf4       $unwind$onigenc_unicode_apply_all_case_fold 0000000180070af4     oniguruma:unicode.obj
 0002:0003db10       $unwind$bm_search_notrev   0000000180070b10     oniguruma:regexec.obj
 0002:0003db2c       $unwind$bm_search          0000000180070b2c     oniguruma:regexec.obj
 0002:0003db40       $unwind$set_bm_backward_skip 0000000180070b40     oniguruma:regexec.obj
 0002:0003db54       $unwind$backward_search_range 0000000180070b54     oniguruma:regexec.obj
 0002:0003db54       $unwind$__C_specific_handler 0000000180070b54     libvcruntime:_chandler_.obj
 0002:0003db54       $unwind$__InternalCxxFrameHandler 0000000180070b54     libvcruntime:frame.obj
 0002:0003db54       $unwind$forward_search_range 0000000180070b54     oniguruma:regexec.obj
 0002:0003db70       $unwind$onig_search        0000000180070b70     oniguruma:regexec.obj
 0002:0003db90       $unwind$_log10_special     0000000180070b90     libucrt:log_special.obj
 0002:0003db90       $unwind$_invalid_parameter_noinfo_noreturn 0000000180070b90     libucrt:invalid_parameter.obj
 0002:0003db90       $unwind$_invalid_parameter_noinfo 0000000180070b90     libucrt:invalid_parameter.obj
 0002:0003db90       $unwind$mbc_case_fold      0000000180070b90     oniguruma:utf8.obj
 0002:0003db90       $unwind$get_case_fold_codes_by_str 0000000180070b90     oniguruma:utf8.obj
 0002:0003db90       $unwind$wctomb_s           0000000180070b90     libucrt:wctomb.obj
 0002:0003db90       $unwind$_itow_s            0000000180070b90     libucrt:xtoa.obj
 0002:0003db98       $unwind$__acrt_execute_initializers 0000000180070b98     libucrt:shared_initialization.obj
 0002:0003db98       $unwind$onigenc_ascii_apply_all_case_fold 0000000180070b98     oniguruma:regenc.obj
 0002:0003db98       $unwind$?_ExecutionInCatch@@YAHPEAU_xDISPATCHER_CONTEXT@@PEBU_s_FuncInfo@@@Z 0000000180070b98     libvcruntime:trnsctrl.obj
 0002:0003db98       $unwind$onigenc_strlen     0000000180070b98     oniguruma:regenc.obj
 0002:0003db98       $unwind$divide_look_behind_alternatives 0000000180070b98     oniguruma:regcomp.obj
 0002:0003db98       $unwind$__scrt_dllmain_exception_filter 0000000180070b98     LIBCMT:utility.obj
 0002:0003db98       $unwind$_wassert           0000000180070b98     libucrt:assert.obj
 0002:0003db98       $unwind$set_bm_skip        0000000180070b98     oniguruma:regcomp.obj
 0002:0003db98       $unwind$?setSBCS@@YAXPEAU__crt_multibyte_data@@@Z 0000000180070b98     libucrt:mbctype.obj
 0002:0003db98       $unwind$check_type_tree    0000000180070b98     oniguruma:regcomp.obj
 0002:0003db98       $unwind$_seh_filter_exe    0000000180070b98     libucrt:exception_filter.obj
 0002:0003db98       $unwind$compile_tree_n_times 0000000180070b98     oniguruma:regcomp.obj
 0002:0003db98       $unwind$?dllmain_raw@@YAHQEAUHINSTANCE__@@KQEAX@Z 0000000180070b98     LIBCMT:dll_dllmain.obj
 0002:0003db98       $unwind$??$ensure_buffer_is_big_enough@D@formatting_buffer@__crt_stdio_output@@QEAA_N_K@Z 0000000180070b98     libucrt:output.obj
 0002:0003db98       $unwind$add_bytes          0000000180070b98     oniguruma:regcomp.obj
 0002:0003db98       $unwind$add_opcode_rel_addr 0000000180070b98     oniguruma:regcomp.obj
 0002:0003db98       $unwind$unset_addr_list_add 0000000180070b98     oniguruma:regcomp.obj
 0002:0003db98       $unwind$__vcrt_InitializeCriticalSectionEx 0000000180070b98     libvcruntime:winapi_downlevel.obj
 0002:0003db98       $unwind$__acrt_InitializeCriticalSectionEx 0000000180070b98     libucrt:winapi_thunks.obj
 0002:0003db98       $unwind$__acrt_free_locale 0000000180070b98     libucrt:locale_refcounting.obj
 0002:0003db98       $unwind$__acrt_lowio_create_handle_array 0000000180070b98     libucrt:osfinfo.obj
 0002:0003db98       $unwind$add_ctype_to_cc_by_range 0000000180070b98     oniguruma:regparse.obj
 0002:0003db98       $unwind$?expand_if_necessary@?$argument_list@D@?A0xca0879c4@@AEAAHXZ 0000000180070b98     libucrt:argv_wildcards.obj
 0002:0003db98       $unwind$_recalloc_base     0000000180070b98     libucrt:recalloc.obj
 0002:0003dbac       $unwind$add_compile_string 0000000180070bac     oniguruma:regcomp.obj
 0002:0003dbac       $unwind$next_state_val     0000000180070bac     oniguruma:regparse.obj
 0002:0003dbc4       $unwind$compile_length_string_node 0000000180070bc4     oniguruma:regcomp.obj
 0002:0003dbdc       $chain$4$compile_length_string_node 0000000180070bdc     oniguruma:regcomp.obj
 0002:0003dbf4       $chain$5$compile_length_string_node 0000000180070bf4     oniguruma:regcomp.obj
 0002:0003dc08       $unwind$compile_string_node 0000000180070c08     oniguruma:regcomp.obj
 0002:0003dc24       $chain$3$compile_string_node 0000000180070c24     oniguruma:regcomp.obj
 0002:0003dc38       $chain$4$compile_string_node 0000000180070c38     oniguruma:regcomp.obj
 0002:0003dc48       $unwind$add_multi_byte_cclass 0000000180070c48     oniguruma:regcomp.obj
 0002:0003dc60       $unwind$unset_addr_list_fix 0000000180070c60     oniguruma:regcomp.obj
 0002:0003dc60       $unwind$code_exist_check   0000000180070c60     oniguruma:regparse.obj
 0002:0003dc60       $unwind$onig_scan_unsigned_number 0000000180070c60     oniguruma:regparse.obj
 0002:0003dc60       $unwind$compile_range_repeat_node 0000000180070c60     oniguruma:regcomp.obj
 0002:0003dc60       $unwind$init_case_fold_table 0000000180070c60     oniguruma:unicode.obj
 0002:0003dc60       $unwind$onig_st_foreach    0000000180070c60     oniguruma:st.obj
 0002:0003dc7c       $unwind$compile_quantifier_node 0000000180070c7c     oniguruma:regcomp.obj
 0002:0003dc90       $chain$1$compile_quantifier_node 0000000180070c90     oniguruma:regcomp.obj
 0002:0003dca8       $chain$2$compile_quantifier_node 0000000180070ca8     oniguruma:regcomp.obj
 0002:0003dcb8       $unwind$compile_enclose_node 0000000180070cb8     oniguruma:regcomp.obj
 0002:0003dcb8       $unwind$?type_case_c_tchar@?$output_processor@_WV?$string_output_adapter@_W@__crt_stdio_output@@V?$standard_base@_WV?$string_output_adapter@_W@__crt_stdio_output@@@2@@__crt_stdio_output@@AEAA_N_W@Z 0000000180070cb8     libucrt:output.obj
 0002:0003dcb8       $unwind$compile_length_enclose_node 0000000180070cb8     oniguruma:regcomp.obj
 0002:0003dcb8       $unwind$?type_case_c_tchar@?$output_processor@_WV?$stream_output_adapter@_W@__crt_stdio_output@@V?$standard_base@_WV?$stream_output_adapter@_W@__crt_stdio_output@@@2@@__crt_stdio_output@@AEAA_N_W@Z 0000000180070cb8     libucrt:output.obj
 0002:0003dcb8       $unwind$??R<lambda_b721fa326cdb32351d23dfa67958c160>@@QEBAHXZ 0000000180070cb8     libucrt:setvbuf.obj
 0002:0003dcb8       $unwind$compile_length_tree 0000000180070cb8     oniguruma:regcomp.obj
 0002:0003dcc8       $chain$0$compile_length_tree 0000000180070cc8     oniguruma:regcomp.obj
 0002:0003dcdc       $chain$1$compile_length_tree 0000000180070cdc     oniguruma:regcomp.obj
 0002:0003dcec       $unwind$compile_tree       0000000180070cec     oniguruma:regcomp.obj
 0002:0003dcec       $unwind$?write_stored_string_tchar@?$output_processor@_WV?$string_output_adapter@_W@__crt_stdio_output@@V?$standard_base@_WV?$string_output_adapter@_W@__crt_stdio_output@@@2@@__crt_stdio_output@@AEAA_N_W@Z 0000000180070cec     libucrt:output.obj
 0002:0003dd00       $unwind$noname_disable_map 0000000180070d00     oniguruma:regcomp.obj
 0002:0003dd0c       $chain$0$noname_disable_map 0000000180070d0c     oniguruma:regcomp.obj
 0002:0003dd20       $chain$1$noname_disable_map 0000000180070d20     oniguruma:regcomp.obj
 0002:0003dd30       $unwind$disable_noname_group_capture 0000000180070d30     oniguruma:regcomp.obj
 0002:0003dd54       $unwind$get_max_match_length 0000000180070d54     oniguruma:regcomp.obj
 0002:0003dd54       $unwind$get_min_match_length 0000000180070d54     oniguruma:regcomp.obj
 0002:0003dd64       $unwind$get_char_length_tree1 0000000180070d64     oniguruma:regcomp.obj
 0002:0003dd74       $unwind$is_not_included    0000000180070d74     oniguruma:regcomp.obj
 0002:0003dd88       $unwind$get_head_value_node 0000000180070d88     oniguruma:regcomp.obj
 0002:0003dd90       $chain$0$get_head_value_node 0000000180070d90     oniguruma:regcomp.obj
 0002:0003dda4       $chain$1$get_head_value_node 0000000180070da4     oniguruma:regcomp.obj
 0002:0003ddb4       $unwind$subexp_inf_recursive_check 0000000180070db4     oniguruma:regcomp.obj
 0002:0003ddc4       $unwind$update_string_node_case_fold 0000000180070dc4     oniguruma:regcomp.obj
 0002:0003dddc       $chain$2$update_string_node_case_fold 0000000180070ddc     oniguruma:regcomp.obj
 0002:0003ddf8       $chain$3$update_string_node_case_fold 0000000180070df8     oniguruma:regcomp.obj
 0002:0003de08       $unwind$expand_case_fold_string_alt 0000000180070e08     oniguruma:regcomp.obj
 0002:0003de2c       $unwind$expand_case_fold_string 0000000180070e2c     oniguruma:regcomp.obj
 0002:0003de40       $chain$1$expand_case_fold_string 0000000180070e40     oniguruma:regcomp.obj
 0002:0003de58       $chain$6$expand_case_fold_string 0000000180070e58     oniguruma:regcomp.obj
 0002:0003de7c       $chain$7$expand_case_fold_string 0000000180070e7c     oniguruma:regcomp.obj
 0002:0003de8c       $chain$8$expand_case_fold_string 0000000180070e8c     oniguruma:regcomp.obj
 0002:0003de9c       $chain$9$expand_case_fold_string 0000000180070e9c     oniguruma:regcomp.obj
 0002:0003dec8       $unwind$setup_tree         0000000180070ec8     oniguruma:regcomp.obj
 0002:0003ded8       $unwind$concat_opt_exact_info 0000000180070ed8     oniguruma:regcomp.obj
 0002:0003dee4       $chain$3$concat_opt_exact_info 0000000180070ee4     oniguruma:regcomp.obj
 0002:0003df04       $chain$4$concat_opt_exact_info 0000000180070f04     oniguruma:regcomp.obj
 0002:0003df18       $chain$5$concat_opt_exact_info 0000000180070f18     oniguruma:regcomp.obj
 0002:0003df28       $chain$6$concat_opt_exact_info 0000000180070f28     oniguruma:regcomp.obj
 0002:0003df3c       $chain$7$concat_opt_exact_info 0000000180070f3c     oniguruma:regcomp.obj
 0002:0003df4c       $unwind$concat_opt_exact_info_str 0000000180070f4c     oniguruma:regcomp.obj
 0002:0003df5c       $chain$1$concat_opt_exact_info_str 0000000180070f5c     oniguruma:regcomp.obj
 0002:0003df74       $chain$2$concat_opt_exact_info_str 0000000180070f74     oniguruma:regcomp.obj
 0002:0003df84       $unwind$alt_merge_opt_exact_info 0000000180070f84     oniguruma:regcomp.obj
 0002:0003df94       $chain$0$alt_merge_opt_exact_info 0000000180070f94     oniguruma:regcomp.obj
 0002:0003dfa8       $chain$1$alt_merge_opt_exact_info 0000000180070fa8     oniguruma:regcomp.obj
 0002:0003dfbc       $chain$2$alt_merge_opt_exact_info 0000000180070fbc     oniguruma:regcomp.obj
 0002:0003dfcc       $chain$3$alt_merge_opt_exact_info 0000000180070fcc     oniguruma:regcomp.obj
 0002:0003dfdc       $unwind$add_char_amb_opt_map_info 0000000180070fdc     oniguruma:regcomp.obj
 0002:0003dff4       $chain$0$add_char_amb_opt_map_info 0000000180070ff4     oniguruma:regcomp.obj
 0002:0003e008       $chain$1$add_char_amb_opt_map_info 0000000180071008     oniguruma:regcomp.obj
 0002:0003e01c       $chain$2$add_char_amb_opt_map_info 000000018007101c     oniguruma:regcomp.obj
 0002:0003e02c       $chain$3$add_char_amb_opt_map_info 000000018007102c     oniguruma:regcomp.obj
 0002:0003e03c       $unwind$concat_left_node_opt_info 000000018007103c     oniguruma:regcomp.obj
 0002:0003e050       $unwind$optimize_node_left 0000000180071050     oniguruma:regcomp.obj
 0002:0003e06c       $unwind$set_optimize_exact_info 000000018007106c     oniguruma:regcomp.obj
 0002:0003e080       $chain$0$set_optimize_exact_info 0000000180071080     oniguruma:regcomp.obj
 0002:0003e094       $chain$1$set_optimize_exact_info 0000000180071094     oniguruma:regcomp.obj
 0002:0003e0a4       $unwind$set_optimize_info_from_tree 00000001800710a4     oniguruma:regcomp.obj
 0002:0003e0bc       $chain$0$onig_free_body    00000001800710bc     oniguruma:regcomp.obj
 0002:0003e0d0       $chain$1$onig_free_body    00000001800710d0     oniguruma:regcomp.obj
 0002:0003e0e0       $unwind$onig_compile       00000001800710e0     oniguruma:regcomp.obj
 0002:0003e0fc       $unwind$onig_is_code_in_cc_len 00000001800710fc     oniguruma:regcomp.obj
 0002:0003e104       $chain$0$onig_is_code_in_cc_len 0000000180071104     oniguruma:regcomp.obj
 0002:0003e118       $chain$1$onig_is_code_in_cc_len 0000000180071118     oniguruma:regcomp.obj
 0002:0003e12c       $chain$2$onig_is_code_in_cc_len 000000018007112c     oniguruma:regcomp.obj
 0002:0003e13c       $chain$3$onig_is_code_in_cc_len 000000018007113c     oniguruma:regcomp.obj
 0002:0003e14c       $unwind$strcat_capa        000000018007114c     oniguruma:regparse.obj
 0002:0003e160       $chain$0$strcat_capa       0000000180071160     oniguruma:regparse.obj
 0002:0003e174       $chain$1$strcat_capa       0000000180071174     oniguruma:regparse.obj
 0002:0003e184       $unwind$strcat_capa_from_static 0000000180071184     oniguruma:regparse.obj
 0002:0003e198       $chain$1$strcat_capa_from_static 0000000180071198     oniguruma:regparse.obj
 0002:0003e1b0       $chain$2$strcat_capa_from_static 00000001800711b0     oniguruma:regparse.obj
 0002:0003e1c0       $unwind$name_find          00000001800711c0     oniguruma:regparse.obj
 0002:0003e1c8       $chain$1$name_find         00000001800711c8     oniguruma:regparse.obj
 0002:0003e1e0       $chain$2$name_find         00000001800711e0     oniguruma:regparse.obj
 0002:0003e1f4       $chain$3$name_find         00000001800711f4     oniguruma:regparse.obj
 0002:0003e204       $chain$5$name_find         0000000180071204     oniguruma:regparse.obj
 0002:0003e21c       $chain$6$name_find         000000018007121c     oniguruma:regparse.obj
 0002:0003e22c       $unwind$name_add           000000018007122c     oniguruma:regparse.obj
 0002:0003e248       $unwind$scan_env_add_mem_entry 0000000180071248     oniguruma:regparse.obj
 0002:0003e254       $chain$0$scan_env_add_mem_entry 0000000180071254     oniguruma:regparse.obj
 0002:0003e268       $chain$1$scan_env_add_mem_entry 0000000180071268     oniguruma:regparse.obj
 0002:0003e278       $chain$0$onig_node_free    0000000180071278     oniguruma:regparse.obj
 0002:0003e28c       $chain$2$onig_node_free    000000018007128c     oniguruma:regparse.obj
 0002:0003e2a0       $chain$3$onig_node_free    00000001800712a0     oniguruma:regparse.obj
 0002:0003e2b0       $unwind$node_new_cclass_by_codepoint_range 00000001800712b0     oniguruma:regparse.obj
 0002:0003e2c4       $chain$0$node_new_cclass_by_codepoint_range 00000001800712c4     oniguruma:regparse.obj
 0002:0003e2d8       $chain$1$node_new_cclass_by_codepoint_range 00000001800712d8     oniguruma:regparse.obj
 0002:0003e2d8       $chain$3$node_new_cclass_by_codepoint_range 00000001800712d8     oniguruma:regparse.obj
 0002:0003e2e8       $chain$2$node_new_cclass_by_codepoint_range 00000001800712e8     oniguruma:regparse.obj
 0002:0003e2fc       $unwind$onig_node_str_cat  00000001800712fc     oniguruma:regparse.obj
 0002:0003e314       $unwind$str_exist_check_with_esc 0000000180071314     oniguruma:regparse.obj
 0002:0003e314       $unwind$?IsInExceptionSpec@@YAEPEAUEHExceptionRecord@@PEBU_s_ESTypeList@@@Z 0000000180071314     libvcruntime:frame.obj
 0002:0003e314       $unwind$?try_get_function@@YAPEAXW4function_id@?A0x63058377@@QEBDQEBW4module_id@2@2@Z 0000000180071314     libucrt:winapi_thunks.obj
 0002:0003e314       $unwind$?try_get_function@@YAPEAXW4function_id@?A0x679b24ab@@QEBDQEBW4module_id@2@2@Z 0000000180071314     libvcruntime:winapi_downlevel.obj
 0002:0003e314       $unwind$?write_string@?$string_output_adapter@_W@__crt_stdio_output@@QEBAXQEB_WHQEAH1@Z 0000000180071314     libucrt:output.obj
 0002:0003e314       $unwind$scan_unsigned_hexadecimal_number 0000000180071314     oniguruma:regparse.obj
 0002:0003e314       $unwind$scan_unsigned_octal_number 0000000180071314     oniguruma:regparse.obj
 0002:0003e330       $unwind$add_code_range_to_buf 0000000180071330     oniguruma:regparse.obj
 0002:0003e340       $chain$0$add_code_range_to_buf 0000000180071340     oniguruma:regparse.obj
 0002:0003e354       $chain$4$add_code_range_to_buf 0000000180071354     oniguruma:regparse.obj
 0002:0003e370       $chain$5$add_code_range_to_buf 0000000180071370     oniguruma:regparse.obj
 0002:0003e380       $unwind$not_code_range_buf 0000000180071380     oniguruma:regparse.obj
 0002:0003e390       $chain$1$not_code_range_buf 0000000180071390     oniguruma:regparse.obj
 0002:0003e3a8       $chain$2$not_code_range_buf 00000001800713a8     oniguruma:regparse.obj
 0002:0003e3b8       $unwind$or_code_range_buf  00000001800713b8     oniguruma:regparse.obj
 0002:0003e3cc       $unwind$and_code_range_buf 00000001800713cc     oniguruma:regparse.obj
 0002:0003e3f0       $unwind$and_cclass         00000001800713f0     oniguruma:regparse.obj
 0002:0003e410       $unwind$or_cclass          0000000180071410     oniguruma:regparse.obj
 0002:0003e430       $unwind$fetch_range_quantifier 0000000180071430     oniguruma:regparse.obj
 0002:0003e448       $chain$1$fetch_range_quantifier 0000000180071448     oniguruma:regparse.obj
 0002:0003e45c       $chain$2$fetch_range_quantifier 000000018007145c     oniguruma:regparse.obj
 0002:0003e46c       $unwind$fetch_escaped_value 000000018007146c     oniguruma:regparse.obj
 0002:0003e478       $chain$0$fetch_escaped_value 0000000180071478     oniguruma:regparse.obj
 0002:0003e48c       $chain$4$fetch_escaped_value 000000018007148c     oniguruma:regparse.obj
 0002:0003e48c       $chain$6$fetch_escaped_value 000000018007148c     oniguruma:regparse.obj
 0002:0003e48c       $chain$8$fetch_escaped_value 000000018007148c     oniguruma:regparse.obj
 0002:0003e48c       $chain$2$fetch_escaped_value 000000018007148c     oniguruma:regparse.obj
 0002:0003e4a0       $unwind$fetch_name_with_level 00000001800714a0     oniguruma:regparse.obj
 0002:0003e4b8       $unwind$fetch_name         00000001800714b8     oniguruma:regparse.obj
 0002:0003e4d0       $unwind$fetch_token_in_cc  00000001800714d0     oniguruma:regparse.obj
 0002:0003e4e4       $chain$0$fetch_token_in_cc 00000001800714e4     oniguruma:regparse.obj
 0002:0003e4f8       $chain$1$fetch_token_in_cc 00000001800714f8     oniguruma:regparse.obj
 0002:0003e508       $unwind$fetch_token        0000000180071508     oniguruma:regparse.obj
 0002:0003e520       $unwind$add_ctype_to_cc    0000000180071520     oniguruma:regparse.obj
 0002:0003e530       $chain$1$add_ctype_to_cc   0000000180071530     oniguruma:regparse.obj
 0002:0003e548       $chain$2$add_ctype_to_cc   0000000180071548     oniguruma:regparse.obj
 0002:0003e558       $unwind$parse_posix_bracket 0000000180071558     oniguruma:regparse.obj
 0002:0003e574       $unwind$fetch_char_property_to_ctype 0000000180071574     oniguruma:regparse.obj
 0002:0003e590       $unwind$parse_char_property 0000000180071590     oniguruma:regparse.obj
 0002:0003e5a0       $chain$0$parse_char_property 00000001800715a0     oniguruma:regparse.obj
 0002:0003e5b4       $chain$1$parse_char_property 00000001800715b4     oniguruma:regparse.obj
 0002:0003e5c4       $unwind$parse_char_class   00000001800715c4     oniguruma:regparse.obj
 0002:0003e5dc       $unwind$parse_enclose      00000001800715dc     oniguruma:regparse.obj
 0002:0003e5f0       $chain$0$parse_enclose     00000001800715f0     oniguruma:regparse.obj
 0002:0003e604       $chain$1$parse_enclose     0000000180071604     oniguruma:regparse.obj
 0002:0003e614       $unwind$i_apply_case_fold  0000000180071614     oniguruma:regparse.obj
 0002:0003e634       $unwind$parse_exp          0000000180071634     oniguruma:regparse.obj
 0002:0003e654       $unwind$parse_branch       0000000180071654     oniguruma:regparse.obj
 0002:0003e66c       $chain$0$parse_branch      000000018007166c     oniguruma:regparse.obj
 0002:0003e680       $chain$1$parse_branch      0000000180071680     oniguruma:regparse.obj
 0002:0003e690       $unwind$parse_subexp       0000000180071690     oniguruma:regparse.obj
 0002:0003e6ac       $unwind$onig_parse_make_tree 00000001800716ac     oniguruma:regparse.obj
 0002:0003e6c8       $unwind$sprintf            00000001800716c8     oniguruma:regerror.obj
 0002:0003e6c8       $unwind$fwprintf           00000001800716c8     libucrt:assert.obj
 0002:0003e6d4       $unwind$to_ascii           00000001800716d4     oniguruma:regerror.obj
 0002:0003e6e8       $chain$1$to_ascii          00000001800716e8     oniguruma:regerror.obj
 0002:0003e700       $chain$2$to_ascii          0000000180071700     oniguruma:regerror.obj
 0002:0003e710       $unwind$onig_error_code_to_str 0000000180071710     oniguruma:regerror.obj
 0002:0003e728       $chain$0$onig_error_code_to_str 0000000180071728     oniguruma:regerror.obj
 0002:0003e73c       $chain$1$onig_error_code_to_str 000000018007173c     oniguruma:regerror.obj
 0002:0003e750       $chain$2$onig_error_code_to_str 0000000180071750     oniguruma:regerror.obj
 0002:0003e760       $chain$3$onig_error_code_to_str 0000000180071760     oniguruma:regerror.obj
 0002:0003e770       $unwind$onigenc_minimum_property_name_to_ctype 0000000180071770     oniguruma:regenc.obj
 0002:0003e78c       $unwind$onigenc_unicode_is_code_ctype 000000018007178c     oniguruma:unicode.obj
 0002:0003e798       $unwind$init_name_ctype_table 0000000180071798     oniguruma:unicode.obj
 0002:0003e7a4       $chain$3$init_name_ctype_table 00000001800717a4     oniguruma:unicode.obj
 0002:0003e7c4       $chain$4$init_name_ctype_table 00000001800717c4     oniguruma:unicode.obj
 0002:0003e7d4       $unwind$onigenc_unicode_property_name_to_ctype 00000001800717d4     oniguruma:unicode.obj
 0002:0003e7ec       $unwind$onigenc_unicode_mbc_case_fold 00000001800717ec     oniguruma:unicode.obj
 0002:0003e7fc       $chain$0$onigenc_unicode_mbc_case_fold 00000001800717fc     oniguruma:unicode.obj
 0002:0003e810       $chain$1$onigenc_unicode_mbc_case_fold 0000000180071810     oniguruma:unicode.obj
 0002:0003e820       $unwind$onigenc_unicode_get_case_fold_codes_by_str 0000000180071820     oniguruma:unicode.obj
 0002:0003e844       $unwind$onig_st_free_table 0000000180071844     oniguruma:st.obj
 0002:0003e850       $chain$1$onig_st_free_table 0000000180071850     oniguruma:st.obj
 0002:0003e868       $chain$2$onig_st_free_table 0000000180071868     oniguruma:st.obj
 0002:0003e878       $unwind$onig_st_lookup     0000000180071878     oniguruma:st.obj
 0002:0003e88c       $chain$0$onig_st_lookup    000000018007188c     oniguruma:st.obj
 0002:0003e8a0       $chain$1$onig_st_lookup    00000001800718a0     oniguruma:st.obj
 0002:0003e8b0       $unwind$onig_st_insert     00000001800718b0     oniguruma:st.obj
 0002:0003e8c8       $chain$0$onig_st_insert    00000001800718c8     oniguruma:st.obj
 0002:0003e8dc       $chain$1$onig_st_insert    00000001800718dc     oniguruma:st.obj
 0002:0003e8ec       $unwind$onig_st_add_direct 00000001800718ec     oniguruma:st.obj
 0002:0003e900       $chain$1$onig_st_add_direct 0000000180071900     oniguruma:st.obj
 0002:0003e918       $chain$2$onig_st_add_direct 0000000180071918     oniguruma:st.obj
 0002:0003e928       xdata                      0000000180071928     node:node.exe
 0002:0003e930       $xdatasym                  0000000180071930     LIBCMT:_amdsecgs_.obj
 0002:0003e934       $unwind$?dllmain_crt_process_attach@@YAHQEAUHINSTANCE__@@QEAX@Z 0000000180071934     LIBCMT:dll_dllmain.obj
 0002:0003e960       $unwind$?dllmain_crt_process_detach@@YAH_N@Z 0000000180071960     LIBCMT:dll_dllmain.obj
 0002:0003e988       $unwind$?dllmain_dispatch@@YAHQEAUHINSTANCE__@@KQEAX@Z 0000000180071988     LIBCMT:dll_dllmain.obj
 0002:0003e9b0       $unwind$?filt$0@?0??dllmain_dispatch@@YAHQEAUHINSTANCE__@@KQEAX@Z@4HA 00000001800719b0     LIBCMT:dll_dllmain.obj
 0002:0003e9b8       $unwind$__report_securityfailure 00000001800719b8     LIBCMT:gs_report.obj
 0002:0003e9c0       $unwind$capture_current_context 00000001800719c0     LIBCMT:gs_report.obj
 0002:0003e9cc       $unwind$capture_previous_context 00000001800719cc     LIBCMT:gs_report.obj
 0002:0003e9d8       $unwind$__scrt_is_nonwritable_in_current_image 00000001800719d8     LIBCMT:utility.obj
 0002:0003e9f8       $unwind$__scrt_is_nonwritable_in_current_image$filt$0 00000001800719f8     LIBCMT:utility.obj
 0002:0003ea00       $unwind$__scrt_initialize_onexit_tables 0000000180071a00     LIBCMT:utility.obj
 0002:0003ea0c       $unwind$__security_init_cookie 0000000180071a0c     LIBCMT:gs_support.obj
 0002:0003ea18       $unwind$__scrt_fastfail    0000000180071a18     LIBCMT:utility_desktop.obj
 0002:0003ea28       $unwind$__isa_available_init 0000000180071a28     LIBCMT:_cpu_disp_.obj
 0002:0003ea38       $xdatasym                  0000000180071a38     LIBCMT:_guard_dispatch_.obj
 0002:0003ea3c       $unwind$__CxxCallCatchBlock 0000000180071a3c     libvcruntime:frame.obj
 0002:0003ea78       $unwind$__CxxCallCatchBlock$fin$1 0000000180071a78     libvcruntime:frame.obj
 0002:0003ea84       $unwind$__FrameUnwindToState 0000000180071a84     libvcruntime:frame.obj
 0002:0003eac0       $unwind$?FindHandler@@YAXPEAUEHExceptionRecord@@PEA_KPEAU_CONTEXT@@PEAU_xDISPATCHER_CONTEXT@@PEBU_s_FuncInfo@@EH1@Z 0000000180071ac0     libvcruntime:frame.obj
 0002:0003eae0       $unwind$?CatchIt@@YAXPEAUEHExceptionRecord@@PEA_KPEAU_CONTEXT@@PEAU_xDISPATCHER_CONTEXT@@PEBU_s_FuncInfo@@PEBU_s_HandlerType@@PEBU_s_CatchableType@@PEBU_s_TryBlockMapEntry@@H1EE@Z 0000000180071ae0     libvcruntime:frame.obj
 0002:0003eaf8       $unwind$__BuildCatchObject 0000000180071af8     libvcruntime:frame.obj
 0002:0003eb24       $unwind$?process@?$output_processor@_WV?$string_output_adapter@_W@__crt_stdio_output@@V?$standard_base@_WV?$string_output_adapter@_W@__crt_stdio_output@@@2@@__crt_stdio_output@@QEAAHXZ 0000000180071b24     libucrt:output.obj
 0002:0003eb24       $unwind$_initterm          0000000180071b24     libucrt:initterm.obj
 0002:0003eb24       $unwind$__TypeMatch        0000000180071b24     libvcruntime:frame.obj
 0002:0003eb24       $unwind$__acrt_MessageBoxW 0000000180071b24     libucrt:winapi_thunks.obj
 0002:0003eb24       $unwind$__acrt_initialize_stdio 0000000180071b24     libucrt:_file.obj
 0002:0003eb24       $unwind$__GSHandlerCheck_EH 0000000180071b24     LIBCMT:gshandlereh.obj
 0002:0003eb3c       $unwind$?FindHandlerForForeignException@@YAXPEAUEHExceptionRecord@@PEA_KPEAU_CONTEXT@@PEAU_xDISPATCHER_CONTEXT@@PEBU_s_FuncInfo@@HH1@Z 0000000180071b3c     libvcruntime:frame.obj
 0002:0003eb54       $unwind$__DestructExceptionObject 0000000180071b54     libvcruntime:frame.obj
 0002:0003eb78       $unwind$__BuildCatchObjectHelper 0000000180071b78     libvcruntime:frame.obj
 0002:0003ebb8       $xdatasym                  0000000180071bb8     libvcruntime:memcpy.obj
 0002:0003ebbc       $unwind$_CxxThrowException 0000000180071bbc     libvcruntime:throw.obj
 0002:0003ebd0       $xdatasym                  0000000180071bd0     libvcruntime:memset.obj
 0002:0003ebd8       $xdatasym                  0000000180071bd8     libvcruntime:handlers.obj
 0002:0003ebe0       $unwind$?_GetEstablisherFrame@@YAPEA_KPEA_KPEAU_xDISPATCHER_CONTEXT@@PEBU_s_FuncInfo@@0@Z 0000000180071be0     libvcruntime:trnsctrl.obj
 0002:0003ebf8       $unwind$?__FrameUnwindToEmptyState@@YAXPEA_KPEAU_xDISPATCHER_CONTEXT@@PEBU_s_FuncInfo@@@Z 0000000180071bf8     libvcruntime:trnsctrl.obj
 0002:0003ec0c       $unwind$_CallSETranslator  0000000180071c0c     libvcruntime:trnsctrl.obj
 0002:0003ec30       $unwind$_CallSETranslator$filt$0 0000000180071c30     libvcruntime:trnsctrl.obj
 0002:0003ec38       $unwind$_UnwindNestedFrames 0000000180071c38     libvcruntime:trnsctrl.obj
 0002:0003ec4c       $unwind$__CxxFrameHandler3 0000000180071c4c     libvcruntime:trnsctrl.obj
 0002:0003ec5c       $unwind$?__SehTransFilter@@YAHPEAU_EXCEPTION_POINTERS@@PEAUEHExceptionRecord@@PEA_KPEAU_CONTEXT@@PEAU_xDISPATCHER_CONTEXT@@PEBU_s_FuncInfo@@PEAH@Z 0000000180071c5c     libvcruntime:trnsctrl.obj
 0002:0003ec70       $xdatasym                  0000000180071c70     libvcruntime:_jmpuwind_.obj
 0002:0003ec84       $unwind$__acrt_call_reportfault 0000000180071c84     libucrt:invalid_parameter.obj
 0002:0003eca4       $unwind$_invalid_parameter 0000000180071ca4     libucrt:invalid_parameter.obj
 0002:0003ecbc       $unwind$swprintf           0000000180071cbc     libucrt:assert.obj
 0002:0003eccc       $unwind$??$common_assert_to_stderr@_W@@YAXQEB_W0I@Z 0000000180071ccc     libucrt:assert.obj
 0002:0003ece8       $unwind$??$common_assert_to_message_box@_W@@YAXQEB_W0IQEAX@Z 0000000180071ce8     libucrt:assert.obj
 0002:0003ed04       $unwind$??$common_assert_to_message_box_build_string@_W@@YAXQEA_W_KQEB_W2IQEAX@Z 0000000180071d04     libucrt:assert.obj
 0002:0003ed24       $unwind$__stdio_common_vfwprintf 0000000180071d24     libucrt:output.obj
 0002:0003ed2c       $unwind$__stdio_common_vswprintf 0000000180071d2c     libucrt:output.obj
 0002:0003ed2c       $unwind$__stdio_common_vsprintf 0000000180071d2c     libucrt:output.obj
 0002:0003ed50       $unwind$?write_string@?$stream_output_adapter@_W@__crt_stdio_output@@QEBAXQEB_WHQEAH1@Z 0000000180071d50     libucrt:output.obj
 0002:0003ed68       $unwind$?process@?$output_processor@_WV?$stream_output_adapter@_W@__crt_stdio_output@@V?$standard_base@_WV?$stream_output_adapter@_W@__crt_stdio_output@@@2@@__crt_stdio_output@@QEAAHXZ 0000000180071d68     libucrt:output.obj
 0002:0003ed80       $unwind$?write_stored_string_tchar@?$output_processor@_WV?$stream_output_adapter@_W@__crt_stdio_output@@V?$standard_base@_WV?$stream_output_adapter@_W@__crt_stdio_output@@@2@@__crt_stdio_output@@AEAA_N_W@Z 0000000180071d80     libucrt:output.obj
 0002:0003ed94       $unwind$??R<lambda_dd75445284c072d0bd3768540cc698fa>@@QEBAHXZ 0000000180071d94     libucrt:output.obj
 0002:0003edb0       $unwind$?write_string@?$string_output_adapter@D@__crt_stdio_output@@QEBAXQEBDHQEAH1@Z 0000000180071db0     libucrt:output.obj
 0002:0003edb0       $unwind$??$parse_command_line@D@@YAXPEADPEAPEAD0PEA_K2@Z 0000000180071db0     libucrt:argv_parsing.obj
 0002:0003edb0       $unwind$??R<lambda_4e60a939b0d047cfe11ddc22648dfba9>@@QEBAHXZ 0000000180071db0     libucrt:onexit.obj
 0002:0003edb0       $unwind$?_GetRangeOfTrysToCheck@@YAPEBU_s_TryBlockMapEntry@@PEA_KPEBU_s_FuncInfo@@HHPEAI2PEAU_xDISPATCHER_CONTEXT@@@Z 0000000180071db0     libvcruntime:trnsctrl.obj
 0002:0003edcc       $unwind$?process@?$output_processor@DV?$string_output_adapter@D@__crt_stdio_output@@V?$standard_base@DV?$string_output_adapter@D@__crt_stdio_output@@@2@@__crt_stdio_output@@QEAAHXZ 0000000180071dcc     libucrt:output.obj
 0002:0003eddc       $unwind$?parse_int_from_format_string@?$output_processor@DV?$string_output_adapter@D@__crt_stdio_output@@V?$standard_base@DV?$string_output_adapter@D@__crt_stdio_output@@@2@@__crt_stdio_output@@AEAA_NQEAH@Z 0000000180071ddc     libucrt:output.obj
 0002:0003edf0       $unwind$?state_case_type@?$output_processor@DV?$string_output_adapter@D@__crt_stdio_output@@V?$standard_base@DV?$string_output_adapter@D@__crt_stdio_output@@@2@@__crt_stdio_output@@AEAA_NXZ 0000000180071df0     libucrt:output.obj
 0002:0003ee08       $unwind$?type_case_a@?$output_processor@DV?$string_output_adapter@D@__crt_stdio_output@@V?$standard_base@DV?$string_output_adapter@D@__crt_stdio_output@@@2@@__crt_stdio_output@@AEAA_NXZ 0000000180071e08     libucrt:output.obj
 0002:0003ee14       $unwind$?write_stored_string_tchar@?$output_processor@DV?$string_output_adapter@D@__crt_stdio_output@@V?$standard_base@DV?$string_output_adapter@D@__crt_stdio_output@@@2@@__crt_stdio_output@@AEAA_ND@Z 0000000180071e14     libucrt:output.obj
 0002:0003ee2c       $unwind$?state_case_type@?$output_processor@_WV?$string_output_adapter@_W@__crt_stdio_output@@V?$standard_base@_WV?$string_output_adapter@_W@__crt_stdio_output@@@2@@__crt_stdio_output@@AEAA_NXZ 0000000180071e2c     libucrt:output.obj
 0002:0003ee2c       $unwind$?state_case_type@?$output_processor@_WV?$stream_output_adapter@_W@__crt_stdio_output@@V?$standard_base@_WV?$stream_output_adapter@_W@__crt_stdio_output@@@2@@__crt_stdio_output@@AEAA_NXZ 0000000180071e2c     libucrt:output.obj
 0002:0003ee50       $unwind$?type_case_a@?$output_processor@_WV?$string_output_adapter@_W@__crt_stdio_output@@V?$standard_base@_WV?$string_output_adapter@_W@__crt_stdio_output@@@2@@__crt_stdio_output@@AEAA_NXZ 0000000180071e50     libucrt:output.obj
 0002:0003ee50       $unwind$?type_case_a@?$output_processor@_WV?$stream_output_adapter@_W@__crt_stdio_output@@V?$standard_base@_WV?$stream_output_adapter@_W@__crt_stdio_output@@@2@@__crt_stdio_output@@AEAA_NXZ 0000000180071e50     libucrt:output.obj
 0002:0003ee60       $unwind$??$write_multiple_characters@V?$stream_output_adapter@_W@__crt_stdio_output@@D@__crt_stdio_output@@YAXAEBV?$stream_output_adapter@_W@0@DHQEAH@Z 0000000180071e60     libucrt:output.obj
 0002:0003ee78       $unwind$??$write_multiple_characters@V?$string_output_adapter@_W@__crt_stdio_output@@D@__crt_stdio_output@@YAXAEBV?$string_output_adapter@_W@0@DHQEAH@Z 0000000180071e78     libucrt:output.obj
 0002:0003ee84       $unwind$??$write_multiple_characters@V?$string_output_adapter@D@__crt_stdio_output@@D@__crt_stdio_output@@YAXAEBV?$string_output_adapter@D@0@DHQEAH@Z 0000000180071e84     libucrt:output.obj
 0002:0003ee84       $unwind$??$type_case_integer_parse_into_buffer@_K@?$output_processor@_WV?$stream_output_adapter@_W@__crt_stdio_output@@V?$standard_base@_WV?$stream_output_adapter@_W@__crt_stdio_output@@@2@@__crt_stdio_output@@AEAAX_KI_N@Z 0000000180071e84     libucrt:output.obj
 0002:0003ee84       $unwind$??$type_case_integer_parse_into_buffer@I@?$output_processor@_WV?$stream_output_adapter@_W@__crt_stdio_output@@V?$standard_base@_WV?$stream_output_adapter@_W@__crt_stdio_output@@@2@@__crt_stdio_output@@AEAAXII_N@Z 0000000180071e84     libucrt:output.obj
 0002:0003ee84       $unwind$??$type_case_integer_parse_into_buffer@_K@?$output_processor@DV?$string_output_adapter@D@__crt_stdio_output@@V?$standard_base@DV?$string_output_adapter@D@__crt_stdio_output@@@2@@__crt_stdio_output@@AEAAX_KI_N@Z 0000000180071e84     libucrt:output.obj
 0002:0003ee84       $unwind$??$type_case_integer_parse_into_buffer@I@?$output_processor@_WV?$string_output_adapter@_W@__crt_stdio_output@@V?$standard_base@_WV?$string_output_adapter@_W@__crt_stdio_output@@@2@@__crt_stdio_output@@AEAAXII_N@Z 0000000180071e84     libucrt:output.obj
 0002:0003ee84       $unwind$??$type_case_integer_parse_into_buffer@I@?$output_processor@DV?$string_output_adapter@D@__crt_stdio_output@@V?$standard_base@DV?$string_output_adapter@D@__crt_stdio_output@@@2@@__crt_stdio_output@@AEAAXII_N@Z 0000000180071e84     libucrt:output.obj
 0002:0003ee84       $unwind$??$type_case_integer_parse_into_buffer@_K@?$output_processor@_WV?$string_output_adapter@_W@__crt_stdio_output@@V?$standard_base@_WV?$string_output_adapter@_W@__crt_stdio_output@@@2@@__crt_stdio_output@@AEAAX_KI_N@Z 0000000180071e84     libucrt:output.obj
 0002:0003ee8c       $unwind$??$?RV<lambda_7b91131dde12e1c3dfc74ff76b3f2eac>@@AEAV<lambda_dd75445284c072d0bd3768540cc698fa>@@V<lambda_16bc4ecb55b4718497c16bceaea2ceaf>@@@?$__crt_seh_guarded_call@H@@QEAAH$$QEAV<lambda_7b91131dde12e1c3dfc74ff76b3f2eac>@@AEAV<lambda_dd75445284c072d0bd3768540cc698fa>@@$$QEAV<lambda_16bc4ecb55b4718497c16bceaea2ceaf>@@@Z 0000000180071e8c     libucrt:output.obj
 0002:0003eeb0       $xdatasym                  0000000180071eb0     libucrt:strcmp.obj
 0002:0003eeb4       $unwind$_query_new_handler 0000000180071eb4     libucrt:new_handler.obj
 0002:0003eed4       $unwind$?common_exit@@YAXHW4_crt_exit_cleanup_mode@@W4_crt_exit_return_mode@@@Z 0000000180071ed4     libucrt:exit.obj
 0002:0003ef14       $unwind$_configure_narrow_argv 0000000180071f14     libucrt:argv_parsing.obj
 0002:0003ef28       $unwind$??$create_environment@D@@YAQEAPEADQEAD@Z 0000000180071f28     libucrt:environment_initialization.obj
 0002:0003ef40       $unwind$_register_onexit_function 0000000180071f40     libucrt:onexit.obj
 0002:0003ef48       $unwind$_execute_onexit_table 0000000180071f48     libucrt:onexit.obj
 0002:0003ef50       $unwind$??$?RV<lambda_b8c45f8f788dd370798f47cfe8ac3a86>@@AEAV<lambda_4e60a939b0d047cfe11ddc22648dfba9>@@V<lambda_332c3edc96d0294ec56c57d38c1cdfd5>@@@?$__crt_seh_guarded_call@H@@QEAAH$$QEAV<lambda_b8c45f8f788dd370798f47cfe8ac3a86>@@AEAV<lambda_4e60a939b0d047cfe11ddc22648dfba9>@@$$QEAV<lambda_332c3edc96d0294ec56c57d38c1cdfd5>@@@Z 0000000180071f50     libucrt:onexit.obj
 0002:0003ef74       $unwind$??$?RV<lambda_e24bbb7b643b32fcea6fa61b31d4c984>@@AEAV<lambda_275893d493268fdec8709772e3fcec0e>@@V<lambda_9d71df4d7cf3f480f8d633942495c3b0>@@@?$__crt_seh_guarded_call@H@@QEAAH$$QEAV<lambda_e24bbb7b643b32fcea6fa61b31d4c984>@@AEAV<lambda_275893d493268fdec8709772e3fcec0e>@@$$QEAV<lambda_9d71df4d7cf3f480f8d633942495c3b0>@@@Z 0000000180071f74     libucrt:onexit.obj
 0002:0003efa4       $unwind$terminate          0000000180071fa4     libucrt:terminate.obj
 0002:0003efc4       $unwind$??$parse_integer@KV?$c_string_character_source@D@__crt_strtox@@@__crt_strtox@@YAKQEAU__crt_locale_pointers@@V?$c_string_character_source@D@0@H_N@Z 0000000180071fc4     libucrt:atox.obj
 0002:0003efe0       $unwind$??$parse_integer@KV?$c_string_character_source@_W@__crt_strtox@@@__crt_strtox@@YAKQEAU__crt_locale_pointers@@V?$c_string_character_source@_W@0@H_N@Z 0000000180071fe0     libucrt:atox.obj
 0002:0003effc       $unwind$?construct_ptd_array@@YAXQEAU__acrt_ptd@@@Z 0000000180071ffc     libucrt:per_thread_data.obj
 0002:0003f004       $unwind$?destroy_ptd_array@@YAXQEAU__acrt_ptd@@@Z 0000000180072004     libucrt:per_thread_data.obj
 0002:0003f00c       $unwind$??$?RV<lambda_72d1df2b273a38828b1ce30cbf4cdab5>@@AEAV<lambda_876a65b173b8412d3a47c70a915b0cf4>@@V<lambda_41932305e351933ebe8f8be3ed8bb5dc>@@@?$__crt_seh_guarded_call@X@@QEAAX$$QEAV<lambda_72d1df2b273a38828b1ce30cbf4cdab5>@@AEAV<lambda_876a65b173b8412d3a47c70a915b0cf4>@@$$QEAV<lambda_41932305e351933ebe8f8be3ed8bb5dc>@@@Z 000000018007200c     libucrt:per_thread_data.obj
 0002:0003f030       $unwind$??$?RV<lambda_5e887d1dcbef67a5eb4283622ba103bf>@@AEAV<lambda_4466841279450cc726390878d4a41900>@@V<lambda_341c25c0346d94847f1f3c463c57e077>@@@?$__crt_seh_guarded_call@X@@QEAAX$$QEAV<lambda_5e887d1dcbef67a5eb4283622ba103bf>@@AEAV<lambda_4466841279450cc726390878d4a41900>@@$$QEAV<lambda_341c25c0346d94847f1f3c463c57e077>@@@Z 0000000180072030     libucrt:per_thread_data.obj
 0002:0003f054       $unwind$??$?RV<lambda_46352004c1216016012b18bd6f87e700>@@AEAV<lambda_3bd07e1a1191394380780325891bf33f>@@V<lambda_334532d3f185bcaa59b5be82d7d22bff>@@@?$__crt_seh_guarded_call@X@@QEAAX$$QEAV<lambda_46352004c1216016012b18bd6f87e700>@@AEAV<lambda_3bd07e1a1191394380780325891bf33f>@@$$QEAV<lambda_334532d3f185bcaa59b5be82d7d22bff>@@@Z 0000000180072054     libucrt:per_thread_data.obj
 0002:0003f078       $unwind$??$?RV<lambda_fb3a7dec4e47f37f22dae91bb15c9095>@@AEAV<lambda_698284760c8add0bfb0756c19673e34b>@@V<lambda_dfb8eca1e75fef3034a8fb18dd509707>@@@?$__crt_seh_guarded_call@X@@QEAAX$$QEAV<lambda_fb3a7dec4e47f37f22dae91bb15c9095>@@AEAV<lambda_698284760c8add0bfb0756c19673e34b>@@$$QEAV<lambda_dfb8eca1e75fef3034a8fb18dd509707>@@@Z 0000000180072078     libucrt:per_thread_data.obj
 0002:0003f09c       $unwind$fflush             000000018007209c     libucrt:fflush.obj
 0002:0003f0c0       $unwind$common_flush_all   00000001800720c0     libucrt:fflush.obj
 0002:0003f0fc       $unwind$setvbuf            00000001800720fc     libucrt:setvbuf.obj
 0002:0003f104       $unwind$??$?RV<lambda_7a5ef57ff966f610505f1d28a3d40618>@@AEAV<lambda_b721fa326cdb32351d23dfa67958c160>@@V<lambda_5e0fb27672408a07956fe59e48ccb2aa>@@@?$__crt_seh_guarded_call@H@@QEAAH$$QEAV<lambda_7a5ef57ff966f610505f1d28a3d40618>@@AEAV<lambda_b721fa326cdb32351d23dfa67958c160>@@$$QEAV<lambda_5e0fb27672408a07956fe59e48ccb2aa>@@@Z 0000000180072104     libucrt:setvbuf.obj
 0002:0003f128       $unwind$__acrt_get_sigabrt_handler 0000000180072128     libucrt:signal.obj
 0002:0003f130       $unwind$raise              0000000180072130     libucrt:signal.obj
 0002:0003f15c       $unwind$??$?RV<lambda_c36588078e9f5dfd39652860aa6b3aaf>@@AEAV<lambda_ec61778202f4f5fc7e7711acc23c3bca>@@V<lambda_dc9d2797ccde5d239b4a0efae8ebd7db>@@@?$__crt_seh_guarded_call@P6AXH@Z@@QEAAP6AXH@Z$$QEAV<lambda_c36588078e9f5dfd39652860aa6b3aaf>@@AEAV<lambda_ec61778202f4f5fc7e7711acc23c3bca>@@$$QEAV<lambda_dc9d2797ccde5d239b4a0efae8ebd7db>@@@Z 000000018007215c     libucrt:signal.obj
 0002:0003f180       $unwind$_tolower_l         0000000180072180     libucrt:tolower_toupper.obj
 0002:0003f190       $unwind$__acrt_uninitialize_locale 0000000180072190     libucrt:wsetlocale.obj
 0002:0003f1b0       $unwind$_mbtowc_l          00000001800721b0     libucrt:mbtowc.obj
 0002:0003f1b0       $unwind$__acrt_show_wide_message_box 00000001800721b0     libucrt:crtmbox.obj
 0002:0003f1b0       $unwind$__acrt_LCMapStringEx 00000001800721b0     libucrt:winapi_thunks.obj
 0002:0003f1c8       $unwind$_wctomb_s_l        00000001800721c8     libucrt:wctomb.obj
 0002:0003f1d8       $unwind$strnlen            00000001800721d8     libucrt:strnlen.obj
 0002:0003f1d8       $unwind$wcsnlen            00000001800721d8     libucrt:strnlen.obj
 0002:0003f1e0       $unwind$__acrt_fp_format   00000001800721e0     libucrt:cvt.obj
 0002:0003f1fc       $unwind$?fp_format_nan_or_infinity@@YAHW4__acrt_fp_class@@_NPEAD_K1@Z 00000001800721fc     libucrt:cvt.obj
 0002:0003f210       $unwind$?fp_format_e_internal@@YAHQEAD_KH_NIQEAU_strflt@@2QEAU__crt_locale_pointers@@@Z 0000000180072210     libucrt:cvt.obj
 0002:0003f228       $unwind$?fp_format_e@@YAHQEBNQEAD_K12H_NIQEAU__crt_locale_pointers@@@Z 0000000180072228     libucrt:cvt.obj
 0002:0003f23c       $unwind$?fp_format_a@@YAHQEBNPEAD_KQEAD2H_NIQEAU__crt_locale_pointers@@@Z 000000018007223c     libucrt:cvt.obj
 0002:0003f258       $unwind$?fp_format_g@@YAHQEBNQEAD_K12H_NIQEAU__crt_locale_pointers@@@Z 0000000180072258     libucrt:cvt.obj
 0002:0003f26c       $unwind$_fputwc_nolock     000000018007226c     libucrt:fputwc.obj
 0002:0003f288       $unwind$__acrt_stdio_end_temporary_buffering_nolock 0000000180072288     libucrt:_sftbuf.obj
 0002:0003f288       $unwind$__vcrt_uninitialize_winapi_thunks 0000000180072288     libvcruntime:winapi_downlevel.obj
 0002:0003f290       $unwind$__acrt_initialize_lowio 0000000180072290     libucrt:ioinit.obj
 0002:0003f2b0       $unwind$?initialize_inherited_file_handles_nolock@@YAXXZ 00000001800722b0     libucrt:ioinit.obj
 0002:0003f2cc       $unwind$__acrt_initialize_winapi_thunks 00000001800722cc     libucrt:winapi_thunks.obj
 0002:0003f2d4       $unwind$__acrt_is_interactive 00000001800722d4     libucrt:winapi_thunks.obj
 0002:0003f2e8       $unwind$??$common_expand_argv_wildcards@D@@YAHQEAPEADQEAPEAPEAD@Z 00000001800722e8     libucrt:argv_wildcards.obj
 0002:0003f300       $unwind$??$copy_and_add_argument_to_buffer@D@@YAHQEBD0_KAEAV?$argument_list@D@?A0xca0879c4@@@Z 0000000180072300     libucrt:argv_wildcards.obj
 0002:0003f31c       $unwind$??$expand_argument_wildcards@D@@YAHQEAD0AEAV?$argument_list@D@?A0xca0879c4@@@Z 000000018007231c     libucrt:argv_wildcards.obj
 0002:0003f33c       $unwind$__acrt_update_thread_multibyte_data 000000018007233c     libucrt:mbctype.obj
 0002:0003f360       $unwind$_setmbcp_nolock    0000000180072360     libucrt:mbctype.obj
 0002:0003f380       $unwind$?setSBUpLow@@YAXPEAU__crt_multibyte_data@@@Z 0000000180072380     libucrt:mbctype.obj
 0002:0003f39c       $unwind$?setmbcp_internal@@YAHH_N@Z 000000018007239c     libucrt:mbctype.obj
 0002:0003f3ac       $unwind$??$?RV<lambda_99476a1ad63dd22509b5d3e65b0ffc95>@@AEAV<lambda_ad1ced32f4ac17aa236e5ef05d6b3b7c>@@V<lambda_f7424dd8d45958661754dc4f2697e9c3>@@@?$__crt_seh_guarded_call@X@@QEAAX$$QEAV<lambda_99476a1ad63dd22509b5d3e65b0ffc95>@@AEAV<lambda_ad1ced32f4ac17aa236e5ef05d6b3b7c>@@$$QEAV<lambda_f7424dd8d45958661754dc4f2697e9c3>@@@Z 00000001800723ac     libucrt:mbctype.obj
 0002:0003f3d0       $unwind$_stricmp_l         00000001800723d0     libucrt:stricmp.obj
 0002:0003f3d0       $unwind$?x_ismbbtype_l@@YAHPEAU__crt_locale_pointers@@IHH@Z 00000001800723d0     libucrt:ismbbyte.obj
 0002:0003f3e0       $unwind$__dcrt_get_narrow_environment_from_os 00000001800723e0     libucrt:get_environment_from_os.obj
 0002:0003f3e0       $unwind$?fp_format_f_internal@@YAHQEAD_KHQEAU_strflt@@_NQEAU__crt_locale_pointers@@@Z 00000001800723e0     libucrt:cvt.obj
 0002:0003f3f8       $unwind$_isctype_l         00000001800723f8     libucrt:isctype.obj
 0002:0003f414       $unwind$__acrt_update_thread_locale_data 0000000180072414     libucrt:locale_refcounting.obj
 0002:0003f438       $unwind$_fcloseall         0000000180072438     libucrt:closeall.obj
 0002:0003f45c       $unwind$??$?RV<lambda_b521505b218e5242e90febf6bfebc422>@@AEAV<lambda_6978c1fb23f02e42e1d9e99668cc68aa>@@V<lambda_314360699dd331753a4119843814e9a7>@@@?$__crt_seh_guarded_call@H@@QEAAH$$QEAV<lambda_b521505b218e5242e90febf6bfebc422>@@AEAV<lambda_6978c1fb23f02e42e1d9e99668cc68aa>@@$$QEAV<lambda_314360699dd331753a4119843814e9a7>@@@Z 000000018007245c     libucrt:commit.obj
 0002:0003f480       $unwind$_write             0000000180072480     libucrt:write.obj
 0002:0003f4b0       $unwind$_write_nolock      00000001800724b0     libucrt:write.obj
 0002:0003f4c8       $unwind$?write_double_translated_ansi_nolock@@YA?AUwrite_result@?A0x9c548279@@HQEBDI@Z 00000001800724c8     libucrt:write.obj
 0002:0003f4e8       $unwind$?write_text_ansi_nolock@@YA?AUwrite_result@?A0x9c548279@@HQEBDI@Z 00000001800724e8     libucrt:write.obj
 0002:0003f4e8       $unwind$?write_text_utf16le_nolock@@YA?AUwrite_result@?A0x9c548279@@HQEBDI@Z 00000001800724e8     libucrt:write.obj
 0002:0003f508       $unwind$?write_text_utf8_nolock@@YA?AUwrite_result@?A0x9c548279@@HQEBDI@Z 0000000180072508     libucrt:write.obj
 0002:0003f52c       $unwind$isdigit            000000018007252c     libucrt:_ctype.obj
 0002:0003f52c       $unwind$_isleadbyte_l      000000018007252c     libucrt:_wctype.obj
 0002:0003f52c       $unwind$?getSystemCP@@YAHH@Z 000000018007252c     libucrt:mbctype.obj
 0002:0003f534       $unwind$__acrt_LCMapStringA 0000000180072534     libucrt:lcmapstringa.obj
 0002:0003f544       $unwind$?__acrt_LCMapStringA_stat@@YAHPEAU__crt_locale_pointers@@PEB_WKPEBDHPEADHHH@Z 0000000180072544     libucrt:lcmapstringa.obj
 0002:0003f56c       $unwind$__acrt_locale_free_time 000000018007256c     libucrt:inittime.obj
 0002:0003f57c       $unwind$__acrt_GetStringTypeA 000000018007257c     libucrt:getstringtypea.obj
 0002:0003f5a4       $unwind$__acrt_fltout      00000001800725a4     libucrt:cfout.obj
 0002:0003f5c4       $unwind$?divide@__crt_strtox@@YA_KAEAUbig_integer@1@AEBU21@@Z 00000001800725c4     libucrt:cfout.obj
 0002:0003f5e4       $chain$5$?divide@__crt_strtox@@YA_KAEAUbig_integer@1@AEBU21@@Z 00000001800725e4     libucrt:cfout.obj
 0002:0003f5f8       $chain$6$?divide@__crt_strtox@@YA_KAEAUbig_integer@1@AEBU21@@Z 00000001800725f8     libucrt:cfout.obj
 0002:0003f608       $unwind$??$write_buffer_nolock@D@@YA_NDV__crt_stdio_stream@@@Z 0000000180072608     libucrt:_flsbuf.obj
 0002:0003f618       $unwind$??$write_buffer_nolock@_W@@YA_N_WV__crt_stdio_stream@@@Z 0000000180072618     libucrt:_flsbuf.obj
 0002:0003f628       $unwind$__acrt_lowio_destroy_handle_array 0000000180072628     libucrt:osfinfo.obj
 0002:0003f638       $unwind$__acrt_lowio_ensure_fh_exists 0000000180072638     libucrt:osfinfo.obj
 0002:0003f664       $unwind$?GetTableIndexFromLocaleName@@YAHPEB_W@Z 0000000180072664     libucrt:lcidtoname_downlevel.obj
 0002:0003f67c       $unwind$qsort              000000018007267c     libucrt:qsort.obj
 0002:0003f694       $chain$4$qsort             0000000180072694     libucrt:qsort.obj
 0002:0003f6b8       $chain$5$qsort             00000001800726b8     libucrt:qsort.obj
 0002:0003f6c8       $unwind$?shortsort@@YAXPEAD0_KP6AHPEBX2@Z@Z 00000001800726c8     libucrt:qsort.obj
 0002:0003f6d8       $chain$2$?shortsort@@YAXPEAD0_KP6AHPEBX2@Z@Z 00000001800726d8     libucrt:qsort.obj
 0002:0003f6f4       $chain$3$?shortsort@@YAXPEAD0_KP6AHPEBX2@Z@Z 00000001800726f4     libucrt:qsort.obj
 0002:0003f704       $unwind$strpbrk            0000000180072704     libucrt:strpbrk.obj
 0002:0003f714       $unwind$_mbsdec_l          0000000180072714     libucrt:mbsdec.obj
 0002:0003f720       $unwind$fclose             0000000180072720     libucrt:fclose.obj
 0002:0003f744       $unwind$??$common_lseek@_J@@YA_JH_JH@Z 0000000180072744     libucrt:lseek.obj
 0002:0003f774       $unwind$__report_gsfailure 0000000180072774     LIBCMT:gs_report.obj
 0002:0003f774       $unwind$_putwch_nolock     0000000180072774     libucrt:putwch.obj
 0002:0003f780       $xdatasym                  0000000180072780     libucrt:log10.obj
 0002:0003f78c       $unwind$_close             000000018007278c     libucrt:close.obj
 0002:0003f78c       $unwind$_commit            000000018007278c     libucrt:commit.obj
 0002:0003f794       $unwind$??$?RV<lambda_bfedae4ebbf01fab1bb6dcc6a9e276e0>@@AEAV<lambda_2fe9b910cf3cbf4a0ab98a02ba45b3ec>@@V<lambda_237c231691f317818eb88cc1d5d642d6>@@@?$__crt_seh_guarded_call@H@@QEAAH$$QEAV<lambda_bfedae4ebbf01fab1bb6dcc6a9e276e0>@@AEAV<lambda_2fe9b910cf3cbf4a0ab98a02ba45b3ec>@@$$QEAV<lambda_237c231691f317818eb88cc1d5d642d6>@@@Z 0000000180072794     libucrt:close.obj
 0002:0003f7b8       $unwind$?_Xout_of_range@std@@YAXPEBD@Z 00000001800727b8     libcpmt:xthrow.obj
 0002:0003f7b8       $unwind$?__scrt_throw_std_bad_array_new_length@@YAXXZ 00000001800727b8     LIBCMT:throw_bad_alloc.obj
 0002:0003f7b8       $unwind$?__scrt_throw_std_bad_alloc@@YAXXZ 00000001800727b8     LIBCMT:throw_bad_alloc.obj
 0002:0003f7b8       $unwind$?_Xlength_error@std@@YAXPEBD@Z 00000001800727b8     libcpmt:xthrow.obj
 0002:0003f7b8       $unwind$?_Xbad_alloc@std@@YAXXZ 00000001800727b8     libcpmt:xthrow.obj
 0002:0003f7b8       $unwind$_raise_exc         00000001800727b8     libucrt:fpexcept.obj
 0002:0003f7b8       $unwind$__dcrt_lowio_initialize_console_output 00000001800727b8     libucrt:initcon.obj
 0002:0003f7c0       $unwind$common_control87   00000001800727c0     libucrt:ieee.obj
 0002:0003f7f0       $unwind$_call_matherr      00000001800727f0     libucrt:libm_error.obj
 0002:0003f7f8       $unwind$_handle_error      00000001800727f8     libucrt:libm_error.obj
 0002:0003f818       $unwind$__acrt_initialize_fma3 0000000180072818     libucrt:fma3_available.obj
 0002:0003f820       $unwind$_log_special_common 0000000180072820     libucrt:log_special.obj
 0002:0003f830       $xdatasym                  0000000180072830     libucrt:fpsr.obj
 0002:0003f838       $unwind$_raise_exc_ex      0000000180072838     libucrt:fpexcept.obj
 0002:0003f84c       $unwind$_ctrlfp            000000018007284c     libucrt:fpctrl.obj
 0002:0003f874       $unwind$?DloadObtainSection@@YAPEAXPEAK0@Z 0000000180072874     DelayImp:delayhlp.obj
 0002:0003f884       $unwind$?DloadMakePermanentImageCommit@@YAXPEAX_K@Z 0000000180072884     DelayImp:delayhlp.obj
 0002:0003f890       $unwind$?DloadProtectSection@@YAXKPEAK@Z 0000000180072890     DelayImp:delayhlp.obj
 0002:0003f8a0       $unwind$__delayLoadHelper2 00000001800728a0     DelayImp:delayhlp.obj
 0002:0003f8b8       $unwind$_IsNonwritableInCurrentImage 00000001800728b8     LIBCMT:pesect.obj
 0002:0003f8dc       $unwind$__GSHandlerCheckCommon 00000001800728dc     LIBCMT:_gshandler_.obj
 0002:0003f8e8       $xdatasym                  00000001800728e8     LIBCMT:_chkstk_.obj
 0002:0003f8f0       $xdatasym                  00000001800728f0     libvcruntime:memcmp.obj
 0002:0003f8f4       $unwind$strrchr            00000001800728f4     libvcruntime:strrchr.obj
 0002:00040c00       .edata                     0000000180073c00     onig_scanner.exp
 0002:00040c28       rgpv                       0000000180073c28     onig_scanner.exp
 0002:00040c2c       rgszName                   0000000180073c2c     onig_scanner.exp
 0002:00040c30       rgwOrd                     0000000180073c30     onig_scanner.exp
 0002:00040c32       szName                     0000000180073c32     onig_scanner.exp
 0002:00040c44       $N00001                    0000000180073c44     onig_scanner.exp
 0002:00040f0c       .idata$6                   0000000180073f0c     kernel32:KERNEL32.dll
 0003:00000030       ?__vcrt_flsindex@@3KA      0000000180075030     libvcruntime:per_thread_data.obj
 0003:00000044       __acrt_flsindex            0000000180075044     libucrt:per_thread_data.obj
 0003:00000048       errno_no_memory            0000000180075048     libucrt:errno.obj
 0003:0000004c       doserrno_no_memory         000000018007504c     libucrt:errno.obj
 0003:00000540       __rgctypeflag              0000000180075540     libucrt:mbctype.obj
 0003:00000550       __rgcode_page_info         0000000180075550     libucrt:mbctype.obj
 0003:00000908       ?dazSupported@?1??common_control87@@9@9 0000000180075908     libucrt:ieee.obj
 0003:00000910       ?dazSupported@?1??_ctrlfp@@9@9 0000000180075910     libucrt:fpctrl.obj
 0003:00000930       _module                    0000000180075930     onig-scanner.obj
 0003:000009f0       ?PBS@?1??parse_posix_bracket@@9@9 00000001800759f0     oniguruma:regparse.obj
 0003:00000ae0       ?hashType@?1??onig_st_init_strend_table_with_size@@9@9 0000000180075ae0     oniguruma:regparse.obj
 0003:00000b30       type_type_cclass_hash      0000000180075b30     oniguruma:regparse.obj
 0003:00000b40       ?PBS@?1??onigenc_minimum_property_name_to_ctype@@9@9 0000000180075b40     oniguruma:regenc.obj
 0003:00000c30       ?ss@?1??ss_apply_all_case_fold@@9@9 0000000180075c30     oniguruma:regenc.obj
 0003:00000c40       HashEntryData              0000000180075c40     oniguruma:unicode.obj
 0003:00001380       type_code3_hash            0000000180076380     oniguruma:unicode.obj
 0003:00001390       type_code2_hash            0000000180076390     oniguruma:unicode.obj
 0003:000013a0       type_numhash               00000001800763a0     oniguruma:st.obj
 0003:000013b0       type_strhash               00000001800763b0     oniguruma:st.obj
 0003:00001738       ?__proc_attached@@3HA      0000000180076738     LIBCMT:dll_dllmain.obj
 0003:00001740       GS_ExceptionRecord         0000000180076740     LIBCMT:gs_report.obj
 0003:000017e0       GS_ContextRecord           00000001800767e0     LIBCMT:gs_report.obj
 0003:00001cc0       ?module_local_atexit_table@@3U_onexit_table_t@@A 0000000180076cc0     LIBCMT:utility.obj
 0003:00001cd8       ?module_local_at_quick_exit_table@@3U_onexit_table_t@@A 0000000180076cd8     LIBCMT:utility.obj
 0003:00001cf0       ?is_initialized_as_dll@@3_NA 0000000180076cf0     LIBCMT:utility.obj
 0003:00001d30       ?__vcrt_startup_thread_ptd@@3U__vcrt_ptd@@A 0000000180076d30     libvcruntime:per_thread_data.obj
 0003:00001db0       __vcrt_lock_table          0000000180076db0     libvcruntime:locks.obj
 0003:00001dd8       __vcrt_locks_initialized   0000000180076dd8     libvcruntime:locks.obj
 0003:00001de0       ?module_handles@@3PAPEAUHINSTANCE__@@A 0000000180076de0     libvcruntime:winapi_downlevel.obj
 0003:00001e00       ?encoded_function_pointers@@3PAPEAXA 0000000180076e00     libvcruntime:winapi_downlevel.obj
 0003:00001e90       ?heap@@3V_HeapManager@@A   0000000180076e90     libvcruntime:undname.obj
 0003:00001eb8       __acrt_invalid_parameter_handler 0000000180076eb8     libucrt:invalid_parameter.obj
 0003:00001ec0       __acrt_new_handler         0000000180076ec0     libucrt:new_handler.obj
 0003:00001ec8       c_termination_complete     0000000180076ec8     libucrt:exit.obj
 0003:00001ed0       thread_local_exit_callback_func 0000000180076ed0     libucrt:exit.obj
 0003:00001ed8       ?c_exit_complete@?5??common_exit@@YAXHW4_crt_exit_cleanup_mode@@W4_crt_exit_return_mode@@@Z@4_NA 0000000180076ed8     libucrt:exit.obj
 0003:00001ee0       ?program_name@?5???$common_configure_argv@D@@YAHW4_crt_argv_mode@@@Z@4PADA 0000000180076ee0     libucrt:argv_parsing.obj
 0003:00002038       __acrt_app_type            0000000180077038     libucrt:report_runtime_error.obj
 0003:0000203c       __acrt_error_mode          000000018007703c     libucrt:set_error_mode.obj
 0003:00002058       ctrlc_action               0000000180077058     libucrt:signal.obj
 0003:00002060       ctrlbreak_action           0000000180077060     libucrt:signal.obj
 0003:00002068       abort_action               0000000180077068     libucrt:signal.obj
 0003:00002070       term_action                0000000180077070     libucrt:signal.obj
 0003:00002088       enable_percent_n           0000000180077088     libucrt:printf_count_output.obj
 0003:000024b0       __acrt_lock_table          00000001800774b0     libucrt:locks.obj
 0003:000026b8       __acrt_locks_initialized   00000001800776b8     libucrt:locks.obj
 0003:000026c0       module_handles             00000001800776c0     libucrt:winapi_thunks.obj
 0003:00002760       encoded_function_pointers  0000000180077760     libucrt:winapi_thunks.obj
 0003:00002860       ?state_cache@?1??__acrt_is_packaged_app@@9@4JA 0000000180077860     libucrt:winapi_thunks.obj
 0003:0000287c       fSystemSet                 000000018007787c     libucrt:mbctype.obj
 0003:00002888       ?initialized@?1??__acrt_initialize_multibyte@@9@4_NA 0000000180077888     libucrt:mbctype.obj
 0003:000028c0       user_matherr               00000001800778c0     libucrt:matherr.obj
 0003:000028c8       __acrt_global_new_mode     00000001800778c8     libucrt:new_mode.obj
 0003:0000290c       ?idGenerator@?1???0OnigString@@QEAA@V?$Local@VString@v8@@@v8@@@Z@4HA 000000018007790c     onig-string.obj
 0003:00002910       MatchStackLimitSize        0000000180077910     oniguruma:regexec.obj
 0003:00002914       ?FinishCode@?1??match_at@@9@9 0000000180077914     oniguruma:regexec.obj
 0003:00002918       onig_inited                0000000180077918     oniguruma:regcomp.obj
 0003:0000291c       CaseFoldInited             000000018007791c     oniguruma:unicode.obj
 0003:00002920       FreeNodeList               0000000180077920     oniguruma:regparse.obj
 0003:00002928       NameTableInited            0000000180077928     oniguruma:unicode.obj
 0003:0000292c       CodeRangeTableInited       000000018007792c     oniguruma:unicode.obj
 0003:00002930       EndCallTop                 0000000180077930     oniguruma:regcomp.obj
 0003:00002938       PadBuf                     0000000180077938     oniguruma:regcomp.obj
 0003:00002940       OnigTypeCClassTable        0000000180077940     oniguruma:regparse.obj
 0003:00002948       Unfold1Table               0000000180077948     oniguruma:unicode.obj
 0003:00002950       Unfold3Table               0000000180077950     oniguruma:unicode.obj
 0003:00002958       NameCtypeTable             0000000180077958     oniguruma:unicode.obj
 0003:00002960       CodeRanges                 0000000180077960     oniguruma:unicode.obj
 0003:00002cf8       Unfold2Table               0000000180077cf8     oniguruma:unicode.obj
 0003:00002d00       FoldTable                  0000000180077d00     oniguruma:unicode.obj
 0004:00000000       $pdata$??1OnigResult@@QEAA@XZ 0000000180078000     onig-result.obj
 0004:0000000c       $pdata$??_G_Ref_count_base@std@@UEAAPEAXI@Z 000000018007800c     onig-reg-exp.obj
 0004:00000018       $pdata$??0OnigRegExp@@QEAA@AEBV?$basic_string@DU?$char_traits@D@std@@V?$allocator@D@2@@std@@@Z 0000000180078018     onig-reg-exp.obj
 0004:00000024       $pdata$??1OnigRegExp@@QEAA@XZ 0000000180078024     onig-reg-exp.obj
 0004:00000030       $pdata$?Search@OnigRegExp@@QEAA?AV?$shared_ptr@VOnigResult@@@std@@PEAVOnigString@@H@Z 0000000180078030     onig-reg-exp.obj
 0004:0000003c       $pdata$0$?Search@OnigRegExp@@QEAA?AV?$shared_ptr@VOnigResult@@@std@@PEAVOnigString@@H@Z 000000018007803c     onig-reg-exp.obj
 0004:00000048       $pdata$1$?Search@OnigRegExp@@QEAA?AV?$shared_ptr@VOnigResult@@@std@@PEAVOnigString@@H@Z 0000000180078048     onig-reg-exp.obj
 0004:00000054       $pdata$2$?Search@OnigRegExp@@QEAA?AV?$shared_ptr@VOnigResult@@@std@@PEAVOnigString@@H@Z 0000000180078054     onig-reg-exp.obj
 0004:00000060       $pdata$3$?Search@OnigRegExp@@QEAA?AV?$shared_ptr@VOnigResult@@@std@@PEAVOnigString@@H@Z 0000000180078060     onig-reg-exp.obj
 0004:0000006c       $pdata$?Search@OnigRegExp@@AEAA?AV?$shared_ptr@VOnigResult@@@std@@PEBD_K1@Z 000000018007806c     onig-reg-exp.obj
 0004:00000078       $pdata$??1?$shared_ptr@VOnigResult@@@std@@QEAA@XZ 0000000180078078     onig-reg-exp.obj
 0004:00000078       $pdata$??1?$shared_ptr@VOnigSearcher@@@std@@QEAA@XZ 0000000180078078     onig-scanner.obj
 0004:00000084       $pdata$0$??1?$shared_ptr@VOnigResult@@@std@@QEAA@XZ 0000000180078084     onig-reg-exp.obj
 0004:00000084       $pdata$0$??1?$shared_ptr@VOnigSearcher@@@std@@QEAA@XZ 0000000180078084     onig-scanner.obj
 0004:00000090       $pdata$1$??1?$shared_ptr@VOnigSearcher@@@std@@QEAA@XZ 0000000180078090     onig-scanner.obj
 0004:00000090       $pdata$1$??1?$shared_ptr@VOnigResult@@@std@@QEAA@XZ 0000000180078090     onig-reg-exp.obj
 0004:0000009c       $pdata$??4?$shared_ptr@VOnigResult@@@std@@QEAAAEAV01@$$QEAV01@@Z 000000018007809c     onig-reg-exp.obj
 0004:0000009c       $pdata$??4?$shared_ptr@VOnigSearcher@@@std@@QEAAAEAV01@$$QEAV01@@Z 000000018007809c     onig-scanner.obj
 0004:000000a8       $pdata$0$??4?$shared_ptr@VOnigResult@@@std@@QEAAAEAV01@$$QEAV01@@Z 00000001800780a8     onig-reg-exp.obj
 0004:000000a8       $pdata$0$??4?$shared_ptr@VOnigSearcher@@@std@@QEAAAEAV01@$$QEAV01@@Z 00000001800780a8     onig-scanner.obj
 0004:000000b4       $pdata$1$??4?$shared_ptr@VOnigSearcher@@@std@@QEAAAEAV01@$$QEAV01@@Z 00000001800780b4     onig-scanner.obj
 0004:000000b4       $pdata$1$??4?$shared_ptr@VOnigResult@@@std@@QEAAAEAV01@$$QEAV01@@Z 00000001800780b4     onig-reg-exp.obj
 0004:000000c0       $pdata$2$??4?$shared_ptr@VOnigSearcher@@@std@@QEAAAEAV01@$$QEAV01@@Z 00000001800780c0     onig-scanner.obj
 0004:000000c0       $pdata$2$??4?$shared_ptr@VOnigResult@@@std@@QEAAAEAV01@$$QEAV01@@Z 00000001800780c0     onig-reg-exp.obj
 0004:000000cc       $pdata$3$??4?$shared_ptr@VOnigResult@@@std@@QEAAAEAV01@$$QEAV01@@Z 00000001800780cc     onig-reg-exp.obj
 0004:000000cc       $pdata$3$??4?$shared_ptr@VOnigSearcher@@@std@@QEAAAEAV01@$$QEAV01@@Z 00000001800780cc     onig-scanner.obj
 0004:000000d8       $pdata$??1?$basic_string@DU?$char_traits@D@std@@V?$allocator@D@2@@std@@QEAA@XZ 00000001800780d8     onig-reg-exp.obj
 0004:000000e4       $pdata$?assign@?$basic_string@DU?$char_traits@D@std@@V?$allocator@D@2@@std@@QEAAAEAV12@AEBV12@_K1@Z 00000001800780e4     onig-reg-exp.obj
 0004:000000f0       $pdata$?erase@?$basic_string@DU?$char_traits@D@std@@V?$allocator@D@2@@std@@QEAAAEAV12@_K0@Z 00000001800780f0     onig-reg-exp.obj
 0004:000000fc       $pdata$?_Copy@?$basic_string@DU?$char_traits@D@std@@V?$allocator@D@2@@std@@QEAAX_K0@Z 00000001800780fc     onig-reg-exp.obj
 0004:00000108       $pdata$?_Reset0@?$_Ptr_base@VOnigResult@@@std@@QEAAXPEAVOnigResult@@PEAV_Ref_count_base@2@@Z 0000000180078108     onig-reg-exp.obj
 0004:00000108       $pdata$?_Reset0@?$_Ptr_base@VOnigRegExp@@@std@@QEAAXPEAVOnigRegExp@@PEAV_Ref_count_base@2@@Z 0000000180078108     onig-scanner.obj
 0004:00000114       $pdata$0$?_Reset0@?$_Ptr_base@VOnigRegExp@@@std@@QEAAXPEAVOnigRegExp@@PEAV_Ref_count_base@2@@Z 0000000180078114     onig-scanner.obj
 0004:00000114       $pdata$0$?_Reset0@?$_Ptr_base@VOnigResult@@@std@@QEAAXPEAVOnigResult@@PEAV_Ref_count_base@2@@Z 0000000180078114     onig-reg-exp.obj
 0004:00000120       $pdata$1$?_Reset0@?$_Ptr_base@VOnigRegExp@@@std@@QEAAXPEAVOnigRegExp@@PEAV_Ref_count_base@2@@Z 0000000180078120     onig-scanner.obj
 0004:00000120       $pdata$1$?_Reset0@?$_Ptr_base@VOnigResult@@@std@@QEAAXPEAVOnigResult@@PEAV_Ref_count_base@2@@Z 0000000180078120     onig-reg-exp.obj
 0004:0000012c       $pdata$2$?_Reset0@?$_Ptr_base@VOnigRegExp@@@std@@QEAAXPEAVOnigRegExp@@PEAV_Ref_count_base@2@@Z 000000018007812c     onig-scanner.obj
 0004:0000012c       $pdata$2$?_Reset0@?$_Ptr_base@VOnigResult@@@std@@QEAAXPEAVOnigResult@@PEAV_Ref_count_base@2@@Z 000000018007812c     onig-reg-exp.obj
 0004:00000138       $pdata$3$?_Reset0@?$_Ptr_base@VOnigResult@@@std@@QEAAXPEAVOnigResult@@PEAV_Ref_count_base@2@@Z 0000000180078138     onig-reg-exp.obj
 0004:00000138       $pdata$3$?_Reset0@?$_Ptr_base@VOnigRegExp@@@std@@QEAAXPEAVOnigRegExp@@PEAV_Ref_count_base@2@@Z 0000000180078138     onig-scanner.obj
 0004:00000144       $pdata$?_Destroy@?$_Ref_count@VOnigResult@@@std@@EEAAXXZ 0000000180078144     onig-reg-exp.obj
 0004:00000150       $pdata$??_G?$_Ref_count@VOnigSearcher@@@std@@UEAAPEAXI@Z 0000000180078150     onig-scanner.obj
 0004:00000150       $pdata$??_G?$_Ref_count@VOnigResult@@@std@@UEAAPEAXI@Z 0000000180078150     onig-reg-exp.obj
 0004:00000150       $pdata$??_G?$_Ref_count@VOnigRegExp@@@std@@UEAAPEAXI@Z 0000000180078150     onig-scanner.obj
 0004:0000015c       $pdata$??1ObjectWrap@node@@UEAA@XZ 000000018007815c     onig-scanner.obj
 0004:00000168       $pdata$?Wrap@ObjectWrap@node@@IEAAXV?$Local@VObject@v8@@@v8@@@Z 0000000180078168     onig-scanner.obj
 0004:00000174       $pdata$?Ref@ObjectWrap@node@@MEAAXXZ 0000000180078174     onig-scanner.obj
 0004:00000180       $pdata$?Unref@ObjectWrap@node@@MEAAXXZ 0000000180078180     onig-scanner.obj
 0004:0000018c       $pdata$?WeakCallback@ObjectWrap@node@@CAXAEBV?$WeakCallbackInfo@VObjectWrap@node@@@v8@@@Z 000000018007818c     onig-scanner.obj
 0004:00000198       $pdata$??_GObjectWrap@node@@UEAAPEAXI@Z 0000000180078198     onig-scanner.obj
 0004:000001a4       $pdata$?FunctionCallbackWrapper@imp@Nan@@YAXAEBV?$FunctionCallbackInfo@VValue@v8@@@v8@@@Z 00000001800781a4     onig-scanner.obj
 0004:000001b0       $pdata$?NewInstance@Nan@@YA?AV?$MaybeLocal@VObject@v8@@@v8@@V?$Local@VObjectTemplate@v8@@@3@@Z 00000001800781b0     onig-scanner.obj
 0004:000001bc       $pdata$?New@?$Factory@VFunctionTemplate@v8@@@imp@Nan@@SA?AV?$Local@VFunctionTemplate@v8@@@v8@@P6AXAEBV?$FunctionCallbackInfo@VValue@v8@@@3@@ZV?$Local@VValue@v8@@@5@V?$Local@VSignature@v8@@@5@@Z 00000001800781bc     onig-scanner.obj
 0004:000001c8       $pdata$?Call@Callback@Nan@@QEBA?AV?$Local@VValue@v8@@@v8@@HQEAV34@@Z 00000001800781c8     onig-scanner.obj
 0004:000001d4       $pdata$?Call_@Callback@Nan@@AEBA?AV?$Local@VValue@v8@@@v8@@PEAVIsolate@4@V?$Local@VObject@v8@@@4@HQEAV34@@Z 00000001800781d4     onig-scanner.obj
 0004:000001e0       $pdata$??0AsyncWorker@Nan@@QEAA@PEAVCallback@1@@Z 00000001800781e0     onig-scanner.obj
 0004:000001ec       $pdata$??1AsyncWorker@Nan@@UEAA@XZ 00000001800781ec     onig-scanner.obj
 0004:000001f8       $pdata$?WorkComplete@AsyncWorker@Nan@@UEAAXXZ 00000001800781f8     onig-scanner.obj
 0004:00000204       $pdata$?HandleOKCallback@AsyncWorker@Nan@@MEAAXXZ 0000000180078204     onig-scanner.obj
 0004:00000210       $pdata$?HandleErrorCallback@AsyncWorker@Nan@@MEAAXXZ 0000000180078210     onig-scanner.obj
 0004:0000021c       $pdata$??_GAsyncWorker@Nan@@UEAAPEAXI@Z 000000018007821c     onig-scanner.obj
 0004:00000228       $pdata$??1?$Persistent@VObject@v8@@V?$NonCopyablePersistentTraits@VObject@v8@@@2@@Nan@@QEAA@XZ 0000000180078228     onig-scanner.obj
 0004:00000234       $pdata$?AsyncExecuteComplete@Nan@@YAXPEAUuv_work_s@@@Z 0000000180078234     onig-scanner.obj
 0004:00000240       $pdata$??0OnigScannerWorker@@QEAA@PEAVCallback@Nan@@V?$vector@V?$shared_ptr@VOnigRegExp@@@std@@V?$allocator@V?$shared_ptr@VOnigRegExp@@@std@@@2@@std@@V?$Local@VString@v8@@@v8@@H@Z 0000000180078240     onig-scanner.obj
 0004:0000024c       $pdata$??1OnigScannerWorker@@UEAA@XZ 000000018007824c     onig-scanner.obj
 0004:00000258       $pdata$??_GOnigScannerWorker@@UEAAPEAXI@Z 0000000180078258     onig-scanner.obj
 0004:00000264       $pdata$?Init@OnigScanner@@SAXV?$Local@VObject@v8@@@v8@@@Z 0000000180078264     onig-scanner.obj
 0004:00000270       $pdata$?InitModule@@YAXV?$Local@VObject@v8@@@v8@@@Z 0000000180078270     onig-scanner.obj
 0004:0000027c       $pdata$?New@OnigScanner@@CAXAEBV?$FunctionCallbackInfo@VValue@v8@@@Nan@@@Z 000000018007827c     onig-scanner.obj
 0004:00000288       $pdata$?FindNextMatchSync@OnigScanner@@CAXAEBV?$FunctionCallbackInfo@VValue@v8@@@Nan@@@Z 0000000180078288     onig-scanner.obj
 0004:00000294       $pdata$?FindNextMatch@OnigScanner@@CAXAEBV?$FunctionCallbackInfo@VValue@v8@@@Nan@@@Z 0000000180078294     onig-scanner.obj
 0004:000002a0       $pdata$??0OnigScanner@@AEAA@V?$Local@VArray@v8@@@v8@@@Z 00000001800782a0     onig-scanner.obj
 0004:000002ac       $pdata$??_GOnigScanner@@EEAAPEAXI@Z 00000001800782ac     onig-scanner.obj
 0004:000002b8       $pdata$??1OnigScanner@@EEAA@XZ 00000001800782b8     onig-scanner.obj
 0004:000002c4       $pdata$?FindNextMatch@OnigScanner@@AEAAXV?$Local@VString@v8@@@v8@@V?$Local@VNumber@v8@@@3@V?$Local@VFunction@v8@@@3@@Z 00000001800782c4     onig-scanner.obj
 0004:000002d0       $pdata$?FindNextMatchSync@OnigScanner@@AEAA?AV?$Local@VValue@v8@@@v8@@V?$Local@VString@v8@@@3@V?$Local@VNumber@v8@@@3@@Z 00000001800782d0     onig-scanner.obj
 0004:000002dc       $pdata$?FindNextMatchSync@OnigScanner@@AEAA?AV?$Local@VValue@v8@@@v8@@PEAVOnigString@@V?$Local@VNumber@v8@@@3@@Z 00000001800782dc     onig-scanner.obj
 0004:000002e8       $pdata$?CaptureIndicesForMatch@OnigScanner@@CA?AV?$Local@VValue@v8@@@v8@@PEAVOnigResult@@PEAVOnigString@@@Z 00000001800782e8     onig-scanner.obj
 0004:000002f4       $pdata$1$?CaptureIndicesForMatch@OnigScanner@@CA?AV?$Local@VValue@v8@@@v8@@PEAVOnigResult@@PEAVOnigString@@@Z 00000001800782f4     onig-scanner.obj
 0004:00000300       $pdata$2$?CaptureIndicesForMatch@OnigScanner@@CA?AV?$Local@VValue@v8@@@v8@@PEAVOnigResult@@PEAVOnigString@@@Z 0000000180078300     onig-scanner.obj
 0004:0000030c       $pdata$?resize@?$vector@V?$shared_ptr@VOnigRegExp@@@std@@V?$allocator@V?$shared_ptr@VOnigRegExp@@@std@@@2@@std@@QEAAX_K@Z 000000018007830c     onig-scanner.obj
 0004:00000318       $pdata$0$?resize@?$vector@V?$shared_ptr@VOnigRegExp@@@std@@V?$allocator@V?$shared_ptr@VOnigRegExp@@@std@@@2@@std@@QEAAX_K@Z 0000000180078318     onig-scanner.obj
 0004:00000324       $pdata$1$?resize@?$vector@V?$shared_ptr@VOnigRegExp@@@std@@V?$allocator@V?$shared_ptr@VOnigRegExp@@@std@@@2@@std@@QEAAX_K@Z 0000000180078324     onig-scanner.obj
 0004:00000330       $pdata$2$?resize@?$vector@V?$shared_ptr@VOnigRegExp@@@std@@V?$allocator@V?$shared_ptr@VOnigRegExp@@@std@@@2@@std@@QEAAX_K@Z 0000000180078330     onig-scanner.obj
 0004:0000033c       $pdata$??0?$vector@V?$shared_ptr@VOnigRegExp@@@std@@V?$allocator@V?$shared_ptr@VOnigRegExp@@@std@@@2@@std@@QEAA@AEBV01@@Z 000000018007833c     onig-scanner.obj
 0004:00000348       $pdata$?_Tidy@?$vector@V?$shared_ptr@VOnigRegExp@@@std@@V?$allocator@V?$shared_ptr@VOnigRegExp@@@std@@@2@@std@@IEAAXXZ 0000000180078348     onig-scanner.obj
 0004:00000354       $pdata$?_Pop_back_n@?$vector@V?$shared_ptr@VOnigRegExp@@@std@@V?$allocator@V?$shared_ptr@VOnigRegExp@@@std@@@2@@std@@QEAAX_K@Z 0000000180078354     onig-scanner.obj
 0004:00000360       $pdata$1$?_Pop_back_n@?$vector@V?$shared_ptr@VOnigRegExp@@@std@@V?$allocator@V?$shared_ptr@VOnigRegExp@@@std@@@2@@std@@QEAAX_K@Z 0000000180078360     onig-scanner.obj
 0004:0000036c       $pdata$2$?_Pop_back_n@?$vector@V?$shared_ptr@VOnigRegExp@@@std@@V?$allocator@V?$shared_ptr@VOnigRegExp@@@std@@@2@@std@@QEAAX_K@Z 000000018007836c     onig-scanner.obj
 0004:00000378       $pdata$?assign@?$basic_string@DU?$char_traits@D@std@@V?$allocator@D@2@@std@@QEAAAEAV12@PEBD_K@Z 0000000180078378     onig-scanner.obj
 0004:00000384       $pdata$?allocate@?$_Wrap_alloc@V?$allocator@V?$shared_ptr@VOnigRegExp@@@std@@@std@@@std@@QEAAPEAV?$shared_ptr@VOnigRegExp@@@2@_K@Z 0000000180078384     onig-scanner.obj
 0004:00000390       $pdata$?_Reallocate@?$vector@V?$shared_ptr@VOnigRegExp@@@std@@V?$allocator@V?$shared_ptr@VOnigRegExp@@@std@@@2@@std@@IEAAX_K@Z 0000000180078390     onig-scanner.obj
 0004:0000039c       $pdata$?_Destroy@?$vector@V?$shared_ptr@VOnigRegExp@@@std@@V?$allocator@V?$shared_ptr@VOnigRegExp@@@std@@@2@@std@@IEAAXPEAV?$shared_ptr@VOnigRegExp@@@2@0@Z 000000018007839c     onig-scanner.obj
 0004:000003a8       $pdata$1$?_Destroy@?$vector@V?$shared_ptr@VOnigRegExp@@@std@@V?$allocator@V?$shared_ptr@VOnigRegExp@@@std@@@2@@std@@IEAAXPEAV?$shared_ptr@VOnigRegExp@@@2@0@Z 00000001800783a8     onig-scanner.obj
 0004:000003b4       $pdata$2$?_Destroy@?$vector@V?$shared_ptr@VOnigRegExp@@@std@@V?$allocator@V?$shared_ptr@VOnigRegExp@@@std@@@2@@std@@IEAAXPEAV?$shared_ptr@VOnigRegExp@@@2@0@Z 00000001800783b4     onig-scanner.obj
 0004:000003c0       $pdata$??$Unwrap@VOnigString@@@ObjectWrap@node@@SAPEAVOnigString@@V?$Local@VObject@v8@@@v8@@@Z 00000001800783c0     onig-scanner.obj
 0004:000003c0       $pdata$??$Unwrap@VOnigScanner@@@ObjectWrap@node@@SAPEAVOnigScanner@@V?$Local@VObject@v8@@@v8@@@Z 00000001800783c0     onig-scanner.obj
 0004:000003cc       $pdata$?_Destroy@?$_Ref_count@VOnigRegExp@@@std@@EEAAXXZ 00000001800783cc     onig-scanner.obj
 0004:000003d8       $pdata$?_Destroy@?$_Ref_count@VOnigSearcher@@@std@@EEAAXXZ 00000001800783d8     onig-scanner.obj
 0004:000003e4       $pdata$??$_Uninitialized_copy_al_unchecked@PEBV?$shared_ptr@VOnigRegExp@@@std@@PEAV12@V?$allocator@V?$shared_ptr@VOnigRegExp@@@std@@@2@@std@@YAPEAV?$shared_ptr@VOnigRegExp@@@0@PEBV10@0PEAV10@AEAU?$_Wrap_alloc@V?$allocator@V?$shared_ptr@VOnigRegExp@@@std@@@std@@@0@@Z 00000001800783e4     onig-scanner.obj
 0004:000003f0       $pdata$2$??$_Uninitialized_copy_al_unchecked@PEBV?$shared_ptr@VOnigRegExp@@@std@@PEAV12@V?$allocator@V?$shared_ptr@VOnigRegExp@@@std@@@2@@std@@YAPEAV?$shared_ptr@VOnigRegExp@@@0@PEBV10@0PEAV10@AEAU?$_Wrap_alloc@V?$allocator@V?$shared_ptr@VOnigRegExp@@@std@@@std@@@0@@Z 00000001800783f0     onig-scanner.obj
 0004:000003fc       $pdata$3$??$_Uninitialized_copy_al_unchecked@PEBV?$shared_ptr@VOnigRegExp@@@std@@PEAV12@V?$allocator@V?$shared_ptr@VOnigRegExp@@@std@@@2@@std@@YAPEAV?$shared_ptr@VOnigRegExp@@@0@PEBV10@0PEAV10@AEAU?$_Wrap_alloc@V?$allocator@V?$shared_ptr@VOnigRegExp@@@std@@@std@@@0@@Z 00000001800783fc     onig-scanner.obj
 0004:00000408       $pdata$?Execute@OnigScannerWorker@@UEAAXXZ 0000000180078408     onig-scanner-worker.obj
 0004:00000414       $pdata$0$?Execute@OnigScannerWorker@@UEAAXXZ 0000000180078414     onig-scanner-worker.obj
 0004:00000420       $pdata$1$?Execute@OnigScannerWorker@@UEAAXXZ 0000000180078420     onig-scanner-worker.obj
 0004:0000042c       $pdata$?HandleOKCallback@OnigScannerWorker@@UEAAXXZ 000000018007842c     onig-scanner-worker.obj
 0004:00000438       $pdata$?Search@OnigSearcher@@QEAA?AV?$shared_ptr@VOnigResult@@@std@@PEAVOnigString@@H@Z 0000000180078438     onig-searcher.obj
 0004:00000444       $pdata$?ThrowTypeError@Nan@@YAXPEBD@Z 0000000180078444     onig-string.obj
 0004:00000450       $pdata$?Init@OnigString@@SAXV?$Local@VObject@v8@@@v8@@@Z 0000000180078450     onig-string.obj
 0004:0000045c       $pdata$?New@OnigString@@CAXAEBV?$FunctionCallbackInfo@VValue@v8@@@Nan@@@Z 000000018007845c     onig-string.obj
 0004:00000468       $pdata$??0OnigString@@QEAA@V?$Local@VString@v8@@@v8@@@Z 0000000180078468     onig-string.obj
 0004:00000474       $pdata$??_GOnigString@@UEAAPEAXI@Z 0000000180078474     onig-string.obj
 0004:00000480       $pdata$?load_exe_hook@@YAP6A_JXZIPEAUDelayLoadInfo@@@Z 0000000180078480     win_delay_load_hook.obj
 0004:0000048c       $pdata$history_tree_clear  000000018007848c     oniguruma:regexec.obj
 0004:00000498       $pdata$0$history_tree_clear 0000000180078498     oniguruma:regexec.obj
 0004:000004a4       $pdata$2$history_tree_clear 00000001800784a4     oniguruma:regexec.obj
 0004:000004b0       $pdata$3$history_tree_clear 00000001800784b0     oniguruma:regexec.obj
 0004:000004bc       $pdata$4$history_tree_clear 00000001800784bc     oniguruma:regexec.obj
 0004:000004c8       $pdata$history_node_new    00000001800784c8     oniguruma:regexec.obj
 0004:000004d4       $pdata$history_tree_add_child 00000001800784d4     oniguruma:regexec.obj
 0004:000004e0       $pdata$onig_region_clear   00000001800784e0     oniguruma:regexec.obj
 0004:000004ec       $pdata$onig_region_resize  00000001800784ec     oniguruma:regexec.obj
 0004:000004f8       $pdata$onig_region_free    00000001800784f8     oniguruma:regexec.obj
 0004:00000504       $pdata$0$onig_region_free  0000000180078504     oniguruma:regexec.obj
 0004:00000510       $pdata$1$onig_region_free  0000000180078510     oniguruma:regexec.obj
 0004:0000051c       $pdata$stack_double        000000018007851c     oniguruma:regexec.obj
 0004:00000528       $pdata$string_cmp_ic       0000000180078528     oniguruma:regexec.obj
 0004:00000534       $pdata$make_capture_history_tree 0000000180078534     oniguruma:regexec.obj
 0004:00000540       $pdata$backref_match_at_nested_level 0000000180078540     oniguruma:regexec.obj
 0004:0000054c       $pdata$match_at            000000018007854c     oniguruma:regexec.obj
 0004:00000558       $pdata$slow_search         0000000180078558     oniguruma:regexec.obj
 0004:00000564       $pdata$str_lower_case_match 0000000180078564     oniguruma:regexec.obj
 0004:00000570       $pdata$slow_search_ic      0000000180078570     oniguruma:regexec.obj
 0004:0000057c       $pdata$slow_search_backward 000000018007857c     oniguruma:regexec.obj
 0004:00000588       $pdata$slow_search_backward_ic 0000000180078588     oniguruma:regexec.obj
 0004:00000594       $pdata$bm_search_notrev    0000000180078594     oniguruma:regexec.obj
 0004:000005a0       $pdata$bm_search           00000001800785a0     oniguruma:regexec.obj
 0004:000005ac       $pdata$set_bm_backward_skip 00000001800785ac     oniguruma:regexec.obj
 0004:000005b8       $pdata$bm_search_backward  00000001800785b8     oniguruma:regexec.obj
 0004:000005c4       $pdata$forward_search_range 00000001800785c4     oniguruma:regexec.obj
 0004:000005d0       $pdata$backward_search_range 00000001800785d0     oniguruma:regexec.obj
 0004:000005dc       $pdata$onig_search         00000001800785dc     oniguruma:regexec.obj
 0004:000005e8       $pdata$mbc_to_code         00000001800785e8     oniguruma:utf8.obj
 0004:000005f4       $pdata$mbc_case_fold       00000001800785f4     oniguruma:utf8.obj
 0004:00000600       $pdata$get_ctype_code_range 0000000180078600     oniguruma:utf8.obj
 0004:0000060c       $pdata$get_case_fold_codes_by_str 000000018007860c     oniguruma:utf8.obj
 0004:00000618       $pdata$unset_addr_list_add 0000000180078618     oniguruma:regcomp.obj
 0004:00000624       $pdata$add_opcode          0000000180078624     oniguruma:regcomp.obj
 0004:00000630       $pdata$add_rel_addr        0000000180078630     oniguruma:regcomp.obj
 0004:00000630       $pdata$add_abs_addr        0000000180078630     oniguruma:regcomp.obj
 0004:00000630       $pdata$add_length          0000000180078630     oniguruma:regcomp.obj
 0004:00000630       $pdata$add_option          0000000180078630     oniguruma:regcomp.obj
 0004:0000063c       $pdata$add_mem_num         000000018007863c     oniguruma:regcomp.obj
 0004:00000648       $pdata$add_opcode_rel_addr 0000000180078648     oniguruma:regcomp.obj
 0004:00000654       $pdata$add_bytes           0000000180078654     oniguruma:regcomp.obj
 0004:00000660       $pdata$add_bitset          0000000180078660     oniguruma:regcomp.obj
 0004:0000066c       $pdata$compile_tree_empty_check 000000018007866c     oniguruma:regcomp.obj
 0004:00000678       $pdata$compile_call        0000000180078678     oniguruma:regcomp.obj
 0004:00000684       $pdata$compile_tree_n_times 0000000180078684     oniguruma:regcomp.obj
 0004:00000690       $pdata$add_compile_string  0000000180078690     oniguruma:regcomp.obj
 0004:0000069c       $pdata$compile_length_string_node 000000018007869c     oniguruma:regcomp.obj
 0004:000006a8       $pdata$4$compile_length_string_node 00000001800786a8     oniguruma:regcomp.obj
 0004:000006b4       $pdata$5$compile_length_string_node 00000001800786b4     oniguruma:regcomp.obj
 0004:000006c0       $pdata$compile_string_node 00000001800786c0     oniguruma:regcomp.obj
 0004:000006cc       $pdata$3$compile_string_node 00000001800786cc     oniguruma:regcomp.obj
 0004:000006d8       $pdata$4$compile_string_node 00000001800786d8     oniguruma:regcomp.obj
 0004:000006e4       $pdata$add_multi_byte_cclass 00000001800786e4     oniguruma:regcomp.obj
 0004:000006f0       $pdata$compile_cclass_node 00000001800786f0     oniguruma:regcomp.obj
 0004:000006fc       $pdata$entry_repeat_range  00000001800786fc     oniguruma:regcomp.obj
 0004:00000708       $pdata$compile_range_repeat_node 0000000180078708     oniguruma:regcomp.obj
 0004:00000714       $pdata$compile_length_quantifier_node 0000000180078714     oniguruma:regcomp.obj
 0004:00000720       $pdata$compile_quantifier_node 0000000180078720     oniguruma:regcomp.obj
 0004:0000072c       $pdata$1$compile_quantifier_node 000000018007872c     oniguruma:regcomp.obj
 0004:00000738       $pdata$2$compile_quantifier_node 0000000180078738     oniguruma:regcomp.obj
 0004:00000744       $pdata$compile_length_enclose_node 0000000180078744     oniguruma:regcomp.obj
 0004:00000750       $pdata$compile_enclose_node 0000000180078750     oniguruma:regcomp.obj
 0004:0000075c       $pdata$compile_anchor_node 000000018007875c     oniguruma:regcomp.obj
 0004:00000768       $pdata$compile_length_tree 0000000180078768     oniguruma:regcomp.obj
 0004:00000774       $pdata$0$compile_length_tree 0000000180078774     oniguruma:regcomp.obj
 0004:00000780       $pdata$1$compile_length_tree 0000000180078780     oniguruma:regcomp.obj
 0004:0000078c       $pdata$compile_tree        000000018007878c     oniguruma:regcomp.obj
 0004:00000798       $pdata$noname_disable_map  0000000180078798     oniguruma:regcomp.obj
 0004:000007a4       $pdata$0$noname_disable_map 00000001800787a4     oniguruma:regcomp.obj
 0004:000007b0       $pdata$1$noname_disable_map 00000001800787b0     oniguruma:regcomp.obj
 0004:000007bc       $pdata$renumber_by_map     00000001800787bc     oniguruma:regcomp.obj
 0004:000007c8       $pdata$numbered_ref_check  00000001800787c8     oniguruma:regcomp.obj
 0004:000007d4       $pdata$disable_noname_group_capture 00000001800787d4     oniguruma:regcomp.obj
 0004:000007e0       $pdata$unset_addr_list_fix 00000001800787e0     oniguruma:regcomp.obj
 0004:000007ec       $pdata$quantifiers_memory_node_info 00000001800787ec     oniguruma:regcomp.obj
 0004:000007f8       $pdata$get_min_match_length 00000001800787f8     oniguruma:regcomp.obj
 0004:00000804       $pdata$get_max_match_length 0000000180078804     oniguruma:regcomp.obj
 0004:00000810       $pdata$get_char_length_tree1 0000000180078810     oniguruma:regcomp.obj
 0004:0000081c       $pdata$is_not_included     000000018007881c     oniguruma:regcomp.obj
 0004:00000828       $pdata$get_head_value_node 0000000180078828     oniguruma:regcomp.obj
 0004:00000834       $pdata$0$get_head_value_node 0000000180078834     oniguruma:regcomp.obj
 0004:00000840       $pdata$1$get_head_value_node 0000000180078840     oniguruma:regcomp.obj
 0004:0000084c       $pdata$check_type_tree     000000018007884c     oniguruma:regcomp.obj
 0004:00000858       $pdata$subexp_inf_recursive_check 0000000180078858     oniguruma:regcomp.obj
 0004:00000864       $pdata$subexp_inf_recursive_check_trav 0000000180078864     oniguruma:regcomp.obj
 0004:00000870       $pdata$subexp_recursive_check 0000000180078870     oniguruma:regcomp.obj
 0004:0000087c       $pdata$subexp_recursive_check_trav 000000018007887c     oniguruma:regcomp.obj
 0004:00000888       $pdata$setup_subexp_call   0000000180078888     oniguruma:regcomp.obj
 0004:00000894       $pdata$divide_look_behind_alternatives 0000000180078894     oniguruma:regcomp.obj
 0004:000008a0       $pdata$setup_look_behind   00000001800788a0     oniguruma:regcomp.obj
 0004:000008ac       $pdata$next_setup          00000001800788ac     oniguruma:regcomp.obj
 0004:000008b8       $pdata$update_string_node_case_fold 00000001800788b8     oniguruma:regcomp.obj
 0004:000008c4       $pdata$2$update_string_node_case_fold 00000001800788c4     oniguruma:regcomp.obj
 0004:000008d0       $pdata$3$update_string_node_case_fold 00000001800788d0     oniguruma:regcomp.obj
 0004:000008dc       $pdata$expand_case_fold_make_rem_string 00000001800788dc     oniguruma:regcomp.obj
 0004:000008e8       $pdata$expand_case_fold_string_alt 00000001800788e8     oniguruma:regcomp.obj
 0004:000008f4       $pdata$expand_case_fold_string 00000001800788f4     oniguruma:regcomp.obj
 0004:00000900       $pdata$1$expand_case_fold_string 0000000180078900     oniguruma:regcomp.obj
 0004:0000090c       $pdata$6$expand_case_fold_string 000000018007890c     oniguruma:regcomp.obj
 0004:00000918       $pdata$7$expand_case_fold_string 0000000180078918     oniguruma:regcomp.obj
 0004:00000924       $pdata$8$expand_case_fold_string 0000000180078924     oniguruma:regcomp.obj
 0004:00000930       $pdata$9$expand_case_fold_string 0000000180078930     oniguruma:regcomp.obj
 0004:0000093c       $pdata$setup_tree          000000018007893c     oniguruma:regcomp.obj
 0004:00000948       $pdata$set_bm_skip         0000000180078948     oniguruma:regcomp.obj
 0004:00000954       $pdata$concat_opt_exact_info 0000000180078954     oniguruma:regcomp.obj
 0004:00000960       $pdata$3$concat_opt_exact_info 0000000180078960     oniguruma:regcomp.obj
 0004:0000096c       $pdata$4$concat_opt_exact_info 000000018007896c     oniguruma:regcomp.obj
 0004:00000978       $pdata$5$concat_opt_exact_info 0000000180078978     oniguruma:regcomp.obj
 0004:00000984       $pdata$6$concat_opt_exact_info 0000000180078984     oniguruma:regcomp.obj
 0004:00000990       $pdata$7$concat_opt_exact_info 0000000180078990     oniguruma:regcomp.obj
 0004:0000099c       $pdata$concat_opt_exact_info_str 000000018007899c     oniguruma:regcomp.obj
 0004:000009a8       $pdata$1$concat_opt_exact_info_str 00000001800789a8     oniguruma:regcomp.obj
 0004:000009b4       $pdata$2$concat_opt_exact_info_str 00000001800789b4     oniguruma:regcomp.obj
 0004:000009c0       $pdata$alt_merge_opt_exact_info 00000001800789c0     oniguruma:regcomp.obj
 0004:000009cc       $pdata$0$alt_merge_opt_exact_info 00000001800789cc     oniguruma:regcomp.obj
 0004:000009d8       $pdata$1$alt_merge_opt_exact_info 00000001800789d8     oniguruma:regcomp.obj
 0004:000009e4       $pdata$2$alt_merge_opt_exact_info 00000001800789e4     oniguruma:regcomp.obj
 0004:000009f0       $pdata$3$alt_merge_opt_exact_info 00000001800789f0     oniguruma:regcomp.obj
 0004:000009fc       $pdata$select_opt_exact_info 00000001800789fc     oniguruma:regcomp.obj
 0004:00000a08       $pdata$add_char_amb_opt_map_info 0000000180078a08     oniguruma:regcomp.obj
 0004:00000a14       $pdata$0$add_char_amb_opt_map_info 0000000180078a14     oniguruma:regcomp.obj
 0004:00000a20       $pdata$1$add_char_amb_opt_map_info 0000000180078a20     oniguruma:regcomp.obj
 0004:00000a2c       $pdata$2$add_char_amb_opt_map_info 0000000180078a2c     oniguruma:regcomp.obj
 0004:00000a38       $pdata$3$add_char_amb_opt_map_info 0000000180078a38     oniguruma:regcomp.obj
 0004:00000a44       $pdata$select_opt_map_info 0000000180078a44     oniguruma:regcomp.obj
 0004:00000a50       $pdata$concat_left_node_opt_info 0000000180078a50     oniguruma:regcomp.obj
 0004:00000a5c       $pdata$optimize_node_left  0000000180078a5c     oniguruma:regcomp.obj
 0004:00000a68       $pdata$set_optimize_exact_info 0000000180078a68     oniguruma:regcomp.obj
 0004:00000a74       $pdata$0$set_optimize_exact_info 0000000180078a74     oniguruma:regcomp.obj
 0004:00000a80       $pdata$1$set_optimize_exact_info 0000000180078a80     oniguruma:regcomp.obj
 0004:00000a8c       $pdata$set_optimize_info_from_tree 0000000180078a8c     oniguruma:regcomp.obj
 0004:00000a98       $pdata$onig_free_body      0000000180078a98     oniguruma:regcomp.obj
 0004:00000aa4       $pdata$0$onig_free_body    0000000180078aa4     oniguruma:regcomp.obj
 0004:00000ab0       $pdata$1$onig_free_body    0000000180078ab0     oniguruma:regcomp.obj
 0004:00000abc       $pdata$onig_compile        0000000180078abc     oniguruma:regcomp.obj
 0004:00000ac8       $pdata$onig_is_code_in_cc_len 0000000180078ac8     oniguruma:regcomp.obj
 0004:00000ad4       $pdata$0$onig_is_code_in_cc_len 0000000180078ad4     oniguruma:regcomp.obj
 0004:00000ae0       $pdata$1$onig_is_code_in_cc_len 0000000180078ae0     oniguruma:regcomp.obj
 0004:00000aec       $pdata$2$onig_is_code_in_cc_len 0000000180078aec     oniguruma:regcomp.obj
 0004:00000af8       $pdata$3$onig_is_code_in_cc_len 0000000180078af8     oniguruma:regcomp.obj
 0004:00000b04       $pdata$onig_is_code_in_cc  0000000180078b04     oniguruma:regcomp.obj
 0004:00000b10       $pdata$bbuf_free           0000000180078b10     oniguruma:regparse.obj
 0004:00000b1c       $pdata$bbuf_clone          0000000180078b1c     oniguruma:regparse.obj
 0004:00000b28       $pdata$strcat_capa         0000000180078b28     oniguruma:regparse.obj
 0004:00000b34       $pdata$0$strcat_capa       0000000180078b34     oniguruma:regparse.obj
 0004:00000b40       $pdata$1$strcat_capa       0000000180078b40     oniguruma:regparse.obj
 0004:00000b4c       $pdata$strcat_capa_from_static 0000000180078b4c     oniguruma:regparse.obj
 0004:00000b58       $pdata$1$strcat_capa_from_static 0000000180078b58     oniguruma:regparse.obj
 0004:00000b64       $pdata$2$strcat_capa_from_static 0000000180078b64     oniguruma:regparse.obj
 0004:00000b70       $pdata$onig_st_init_strend_table_with_size 0000000180078b70     oniguruma:regparse.obj
 0004:00000b7c       $pdata$onig_st_insert_strend 0000000180078b7c     oniguruma:regparse.obj
 0004:00000b88       $pdata$i_free_name_entry   0000000180078b88     oniguruma:regparse.obj
 0004:00000b94       $pdata$name_find           0000000180078b94     oniguruma:regparse.obj
 0004:00000ba0       $pdata$1$name_find         0000000180078ba0     oniguruma:regparse.obj
 0004:00000bac       $pdata$2$name_find         0000000180078bac     oniguruma:regparse.obj
 0004:00000bb8       $pdata$3$name_find         0000000180078bb8     oniguruma:regparse.obj
 0004:00000bc4       $pdata$5$name_find         0000000180078bc4     oniguruma:regparse.obj
 0004:00000bd0       $pdata$6$name_find         0000000180078bd0     oniguruma:regparse.obj
 0004:00000bdc       $pdata$name_add            0000000180078bdc     oniguruma:regparse.obj
 0004:00000be8       $pdata$scan_env_add_mem_entry 0000000180078be8     oniguruma:regparse.obj
 0004:00000bf4       $pdata$0$scan_env_add_mem_entry 0000000180078bf4     oniguruma:regparse.obj
 0004:00000c00       $pdata$1$scan_env_add_mem_entry 0000000180078c00     oniguruma:regparse.obj
 0004:00000c0c       $pdata$onig_node_free      0000000180078c0c     oniguruma:regparse.obj
 0004:00000c18       $pdata$0$onig_node_free    0000000180078c18     oniguruma:regparse.obj
 0004:00000c24       $pdata$2$onig_node_free    0000000180078c24     oniguruma:regparse.obj
 0004:00000c30       $pdata$3$onig_node_free    0000000180078c30     oniguruma:regparse.obj
 0004:00000c3c       $pdata$node_new_cclass     0000000180078c3c     oniguruma:regparse.obj
 0004:00000c48       $pdata$node_new_cclass_by_codepoint_range 0000000180078c48     oniguruma:regparse.obj
 0004:00000c54       $pdata$0$node_new_cclass_by_codepoint_range 0000000180078c54     oniguruma:regparse.obj
 0004:00000c60       $pdata$1$node_new_cclass_by_codepoint_range 0000000180078c60     oniguruma:regparse.obj
 0004:00000c6c       $pdata$2$node_new_cclass_by_codepoint_range 0000000180078c6c     oniguruma:regparse.obj
 0004:00000c78       $pdata$3$node_new_cclass_by_codepoint_range 0000000180078c78     oniguruma:regparse.obj
 0004:00000c84       $pdata$node_new_anychar    0000000180078c84     oniguruma:regparse.obj
 0004:00000c90       $pdata$node_new_list       0000000180078c90     oniguruma:regparse.obj
 0004:00000c9c       $pdata$onig_node_list_add  0000000180078c9c     oniguruma:regparse.obj
 0004:00000ca8       $pdata$onig_node_new_alt   0000000180078ca8     oniguruma:regparse.obj
 0004:00000cb4       $pdata$onig_node_new_anchor 0000000180078cb4     oniguruma:regparse.obj
 0004:00000cc0       $pdata$node_new_backref    0000000180078cc0     oniguruma:regparse.obj
 0004:00000ccc       $pdata$node_new_quantifier 0000000180078ccc     oniguruma:regparse.obj
 0004:00000cd8       $pdata$node_new_enclose    0000000180078cd8     oniguruma:regparse.obj
 0004:00000ce4       $pdata$node_new_enclose_memory 0000000180078ce4     oniguruma:regparse.obj
 0004:00000cf0       $pdata$node_new_option     0000000180078cf0     oniguruma:regparse.obj
 0004:00000cfc       $pdata$onig_node_str_cat   0000000180078cfc     oniguruma:regparse.obj
 0004:00000d08       $pdata$node_new_str        0000000180078d08     oniguruma:regparse.obj
 0004:00000d14       $pdata$node_new_str_raw_char 0000000180078d14     oniguruma:regparse.obj
 0004:00000d20       $pdata$onig_scan_unsigned_number 0000000180078d20     oniguruma:regparse.obj
 0004:00000d2c       $pdata$scan_unsigned_hexadecimal_number 0000000180078d2c     oniguruma:regparse.obj
 0004:00000d38       $pdata$scan_unsigned_octal_number 0000000180078d38     oniguruma:regparse.obj
 0004:00000d44       $pdata$new_code_range      0000000180078d44     oniguruma:regparse.obj
 0004:00000d50       $pdata$add_code_range_to_buf 0000000180078d50     oniguruma:regparse.obj
 0004:00000d5c       $pdata$0$add_code_range_to_buf 0000000180078d5c     oniguruma:regparse.obj
 0004:00000d68       $pdata$4$add_code_range_to_buf 0000000180078d68     oniguruma:regparse.obj
 0004:00000d74       $pdata$5$add_code_range_to_buf 0000000180078d74     oniguruma:regparse.obj
 0004:00000d80       $pdata$not_code_range_buf  0000000180078d80     oniguruma:regparse.obj
 0004:00000d8c       $pdata$1$not_code_range_buf 0000000180078d8c     oniguruma:regparse.obj
 0004:00000d98       $pdata$2$not_code_range_buf 0000000180078d98     oniguruma:regparse.obj
 0004:00000da4       $pdata$or_code_range_buf   0000000180078da4     oniguruma:regparse.obj
 0004:00000db0       $pdata$and_code_range1     0000000180078db0     oniguruma:regparse.obj
 0004:00000dbc       $pdata$and_code_range_buf  0000000180078dbc     oniguruma:regparse.obj
 0004:00000dc8       $pdata$and_cclass          0000000180078dc8     oniguruma:regparse.obj
 0004:00000dd4       $pdata$or_cclass           0000000180078dd4     oniguruma:regparse.obj
 0004:00000de0       $pdata$is_invalid_quantifier_target 0000000180078de0     oniguruma:regparse.obj
 0004:00000dec       $pdata$fetch_range_quantifier 0000000180078dec     oniguruma:regparse.obj
 0004:00000df8       $pdata$1$fetch_range_quantifier 0000000180078df8     oniguruma:regparse.obj
 0004:00000e04       $pdata$2$fetch_range_quantifier 0000000180078e04     oniguruma:regparse.obj
 0004:00000e10       $pdata$fetch_escaped_value 0000000180078e10     oniguruma:regparse.obj
 0004:00000e1c       $pdata$0$fetch_escaped_value 0000000180078e1c     oniguruma:regparse.obj
 0004:00000e28       $pdata$2$fetch_escaped_value 0000000180078e28     oniguruma:regparse.obj
 0004:00000e34       $pdata$4$fetch_escaped_value 0000000180078e34     oniguruma:regparse.obj
 0004:00000e40       $pdata$6$fetch_escaped_value 0000000180078e40     oniguruma:regparse.obj
 0004:00000e4c       $pdata$8$fetch_escaped_value 0000000180078e4c     oniguruma:regparse.obj
 0004:00000e58       $pdata$fetch_name_with_level 0000000180078e58     oniguruma:regparse.obj
 0004:00000e64       $pdata$fetch_name          0000000180078e64     oniguruma:regparse.obj
 0004:00000e70       $pdata$str_exist_check_with_esc 0000000180078e70     oniguruma:regparse.obj
 0004:00000e7c       $pdata$fetch_token_in_cc   0000000180078e7c     oniguruma:regparse.obj
 0004:00000e88       $pdata$0$fetch_token_in_cc 0000000180078e88     oniguruma:regparse.obj
 0004:00000e94       $pdata$1$fetch_token_in_cc 0000000180078e94     oniguruma:regparse.obj
 0004:00000ea0       $pdata$fetch_token         0000000180078ea0     oniguruma:regparse.obj
 0004:00000eac       $pdata$add_ctype_to_cc_by_range 0000000180078eac     oniguruma:regparse.obj
 0004:00000eb8       $pdata$add_ctype_to_cc     0000000180078eb8     oniguruma:regparse.obj
 0004:00000ec4       $pdata$1$add_ctype_to_cc   0000000180078ec4     oniguruma:regparse.obj
 0004:00000ed0       $pdata$2$add_ctype_to_cc   0000000180078ed0     oniguruma:regparse.obj
 0004:00000edc       $pdata$parse_posix_bracket 0000000180078edc     oniguruma:regparse.obj
 0004:00000ee8       $pdata$fetch_char_property_to_ctype 0000000180078ee8     oniguruma:regparse.obj
 0004:00000ef4       $pdata$parse_char_property 0000000180078ef4     oniguruma:regparse.obj
 0004:00000f00       $pdata$0$parse_char_property 0000000180078f00     oniguruma:regparse.obj
 0004:00000f0c       $pdata$1$parse_char_property 0000000180078f0c     oniguruma:regparse.obj
 0004:00000f18       $pdata$next_state_val      0000000180078f18     oniguruma:regparse.obj
 0004:00000f24       $pdata$code_exist_check    0000000180078f24     oniguruma:regparse.obj
 0004:00000f30       $pdata$parse_char_class    0000000180078f30     oniguruma:regparse.obj
 0004:00000f3c       $pdata$parse_enclose       0000000180078f3c     oniguruma:regparse.obj
 0004:00000f48       $pdata$0$parse_enclose     0000000180078f48     oniguruma:regparse.obj
 0004:00000f54       $pdata$1$parse_enclose     0000000180078f54     oniguruma:regparse.obj
 0004:00000f60       $pdata$set_quantifier      0000000180078f60     oniguruma:regparse.obj
 0004:00000f6c       $pdata$i_apply_case_fold   0000000180078f6c     oniguruma:regparse.obj
 0004:00000f78       $pdata$parse_exp           0000000180078f78     oniguruma:regparse.obj
 0004:00000f84       $pdata$parse_branch        0000000180078f84     oniguruma:regparse.obj
 0004:00000f90       $pdata$0$parse_branch      0000000180078f90     oniguruma:regparse.obj
 0004:00000f9c       $pdata$1$parse_branch      0000000180078f9c     oniguruma:regparse.obj
 0004:00000fa8       $pdata$parse_subexp        0000000180078fa8     oniguruma:regparse.obj
 0004:00000fb4       $pdata$onig_parse_make_tree 0000000180078fb4     oniguruma:regparse.obj
 0004:00000fc0       $pdata$sprintf             0000000180078fc0     oniguruma:regerror.obj
 0004:00000fcc       $pdata$to_ascii            0000000180078fcc     oniguruma:regerror.obj
 0004:00000fd8       $pdata$1$to_ascii          0000000180078fd8     oniguruma:regerror.obj
 0004:00000fe4       $pdata$2$to_ascii          0000000180078fe4     oniguruma:regerror.obj
 0004:00000ff0       $pdata$onig_error_code_to_str 0000000180078ff0     oniguruma:regerror.obj
 0004:00000ffc       $pdata$0$onig_error_code_to_str 0000000180078ffc     oniguruma:regerror.obj
 0004:00001008       $pdata$1$onig_error_code_to_str 0000000180079008     oniguruma:regerror.obj
 0004:00001014       $pdata$2$onig_error_code_to_str 0000000180079014     oniguruma:regerror.obj
 0004:00001020       $pdata$3$onig_error_code_to_str 0000000180079020     oniguruma:regerror.obj
 0004:0000102c       $pdata$onigenc_get_right_adjust_char_head 000000018007902c     oniguruma:regenc.obj
 0004:00001038       $pdata$onigenc_step_back   0000000180079038     oniguruma:regenc.obj
 0004:00001044       $pdata$onigenc_strlen      0000000180079044     oniguruma:regenc.obj
 0004:00001050       $pdata$onigenc_ascii_apply_all_case_fold 0000000180079050     oniguruma:regenc.obj
 0004:0000105c       $pdata$onigenc_minimum_property_name_to_ctype 000000018007905c     oniguruma:regenc.obj
 0004:00001068       $pdata$onigenc_unicode_is_code_ctype 0000000180079068     oniguruma:unicode.obj
 0004:00001074       $pdata$init_name_ctype_table 0000000180079074     oniguruma:unicode.obj
 0004:00001080       $pdata$3$init_name_ctype_table 0000000180079080     oniguruma:unicode.obj
 0004:0000108c       $pdata$4$init_name_ctype_table 000000018007908c     oniguruma:unicode.obj
 0004:00001098       $pdata$onigenc_unicode_property_name_to_ctype 0000000180079098     oniguruma:unicode.obj
 0004:000010a4       $pdata$onigenc_end_unicode 00000001800790a4     oniguruma:unicode.obj
 0004:000010b0       $pdata$init_case_fold_table 00000001800790b0     oniguruma:unicode.obj
 0004:000010bc       $pdata$onigenc_unicode_mbc_case_fold 00000001800790bc     oniguruma:unicode.obj
 0004:000010c8       $pdata$0$onigenc_unicode_mbc_case_fold 00000001800790c8     oniguruma:unicode.obj
 0004:000010d4       $pdata$1$onigenc_unicode_mbc_case_fold 00000001800790d4     oniguruma:unicode.obj
 0004:000010e0       $pdata$onigenc_unicode_apply_all_case_fold 00000001800790e0     oniguruma:unicode.obj
 0004:000010ec       $pdata$onigenc_unicode_get_case_fold_codes_by_str 00000001800790ec     oniguruma:unicode.obj
 0004:000010f8       $pdata$onig_st_init_table_with_size 00000001800790f8     oniguruma:st.obj
 0004:00001104       $pdata$onig_st_free_table  0000000180079104     oniguruma:st.obj
 0004:00001110       $pdata$1$onig_st_free_table 0000000180079110     oniguruma:st.obj
 0004:0000111c       $pdata$2$onig_st_free_table 000000018007911c     oniguruma:st.obj
 0004:00001128       $pdata$onig_st_lookup      0000000180079128     oniguruma:st.obj
 0004:00001134       $pdata$0$onig_st_lookup    0000000180079134     oniguruma:st.obj
 0004:00001140       $pdata$1$onig_st_lookup    0000000180079140     oniguruma:st.obj
 0004:0000114c       $pdata$onig_st_insert      000000018007914c     oniguruma:st.obj
 0004:00001158       $pdata$0$onig_st_insert    0000000180079158     oniguruma:st.obj
 0004:00001164       $pdata$1$onig_st_insert    0000000180079164     oniguruma:st.obj
 0004:00001170       $pdata$onig_st_add_direct  0000000180079170     oniguruma:st.obj
 0004:0000117c       $pdata$1$onig_st_add_direct 000000018007917c     oniguruma:st.obj
 0004:00001188       $pdata$2$onig_st_add_direct 0000000180079188     oniguruma:st.obj
 0004:00001194       $pdata$rehash              0000000180079194     oniguruma:st.obj
 0004:000011a0       $pdata$onig_st_foreach     00000001800791a0     oniguruma:st.obj
 0004:000011b8       $pdata$??0bad_alloc@std@@QEAA@AEBV01@@Z 00000001800791b8     libcpmt:xthrow.obj
 0004:000011c4       $pdata$??0exception@std@@QEAA@AEBV01@@Z 00000001800791c4     libcpmt:xthrow.obj
 0004:000011d0       $pdata$??0length_error@std@@QEAA@AEBV01@@Z 00000001800791d0     libcpmt:xthrow.obj
 0004:000011dc       $pdata$??0length_error@std@@QEAA@PEBD@Z 00000001800791dc     libcpmt:xthrow.obj
 0004:000011e8       $pdata$??0logic_error@std@@QEAA@AEBV01@@Z 00000001800791e8     libcpmt:xthrow.obj
 0004:000011f4       $pdata$??0out_of_range@std@@QEAA@AEBV01@@Z 00000001800791f4     libcpmt:xthrow.obj
 0004:00001200       $pdata$??0out_of_range@std@@QEAA@PEBD@Z 0000000180079200     libcpmt:xthrow.obj
 0004:0000120c       $pdata$??_Gbad_exception@std@@UEAAPEAXI@Z 000000018007920c     libvcruntime:frame.obj
 0004:0000120c       $pdata$??_Gout_of_range@std@@UEAAPEAXI@Z 000000018007920c     libcpmt:xthrow.obj
 0004:0000120c       $pdata$??_Gexception@std@@UEAAPEAXI@Z 000000018007920c     libcpmt:xthrow.obj
 0004:0000120c       $pdata$??_Glength_error@std@@UEAAPEAXI@Z 000000018007920c     libcpmt:xthrow.obj
 0004:0000120c       $pdata$??_Glogic_error@std@@UEAAPEAXI@Z 000000018007920c     libcpmt:xthrow.obj
 0004:0000120c       $pdata$??_Gbad_array_new_length@std@@UEAAPEAXI@Z 000000018007920c     LIBCMT:throw_bad_alloc.obj
 0004:0000120c       $pdata$??_Gbad_alloc@std@@UEAAPEAXI@Z 000000018007920c     libcpmt:xthrow.obj
 0004:00001218       $pdata$?_Xbad_alloc@std@@YAXXZ 0000000180079218     libcpmt:xthrow.obj
 0004:00001218       $pdata$?__scrt_throw_std_bad_alloc@@YAXXZ 0000000180079218     LIBCMT:throw_bad_alloc.obj
 0004:00001224       $pdata$?_Xlength_error@std@@YAXPEBD@Z 0000000180079224     libcpmt:xthrow.obj
 0004:00001230       $pdata$?_Xout_of_range@std@@YAXPEBD@Z 0000000180079230     libcpmt:xthrow.obj
 0004:00001248       $pdata$??2@YAPEAX_K@Z      0000000180079248     LIBCMT:new_scalar.obj
 0004:00001254       $pdata$?dllmain_crt_dispatch@@YAHQEAUHINSTANCE__@@KQEAX@Z 0000000180079254     LIBCMT:dll_dllmain.obj
 0004:00001260       $pdata$?dllmain_crt_process_attach@@YAHQEAUHINSTANCE__@@QEAX@Z 0000000180079260     LIBCMT:dll_dllmain.obj
 0004:0000126c       $pdata$?dllmain_crt_process_detach@@YAH_N@Z 000000018007926c     LIBCMT:dll_dllmain.obj
 0004:00001278       $pdata$?dllmain_dispatch@@YAHQEAUHINSTANCE__@@KQEAX@Z 0000000180079278     LIBCMT:dll_dllmain.obj
 0004:00001284       $pdata$?dllmain_raw@@YAHQEAUHINSTANCE__@@KQEAX@Z 0000000180079284     LIBCMT:dll_dllmain.obj
 0004:00001290       $pdata$_DllMainCRTStartup  0000000180079290     LIBCMT:dll_dllmain.obj
 0004:0000129c       $pdata$__raise_securityfailure 000000018007929c     LIBCMT:gs_report.obj
 0004:000012a8       $pdata$__report_gsfailure  00000001800792a8     LIBCMT:gs_report.obj
 0004:000012b4       $pdata$__report_rangecheckfailure 00000001800792b4     LIBCMT:gs_report.obj
 0004:000012c0       $pdata$__report_securityfailure 00000001800792c0     LIBCMT:gs_report.obj
 0004:000012cc       $pdata$capture_current_context 00000001800792cc     LIBCMT:gs_report.obj
 0004:000012d8       $pdata$capture_previous_context 00000001800792d8     LIBCMT:gs_report.obj
 0004:000012e4       $pdata$??_Gtype_info@@UEAAPEAXI@Z 00000001800792e4     LIBCMT:std_type_info_static.obj
 0004:000012f0       $pdata$??0bad_array_new_length@std@@QEAA@AEBV01@@Z 00000001800792f0     LIBCMT:throw_bad_alloc.obj
 0004:000012fc       $pdata$?__scrt_throw_std_bad_array_new_length@@YAXXZ 00000001800792fc     LIBCMT:throw_bad_alloc.obj
 0004:00001308       $pdata$__scrt_acquire_startup_lock 0000000180079308     LIBCMT:utility.obj
 0004:00001314       $pdata$__scrt_dllmain_after_initialize_c 0000000180079314     LIBCMT:utility.obj
 0004:00001320       $pdata$__scrt_dllmain_before_initialize_c 0000000180079320     LIBCMT:utility.obj
 0004:0000132c       $pdata$__scrt_dllmain_crt_thread_attach 000000018007932c     LIBCMT:utility.obj
 0004:00001338       $pdata$__scrt_dllmain_crt_thread_detach 0000000180079338     LIBCMT:utility.obj
 0004:00001344       $pdata$__scrt_dllmain_exception_filter 0000000180079344     LIBCMT:utility.obj
 0004:00001350       $pdata$__scrt_dllmain_uninitialize_c 0000000180079350     LIBCMT:utility.obj
 0004:0000135c       $pdata$__scrt_dllmain_uninitialize_critical 000000018007935c     LIBCMT:utility.obj
 0004:00001368       $pdata$__scrt_initialize_crt 0000000180079368     LIBCMT:utility.obj
 0004:00001374       $pdata$__scrt_initialize_onexit_tables 0000000180079374     LIBCMT:utility.obj
 0004:00001380       $pdata$__scrt_is_nonwritable_in_current_image 0000000180079380     LIBCMT:utility.obj
 0004:0000138c       $pdata$__scrt_release_startup_lock 000000018007938c     LIBCMT:utility.obj
 0004:00001398       $pdata$__scrt_uninitialize_crt 0000000180079398     LIBCMT:utility.obj
 0004:000013a4       $pdata$_onexit             00000001800793a4     LIBCMT:utility.obj
 0004:000013b0       $pdata$atexit              00000001800793b0     LIBCMT:utility.obj
 0004:000013bc       $pdata$__security_init_cookie 00000001800793bc     LIBCMT:gs_support.obj
 0004:000013c8       $pdata$__scrt_initialize_default_local_stdio_options 00000001800793c8     LIBCMT:default_local_stdio_options.obj
 0004:000013d4       $pdata$__scrt_fastfail     00000001800793d4     LIBCMT:utility_desktop.obj
 0004:000013e0       $pdata$_RTC_Initialize     00000001800793e0     LIBCMT:_initsect_.obj
 0004:000013ec       $pdata$_RTC_Terminate      00000001800793ec     LIBCMT:_initsect_.obj
 0004:000013f8       $pdata$__isa_available_init 00000001800793f8     LIBCMT:_cpu_disp_.obj
 0004:00001404       $pdata$__DestructExceptionObject 0000000180079404     libvcruntime:frame.obj
 0004:00001410       $pdata$??0bad_exception@std@@QEAA@AEBV01@@Z 0000000180079410     libvcruntime:frame.obj
 0004:0000141c       $pdata$?CatchIt@@YAXPEAUEHExceptionRecord@@PEA_KPEAU_CONTEXT@@PEAU_xDISPATCHER_CONTEXT@@PEBU_s_FuncInfo@@PEBU_s_HandlerType@@PEBU_s_CatchableType@@PEBU_s_TryBlockMapEntry@@H1EE@Z 000000018007941c     libvcruntime:frame.obj
 0004:00001428       $pdata$?ExFilterRethrow@@YAHPEAU_EXCEPTION_POINTERS@@PEAUEHExceptionRecord@@PEAH@Z 0000000180079428     libvcruntime:frame.obj
 0004:00001434       $pdata$?FindHandler@@YAXPEAUEHExceptionRecord@@PEA_KPEAU_CONTEXT@@PEAU_xDISPATCHER_CONTEXT@@PEBU_s_FuncInfo@@EH1@Z 0000000180079434     libvcruntime:frame.obj
 0004:00001440       $pdata$?FindHandlerForForeignException@@YAXPEAUEHExceptionRecord@@PEA_KPEAU_CONTEXT@@PEAU_xDISPATCHER_CONTEXT@@PEBU_s_FuncInfo@@HH1@Z 0000000180079440     libvcruntime:frame.obj
 0004:0000144c       $pdata$?IsInExceptionSpec@@YAEPEAUEHExceptionRecord@@PEBU_s_ESTypeList@@@Z 000000018007944c     libvcruntime:frame.obj
 0004:00001458       $pdata$__BuildCatchObject  0000000180079458     libvcruntime:frame.obj
 0004:00001464       $pdata$__BuildCatchObjectHelper 0000000180079464     libvcruntime:frame.obj
 0004:00001470       $pdata$__CxxCallCatchBlock 0000000180079470     libvcruntime:frame.obj
 0004:0000147c       $pdata$__FrameUnwindFilter 000000018007947c     libvcruntime:frame.obj
 0004:00001488       $pdata$__FrameUnwindToState 0000000180079488     libvcruntime:frame.obj
 0004:00001494       $pdata$__InternalCxxFrameHandler 0000000180079494     libvcruntime:frame.obj
 0004:000014a0       $pdata$__TypeMatch         00000001800794a0     libvcruntime:frame.obj
 0004:000014ac       $pdata$__std_terminate     00000001800794ac     libvcruntime:frame.obj
 0004:000014c4       $pdata$_purecall           00000001800794c4     libvcruntime:purevirt.obj
 0004:000014d0       $pdata$__std_exception_copy 00000001800794d0     libvcruntime:std_exception.obj
 0004:000014dc       $pdata$__std_exception_destroy 00000001800794dc     libvcruntime:std_exception.obj
 0004:000014e8       $pdata$_CxxThrowException  00000001800794e8     libvcruntime:throw.obj
 0004:000014f4       $pdata$__C_specific_handler 00000001800794f4     libvcruntime:_chandler_.obj
 0004:00001500       $pdata$__vcrt_initialize   0000000180079500     libvcruntime:initialization.obj
 0004:0000150c       $pdata$__vcrt_thread_attach 000000018007950c     libvcruntime:initialization.obj
 0004:00001518       $pdata$__vcrt_thread_detach 0000000180079518     libvcruntime:initialization.obj
 0004:00001524       $pdata$__vcrt_uninitialize 0000000180079524     libvcruntime:initialization.obj
 0004:00001530       $pdata$__vcrt_uninitialize_critical 0000000180079530     libvcruntime:initialization.obj
 0004:0000153c       $pdata$__std_type_info_destroy_list 000000018007953c     libvcruntime:std_type_info.obj
 0004:00001554       $pdata$__vcrt_freefls      0000000180079554     libvcruntime:per_thread_data.obj
 0004:00001560       $pdata$__vcrt_freeptd      0000000180079560     libvcruntime:per_thread_data.obj
 0004:0000156c       $pdata$__vcrt_getptd       000000018007956c     libvcruntime:per_thread_data.obj
 0004:00001578       $pdata$__vcrt_getptd_noexit 0000000180079578     libvcruntime:per_thread_data.obj
 0004:00001584       $pdata$__vcrt_initialize_ptd 0000000180079584     libvcruntime:per_thread_data.obj
 0004:00001590       $pdata$__vcrt_uninitialize_ptd 0000000180079590     libvcruntime:per_thread_data.obj
 0004:0000159c       $pdata$?__GetCurrentState@@YAHPEA_KPEAU_xDISPATCHER_CONTEXT@@PEBU_s_FuncInfo@@@Z 000000018007959c     libvcruntime:ehstate.obj
 0004:000015a8       $pdata$?__GetUnwindTryBlock@@YAHPEA_KPEAU_xDISPATCHER_CONTEXT@@PEBU_s_FuncInfo@@@Z 00000001800795a8     libvcruntime:ehstate.obj
 0004:000015b4       $pdata$?__SetUnwindTryBlock@@YAXPEA_KPEAU_xDISPATCHER_CONTEXT@@PEBU_s_FuncInfo@@H@Z 00000001800795b4     libvcruntime:ehstate.obj
 0004:000015c0       $pdata$?__StateFromIp@@YAHPEBU_s_FuncInfo@@PEAU_xDISPATCHER_CONTEXT@@_J@Z 00000001800795c0     libvcruntime:ehstate.obj
 0004:000015d8       $pdata$?_ExecutionInCatch@@YAHPEAU_xDISPATCHER_CONTEXT@@PEBU_s_FuncInfo@@@Z 00000001800795d8     libvcruntime:trnsctrl.obj
 0004:000015e4       $pdata$?_GetEstablisherFrame@@YAPEA_KPEA_KPEAU_xDISPATCHER_CONTEXT@@PEBU_s_FuncInfo@@0@Z 00000001800795e4     libvcruntime:trnsctrl.obj
 0004:000015f0       $pdata$?_GetRangeOfTrysToCheck@@YAPEBU_s_TryBlockMapEntry@@PEA_KPEBU_s_FuncInfo@@HHPEAI2PEAU_xDISPATCHER_CONTEXT@@@Z 00000001800795f0     libvcruntime:trnsctrl.obj
 0004:000015fc       $pdata$?__FrameUnwindToEmptyState@@YAXPEA_KPEAU_xDISPATCHER_CONTEXT@@PEBU_s_FuncInfo@@@Z 00000001800795fc     libvcruntime:trnsctrl.obj
 0004:00001608       $pdata$?__SehTransFilter@@YAHPEAU_EXCEPTION_POINTERS@@PEAUEHExceptionRecord@@PEA_KPEAU_CONTEXT@@PEAU_xDISPATCHER_CONTEXT@@PEBU_s_FuncInfo@@PEAH@Z 0000000180079608     libvcruntime:trnsctrl.obj
 0004:00001614       $pdata$_CallSETranslator   0000000180079614     libvcruntime:trnsctrl.obj
 0004:00001620       $pdata$_CreateFrameInfo    0000000180079620     libvcruntime:trnsctrl.obj
 0004:0000162c       $pdata$_FindAndUnlinkFrame 000000018007962c     libvcruntime:trnsctrl.obj
 0004:00001638       $pdata$_GetImageBase       0000000180079638     libvcruntime:trnsctrl.obj
 0004:00001644       $pdata$_GetThrowImageBase  0000000180079644     libvcruntime:trnsctrl.obj
 0004:00001650       $pdata$_IsExceptionObjectToBeDestroyed 0000000180079650     libvcruntime:trnsctrl.obj
 0004:0000165c       $pdata$_SetImageBase       000000018007965c     libvcruntime:trnsctrl.obj
 0004:00001668       $pdata$_SetThrowImageBase  0000000180079668     libvcruntime:trnsctrl.obj
 0004:00001674       $pdata$_UnwindNestedFrames 0000000180079674     libvcruntime:trnsctrl.obj
 0004:00001680       $pdata$__CxxFrameHandler3  0000000180079680     libvcruntime:trnsctrl.obj
 0004:000016bc       $pdata$__vcrt_initialize_locks 00000001800796bc     libvcruntime:locks.obj
 0004:000016c8       $pdata$__vcrt_uninitialize_locks 00000001800796c8     libvcruntime:locks.obj
 0004:000016d4       $pdata$?try_get_function@@YAPEAXW4function_id@?A0x679b24ab@@QEBDQEBW4module_id@2@2@Z 00000001800796d4     libvcruntime:winapi_downlevel.obj
 0004:000016e0       $pdata$__vcrt_FlsAlloc     00000001800796e0     libvcruntime:winapi_downlevel.obj
 0004:000016ec       $pdata$__vcrt_FlsFree      00000001800796ec     libvcruntime:winapi_downlevel.obj
 0004:000016f8       $pdata$__vcrt_FlsGetValue  00000001800796f8     libvcruntime:winapi_downlevel.obj
 0004:00001704       $pdata$__vcrt_FlsSetValue  0000000180079704     libvcruntime:winapi_downlevel.obj
 0004:00001710       $pdata$__vcrt_InitializeCriticalSectionEx 0000000180079710     libvcruntime:winapi_downlevel.obj
 0004:0000171c       $pdata$__vcrt_uninitialize_winapi_thunks 000000018007971c     libvcruntime:winapi_downlevel.obj
 0004:00001728       $pdata$__acrt_call_reportfault 0000000180079728     libucrt:invalid_parameter.obj
 0004:00001734       $pdata$_invalid_parameter  0000000180079734     libucrt:invalid_parameter.obj
 0004:00001740       $pdata$_invalid_parameter_noinfo 0000000180079740     libucrt:invalid_parameter.obj
 0004:0000174c       $pdata$_invalid_parameter_noinfo_noreturn 000000018007974c     libucrt:invalid_parameter.obj
 0004:00001758       $pdata$_invoke_watson      0000000180079758     libucrt:invalid_parameter.obj
 0004:00001764       $pdata$??$common_assert_to_message_box@_W@@YAXQEB_W0IQEAX@Z 0000000180079764     libucrt:assert.obj
 0004:00001770       $pdata$??$common_assert_to_message_box_build_string@_W@@YAXQEA_W_KQEB_W2IQEAX@Z 0000000180079770     libucrt:assert.obj
 0004:0000177c       $pdata$??$common_assert_to_stderr@_W@@YAXQEB_W0I@Z 000000018007977c     libucrt:assert.obj
 0004:00001788       $pdata$_wassert            0000000180079788     libucrt:assert.obj
 0004:00001794       $pdata$fwprintf            0000000180079794     libucrt:assert.obj
 0004:000017a0       $pdata$swprintf            00000001800797a0     libucrt:assert.obj
 0004:000017ac       $pdata$??0_LocaleUpdate@@QEAA@QEAU__crt_locale_pointers@@@Z 00000001800797ac     libucrt:stricmp.obj
 0004:000017b8       $pdata$_stricmp            00000001800797b8     libucrt:stricmp.obj
 0004:000017c4       $pdata$_stricmp_l          00000001800797c4     libucrt:stricmp.obj
 0004:000017d0       $pdata$??$?RV<lambda_7b91131dde12e1c3dfc74ff76b3f2eac>@@AEAV<lambda_dd75445284c072d0bd3768540cc698fa>@@V<lambda_16bc4ecb55b4718497c16bceaea2ceaf>@@@?$__crt_seh_guarded_call@H@@QEAAH$$QEAV<lambda_7b91131dde12e1c3dfc74ff76b3f2eac>@@AEAV<lambda_dd75445284c072d0bd3768540cc698fa>@@$$QEAV<lambda_16bc4ecb55b4718497c16bceaea2ceaf>@@@Z 00000001800797d0     libucrt:output.obj
 0004:000017dc       $pdata$??$ensure_buffer_is_big_enough@D@formatting_buffer@__crt_stdio_output@@QEAA_N_K@Z 00000001800797dc     libucrt:output.obj
 0004:000017e8       $pdata$??$type_case_integer_parse_into_buffer@I@?$output_processor@_WV?$stream_output_adapter@_W@__crt_stdio_output@@V?$standard_base@_WV?$stream_output_adapter@_W@__crt_stdio_output@@@2@@__crt_stdio_output@@AEAAXII_N@Z 00000001800797e8     libucrt:output.obj
 0004:000017e8       $pdata$??$type_case_integer_parse_into_buffer@I@?$output_processor@DV?$string_output_adapter@D@__crt_stdio_output@@V?$standard_base@DV?$string_output_adapter@D@__crt_stdio_output@@@2@@__crt_stdio_output@@AEAAXII_N@Z 00000001800797e8     libucrt:output.obj
 0004:000017e8       $pdata$??$type_case_integer_parse_into_buffer@I@?$output_processor@_WV?$string_output_adapter@_W@__crt_stdio_output@@V?$standard_base@_WV?$string_output_adapter@_W@__crt_stdio_output@@@2@@__crt_stdio_output@@AEAAXII_N@Z 00000001800797e8     libucrt:output.obj
 0004:000017f4       $pdata$??$type_case_integer_parse_into_buffer@_K@?$output_processor@_WV?$string_output_adapter@_W@__crt_stdio_output@@V?$standard_base@_WV?$string_output_adapter@_W@__crt_stdio_output@@@2@@__crt_stdio_output@@AEAAX_KI_N@Z 00000001800797f4     libucrt:output.obj
 0004:000017f4       $pdata$??$type_case_integer_parse_into_buffer@_K@?$output_processor@DV?$string_output_adapter@D@__crt_stdio_output@@V?$standard_base@DV?$string_output_adapter@D@__crt_stdio_output@@@2@@__crt_stdio_output@@AEAAX_KI_N@Z 00000001800797f4     libucrt:output.obj
 0004:000017f4       $pdata$??$type_case_integer_parse_into_buffer@_K@?$output_processor@_WV?$stream_output_adapter@_W@__crt_stdio_output@@V?$standard_base@_WV?$stream_output_adapter@_W@__crt_stdio_output@@@2@@__crt_stdio_output@@AEAAX_KI_N@Z 00000001800797f4     libucrt:output.obj
 0004:00001800       $pdata$??$write_multiple_characters@V?$stream_output_adapter@_W@__crt_stdio_output@@D@__crt_stdio_output@@YAXAEBV?$stream_output_adapter@_W@0@DHQEAH@Z 0000000180079800     libucrt:output.obj
 0004:0000180c       $pdata$??$write_multiple_characters@V?$string_output_adapter@D@__crt_stdio_output@@D@__crt_stdio_output@@YAXAEBV?$string_output_adapter@D@0@DHQEAH@Z 000000018007980c     libucrt:output.obj
 0004:00001818       $pdata$??$write_multiple_characters@V?$string_output_adapter@_W@__crt_stdio_output@@D@__crt_stdio_output@@YAXAEBV?$string_output_adapter@_W@0@DHQEAH@Z 0000000180079818     libucrt:output.obj
 0004:00001824       $pdata$??0?$output_processor@DV?$string_output_adapter@D@__crt_stdio_output@@V?$standard_base@DV?$string_output_adapter@D@__crt_stdio_output@@@2@@__crt_stdio_output@@QEAA@AEBV?$string_output_adapter@D@1@_KQEBDQEAU__crt_locale_pointers@@QEAD@Z 0000000180079824     libucrt:output.obj
 0004:00001830       $pdata$??0?$output_processor@_WV?$stream_output_adapter@_W@__crt_stdio_output@@V?$standard_base@_WV?$stream_output_adapter@_W@__crt_stdio_output@@@2@@__crt_stdio_output@@QEAA@AEBV?$stream_output_adapter@_W@1@_KQEB_WQEAU__crt_locale_pointers@@QEAD@Z 0000000180079830     libucrt:output.obj
 0004:00001830       $pdata$??0?$output_processor@_WV?$string_output_adapter@_W@__crt_stdio_output@@V?$standard_base@_WV?$string_output_adapter@_W@__crt_stdio_output@@@2@@__crt_stdio_output@@QEAA@AEBV?$string_output_adapter@_W@1@_KQEB_WQEAU__crt_locale_pointers@@QEAD@Z 0000000180079830     libucrt:output.obj
 0004:0000183c       $pdata$??R<lambda_dd75445284c072d0bd3768540cc698fa>@@QEBAHXZ 000000018007983c     libucrt:output.obj
 0004:00001848       $pdata$?force_decimal_point@__crt_stdio_output@@YAXPEADQEAU__crt_locale_pointers@@@Z 0000000180079848     libucrt:output.obj
 0004:00001854       $pdata$?parse_int_from_format_string@?$output_processor@DV?$string_output_adapter@D@__crt_stdio_output@@V?$standard_base@DV?$string_output_adapter@D@__crt_stdio_output@@@2@@__crt_stdio_output@@AEAA_NQEAH@Z 0000000180079854     libucrt:output.obj
 0004:00001860       $pdata$?parse_int_from_format_string@?$output_processor@_WV?$stream_output_adapter@_W@__crt_stdio_output@@V?$standard_base@_WV?$stream_output_adapter@_W@__crt_stdio_output@@@2@@__crt_stdio_output@@AEAA_NQEAH@Z 0000000180079860     libucrt:output.obj
 0004:00001860       $pdata$?parse_int_from_format_string@?$output_processor@_WV?$string_output_adapter@_W@__crt_stdio_output@@V?$standard_base@_WV?$string_output_adapter@_W@__crt_stdio_output@@@2@@__crt_stdio_output@@AEAA_NQEAH@Z 0000000180079860     libucrt:output.obj
 0004:0000186c       $pdata$?process@?$output_processor@DV?$string_output_adapter@D@__crt_stdio_output@@V?$standard_base@DV?$string_output_adapter@D@__crt_stdio_output@@@2@@__crt_stdio_output@@QEAAHXZ 000000018007986c     libucrt:output.obj
 0004:00001878       $pdata$?process@?$output_processor@_WV?$stream_output_adapter@_W@__crt_stdio_output@@V?$standard_base@_WV?$stream_output_adapter@_W@__crt_stdio_output@@@2@@__crt_stdio_output@@QEAAHXZ 0000000180079878     libucrt:output.obj
 0004:00001884       $pdata$?process@?$output_processor@_WV?$string_output_adapter@_W@__crt_stdio_output@@V?$standard_base@_WV?$string_output_adapter@_W@__crt_stdio_output@@@2@@__crt_stdio_output@@QEAAHXZ 0000000180079884     libucrt:output.obj
 0004:00001890       $pdata$?state_case_normal@?$output_processor@DV?$string_output_adapter@D@__crt_stdio_output@@V?$standard_base@DV?$string_output_adapter@D@__crt_stdio_output@@@2@@__crt_stdio_output@@AEAA_NXZ 0000000180079890     libucrt:output.obj
 0004:0000189c       $pdata$?state_case_normal_tchar@?$output_processor@DV?$string_output_adapter@D@__crt_stdio_output@@V?$standard_base@DV?$string_output_adapter@D@__crt_stdio_output@@@2@@__crt_stdio_output@@AEAA_ND@Z 000000018007989c     libucrt:output.obj
 0004:000018a8       $pdata$?state_case_size@?$output_processor@DV?$string_output_adapter@D@__crt_stdio_output@@V?$standard_base@DV?$string_output_adapter@D@__crt_stdio_output@@@2@@__crt_stdio_output@@AEAA_NXZ 00000001800798a8     libucrt:output.obj
 0004:000018b4       $pdata$?state_case_size@?$output_processor@_WV?$stream_output_adapter@_W@__crt_stdio_output@@V?$standard_base@_WV?$stream_output_adapter@_W@__crt_stdio_output@@@2@@__crt_stdio_output@@AEAA_NXZ 00000001800798b4     libucrt:output.obj
 0004:000018c0       $pdata$?state_case_size@?$output_processor@_WV?$string_output_adapter@_W@__crt_stdio_output@@V?$standard_base@_WV?$string_output_adapter@_W@__crt_stdio_output@@@2@@__crt_stdio_output@@AEAA_NXZ 00000001800798c0     libucrt:output.obj
 0004:000018cc       $pdata$?state_case_type@?$output_processor@DV?$string_output_adapter@D@__crt_stdio_output@@V?$standard_base@DV?$string_output_adapter@D@__crt_stdio_output@@@2@@__crt_stdio_output@@AEAA_NXZ 00000001800798cc     libucrt:output.obj
 0004:000018d8       $pdata$?state_case_type@?$output_processor@_WV?$stream_output_adapter@_W@__crt_stdio_output@@V?$standard_base@_WV?$stream_output_adapter@_W@__crt_stdio_output@@@2@@__crt_stdio_output@@AEAA_NXZ 00000001800798d8     libucrt:output.obj
 0004:000018e4       $pdata$?state_case_type@?$output_processor@_WV?$string_output_adapter@_W@__crt_stdio_output@@V?$standard_base@_WV?$string_output_adapter@_W@__crt_stdio_output@@@2@@__crt_stdio_output@@AEAA_NXZ 00000001800798e4     libucrt:output.obj
 0004:000018f0       $pdata$?type_case_Z@?$output_processor@DV?$string_output_adapter@D@__crt_stdio_output@@V?$standard_base@DV?$string_output_adapter@D@__crt_stdio_output@@@2@@__crt_stdio_output@@AEAA_NXZ 00000001800798f0     libucrt:output.obj
 0004:000018fc       $pdata$?type_case_Z@?$output_processor@_WV?$stream_output_adapter@_W@__crt_stdio_output@@V?$standard_base@_WV?$stream_output_adapter@_W@__crt_stdio_output@@@2@@__crt_stdio_output@@AEAA_NXZ 00000001800798fc     libucrt:output.obj
 0004:000018fc       $pdata$?type_case_Z@?$output_processor@_WV?$string_output_adapter@_W@__crt_stdio_output@@V?$standard_base@_WV?$string_output_adapter@_W@__crt_stdio_output@@@2@@__crt_stdio_output@@AEAA_NXZ 00000001800798fc     libucrt:output.obj
 0004:00001908       $pdata$?type_case_a@?$output_processor@DV?$string_output_adapter@D@__crt_stdio_output@@V?$standard_base@DV?$string_output_adapter@D@__crt_stdio_output@@@2@@__crt_stdio_output@@AEAA_NXZ 0000000180079908     libucrt:output.obj
 0004:00001914       $pdata$?type_case_a@?$output_processor@_WV?$string_output_adapter@_W@__crt_stdio_output@@V?$standard_base@_WV?$string_output_adapter@_W@__crt_stdio_output@@@2@@__crt_stdio_output@@AEAA_NXZ 0000000180079914     libucrt:output.obj
 0004:00001914       $pdata$?type_case_a@?$output_processor@_WV?$stream_output_adapter@_W@__crt_stdio_output@@V?$standard_base@_WV?$stream_output_adapter@_W@__crt_stdio_output@@@2@@__crt_stdio_output@@AEAA_NXZ 0000000180079914     libucrt:output.obj
 0004:00001920       $pdata$?type_case_c_tchar@?$output_processor@DV?$string_output_adapter@D@__crt_stdio_output@@V?$standard_base@DV?$string_output_adapter@D@__crt_stdio_output@@@2@@__crt_stdio_output@@AEAA_ND@Z 0000000180079920     libucrt:output.obj
 0004:0000192c       $pdata$?type_case_c_tchar@?$output_processor@_WV?$string_output_adapter@_W@__crt_stdio_output@@V?$standard_base@_WV?$string_output_adapter@_W@__crt_stdio_output@@@2@@__crt_stdio_output@@AEAA_N_W@Z 000000018007992c     libucrt:output.obj
 0004:0000192c       $pdata$?type_case_c_tchar@?$output_processor@_WV?$stream_output_adapter@_W@__crt_stdio_output@@V?$standard_base@_WV?$stream_output_adapter@_W@__crt_stdio_output@@@2@@__crt_stdio_output@@AEAA_N_W@Z 000000018007992c     libucrt:output.obj
 0004:00001938       $pdata$?type_case_integer@?$output_processor@_WV?$stream_output_adapter@_W@__crt_stdio_output@@V?$standard_base@_WV?$stream_output_adapter@_W@__crt_stdio_output@@@2@@__crt_stdio_output@@AEAA_NI_N@Z 0000000180079938     libucrt:output.obj
 0004:00001938       $pdata$?type_case_integer@?$output_processor@_WV?$string_output_adapter@_W@__crt_stdio_output@@V?$standard_base@_WV?$string_output_adapter@_W@__crt_stdio_output@@@2@@__crt_stdio_output@@AEAA_NI_N@Z 0000000180079938     libucrt:output.obj
 0004:00001938       $pdata$?type_case_integer@?$output_processor@DV?$string_output_adapter@D@__crt_stdio_output@@V?$standard_base@DV?$string_output_adapter@D@__crt_stdio_output@@@2@@__crt_stdio_output@@AEAA_NI_N@Z 0000000180079938     libucrt:output.obj
 0004:00001944       $pdata$?type_case_n@?$output_processor@_WV?$stream_output_adapter@_W@__crt_stdio_output@@V?$standard_base@_WV?$stream_output_adapter@_W@__crt_stdio_output@@@2@@__crt_stdio_output@@AEAA_NXZ 0000000180079944     libucrt:output.obj
 0004:00001944       $pdata$?type_case_n@?$output_processor@_WV?$string_output_adapter@_W@__crt_stdio_output@@V?$standard_base@_WV?$string_output_adapter@_W@__crt_stdio_output@@@2@@__crt_stdio_output@@AEAA_NXZ 0000000180079944     libucrt:output.obj
 0004:00001944       $pdata$?type_case_n@?$output_processor@DV?$string_output_adapter@D@__crt_stdio_output@@V?$standard_base@DV?$string_output_adapter@D@__crt_stdio_output@@@2@@__crt_stdio_output@@AEAA_NXZ 0000000180079944     libucrt:output.obj
 0004:00001950       $pdata$?type_case_s@?$output_processor@DV?$string_output_adapter@D@__crt_stdio_output@@V?$standard_base@DV?$string_output_adapter@D@__crt_stdio_output@@@2@@__crt_stdio_output@@AEAA_NXZ 0000000180079950     libucrt:output.obj
 0004:0000195c       $pdata$?type_case_s@?$output_processor@_WV?$string_output_adapter@_W@__crt_stdio_output@@V?$standard_base@_WV?$string_output_adapter@_W@__crt_stdio_output@@@2@@__crt_stdio_output@@AEAA_NXZ 000000018007995c     libucrt:output.obj
 0004:0000195c       $pdata$?type_case_s@?$output_processor@_WV?$stream_output_adapter@_W@__crt_stdio_output@@V?$standard_base@_WV?$stream_output_adapter@_W@__crt_stdio_output@@@2@@__crt_stdio_output@@AEAA_NXZ 000000018007995c     libucrt:output.obj
 0004:00001968       $pdata$?write_stored_string_tchar@?$output_processor@DV?$string_output_adapter@D@__crt_stdio_output@@V?$standard_base@DV?$string_output_adapter@D@__crt_stdio_output@@@2@@__crt_stdio_output@@AEAA_ND@Z 0000000180079968     libucrt:output.obj
 0004:00001974       $pdata$?write_stored_string_tchar@?$output_processor@_WV?$stream_output_adapter@_W@__crt_stdio_output@@V?$standard_base@_WV?$stream_output_adapter@_W@__crt_stdio_output@@@2@@__crt_stdio_output@@AEAA_N_W@Z 0000000180079974     libucrt:output.obj
 0004:00001980       $pdata$?write_stored_string_tchar@?$output_processor@_WV?$string_output_adapter@_W@__crt_stdio_output@@V?$standard_base@_WV?$string_output_adapter@_W@__crt_stdio_output@@@2@@__crt_stdio_output@@AEAA_N_W@Z 0000000180079980     libucrt:output.obj
 0004:0000198c       $pdata$?write_string@?$stream_output_adapter@_W@__crt_stdio_output@@QEBAXQEB_WHQEAH1@Z 000000018007998c     libucrt:output.obj
 0004:00001998       $pdata$?write_string@?$string_output_adapter@D@__crt_stdio_output@@QEBAXQEBDHQEAH1@Z 0000000180079998     libucrt:output.obj
 0004:000019a4       $pdata$?write_string@?$string_output_adapter@_W@__crt_stdio_output@@QEBAXQEB_WHQEAH1@Z 00000001800799a4     libucrt:output.obj
 0004:000019b0       $pdata$__stdio_common_vfwprintf 00000001800799b0     libucrt:output.obj
 0004:000019bc       $pdata$__stdio_common_vsprintf 00000001800799bc     libucrt:output.obj
 0004:000019c8       $pdata$__stdio_common_vswprintf 00000001800799c8     libucrt:output.obj
 0004:000019e0       $pdata$_callnewh           00000001800799e0     libucrt:new_handler.obj
 0004:000019ec       $pdata$_query_new_handler  00000001800799ec     libucrt:new_handler.obj
 0004:000019f8       $pdata$_initterm           00000001800799f8     libucrt:initterm.obj
 0004:00001a04       $pdata$_initterm_e         0000000180079a04     libucrt:initterm.obj
 0004:00001a10       $pdata$_seh_filter_exe     0000000180079a10     libucrt:exception_filter.obj
 0004:00001a1c       $pdata$?common_exit@@YAXHW4_crt_exit_cleanup_mode@@W4_crt_exit_return_mode@@@Z 0000000180079a1c     libucrt:exit.obj
 0004:00001a28       $pdata$?exit_or_terminate_process@@YAXI@Z 0000000180079a28     libucrt:exit.obj
 0004:00001a34       $pdata$?try_cor_exit_process@@YAXI@Z 0000000180079a34     libucrt:exit.obj
 0004:00001a40       $pdata$??$parse_command_line@D@@YAXPEADPEAPEAD0PEA_K2@Z 0000000180079a40     libucrt:argv_parsing.obj
 0004:00001a4c       $pdata$__acrt_allocate_buffer_for_argv 0000000180079a4c     libucrt:argv_parsing.obj
 0004:00001a58       $pdata$_configure_narrow_argv 0000000180079a58     libucrt:argv_parsing.obj
 0004:00001a64       $pdata$??$common_initialize_environment_nolock@D@@YAHXZ 0000000180079a64     libucrt:environment_initialization.obj
 0004:00001a70       $pdata$??$create_environment@D@@YAQEAPEADQEAD@Z 0000000180079a70     libucrt:environment_initialization.obj
 0004:00001a7c       $pdata$??$free_environment@_W@@YAXQEAPEA_W@Z 0000000180079a7c     libucrt:environment_initialization.obj
 0004:00001a7c       $pdata$??$free_environment@D@@YAXQEAPEAD@Z 0000000180079a7c     libucrt:environment_initialization.obj
 0004:00001a88       $pdata$??$uninitialize_environment_internal@D@@YAXAEAPEAPEAD@Z 0000000180079a88     libucrt:environment_initialization.obj
 0004:00001a94       $pdata$??$uninitialize_environment_internal@_W@@YAXAEAPEAPEA_W@Z 0000000180079a94     libucrt:environment_initialization.obj
 0004:00001aa0       $pdata$__dcrt_uninitialize_environments_nolock 0000000180079aa0     libucrt:environment_initialization.obj
 0004:00001aac       $pdata$??$?RV<lambda_b8c45f8f788dd370798f47cfe8ac3a86>@@AEAV<lambda_4e60a939b0d047cfe11ddc22648dfba9>@@V<lambda_332c3edc96d0294ec56c57d38c1cdfd5>@@@?$__crt_seh_guarded_call@H@@QEAAH$$QEAV<lambda_b8c45f8f788dd370798f47cfe8ac3a86>@@AEAV<lambda_4e60a939b0d047cfe11ddc22648dfba9>@@$$QEAV<lambda_332c3edc96d0294ec56c57d38c1cdfd5>@@@Z 0000000180079aac     libucrt:onexit.obj
 0004:00001ab8       $pdata$??$?RV<lambda_e24bbb7b643b32fcea6fa61b31d4c984>@@AEAV<lambda_275893d493268fdec8709772e3fcec0e>@@V<lambda_9d71df4d7cf3f480f8d633942495c3b0>@@@?$__crt_seh_guarded_call@H@@QEAAH$$QEAV<lambda_e24bbb7b643b32fcea6fa61b31d4c984>@@AEAV<lambda_275893d493268fdec8709772e3fcec0e>@@$$QEAV<lambda_9d71df4d7cf3f480f8d633942495c3b0>@@@Z 0000000180079ab8     libucrt:onexit.obj
 0004:00001ac4       $pdata$??R<lambda_4e60a939b0d047cfe11ddc22648dfba9>@@QEBAHXZ 0000000180079ac4     libucrt:onexit.obj
 0004:00001ad0       $pdata$_execute_onexit_table 0000000180079ad0     libucrt:onexit.obj
 0004:00001adc       $pdata$_register_onexit_function 0000000180079adc     libucrt:onexit.obj
 0004:00001ae8       $pdata$initialize_c        0000000180079ae8     libucrt:initialization.obj
 0004:00001af4       $pdata$uninitialize_environment 0000000180079af4     libucrt:initialization.obj
 0004:00001b00       $pdata$initialize_pointers 0000000180079b00     libucrt:initialization.obj
 0004:00001b0c       $pdata$uninitialize_allocated_memory 0000000180079b0c     libucrt:initialization.obj
 0004:00001b18       $pdata$__acrt_thread_attach 0000000180079b18     libucrt:initialization.obj
 0004:00001b24       $pdata$__acrt_thread_detach 0000000180079b24     libucrt:initialization.obj
 0004:00001b30       $pdata$__acrt_uninitialize_critical 0000000180079b30     libucrt:initialization.obj
 0004:00001b3c       $pdata$terminate           0000000180079b3c     libucrt:terminate.obj
 0004:00001b48       $pdata$abort               0000000180079b48     libucrt:abort.obj
 0004:00001b54       $pdata$strcpy_s            0000000180079b54     libucrt:strcpy_s.obj
 0004:00001b60       $pdata$_free_base          0000000180079b60     libucrt:free_base.obj
 0004:00001b6c       $pdata$_malloc_base        0000000180079b6c     libucrt:malloc_base.obj
 0004:00001b78       $pdata$_calloc_base        0000000180079b78     libucrt:calloc_base.obj
 0004:00001b84       $pdata$??$parse_integer@KV?$c_string_character_source@D@__crt_strtox@@@__crt_strtox@@YAKQEAU__crt_locale_pointers@@V?$c_string_character_source@D@0@H_N@Z 0000000180079b84     libucrt:atox.obj
 0004:00001b90       $pdata$??$parse_integer@KV?$c_string_character_source@_W@__crt_strtox@@@__crt_strtox@@YAKQEAU__crt_locale_pointers@@V?$c_string_character_source@_W@0@H_N@Z 0000000180079b90     libucrt:atox.obj
 0004:00001b9c       $pdata$??$?RV<lambda_46352004c1216016012b18bd6f87e700>@@AEAV<lambda_3bd07e1a1191394380780325891bf33f>@@V<lambda_334532d3f185bcaa59b5be82d7d22bff>@@@?$__crt_seh_guarded_call@X@@QEAAX$$QEAV<lambda_46352004c1216016012b18bd6f87e700>@@AEAV<lambda_3bd07e1a1191394380780325891bf33f>@@$$QEAV<lambda_334532d3f185bcaa59b5be82d7d22bff>@@@Z 0000000180079b9c     libucrt:per_thread_data.obj
 0004:00001ba8       $pdata$??$?RV<lambda_5e887d1dcbef67a5eb4283622ba103bf>@@AEAV<lambda_4466841279450cc726390878d4a41900>@@V<lambda_341c25c0346d94847f1f3c463c57e077>@@@?$__crt_seh_guarded_call@X@@QEAAX$$QEAV<lambda_5e887d1dcbef67a5eb4283622ba103bf>@@AEAV<lambda_4466841279450cc726390878d4a41900>@@$$QEAV<lambda_341c25c0346d94847f1f3c463c57e077>@@@Z 0000000180079ba8     libucrt:per_thread_data.obj
 0004:00001bb4       $pdata$??$?RV<lambda_72d1df2b273a38828b1ce30cbf4cdab5>@@AEAV<lambda_876a65b173b8412d3a47c70a915b0cf4>@@V<lambda_41932305e351933ebe8f8be3ed8bb5dc>@@@?$__crt_seh_guarded_call@X@@QEAAX$$QEAV<lambda_72d1df2b273a38828b1ce30cbf4cdab5>@@AEAV<lambda_876a65b173b8412d3a47c70a915b0cf4>@@$$QEAV<lambda_41932305e351933ebe8f8be3ed8bb5dc>@@@Z 0000000180079bb4     libucrt:per_thread_data.obj
 0004:00001bc0       $pdata$??$?RV<lambda_fb3a7dec4e47f37f22dae91bb15c9095>@@AEAV<lambda_698284760c8add0bfb0756c19673e34b>@@V<lambda_dfb8eca1e75fef3034a8fb18dd509707>@@@?$__crt_seh_guarded_call@X@@QEAAX$$QEAV<lambda_fb3a7dec4e47f37f22dae91bb15c9095>@@AEAV<lambda_698284760c8add0bfb0756c19673e34b>@@$$QEAV<lambda_dfb8eca1e75fef3034a8fb18dd509707>@@@Z 0000000180079bc0     libucrt:per_thread_data.obj
 0004:00001bcc       $pdata$?construct_ptd_array@@YAXQEAU__acrt_ptd@@@Z 0000000180079bcc     libucrt:per_thread_data.obj
 0004:00001bd8       $pdata$?destroy_fls@@YAXPEAX@Z 0000000180079bd8     libucrt:per_thread_data.obj
 0004:00001be4       $pdata$?destroy_ptd_array@@YAXQEAU__acrt_ptd@@@Z 0000000180079be4     libucrt:per_thread_data.obj
 0004:00001bf0       $pdata$?replace_current_thread_locale_nolock@@YAXQEAU__acrt_ptd@@QEAU__crt_locale_data@@@Z 0000000180079bf0     libucrt:per_thread_data.obj
 0004:00001bfc       $pdata$__acrt_freeptd      0000000180079bfc     libucrt:per_thread_data.obj
 0004:00001c08       $pdata$__acrt_getptd       0000000180079c08     libucrt:per_thread_data.obj
 0004:00001c14       $pdata$__acrt_getptd_noexit 0000000180079c14     libucrt:per_thread_data.obj
 0004:00001c20       $pdata$__acrt_initialize_ptd 0000000180079c20     libucrt:per_thread_data.obj
 0004:00001c2c       $pdata$__acrt_uninitialize_ptd 0000000180079c2c     libucrt:per_thread_data.obj
 0004:00001c38       $pdata$__acrt_errno_map_os_error 0000000180079c38     libucrt:errno.obj
 0004:00001c44       $pdata$__doserrno          0000000180079c44     libucrt:errno.obj
 0004:00001c50       $pdata$_errno              0000000180079c50     libucrt:errno.obj
 0004:00001c5c       $pdata$??$common_xtox@K_W@@YAHKQEA_W_KI_N@Z 0000000180079c5c     libucrt:xtoa.obj
 0004:00001c68       $pdata$??$common_xtox_s@K_W@@YAHKQEA_W_KI_N@Z 0000000180079c68     libucrt:xtoa.obj
 0004:00001c74       $pdata$_itow_s             0000000180079c74     libucrt:xtoa.obj
 0004:00001c80       $pdata$_set_error_mode     0000000180079c80     libucrt:set_error_mode.obj
 0004:00001c8c       $pdata$wcscat_s            0000000180079c8c     libucrt:wcscat_s.obj
 0004:00001c98       $pdata$wcscpy_s            0000000180079c98     libucrt:wcscpy_s.obj
 0004:00001ca4       $pdata$wcsncat_s           0000000180079ca4     libucrt:wcsncat_s.obj
 0004:00001cb0       $pdata$??$message_box_wait_thread@_W@@YAKQEAX@Z 0000000180079cb0     libucrt:crtmbox.obj
 0004:00001cbc       $pdata$__acrt_show_wide_message_box 0000000180079cbc     libucrt:crtmbox.obj
 0004:00001cc8       $pdata$__acrt_initialize_stdio 0000000180079cc8     libucrt:_file.obj
 0004:00001cd4       $pdata$__acrt_uninitialize_stdio 0000000180079cd4     libucrt:_file.obj
 0004:00001ce0       $pdata$__acrt_stdio_flush_nolock 0000000180079ce0     libucrt:fflush.obj
 0004:00001cec       $pdata$_fflush_nolock      0000000180079cec     libucrt:fflush.obj
 0004:00001cf8       $pdata$common_flush_all    0000000180079cf8     libucrt:fflush.obj
 0004:00001d04       $pdata$fflush              0000000180079d04     libucrt:fflush.obj
 0004:00001d10       $pdata$??$?RV<lambda_7a5ef57ff966f610505f1d28a3d40618>@@AEAV<lambda_b721fa326cdb32351d23dfa67958c160>@@V<lambda_5e0fb27672408a07956fe59e48ccb2aa>@@@?$__crt_seh_guarded_call@H@@QEAAH$$QEAV<lambda_7a5ef57ff966f610505f1d28a3d40618>@@AEAV<lambda_b721fa326cdb32351d23dfa67958c160>@@$$QEAV<lambda_5e0fb27672408a07956fe59e48ccb2aa>@@@Z 0000000180079d10     libucrt:setvbuf.obj
 0004:00001d1c       $pdata$??R<lambda_b721fa326cdb32351d23dfa67958c160>@@QEBAHXZ 0000000180079d1c     libucrt:setvbuf.obj
 0004:00001d28       $pdata$setvbuf             0000000180079d28     libucrt:setvbuf.obj
 0004:00001d34       $pdata$??$?RV<lambda_c36588078e9f5dfd39652860aa6b3aaf>@@AEAV<lambda_ec61778202f4f5fc7e7711acc23c3bca>@@V<lambda_dc9d2797ccde5d239b4a0efae8ebd7db>@@@?$__crt_seh_guarded_call@P6AXH@Z@@QEAAP6AXH@Z$$QEAV<lambda_c36588078e9f5dfd39652860aa6b3aaf>@@AEAV<lambda_ec61778202f4f5fc7e7711acc23c3bca>@@$$QEAV<lambda_dc9d2797ccde5d239b4a0efae8ebd7db>@@@Z 0000000180079d34     libucrt:signal.obj
 0004:00001d40       $pdata$__acrt_get_sigabrt_handler 0000000180079d40     libucrt:signal.obj
 0004:00001d4c       $pdata$raise               0000000180079d4c     libucrt:signal.obj
 0004:00001d58       $pdata$?internal_isupper_l@@YA_NHQEAU__crt_locale_pointers@@@Z 0000000180079d58     libucrt:tolower_toupper.obj
 0004:00001d64       $pdata$_tolower_l          0000000180079d64     libucrt:tolower_toupper.obj
 0004:00001d70       $pdata$tolower             0000000180079d70     libucrt:tolower_toupper.obj
 0004:00001d7c       $pdata$__acrt_update_locale_info 0000000180079d7c     libucrt:locale_update.obj
 0004:00001d88       $pdata$__acrt_update_multibyte_info 0000000180079d88     libucrt:locale_update.obj
 0004:00001d94       $pdata$__acrt_uninitialize_locale 0000000180079d94     libucrt:wsetlocale.obj
 0004:00001da0       $pdata$_realloc_base       0000000180079da0     libucrt:realloc_base.obj
 0004:00001dac       $pdata$isdigit             0000000180079dac     libucrt:_ctype.obj
 0004:00001db8       $pdata$strtol              0000000180079db8     libucrt:strtox.obj
 0004:00001dc4       $pdata$wcstol              0000000180079dc4     libucrt:strtox.obj
 0004:00001dd0       $pdata$_mbtowc_l           0000000180079dd0     libucrt:mbtowc.obj
 0004:00001ddc       $pdata$_wctomb_s_l         0000000180079ddc     libucrt:wctomb.obj
 0004:00001de8       $pdata$wctomb_s            0000000180079de8     libucrt:wctomb.obj
 0004:00001df4       $pdata$strnlen             0000000180079df4     libucrt:strnlen.obj
 0004:00001e00       $pdata$wcsnlen             0000000180079e00     libucrt:strnlen.obj
 0004:00001e0c       $pdata$?fp_format_a@@YAHQEBNPEAD_KQEAD2H_NIQEAU__crt_locale_pointers@@@Z 0000000180079e0c     libucrt:cvt.obj
 0004:00001e18       $pdata$?fp_format_e@@YAHQEBNQEAD_K12H_NIQEAU__crt_locale_pointers@@@Z 0000000180079e18     libucrt:cvt.obj
 0004:00001e24       $pdata$?fp_format_e_internal@@YAHQEAD_KH_NIQEAU_strflt@@2QEAU__crt_locale_pointers@@@Z 0000000180079e24     libucrt:cvt.obj
 0004:00001e30       $pdata$?fp_format_f_internal@@YAHQEAD_KHQEAU_strflt@@_NQEAU__crt_locale_pointers@@@Z 0000000180079e30     libucrt:cvt.obj
 0004:00001e3c       $pdata$?fp_format_g@@YAHQEBNQEAD_K12H_NIQEAU__crt_locale_pointers@@@Z 0000000180079e3c     libucrt:cvt.obj
 0004:00001e48       $pdata$?fp_format_nan_or_infinity@@YAHW4__acrt_fp_class@@_NPEAD_K1@Z 0000000180079e48     libucrt:cvt.obj
 0004:00001e54       $pdata$__acrt_fp_format    0000000180079e54     libucrt:cvt.obj
 0004:00001e60       $pdata$_fputwc_nolock      0000000180079e60     libucrt:fputwc.obj
 0004:00001e6c       $pdata$_fileno             0000000180079e6c     libucrt:fileno.obj
 0004:00001e78       $pdata$__acrt_stdio_begin_temporary_buffering_nolock 0000000180079e78     libucrt:_sftbuf.obj
 0004:00001e84       $pdata$__acrt_stdio_end_temporary_buffering_nolock 0000000180079e84     libucrt:_sftbuf.obj
 0004:00001e90       $pdata$?initialize_inherited_file_handles_nolock@@YAXXZ 0000000180079e90     libucrt:ioinit.obj
 0004:00001e9c       $pdata$?initialize_stdio_handles_nolock@@YAXXZ 0000000180079e9c     libucrt:ioinit.obj
 0004:00001ea8       $pdata$__acrt_initialize_lowio 0000000180079ea8     libucrt:ioinit.obj
 0004:00001eb4       $pdata$__acrt_uninitialize_lowio 0000000180079eb4     libucrt:ioinit.obj
 0004:00001ec0       $pdata$__acrt_initialize_locks 0000000180079ec0     libucrt:locks.obj
 0004:00001ecc       $pdata$__acrt_uninitialize_locks 0000000180079ecc     libucrt:locks.obj
 0004:00001ed8       $pdata$?try_get_function@@YAPEAXW4function_id@?A0x63058377@@QEBDQEBW4module_id@2@2@Z 0000000180079ed8     libucrt:winapi_thunks.obj
 0004:00001ee4       $pdata$__acrt_FlsAlloc     0000000180079ee4     libucrt:winapi_thunks.obj
 0004:00001ef0       $pdata$__acrt_FlsFree      0000000180079ef0     libucrt:winapi_thunks.obj
 0004:00001efc       $pdata$__acrt_FlsGetValue  0000000180079efc     libucrt:winapi_thunks.obj
 0004:00001f08       $pdata$__acrt_FlsSetValue  0000000180079f08     libucrt:winapi_thunks.obj
 0004:00001f14       $pdata$__acrt_InitializeCriticalSectionEx 0000000180079f14     libucrt:winapi_thunks.obj
 0004:00001f20       $pdata$__acrt_LCMapStringEx 0000000180079f20     libucrt:winapi_thunks.obj
 0004:00001f2c       $pdata$__acrt_LocaleNameToLCID 0000000180079f2c     libucrt:winapi_thunks.obj
 0004:00001f38       $pdata$__acrt_MessageBoxW  0000000180079f38     libucrt:winapi_thunks.obj
 0004:00001f44       $pdata$__acrt_can_show_message_box 0000000180079f44     libucrt:winapi_thunks.obj
 0004:00001f50       $pdata$__acrt_get_parent_window 0000000180079f50     libucrt:winapi_thunks.obj
 0004:00001f5c       $pdata$__acrt_initialize_winapi_thunks 0000000180079f5c     libucrt:winapi_thunks.obj
 0004:00001f68       $pdata$__acrt_is_interactive 0000000180079f68     libucrt:winapi_thunks.obj
 0004:00001f74       $pdata$__acrt_is_packaged_app 0000000180079f74     libucrt:winapi_thunks.obj
 0004:00001f80       $pdata$__acrt_uninitialize_winapi_thunks 0000000180079f80     libucrt:winapi_thunks.obj
 0004:00001f8c       $pdata$??$common_expand_argv_wildcards@D@@YAHQEAPEADQEAPEAPEAD@Z 0000000180079f8c     libucrt:argv_wildcards.obj
 0004:00001f98       $pdata$??$copy_and_add_argument_to_buffer@D@@YAHQEBD0_KAEAV?$argument_list@D@?A0xca0879c4@@@Z 0000000180079f98     libucrt:argv_wildcards.obj
 0004:00001fa4       $pdata$??$expand_argument_wildcards@D@@YAHQEAD0AEAV?$argument_list@D@?A0xca0879c4@@@Z 0000000180079fa4     libucrt:argv_wildcards.obj
 0004:00001fb0       $pdata$?expand_if_necessary@?$argument_list@D@?A0xca0879c4@@AEAAHXZ 0000000180079fb0     libucrt:argv_wildcards.obj
 0004:00001fbc       $pdata$??$?RV<lambda_99476a1ad63dd22509b5d3e65b0ffc95>@@AEAV<lambda_ad1ced32f4ac17aa236e5ef05d6b3b7c>@@V<lambda_f7424dd8d45958661754dc4f2697e9c3>@@@?$__crt_seh_guarded_call@X@@QEAAX$$QEAV<lambda_99476a1ad63dd22509b5d3e65b0ffc95>@@AEAV<lambda_ad1ced32f4ac17aa236e5ef05d6b3b7c>@@$$QEAV<lambda_f7424dd8d45958661754dc4f2697e9c3>@@@Z 0000000180079fbc     libucrt:mbctype.obj
 0004:00001fc8       $pdata$??R<lambda_ad1ced32f4ac17aa236e5ef05d6b3b7c>@@QEBAXXZ 0000000180079fc8     libucrt:mbctype.obj
 0004:00001fd4       $pdata$?getSystemCP@@YAHH@Z 0000000180079fd4     libucrt:mbctype.obj
 0004:00001fe0       $pdata$?setSBCS@@YAXPEAU__crt_multibyte_data@@@Z 0000000180079fe0     libucrt:mbctype.obj
 0004:00001fec       $pdata$?setSBUpLow@@YAXPEAU__crt_multibyte_data@@@Z 0000000180079fec     libucrt:mbctype.obj
 0004:00001ff8       $pdata$?setmbcp_internal@@YAHH_N@Z 0000000180079ff8     libucrt:mbctype.obj
 0004:00002004       $pdata$__acrt_initialize_multibyte 000000018007a004     libucrt:mbctype.obj
 0004:00002010       $pdata$__acrt_update_thread_multibyte_data 000000018007a010     libucrt:mbctype.obj
 0004:0000201c       $pdata$_setmbcp_nolock     000000018007a01c     libucrt:mbctype.obj
 0004:00002028       $pdata$?x_ismbbtype_l@@YAHPEAU__crt_locale_pointers@@IHH@Z 000000018007a028     libucrt:ismbbyte.obj
 0004:00002034       $pdata$__acrt_initialize_command_line 000000018007a034     libucrt:argv_data.obj
 0004:00002040       $pdata$__dcrt_get_narrow_environment_from_os 000000018007a040     libucrt:get_environment_from_os.obj
 0004:0000204c       $pdata$_recalloc_base      000000018007a04c     libucrt:recalloc.obj
 0004:00002058       $pdata$__acrt_initialize_heap 000000018007a058     libucrt:heap_handle.obj
 0004:00002064       $pdata$__acrt_execute_initializers 000000018007a064     libucrt:shared_initialization.obj
 0004:00002070       $pdata$__acrt_execute_uninitializers 000000018007a070     libucrt:shared_initialization.obj
 0004:0000207c       $pdata$__acrt_invoke_user_matherr 000000018007a07c     libucrt:matherr.obj
 0004:00002088       $pdata$__pctype_func       000000018007a088     libucrt:ctype.obj
 0004:00002094       $pdata$iswctype            000000018007a094     libucrt:iswctype.obj
 0004:000020a0       $pdata$_isctype_l          000000018007a0a0     libucrt:isctype.obj
 0004:000020ac       $pdata$__acrt_free_locale  000000018007a0ac     libucrt:locale_refcounting.obj
 0004:000020b8       $pdata$__acrt_locale_free_lc_time_if_unreferenced 000000018007a0b8     libucrt:locale_refcounting.obj
 0004:000020c4       $pdata$__acrt_release_locale_ref 000000018007a0c4     libucrt:locale_refcounting.obj
 0004:000020d0       $pdata$__acrt_update_thread_locale_data 000000018007a0d0     libucrt:locale_refcounting.obj
 0004:000020dc       $pdata$_updatetlocinfoEx_nolock 000000018007a0dc     libucrt:locale_refcounting.obj
 0004:000020e8       $pdata$_fcloseall          000000018007a0e8     libucrt:closeall.obj
 0004:000020f4       $pdata$__acrt_stdio_free_buffer_nolock 000000018007a0f4     libucrt:_freebuf.obj
 0004:00002100       $pdata$??$?RV<lambda_b521505b218e5242e90febf6bfebc422>@@AEAV<lambda_6978c1fb23f02e42e1d9e99668cc68aa>@@V<lambda_314360699dd331753a4119843814e9a7>@@@?$__crt_seh_guarded_call@H@@QEAAH$$QEAV<lambda_b521505b218e5242e90febf6bfebc422>@@AEAV<lambda_6978c1fb23f02e42e1d9e99668cc68aa>@@$$QEAV<lambda_314360699dd331753a4119843814e9a7>@@@Z 000000018007a100     libucrt:commit.obj
 0004:0000210c       $pdata$_commit             000000018007a10c     libucrt:commit.obj
 0004:00002118       $pdata$?write_double_translated_ansi_nolock@@YA?AUwrite_result@?A0x9c548279@@HQEBDI@Z 000000018007a118     libucrt:write.obj
 0004:00002124       $pdata$?write_text_ansi_nolock@@YA?AUwrite_result@?A0x9c548279@@HQEBDI@Z 000000018007a124     libucrt:write.obj
 0004:00002130       $pdata$?write_text_utf16le_nolock@@YA?AUwrite_result@?A0x9c548279@@HQEBDI@Z 000000018007a130     libucrt:write.obj
 0004:0000213c       $pdata$?write_text_utf8_nolock@@YA?AUwrite_result@?A0x9c548279@@HQEBDI@Z 000000018007a13c     libucrt:write.obj
 0004:00002148       $pdata$_write              000000018007a148     libucrt:write.obj
 0004:00002154       $pdata$_write_nolock       000000018007a154     libucrt:write.obj
 0004:00002160       $pdata$_isleadbyte_l       000000018007a160     libucrt:_wctype.obj
 0004:0000216c       $pdata$?__acrt_LCMapStringA_stat@@YAHPEAU__crt_locale_pointers@@PEB_WKPEBDHPEADHHH@Z 000000018007a16c     libucrt:lcmapstringa.obj
 0004:00002178       $pdata$__acrt_LCMapStringA 000000018007a178     libucrt:lcmapstringa.obj
 0004:00002184       $pdata$__acrt_locale_free_monetary 000000018007a184     libucrt:initmon.obj
 0004:00002190       $pdata$__acrt_locale_free_numeric 000000018007a190     libucrt:initnum.obj
 0004:0000219c       $pdata$?free_crt_array_internal@@YAXQEAPEBX_K@Z 000000018007a19c     libucrt:inittime.obj
 0004:000021a8       $pdata$__acrt_locale_free_time 000000018007a1a8     libucrt:inittime.obj
 0004:000021b4       $pdata$__acrt_GetStringTypeA 000000018007a1b4     libucrt:getstringtypea.obj
 0004:000021c0       $pdata$__acrt_fp_strflt_to_string 000000018007a1c0     libucrt:_fptostr.obj
 0004:000021cc       $pdata$?divide@__crt_strtox@@YA_KAEAUbig_integer@1@AEBU21@@Z 000000018007a1cc     libucrt:cfout.obj
 0004:000021d8       $pdata$5$?divide@__crt_strtox@@YA_KAEAUbig_integer@1@AEBU21@@Z 000000018007a1d8     libucrt:cfout.obj
 0004:000021e4       $pdata$6$?divide@__crt_strtox@@YA_KAEAUbig_integer@1@AEBU21@@Z 000000018007a1e4     libucrt:cfout.obj
 0004:000021f0       $pdata$__acrt_fltout       000000018007a1f0     libucrt:cfout.obj
 0004:000021fc       $pdata$memcpy_s            000000018007a1fc     libucrt:cfout.obj
 0004:00002208       $pdata$??$write_buffer_nolock@D@@YA_NDV__crt_stdio_stream@@@Z 000000018007a208     libucrt:_flsbuf.obj
 0004:00002214       $pdata$??$write_buffer_nolock@_W@@YA_N_WV__crt_stdio_stream@@@Z 000000018007a214     libucrt:_flsbuf.obj
 0004:00002220       $pdata$__acrt_stdio_flush_and_write_narrow_nolock 000000018007a220     libucrt:_flsbuf.obj
 0004:0000222c       $pdata$__acrt_stdio_flush_and_write_wide_nolock 000000018007a22c     libucrt:_flsbuf.obj
 0004:00002238       $pdata$_isatty             000000018007a238     libucrt:isatty.obj
 0004:00002244       $pdata$__acrt_lowio_create_handle_array 000000018007a244     libucrt:osfinfo.obj
 0004:00002250       $pdata$__acrt_lowio_destroy_handle_array 000000018007a250     libucrt:osfinfo.obj
 0004:0000225c       $pdata$__acrt_lowio_ensure_fh_exists 000000018007a25c     libucrt:osfinfo.obj
 0004:00002268       $pdata$_free_osfhnd        000000018007a268     libucrt:osfinfo.obj
 0004:00002274       $pdata$_get_osfhandle      000000018007a274     libucrt:osfinfo.obj
 0004:00002280       $pdata$?GetTableIndexFromLocaleName@@YAHPEB_W@Z 000000018007a280     libucrt:lcidtoname_downlevel.obj
 0004:0000228c       $pdata$__acrt_DownlevelLocaleNameToLCID 000000018007a28c     libucrt:lcidtoname_downlevel.obj
 0004:00002298       $pdata$?shortsort@@YAXPEAD0_KP6AHPEBX2@Z@Z 000000018007a298     libucrt:qsort.obj
 0004:000022a4       $pdata$2$?shortsort@@YAXPEAD0_KP6AHPEBX2@Z@Z 000000018007a2a4     libucrt:qsort.obj
 0004:000022b0       $pdata$3$?shortsort@@YAXPEAD0_KP6AHPEBX2@Z@Z 000000018007a2b0     libucrt:qsort.obj
 0004:000022bc       $pdata$qsort               000000018007a2bc     libucrt:qsort.obj
 0004:000022c8       $pdata$4$qsort             000000018007a2c8     libucrt:qsort.obj
 0004:000022d4       $pdata$5$qsort             000000018007a2d4     libucrt:qsort.obj
 0004:000022e0       $pdata$strncpy_s           000000018007a2e0     libucrt:strncpy_s.obj
 0004:000022ec       $pdata$strpbrk             000000018007a2ec     libucrt:strpbrk.obj
 0004:000022f8       $pdata$_mbsdec_l           000000018007a2f8     libucrt:mbsdec.obj
 0004:00002304       $pdata$?initialize_multibyte@@YAHXZ 000000018007a304     libucrt:multibyte_initializer.obj
 0004:00002310       $pdata$_msize              000000018007a310     libucrt:msize.obj
 0004:0000231c       $pdata$_fclose_nolock      000000018007a31c     libucrt:fclose.obj
 0004:00002328       $pdata$fclose              000000018007a328     libucrt:fclose.obj
 0004:00002334       $pdata$??$common_lseek@_J@@YA_JH_JH@Z 000000018007a334     libucrt:lseek.obj
 0004:00002340       $pdata$??$common_lseek_nolock@_J@@YA_JH_JH@Z 000000018007a340     libucrt:lseek.obj
 0004:0000234c       $pdata$_putwch_nolock      000000018007a34c     libucrt:putwch.obj
 0004:00002358       $pdata$fegetenv            000000018007a358     libucrt:fegetenv.obj
 0004:00002364       $pdata$fesetenv            000000018007a364     libucrt:fesetenv.obj
 0004:00002370       $pdata$feholdexcept        000000018007a370     libucrt:feholdexcept.obj
 0004:00002388       $pdata$__acrt_stdio_allocate_buffer_nolock 000000018007a388     libucrt:_getbuf.obj
 0004:00002394       $pdata$??$?RV<lambda_bfedae4ebbf01fab1bb6dcc6a9e276e0>@@AEAV<lambda_2fe9b910cf3cbf4a0ab98a02ba45b3ec>@@V<lambda_237c231691f317818eb88cc1d5d642d6>@@@?$__crt_seh_guarded_call@H@@QEAAH$$QEAV<lambda_bfedae4ebbf01fab1bb6dcc6a9e276e0>@@AEAV<lambda_2fe9b910cf3cbf4a0ab98a02ba45b3ec>@@$$QEAV<lambda_237c231691f317818eb88cc1d5d642d6>@@@Z 000000018007a394     libucrt:close.obj
 0004:000023a0       $pdata$_close              000000018007a3a0     libucrt:close.obj
 0004:000023ac       $pdata$_close_nolock       000000018007a3ac     libucrt:close.obj
 0004:000023b8       $pdata$__dcrt_lowio_initialize_console_output 000000018007a3b8     libucrt:initcon.obj
 0004:000023c4       $pdata$__dcrt_terminate_console_output 000000018007a3c4     libucrt:initcon.obj
 0004:000023d0       $pdata$_getfpcontrolword   000000018007a3d0     libucrt:_fenvutils.obj
 0004:000023dc       $pdata$_getfpstatusword    000000018007a3dc     libucrt:_fenvutils.obj
 0004:000023e8       $pdata$_setfpstatusword    000000018007a3e8     libucrt:_fenvutils.obj
 0004:000023f4       $pdata$_clearfp            000000018007a3f4     libucrt:ieee.obj
 0004:00002400       $pdata$common_control87    000000018007a400     libucrt:ieee.obj
 0004:0000240c       $pdata$_call_matherr       000000018007a40c     libucrt:libm_error.obj
 0004:00002418       $pdata$_exception_enabled  000000018007a418     libucrt:libm_error.obj
 0004:00002424       $pdata$_handle_error       000000018007a424     libucrt:libm_error.obj
 0004:00002430       $pdata$__acrt_initialize_fma3 000000018007a430     libucrt:fma3_available.obj
 0004:0000243c       $pdata$_log10_special      000000018007a43c     libucrt:log_special.obj
 0004:00002448       $pdata$_log_special_common 000000018007a448     libucrt:log_special.obj
 0004:00002460       $pdata$_raise_exc          000000018007a460     libucrt:fpexcept.obj
 0004:0000246c       $pdata$_raise_exc_ex       000000018007a46c     libucrt:fpexcept.obj
 0004:00002478       $pdata$_set_errno_from_matherr 000000018007a478     libucrt:fpexcept.obj
 0004:00002484       $pdata$_clrfp              000000018007a484     libucrt:fpctrl.obj
 0004:00002490       $pdata$_ctrlfp             000000018007a490     libucrt:fpctrl.obj
 0004:0000249c       $pdata$_set_statfp         000000018007a49c     libucrt:fpctrl.obj
 0004:000024a8       $pdata$_statfp             000000018007a4a8     libucrt:fpctrl.obj
 0004:000024b4       $pdata$?DloadAcquireSectionWriteAccess@@YAXXZ 000000018007a4b4     DelayImp:delayhlp.obj
 0004:000024c0       $pdata$?DloadGetSRWLockFunctionPointers@@YAEXZ 000000018007a4c0     DelayImp:delayhlp.obj
 0004:000024cc       $pdata$?DloadMakePermanentImageCommit@@YAXPEAX_K@Z 000000018007a4cc     DelayImp:delayhlp.obj
 0004:000024d8       $pdata$?DloadObtainSection@@YAPEAXPEAK0@Z 000000018007a4d8     DelayImp:delayhlp.obj
 0004:000024e4       $pdata$?DloadProtectSection@@YAXKPEAK@Z 000000018007a4e4     DelayImp:delayhlp.obj
 0004:000024f0       $pdata$?DloadReleaseSectionWriteAccess@@YAXXZ 000000018007a4f0     DelayImp:delayhlp.obj
 0004:000024fc       $pdata$__delayLoadHelper2  000000018007a4fc     DelayImp:delayhlp.obj
 0004:00002508       $pdata$_IsNonwritableInCurrentImage 000000018007a508     LIBCMT:pesect.obj
 0004:00002514       $pdata$__GSHandlerCheck    000000018007a514     LIBCMT:_gshandler_.obj
 0004:00002520       $pdata$__GSHandlerCheckCommon 000000018007a520     LIBCMT:_gshandler_.obj
 0004:00002544       $pdata$strrchr             000000018007a544     libvcruntime:strrchr.obj
 0004:00002550       $pdata$__GSHandlerCheck_EH 000000018007a550     LIBCMT:gshandlereh.obj
 0004:00002568       $pdata$?dtor$0@?0??Search@OnigRegExp@@AEAA?AV?$shared_ptr@VOnigResult@@@std@@PEBD_K1@Z@4HA 000000018007a568     onig-reg-exp.obj
 0004:00002574       $pdata$?dtor$1@?0??Search@OnigRegExp@@AEAA?AV?$shared_ptr@VOnigResult@@@std@@PEBD_K1@Z@4HA 000000018007a574     onig-reg-exp.obj
 0004:00002580       $pdata$?dtor$2@?0??Search@OnigRegExp@@AEAA?AV?$shared_ptr@VOnigResult@@@std@@PEBD_K1@Z@4HA 000000018007a580     onig-reg-exp.obj
 0004:0000258c       $pdata$?dtor$4@?0???0OnigScannerWorker@@QEAA@PEAVCallback@Nan@@V?$vector@V?$shared_ptr@VOnigRegExp@@@std@@V?$allocator@V?$shared_ptr@VOnigRegExp@@@std@@@2@@std@@V?$Local@VString@v8@@@v8@@H@Z@4HA 000000018007a58c     onig-scanner.obj
 0004:00002598       $pdata$?dtor$5@?0???0OnigScannerWorker@@QEAA@PEAVCallback@Nan@@V?$vector@V?$shared_ptr@VOnigRegExp@@@std@@V?$allocator@V?$shared_ptr@VOnigRegExp@@@std@@@2@@std@@V?$Local@VString@v8@@@v8@@H@Z@4HA 000000018007a598     onig-scanner.obj
 0004:000025a4       $pdata$?dtor$1@?0??New@OnigScanner@@CAXAEBV?$FunctionCallbackInfo@VValue@v8@@@Nan@@@Z@4HA 000000018007a5a4     onig-scanner.obj
 0004:000025b0       $pdata$?dtor$4@?0???0OnigScanner@@AEAA@V?$Local@VArray@v8@@@v8@@@Z@4HA 000000018007a5b0     onig-scanner.obj
 0004:000025bc       $pdata$?dtor$5@?0???0OnigScanner@@AEAA@V?$Local@VArray@v8@@@v8@@@Z@4HA 000000018007a5bc     onig-scanner.obj
 0004:000025c8       $pdata$?dtor$7@?0???0OnigScanner@@AEAA@V?$Local@VArray@v8@@@v8@@@Z@4HA 000000018007a5c8     onig-scanner.obj
 0004:000025d4       $pdata$?dtor$0@?0??FindNextMatch@OnigScanner@@AEAAXV?$Local@VString@v8@@@v8@@V?$Local@VNumber@v8@@@3@V?$Local@VFunction@v8@@@3@@Z@4HA 000000018007a5d4     onig-scanner.obj
 0004:000025e0       $pdata$?dtor$1@?0??FindNextMatch@OnigScanner@@AEAAXV?$Local@VString@v8@@@v8@@V?$Local@VNumber@v8@@@3@V?$Local@VFunction@v8@@@3@@Z@4HA 000000018007a5e0     onig-scanner.obj
 0004:000025ec       $pdata$?dtor$0@?0??FindNextMatchSync@OnigScanner@@AEAA?AV?$Local@VValue@v8@@@v8@@V?$Local@VString@v8@@@3@V?$Local@VNumber@v8@@@3@@Z@4HA 000000018007a5ec     onig-scanner.obj
 0004:000025f8       $pdata$?dtor$0@?0??Search@OnigSearcher@@QEAA?AV?$shared_ptr@VOnigResult@@@std@@PEAVOnigString@@H@Z@4HA 000000018007a5f8     onig-searcher.obj
 0004:00002604       $pdata$?dtor$0@?0??New@OnigString@@CAXAEBV?$FunctionCallbackInfo@VValue@v8@@@Nan@@@Z@4HA 000000018007a604     onig-string.obj
 0004:00002610       $pdata$?fin$0@?0??dllmain_crt_process_attach@@YAHQEAUHINSTANCE__@@QEAX@Z@4HA 000000018007a610     LIBCMT:dll_dllmain.obj
 0004:0000261c       $pdata$?fin$0@?0??dllmain_crt_process_detach@@YAH_N@Z@4HA 000000018007a61c     LIBCMT:dll_dllmain.obj
 0004:00002628       $pdata$?filt$0@?0??dllmain_dispatch@@YAHQEAUHINSTANCE__@@KQEAX@Z@4HA 000000018007a628     LIBCMT:dll_dllmain.obj
 0004:00002634       $pdata$__scrt_is_nonwritable_in_current_image$filt$0 000000018007a634     LIBCMT:utility.obj
 0004:00002640       $pdata$__CxxCallCatchBlock$filt$0 000000018007a640     libvcruntime:frame.obj
 0004:0000264c       $pdata$__CxxCallCatchBlock$fin$1 000000018007a64c     libvcruntime:frame.obj
 0004:00002658       $pdata$__DestructExceptionObject$filt$0 000000018007a658     libvcruntime:frame.obj
 0004:00002664       $pdata$__FrameUnwindToState$filt$0 000000018007a664     libvcruntime:frame.obj
 0004:00002670       $pdata$__FrameUnwindToState$fin$1 000000018007a670     libvcruntime:frame.obj
 0004:0000267c       $pdata$_CallSETranslator$filt$0 000000018007a67c     libvcruntime:trnsctrl.obj
 0004:00002688       $pdata$?fin$0@?0???$?RV<lambda_7a5ef57ff966f610505f1d28a3d40618>@@AEAV<lambda_b721fa326cdb32351d23dfa67958c160>@@V<lambda_5e0fb27672408a07956fe59e48ccb2aa>@@@?$__crt_seh_guarded_call@H@@QEAAH$$QEAV<lambda_7a5ef57ff966f610505f1d28a3d40618>@@AEAV<lambda_b721fa326cdb32351d23dfa67958c160>@@$$QEAV<lambda_5e0fb27672408a07956fe59e48ccb2aa>@@@Z@4HA 000000018007a688     libucrt:setvbuf.obj
 0004:00002688       $pdata$?fin$0@?0???$?RV<lambda_7b91131dde12e1c3dfc74ff76b3f2eac>@@AEAV<lambda_dd75445284c072d0bd3768540cc698fa>@@V<lambda_16bc4ecb55b4718497c16bceaea2ceaf>@@@?$__crt_seh_guarded_call@H@@QEAAH$$QEAV<lambda_7b91131dde12e1c3dfc74ff76b3f2eac>@@AEAV<lambda_dd75445284c072d0bd3768540cc698fa>@@$$QEAV<lambda_16bc4ecb55b4718497c16bceaea2ceaf>@@@Z@4HA 000000018007a688     libucrt:output.obj
 0004:00002694       $pdata$_query_new_handler$fin$0 000000018007a694     libucrt:new_handler.obj
 0004:000026a0       $pdata$?filt$0@?0??common_exit@@YAXHW4_crt_exit_cleanup_mode@@W4_crt_exit_return_mode@@@Z@4HA 000000018007a6a0     libucrt:exit.obj
 0004:000026ac       $pdata$?fin$1@?0??common_exit@@YAXHW4_crt_exit_cleanup_mode@@W4_crt_exit_return_mode@@@Z@4HA 000000018007a6ac     libucrt:exit.obj
 0004:000026b8       $pdata$?fin$0@?0???$?RV<lambda_e24bbb7b643b32fcea6fa61b31d4c984>@@AEAV<lambda_275893d493268fdec8709772e3fcec0e>@@V<lambda_9d71df4d7cf3f480f8d633942495c3b0>@@@?$__crt_seh_guarded_call@H@@QEAAH$$QEAV<lambda_e24bbb7b643b32fcea6fa61b31d4c984>@@AEAV<lambda_275893d493268fdec8709772e3fcec0e>@@$$QEAV<lambda_9d71df4d7cf3f480f8d633942495c3b0>@@@Z@4HA 000000018007a6b8     libucrt:onexit.obj
 0004:000026c4       $pdata$common_flush_all$fin$0 000000018007a6c4     libucrt:fflush.obj
 0004:000026d0       $pdata$common_flush_all$fin$1 000000018007a6d0     libucrt:fflush.obj
 0004:000026dc       $pdata$fflush$fin$0        000000018007a6dc     libucrt:fflush.obj
 0004:000026dc       $pdata$fclose$fin$0        000000018007a6dc     libucrt:fclose.obj
 0004:000026e8       $pdata$?fin$0@?0???$?RV<lambda_72d1df2b273a38828b1ce30cbf4cdab5>@@AEAV<lambda_876a65b173b8412d3a47c70a915b0cf4>@@V<lambda_41932305e351933ebe8f8be3ed8bb5dc>@@@?$__crt_seh_guarded_call@X@@QEAAX$$QEAV<lambda_72d1df2b273a38828b1ce30cbf4cdab5>@@AEAV<lambda_876a65b173b8412d3a47c70a915b0cf4>@@$$QEAV<lambda_41932305e351933ebe8f8be3ed8bb5dc>@@@Z@4HA 000000018007a6e8     libucrt:per_thread_data.obj
 0004:000026e8       $pdata$?fin$0@?0???$?RV<lambda_b8c45f8f788dd370798f47cfe8ac3a86>@@AEAV<lambda_4e60a939b0d047cfe11ddc22648dfba9>@@V<lambda_332c3edc96d0294ec56c57d38c1cdfd5>@@@?$__crt_seh_guarded_call@H@@QEAAH$$QEAV<lambda_b8c45f8f788dd370798f47cfe8ac3a86>@@AEAV<lambda_4e60a939b0d047cfe11ddc22648dfba9>@@$$QEAV<lambda_332c3edc96d0294ec56c57d38c1cdfd5>@@@Z@4HA 000000018007a6e8     libucrt:onexit.obj
 0004:000026e8       $pdata$?fin$0@?0???$?RV<lambda_fb3a7dec4e47f37f22dae91bb15c9095>@@AEAV<lambda_698284760c8add0bfb0756c19673e34b>@@V<lambda_dfb8eca1e75fef3034a8fb18dd509707>@@@?$__crt_seh_guarded_call@X@@QEAAX$$QEAV<lambda_fb3a7dec4e47f37f22dae91bb15c9095>@@AEAV<lambda_698284760c8add0bfb0756c19673e34b>@@$$QEAV<lambda_dfb8eca1e75fef3034a8fb18dd509707>@@@Z@4HA 000000018007a6e8     libucrt:per_thread_data.obj
 0004:000026e8       $pdata$?fin$0@?0???$?RV<lambda_46352004c1216016012b18bd6f87e700>@@AEAV<lambda_3bd07e1a1191394380780325891bf33f>@@V<lambda_334532d3f185bcaa59b5be82d7d22bff>@@@?$__crt_seh_guarded_call@X@@QEAAX$$QEAV<lambda_46352004c1216016012b18bd6f87e700>@@AEAV<lambda_3bd07e1a1191394380780325891bf33f>@@$$QEAV<lambda_334532d3f185bcaa59b5be82d7d22bff>@@@Z@4HA 000000018007a6e8     libucrt:per_thread_data.obj
 0004:000026e8       $pdata$?fin$0@?0???$?RV<lambda_5e887d1dcbef67a5eb4283622ba103bf>@@AEAV<lambda_4466841279450cc726390878d4a41900>@@V<lambda_341c25c0346d94847f1f3c463c57e077>@@@?$__crt_seh_guarded_call@X@@QEAAX$$QEAV<lambda_5e887d1dcbef67a5eb4283622ba103bf>@@AEAV<lambda_4466841279450cc726390878d4a41900>@@$$QEAV<lambda_341c25c0346d94847f1f3c463c57e077>@@@Z@4HA 000000018007a6e8     libucrt:per_thread_data.obj
 0004:000026e8       $pdata$?fin$0@?0???$?RV<lambda_c36588078e9f5dfd39652860aa6b3aaf>@@AEAV<lambda_ec61778202f4f5fc7e7711acc23c3bca>@@V<lambda_dc9d2797ccde5d239b4a0efae8ebd7db>@@@?$__crt_seh_guarded_call@P6AXH@Z@@QEAAP6AXH@Z$$QEAV<lambda_c36588078e9f5dfd39652860aa6b3aaf>@@AEAV<lambda_ec61778202f4f5fc7e7711acc23c3bca>@@$$QEAV<lambda_dc9d2797ccde5d239b4a0efae8ebd7db>@@@Z@4HA 000000018007a6e8     libucrt:signal.obj
 0004:000026e8       $pdata$?fin$0@?0???$?RV<lambda_99476a1ad63dd22509b5d3e65b0ffc95>@@AEAV<lambda_ad1ced32f4ac17aa236e5ef05d6b3b7c>@@V<lambda_f7424dd8d45958661754dc4f2697e9c3>@@@?$__crt_seh_guarded_call@X@@QEAAX$$QEAV<lambda_99476a1ad63dd22509b5d3e65b0ffc95>@@AEAV<lambda_ad1ced32f4ac17aa236e5ef05d6b3b7c>@@$$QEAV<lambda_f7424dd8d45958661754dc4f2697e9c3>@@@Z@4HA 000000018007a6e8     libucrt:mbctype.obj
 0004:000026f4       $pdata$raise$fin$0         000000018007a6f4     libucrt:signal.obj
 0004:00002700       $pdata$__acrt_lowio_ensure_fh_exists$fin$0 000000018007a700     libucrt:osfinfo.obj
 0004:00002700       $pdata$__acrt_initialize_lowio$fin$0 000000018007a700     libucrt:ioinit.obj
 0004:0000270c       $pdata$__acrt_update_thread_multibyte_data$fin$0 000000018007a70c     libucrt:mbctype.obj
 0004:00002718       $pdata$__acrt_uninitialize_locale$fin$0 000000018007a718     libucrt:wsetlocale.obj
 0004:00002718       $pdata$__acrt_update_thread_locale_data$fin$0 000000018007a718     libucrt:locale_refcounting.obj
 0004:00002724       $pdata$_fcloseall$fin$0    000000018007a724     libucrt:closeall.obj
 0004:00002730       $pdata$?fin$0@?0???$?RV<lambda_bfedae4ebbf01fab1bb6dcc6a9e276e0>@@AEAV<lambda_2fe9b910cf3cbf4a0ab98a02ba45b3ec>@@V<lambda_237c231691f317818eb88cc1d5d642d6>@@@?$__crt_seh_guarded_call@H@@QEAAH$$QEAV<lambda_bfedae4ebbf01fab1bb6dcc6a9e276e0>@@AEAV<lambda_2fe9b910cf3cbf4a0ab98a02ba45b3ec>@@$$QEAV<lambda_237c231691f317818eb88cc1d5d642d6>@@@Z@4HA 000000018007a730     libucrt:close.obj
 0004:00002730       $pdata$?fin$0@?0???$?RV<lambda_b521505b218e5242e90febf6bfebc422>@@AEAV<lambda_6978c1fb23f02e42e1d9e99668cc68aa>@@V<lambda_314360699dd331753a4119843814e9a7>@@@?$__crt_seh_guarded_call@H@@QEAAH$$QEAV<lambda_b521505b218e5242e90febf6bfebc422>@@AEAV<lambda_6978c1fb23f02e42e1d9e99668cc68aa>@@$$QEAV<lambda_314360699dd331753a4119843814e9a7>@@@Z@4HA 000000018007a730     libucrt:commit.obj
 0004:0000273c       $pdata$_write$fin$0        000000018007a73c     libucrt:write.obj
 0004:0000273c       $pdata$?fin$0@?0???$common_lseek@_J@@YA_JH_JH@Z@4HA 000000018007a73c     libucrt:lseek.obj
 0004:00002748       $pdata$common_control87$filt$0 000000018007a748     libucrt:ieee.obj
 0004:00002748       $pdata$_ctrlfp$filt$0      000000018007a748     libucrt:fpctrl.obj
 0004:00002754       $pdata$_IsNonwritableInCurrentImage$filt$0 000000018007a754     LIBCMT:pesect.obj
 0005:00000000       __guard_fids__             000000018007b000     libucrt:initialization.obj
 0005:00000060       __guard_fids___acrt_initialize_ptd 000000018007b060     libucrt:per_thread_data.obj
 0005:00000064       __guard_fids___acrt_show_wide_message_box 000000018007b064     libucrt:crtmbox.obj
 0005:00000068       __guard_fids_??$expand_argument_wildcards@D@@YAHQEAD0AEAV?$argument_list@D@?A0xca0879c4@@@Z 000000018007b068     libucrt:argv_wildcards.obj
 0005:0000006c       __guard_fids__             000000018007b06c     libucrt:stdio_initializer.obj
 0005:00000070       __guard_fids__             000000018007b070     libucrt:stdio_initializer.obj
 0005:00000074       __guard_fids__             000000018007b074     libucrt:locale_initializer.obj
 0005:00000078       __guard_fids__             000000018007b078     libucrt:multibyte_initializer.obj
 0005:0000007c       __guard_fids__             000000018007b07c     libucrt:console_output_initializer.obj
 0005:00000080       __guard_fids__             000000018007b080     libucrt:fma3_initializer.obj
 0005:00000084       __guard_fids__             000000018007b084     libcpmt:xthrow.obj
 0005:0000008c       __guard_fids__             000000018007b08c     libcpmt:xthrow.obj
 0005:00000094       __guard_fids__             000000018007b094     libcpmt:xthrow.obj
 0005:0000009c       __guard_fids__             000000018007b09c     libcpmt:xthrow.obj
 0005:000000a4       __guard_fids__             000000018007b0a4     libcpmt:xthrow.obj
 0005:000000ac       __guard_fids_?dllmain_crt_process_attach@@YAHQEAUHINSTANCE__@@QEAX@Z 000000018007b0ac     LIBCMT:dll_dllmain.obj
 0005:000000b4       __guard_fids_?dllmain_dispatch@@YAHQEAUHINSTANCE__@@KQEAX@Z 000000018007b0b4     LIBCMT:dll_dllmain.obj
 0005:000000b8       __guard_fids__             000000018007b0b8     LIBCMT:std_type_info_static.obj
 0005:000000bc       __guard_fids__             000000018007b0bc     LIBCMT:throw_bad_alloc.obj
 0005:000000c4       __guard_fids__             000000018007b0c4     LIBCMT:guard_support.obj
 0005:000000c8       __guard_fids__             000000018007b0c8     libvcruntime:frame.obj
 0005:000000cc       __guard_fids__             000000018007b0cc     libvcruntime:frame.obj
 0005:000000d4       __guard_fids___vcrt_initialize_ptd 000000018007b0d4     libvcruntime:per_thread_data.obj
 0005:000000d8       __guard_fids__UnwindNestedFrames 000000018007b0d8     libvcruntime:trnsctrl.obj
 0006:00000060       $R000000                   000000018007c060     * linker generated manifest res *

 Exports

  ordinal    name

        1    _register_onig_scanner_
