 spellchecker

 Timestamp is 594175bf (Wed Jun 14 17:43:27 2017)

 Preferred load address is 0000000180000000

 Start         Length     Name                   Class
 0001:00000000 000423e0H .text$mn                CODE
 0001:000423e0 00000020H .text$mn$00             CODE
 0001:00042400 00000340H .text$x                 CODE
 0002:00000000 000003f0H .idata$5                DATA
 0002:000003f0 00000010H .00cfg                  DATA
 0002:00000400 00000008H .CRT$XCA                DATA
 0002:00000408 00000008H .CRT$XCU                DATA
 0002:00000410 00000008H .CRT$XCZ                DATA
 0002:00000418 00000008H .CRT$XIA                DATA
 0002:00000420 00000020H .CRT$XIC                DATA
 0002:00000440 00000008H .CRT$XIZ                DATA
 0002:00000448 00000008H .CRT$XPA                DATA
 0002:00000450 00000010H .CRT$XPX                DATA
 0002:00000460 00000008H .CRT$XPXA               DATA
 0002:00000468 00000008H .CRT$XPZ                DATA
 0002:00000470 00000008H .CRT$XTA                DATA
 0002:00000478 00000008H .CRT$XTZ                DATA
 0002:00000480 00008f58H .rdata                  DATA
 0002:000093d8 00000384H .rdata$r                DATA
 0002:0000975c 0000036cH .rdata$zzzdbg           DATA
 0002:00009ac8 00000008H .rtc$IAA                DATA
 0002:00009ad0 00000008H .rtc$IZZ                DATA
 0002:00009ad8 00000008H .rtc$TAA                DATA
 0002:00009ae0 00000008H .rtc$TZZ                DATA
 0002:00009ae8 000039c8H .xdata                  DATA
 0002:0000d4b0 000001f0H .xdata$x                DATA
 0002:0000d6a0 0000005cH .edata                  DATA
 0002:0000d6fc 0000003cH .idata$2                DATA
 0002:0000d738 00000018H .idata$3                DATA
 0002:0000d750 000003f0H .idata$4                DATA
 0002:0000db40 0000112cH .idata$6                DATA
 0003:00000000 000210b0H .data                   DATA
 0003:000210b0 00000120H .data$r                 DATA
 0003:000211d0 00001210H .bss                    DATA
 0004:00000000 00002f28H .pdata                  DATA
 0005:00000000 00000088H .gfids$x                DATA
 0005:00000088 00000048H .gfids$y                DATA
 0006:00000000 00000060H .rsrc$01                DATA
 0006:00000060 00000180H .rsrc$02                DATA

  Address         Publics by Value              Rva+Base               Lib:Object

 0000:00000000       __dynamic_value_reloc_table 0000000000000000     <absolute>
 0000:00000000       __guard_iat_count          0000000000000000     <absolute>
 0000:00000000       __guard_iat_table          0000000000000000     <absolute>
 0000:00000000       __guard_longjmp_table      0000000000000000     <absolute>
 0000:00000000       __guard_longjmp_count      0000000000000000     <absolute>
 0000:00000000       __guard_fids_count         0000000000000000     <absolute>
 0000:00000000       ___safe_se_handler_table   0000000000000000     <absolute>
 0000:00000000       ___safe_se_handler_count   0000000000000000     <absolute>
 0000:00000000       __guard_fids_table         0000000000000000     <absolute>
 0000:00000100       __guard_flags              0000000000000100     <absolute>
 0000:00000000       __ImageBase                0000000180000000     <linker-defined>
 0001:000000d0       ?New@?$Factory@VFunctionTemplate@v8@@@imp@Nan@@SA?AV?$Local@VFunctionTemplate@v8@@@v8@@P6AXAEBV?$FunctionCallbackInfo@VValue@v8@@@3@@ZV?$Local@VValue@v8@@@5@V?$Local@VSignature@v8@@@5@@Z 00000001800010d0 f i main.obj
 0001:000002b0       ?ThrowError@Nan@@YAXPEBD@Z 00000001800012b0 f i main.obj
 0001:00000340       ??1ObjectWrap@Nan@@UEAA@XZ 0000000180001340 f i main.obj
 0001:000003b0       ?Wrap@ObjectWrap@Nan@@IEAAXV?$Local@VObject@v8@@@v8@@@Z 00000001800013b0 f i main.obj
 0001:00000490       ?Ref@ObjectWrap@Nan@@MEAAXXZ 0000000180001490 f i main.obj
 0001:000004d0       ?Unref@ObjectWrap@Nan@@MEAAXXZ 00000001800014d0 f i main.obj
 0001:00000580       ?WeakCallback@ObjectWrap@Nan@@CAXAEBV?$WeakCallbackInfo@VObjectWrap@Nan@@@v8@@@Z 0000000180001580 f i main.obj
 0001:00000610       ??_GObjectWrap@Nan@@UEAAPEAXI@Z 0000000180001610 f i main.obj
 0001:00000610       ??_EObjectWrap@Nan@@UEAAPEAXI@Z 0000000180001610 f i * CIL library *:* CIL module *
 0001:00001cc0       ??_GSpellchecker@?A0x29701496@@EEAAPEAXI@Z 0000000180002cc0 f i main.obj
 0001:00001cc0       ??_ESpellchecker@?A0x29701496@@EEAAPEAXI@Z 0000000180002cc0 f i * CIL library *:* CIL module *
 0001:00001d40       ??1?$basic_string@DU?$char_traits@D@std@@V?$allocator@D@2@@std@@QEAA@XZ 0000000180002d40 f i main.obj
 0001:00001dd0       ?assign@?$basic_string@DU?$char_traits@D@std@@V?$allocator@D@2@@std@@QEAAAEAV12@PEBD_K@Z 0000000180002dd0 f i main.obj
 0001:00001f00       ?assign@?$basic_string@DU?$char_traits@D@std@@V?$allocator@D@2@@std@@QEAAAEAV12@AEBV12@_K1@Z 0000000180002f00 f i main.obj
 0001:00002030       ?erase@?$basic_string@DU?$char_traits@D@std@@V?$allocator@D@2@@std@@QEAAAEAV12@_K0@Z 0000000180003030 f i main.obj
 0001:000020d0       ?_Copy@?$basic_string@DU?$char_traits@D@std@@V?$allocator@D@2@@std@@QEAAX_K0@Z 00000001800030d0 f i main.obj
 0001:00002250       ??$Unwrap@VSpellchecker@?A0x29701496@@@ObjectWrap@Nan@@SAPEAVSpellchecker@?A0x29701496@@V?$Local@VObject@v8@@@v8@@@Z 0000000180003250 f i main.obj
 0001:000022d0       ??$_Destroy_range1@V?$allocator@V?$basic_string@DU?$char_traits@D@std@@V?$allocator@D@2@@std@@@std@@PEAV?$basic_string@DU?$char_traits@D@std@@V?$allocator@D@2@@2@@std@@YAXPEAV?$basic_string@DU?$char_traits@D@std@@V?$allocator@D@2@@0@0AEAU?$_Wrap_alloc@V?$allocator@V?$basic_string@DU?$char_traits@D@std@@V?$allocator@D@2@@std@@@std@@@0@U?$integral_constant@_N$0A@@0@@Z 00000001800032d0 f i main.obj
 0001:00002390       ??_ESpellcheckerImplementation@spellchecker@@UEAAPEAXI@Z 0000000180003390 f i * CIL library *:* CIL module *
 0001:00002390       ??_GSpellcheckerImplementation@spellchecker@@UEAAPEAXI@Z 0000000180003390 f i spellchecker_hunspell.obj
 0001:000023c0       ??_GHunspellSpellchecker@spellchecker@@UEAAPEAXI@Z 00000001800033c0 f i spellchecker_hunspell.obj
 0001:000023c0       ??_EHunspellSpellchecker@spellchecker@@UEAAPEAXI@Z 00000001800033c0 f i * CIL library *:* CIL module *
 0001:00002440       ?SetDictionary@HunspellSpellchecker@spellchecker@@UEAA_NAEBV?$basic_string@DU?$char_traits@D@std@@V?$allocator@D@2@@std@@0@Z 0000000180003440 f   spellchecker_hunspell.obj
 0001:00002970       ?GetAvailableDictionaries@HunspellSpellchecker@spellchecker@@UEAA?AV?$vector@V?$basic_string@DU?$char_traits@D@std@@V?$allocator@D@2@@std@@V?$allocator@V?$basic_string@DU?$char_traits@D@std@@V?$allocator@D@2@@std@@@2@@std@@AEBV?$basic_string@DU?$char_traits@D@std@@V?$allocator@D@2@@4@@Z 0000000180003970 f   spellchecker_hunspell.obj
 0001:00002990       ?IsMisspelled@HunspellSpellchecker@spellchecker@@UEAA_NAEBV?$basic_string@DU?$char_traits@D@std@@V?$allocator@D@2@@std@@@Z 0000000180003990 f   spellchecker_hunspell.obj
 0001:000029c0       ?CheckSpelling@HunspellSpellchecker@spellchecker@@UEAA?AV?$vector@UMisspelledRange@spellchecker@@V?$allocator@UMisspelledRange@spellchecker@@@std@@@std@@PEBG_K@Z 00000001800039c0 f   spellchecker_hunspell.obj
 0001:00002e00       ?Add@HunspellSpellchecker@spellchecker@@UEAAXAEBV?$basic_string@DU?$char_traits@D@std@@V?$allocator@D@2@@std@@@Z 0000000180003e00 f   spellchecker_hunspell.obj
 0001:00002e30       ?GetCorrectionsForMisspelling@HunspellSpellchecker@spellchecker@@UEAA?AV?$vector@V?$basic_string@DU?$char_traits@D@std@@V?$allocator@D@2@@std@@V?$allocator@V?$basic_string@DU?$char_traits@D@std@@V?$allocator@D@2@@std@@@2@@std@@AEBV?$basic_string@DU?$char_traits@D@std@@V?$allocator@D@2@@4@@Z 0000000180003e30 f   spellchecker_hunspell.obj
 0001:000030d0       ?_Reserve@?$vector@V?$basic_string@DU?$char_traits@D@std@@V?$allocator@D@2@@std@@V?$allocator@V?$basic_string@DU?$char_traits@D@std@@V?$allocator@D@2@@std@@@2@@std@@IEAAX_K@Z 00000001800040d0 f i spellchecker_hunspell.obj
 0001:00003160       ?_Reallocate@?$vector@V?$basic_string@DU?$char_traits@D@std@@V?$allocator@D@2@@std@@V?$allocator@V?$basic_string@DU?$char_traits@D@std@@V?$allocator@D@2@@std@@@2@@std@@IEAAX_K@Z 0000000180004160 f i spellchecker_hunspell.obj
 0001:000032e0       ?append@?$basic_string@DU?$char_traits@D@std@@V?$allocator@D@2@@std@@QEAAAEAV12@PEBD_K@Z 00000001800042e0 f i spellchecker_hunspell.obj
 0001:00003430       ?append@?$basic_string@DU?$char_traits@D@std@@V?$allocator@D@2@@std@@QEAAAEAV12@AEBV12@_K1@Z 0000000180004430 f i spellchecker_hunspell.obj
 0001:00003560       ?_Assign_rv@?$basic_string@DU?$char_traits@D@std@@V?$allocator@D@2@@std@@QEAAX$$QEAV12@@Z 0000000180004560 f i spellchecker_hunspell.obj
 0001:000035e0       ?_Reallocate@?$vector@UMisspelledRange@spellchecker@@V?$allocator@UMisspelledRange@spellchecker@@@std@@@std@@IEAAX_K@Z 00000001800045e0 f i spellchecker_hunspell.obj
 0001:00003720       ?ToUTF8@spellchecker@@YA?AV?$basic_string@DU?$char_traits@D@std@@V?$allocator@D@2@@std@@AEBV?$basic_string@_WU?$char_traits@_W@std@@V?$allocator@_W@2@@3@@Z 0000000180004720 f   spellchecker_win.obj
 0001:00003870       ?ToWString@spellchecker@@YA?AV?$basic_string@_WU?$char_traits@_W@std@@V?$allocator@_W@2@@std@@AEBV?$basic_string@DU?$char_traits@D@std@@V?$allocator@D@2@@3@@Z 0000000180004870 f   spellchecker_win.obj
 0001:00003a00       ??0WindowsSpellchecker@spellchecker@@QEAA@XZ 0000000180004a00 f   spellchecker_win.obj
 0001:00003a90       ??_GWindowsSpellchecker@spellchecker@@UEAAPEAXI@Z 0000000180004a90 f i spellchecker_win.obj
 0001:00003a90       ??_EWindowsSpellchecker@spellchecker@@UEAAPEAXI@Z 0000000180004a90 f i * CIL library *:* CIL module *
 0001:00003b20       ?SetDictionary@WindowsSpellchecker@spellchecker@@UEAA_NAEBV?$basic_string@DU?$char_traits@D@std@@V?$allocator@D@2@@std@@0@Z 0000000180004b20 f   spellchecker_win.obj
 0001:00003d50       ?GetAvailableDictionaries@WindowsSpellchecker@spellchecker@@UEAA?AV?$vector@V?$basic_string@DU?$char_traits@D@std@@V?$allocator@D@2@@std@@V?$allocator@V?$basic_string@DU?$char_traits@D@std@@V?$allocator@D@2@@std@@@2@@std@@AEBV?$basic_string@DU?$char_traits@D@std@@V?$allocator@D@2@@4@@Z 0000000180004d50 f   spellchecker_win.obj
 0001:00004100       ?IsMisspelled@WindowsSpellchecker@spellchecker@@UEAA_NAEBV?$basic_string@DU?$char_traits@D@std@@V?$allocator@D@2@@std@@@Z 0000000180005100 f   spellchecker_win.obj
 0001:00004230       ?CheckSpelling@WindowsSpellchecker@spellchecker@@UEAA?AV?$vector@UMisspelledRange@spellchecker@@V?$allocator@UMisspelledRange@spellchecker@@@std@@@std@@PEBG_K@Z 0000000180005230 f   spellchecker_win.obj
 0001:00004500       ?Add@WindowsSpellchecker@spellchecker@@UEAAXAEBV?$basic_string@DU?$char_traits@D@std@@V?$allocator@D@2@@std@@@Z 0000000180005500 f   spellchecker_win.obj
 0001:000045d0       ?GetCorrectionsForMisspelling@WindowsSpellchecker@spellchecker@@UEAA?AV?$vector@V?$basic_string@DU?$char_traits@D@std@@V?$allocator@D@2@@std@@V?$allocator@V?$basic_string@DU?$char_traits@D@std@@V?$allocator@D@2@@std@@@2@@std@@AEBV?$basic_string@DU?$char_traits@D@std@@V?$allocator@D@2@@4@@Z 00000001800055d0 f   spellchecker_win.obj
 0001:000049b0       ?CreateSpellchecker@SpellcheckerFactory@spellchecker@@SAPEAVSpellcheckerImplementation@2@XZ 00000001800059b0 f   spellchecker_win.obj
 0001:00004a40       ??1?$basic_string@_WU?$char_traits@_W@std@@V?$allocator@_W@2@@std@@QEAA@XZ 0000000180005a40 f i spellchecker_win.obj
 0001:00004ae0       ?assign@?$basic_string@_WU?$char_traits@_W@std@@V?$allocator@_W@2@@std@@QEAAAEAV12@PEB_W_K@Z 0000000180005ae0 f i spellchecker_win.obj
 0001:00004c30       ?assign@?$basic_string@_WU?$char_traits@_W@std@@V?$allocator@_W@2@@std@@QEAAAEAV12@AEBV12@_K1@Z 0000000180005c30 f i spellchecker_win.obj
 0001:00004d80       ?_Copy@?$basic_string@_WU?$char_traits@_W@std@@V?$allocator@_W@2@@std@@QEAAX_K0@Z 0000000180005d80 f i spellchecker_win.obj
 0001:00004f40       ?erase@?$basic_string@_WU?$char_traits@_W@std@@V?$allocator@_W@2@@std@@QEAAAEAV12@_K0@Z 0000000180005f40 f i spellchecker_win.obj
 0001:00004fd0       __local_stdio_printf_options 0000000180005fd0 f i hunspell:hunspell.obj
 0001:00004fe0       sprintf                    0000000180005fe0 f i hunspell:hunspell.obj
 0001:00005040       ??0Hunspell@@QEAA@PEBD00@Z 0000000180006040 f   hunspell:hunspell.obj
 0001:000051e0       ??1Hunspell@@QEAA@XZ       00000001800061e0 f   hunspell:hunspell.obj
 0001:000052d0       ??_GSuggestMgr@@QEAAPEAXI@Z 00000001800062d0 f i hunspell:hunspell.obj
 0001:00005350       ?cleanword@Hunspell@@AEAAHPEADPEBDPEAH2@Z 0000000180006350 f   hunspell:hunspell.obj
 0001:00005750       ?mkallcap@Hunspell@@AEAAXPEAD@Z 0000000180006750 f   hunspell:hunspell.obj
 0001:000059a0       ?mkallsmall2@Hunspell@@AEAAHPEADPEAUw_char@@H@Z 00000001800069a0 f   hunspell:hunspell.obj
 0001:00005ad0       ?spellsharps@Hunspell@@AEAAPEAUhentry@@PEAD0HH0PEAHPEAPEAD@Z 0000000180006ad0 f   hunspell:hunspell.obj
 0001:00005c40       ?is_keepcase@Hunspell@@AEAAHPEBUhentry@@@Z 0000000180006c40 f   hunspell:hunspell.obj
 0001:00005cb0       ?insert_sug@Hunspell@@AEAAHPEAPEAPEADPEADH@Z 0000000180006cb0 f   hunspell:hunspell.obj
 0001:00005d40       ?spell@Hunspell@@QEAAHPEBDPEAHPEAPEAD@Z 0000000180006d40 f   hunspell:hunspell.obj
 0001:00006ca0       ?checkword@Hunspell@@AEAAPEAUhentry@@PEBDPEAHPEAPEAD@Z 0000000180007ca0 f   hunspell:hunspell.obj
 0001:00007410       ?suggest@Hunspell@@QEAAHPEAPEAPEADPEBD@Z 0000000180008410 f   hunspell:hunspell.obj
 0001:00008ea0       ?stem@Hunspell@@QEAAHPEAPEAPEADPEAPEADH@Z 0000000180009ea0 f   hunspell:hunspell.obj
 0001:000093b0       ?stem@Hunspell@@QEAAHPEAPEAPEADPEBD@Z 000000018000a3b0 f   hunspell:hunspell.obj
 0001:00009440       ?mkinitcap@Hunspell@@AEAAXPEAD@Z 000000018000a440 f   hunspell:hunspell.obj
 0001:00009620       ?mkinitcap2@Hunspell@@AEAAHPEADPEAUw_char@@H@Z 000000018000a620 f   hunspell:hunspell.obj
 0001:000096e0       ?cat_result@Hunspell@@AEAAXPEAD0@Z 000000018000a6e0 f   hunspell:hunspell.obj
 0001:00009790       ?analyze@Hunspell@@QEAAHPEAPEAPEADPEBD@Z 000000018000a790 f   hunspell:hunspell.obj
 0001:0000a480       ?generate@Hunspell@@QEAAHPEAPEAPEADPEBDPEAPEADH@Z 000000018000b480 f   hunspell:hunspell.obj
 0001:0000a790       ?get_xml_par@Hunspell@@AEAAHPEADPEBDH@Z 000000018000b790 f   hunspell:hunspell.obj
 0001:0000a8d0       ?check_xml_par@Hunspell@@AEAAHPEBD00@Z 000000018000b8d0 f   hunspell:hunspell.obj
 0001:0000a9b0       ?get_xml_list@Hunspell@@AEAAHPEAPEAPEADPEADPEBD@Z 000000018000b9b0 f   hunspell:hunspell.obj
 0001:0000aad0       ?spellml@Hunspell@@AEAAHPEAPEAPEADPEBD@Z 000000018000bad0 f   hunspell:hunspell.obj
 0001:0000af50       ?u16_u8@@YAPEADPEADHPEBUw_char@@H@Z 000000018000bf50 f   hunspell:csutil.obj
 0001:0000b000       ?u8_u16@@YAHPEAUw_char@@HPEBD@Z 000000018000c000 f   hunspell:csutil.obj
 0001:0000b2a0       ?flag_qsort@@YAXQEAGHH@Z   000000018000c2a0 f   hunspell:csutil.obj
 0001:0000b360       ?flag_bsearch@@YAHQEAGGH@Z 000000018000c360 f   hunspell:csutil.obj
 0001:0000b3b0       ?mystrdup@@YAPEADPEBD@Z    000000018000c3b0 f   hunspell:csutil.obj
 0001:0000b440       ?myrevstrdup@@YAPEADPEBD@Z 000000018000c440 f   hunspell:csutil.obj
 0001:0000b4e0       ?line_tok@@YAHPEBDPEAPEAPEADD@Z 000000018000c4e0 f   hunspell:csutil.obj
 0001:0000b620       ?line_uniq@@YAPEADPEADD@Z  000000018000c620 f   hunspell:csutil.obj
 0001:0000b780       ?line_uniq_app@@YAPEADPEAPEADD@Z 000000018000c780 f   hunspell:csutil.obj
 0001:0000b9e0       ?morphcmp@@YAHPEBD0@Z      000000018000c9e0 f   hunspell:csutil.obj
 0001:0000bcd0       ?get_sfxcount@@YAHPEBD@Z   000000018000ccd0 f   hunspell:csutil.obj
 0001:0000bd90       ?mystrrep@@YAPEADPEADPEBD1@Z 000000018000cd90 f   hunspell:csutil.obj
 0001:0000bef0       ?reverseword@@YAHPEAD@Z    000000018000cef0 f   hunspell:csutil.obj
 0001:0000bf30       ?reverseword_utf@@YAHPEAD@Z 000000018000cf30 f   hunspell:csutil.obj
 0001:0000c0a0       ?uniqlist@@YAHPEAPEADH@Z   000000018000d0a0 f   hunspell:csutil.obj
 0001:0000c190       ?mkallsmall_utf@@YAXPEAUw_char@@HH@Z 000000018000d190 f   hunspell:csutil.obj
 0001:0000c280       ?mkallcap_utf@@YAXPEAUw_char@@HH@Z 000000018000d280 f   hunspell:csutil.obj
 0001:0000c370       ?get_current_cs@@YAPEAUcs_info@@PEBD@Z 000000018000d370 f   hunspell:csutil.obj
 0001:0000c490       ?get_lang_num@@YAHPEBD@Z   000000018000d490 f   hunspell:csutil.obj
 0001:0000c510       ?initialize_utf_tbl@@YAHXZ 000000018000d510 f   hunspell:csutil.obj
 0001:0000c5d0       ?get_captype@@YAHPEADHPEAUcs_info@@@Z 000000018000d5d0 f   hunspell:csutil.obj
 0001:0000c6b0       ?get_captype_utf8@@YAHPEAUw_char@@HH@Z 000000018000d6b0 f   hunspell:csutil.obj
 0001:0000c870       ?remove_ignored_chars_utf@@YAXPEADQEAGH@Z 000000018000d870 f   hunspell:csutil.obj
 0001:0000ca50       ?remove_ignored_chars@@YAXPEAD0@Z 000000018000da50 f   hunspell:csutil.obj
 0001:0000cac0       ?parse_string@@YAHPEADPEAPEADH@Z 000000018000dac0 f   hunspell:csutil.obj
 0001:0000cbe0       ?parse_array@@YAHPEADPEAPEADPEAPEAGPEAHHH@Z 000000018000dbe0 f   hunspell:csutil.obj
 0001:0000ccb0       ??0HashMgr@@QEAA@PEBD00@Z  000000018000dcb0 f   hunspell:hashmgr.obj
 0001:0000cd50       ??1HashMgr@@QEAA@XZ        000000018000dd50 f   hunspell:hashmgr.obj
 0001:0000cf50       ?lookup@HashMgr@@QEBAPEAUhentry@@PEBD@Z 000000018000df50 f   hunspell:hashmgr.obj
 0001:0000cfc0       ?add_word@HashMgr@@AEAAHPEBDHHPEAGH0_N@Z 000000018000dfc0 f   hunspell:hashmgr.obj
 0001:0000d380       ?add_hidden_capitalized_word@HashMgr@@AEAAHPEADHHPEAGH0H@Z 000000018000e380 f   hunspell:hashmgr.obj
 0001:0000d690       ?get_clen_and_captype@HashMgr@@AEAAHPEBDHPEAH@Z 000000018000e690 f   hunspell:hashmgr.obj
 0001:0000d730       ?remove_forbidden_flag@HashMgr@@AEAAHPEBD@Z 000000018000e730 f   hunspell:hashmgr.obj
 0001:0000d8b0       ?add@HashMgr@@QEAAHPEBD@Z  000000018000e8b0 f   hunspell:hashmgr.obj
 0001:0000d970       ?load_tables@HashMgr@@AEAAHPEBD0@Z 000000018000e970 f   hunspell:hashmgr.obj
 0001:0000dee0       ??_GFileMgr@@QEAAPEAXI@Z   000000018000eee0 f i hunspell:hashmgr.obj
 0001:0000df60       ?hash@HashMgr@@QEBAHPEBD@Z 000000018000ef60 f   hunspell:hashmgr.obj
 0001:0000dfd0       ?decode_flags@HashMgr@@QEAAHPEAPEAGPEADPEAVFileMgr@@@Z 000000018000efd0 f   hunspell:hashmgr.obj
 0001:0000e280       ?decode_flag@HashMgr@@QEAAGPEBD@Z 000000018000f280 f   hunspell:hashmgr.obj
 0001:0000e310       ?encode_flag@HashMgr@@QEAAPEADG@Z 000000018000f310 f   hunspell:hashmgr.obj
 0001:0000e460       ?load_config@HashMgr@@AEAAHPEBD0@Z 000000018000f460 f   hunspell:hashmgr.obj
 0001:0000e9b0       ?parse_aliasf@HashMgr@@AEAAHPEADPEAVFileMgr@@@Z 000000018000f9b0 f   hunspell:hashmgr.obj
 0001:0000ed70       ?get_aliasf@HashMgr@@QEAAHHPEAPEAGPEAVFileMgr@@@Z 000000018000fd70 f   hunspell:hashmgr.obj
 0001:0000edc0       ?parse_aliasm@HashMgr@@AEAAHPEADPEAVFileMgr@@@Z 000000018000fdc0 f   hunspell:hashmgr.obj
 0001:0000f120       ?add@RepList@@QEAAHPEAD0@Z 0000000180010120 f   hunspell:replist.obj
 0001:0000f250       ?conv@RepList@@QEAAHPEBDPEAD@Z 0000000180010250 f   hunspell:replist.obj
 0001:0000f3f0       ?HENTRY_FIND@@YAPEADPEAUhentry@@PEBD@Z 00000001800103f0 f i hunspell:suggestmgr.obj
 0001:0000f440       ??0SuggestMgr@@QEAA@PEBDHPEAVAffixMgr@@@Z 0000000180010440 f   hunspell:suggestmgr.obj
 0001:0000f630       ?testsug@SuggestMgr@@AEAAHPEAPEADPEBDHHHPEAHPEAJ@Z 0000000180010630 f   hunspell:suggestmgr.obj
 0001:0000f730       ?suggest@SuggestMgr@@QEAAHPEAPEAPEADPEBDHPEAH@Z 0000000180010730 f   hunspell:suggestmgr.obj
 0001:0000fca0       ?capchars_utf@SuggestMgr@@AEAAHPEAPEADPEBUw_char@@HHH@Z 0000000180010ca0 f   hunspell:suggestmgr.obj
 0001:0000fe70       ?capchars@SuggestMgr@@AEAAHPEAPEADPEBDHH@Z 0000000180010e70 f   hunspell:suggestmgr.obj
 0001:0000ff40       ?mapchars@SuggestMgr@@AEAAHPEAPEADPEBDHH@Z 0000000180010f40 f   hunspell:suggestmgr.obj
 0001:00010050       ?map_related@SuggestMgr@@AEAAHPEBDPEADHHPEAPEADHHPEBUmapentry@@HPEAHPEAJ@Z 0000000180011050 f   hunspell:suggestmgr.obj
 0001:00010440       ?replchars@SuggestMgr@@AEAAHPEAPEADPEBDHH@Z 0000000180011440 f   hunspell:suggestmgr.obj
 0001:00010930       ?doubletwochars@SuggestMgr@@AEAAHPEAPEADPEBDHH@Z 0000000180011930 f   hunspell:suggestmgr.obj
 0001:00010ab0       ?doubletwochars_utf@SuggestMgr@@AEAAHPEAPEADPEBUw_char@@HHH@Z 0000000180011ab0 f   hunspell:suggestmgr.obj
 0001:00010d90       ?badcharkey@SuggestMgr@@AEAAHPEAPEADPEBDHH@Z 0000000180011d90 f   hunspell:suggestmgr.obj
 0001:00011250       ?badcharkey_utf@SuggestMgr@@AEAAHPEAPEADPEBUw_char@@HHH@Z 0000000180012250 f   hunspell:suggestmgr.obj
 0001:00011a60       ?badchar@SuggestMgr@@AEAAHPEAPEADPEBDHH@Z 0000000180012a60 f   hunspell:suggestmgr.obj
 0001:00011cd0       ?badchar_utf@SuggestMgr@@AEAAHPEAPEADPEBUw_char@@HHH@Z 0000000180012cd0 f   hunspell:suggestmgr.obj
 0001:00012040       ?extrachar_utf@SuggestMgr@@AEAAHPEAPEADPEBUw_char@@HHH@Z 0000000180013040 f   hunspell:suggestmgr.obj
 0001:000123a0       ?extrachar@SuggestMgr@@AEAAHPEAPEADPEBDHH@Z 00000001800133a0 f   hunspell:suggestmgr.obj
 0001:000125c0       ?forgotchar@SuggestMgr@@AEAAHPEAPEADPEBDHH@Z 00000001800135c0 f   hunspell:suggestmgr.obj
 0001:00012860       ?forgotchar_utf@SuggestMgr@@AEAAHPEAPEADPEBUw_char@@HHH@Z 0000000180013860 f   hunspell:suggestmgr.obj
 0001:00012bc0       ?twowords@SuggestMgr@@AEAAHPEAPEADPEBDHH@Z 0000000180013bc0 f   hunspell:suggestmgr.obj
 0001:00012ff0       ?swapchar@SuggestMgr@@AEAAHPEAPEADPEBDHH@Z 0000000180013ff0 f   hunspell:suggestmgr.obj
 0001:000133f0       ?swapchar_utf@SuggestMgr@@AEAAHPEAPEADPEBUw_char@@HHH@Z 00000001800143f0 f   hunspell:suggestmgr.obj
 0001:00013a90       ?longswapchar@SuggestMgr@@AEAAHPEAPEADPEBDHH@Z 0000000180014a90 f   hunspell:suggestmgr.obj
 0001:00013cf0       ?longswapchar_utf@SuggestMgr@@AEAAHPEAPEADPEBUw_char@@HHH@Z 0000000180014cf0 f   hunspell:suggestmgr.obj
 0001:00014040       ?movechar@SuggestMgr@@AEAAHPEAPEADPEBDHH@Z 0000000180015040 f   hunspell:suggestmgr.obj
 0001:000144b0       ?movechar_utf@SuggestMgr@@AEAAHPEAPEADPEBUw_char@@HHH@Z 00000001800154b0 f   hunspell:suggestmgr.obj
 0001:00014ac0       ?ngsuggest@SuggestMgr@@QEAAHPEAPEADPEADHPEAPEAVHashMgr@@H@Z 0000000180015ac0 f   hunspell:suggestmgr.obj
 0001:00016b20       ?checkword@SuggestMgr@@AEAAHPEBDHHPEAHPEAJ@Z 0000000180017b20 f   hunspell:suggestmgr.obj
 0001:00016f40       ?check_forbidden@SuggestMgr@@AEAAHPEBDH@Z 0000000180017f40 f   hunspell:suggestmgr.obj
 0001:00017160       ?suggest_morph@SuggestMgr@@QEAAPEADPEBD@Z 0000000180018160 f   hunspell:suggestmgr.obj
 0001:000177a0       ?suggest_hentry_gen@SuggestMgr@@AEAAPEADPEAUhentry@@PEAD@Z 00000001800187a0 f   hunspell:suggestmgr.obj
 0001:00017c50       ?suggest_gen@SuggestMgr@@QEAAPEADPEAPEADHPEAD@Z 0000000180018c50 f   hunspell:suggestmgr.obj
 0001:00018380       ?ngram@SuggestMgr@@AEAAHHPEADPEBDH@Z 0000000180019380 f   hunspell:suggestmgr.obj
 0001:00018740       ?leftcommonsubstring@SuggestMgr@@AEAAHPEADPEBD@Z 0000000180019740 f   hunspell:suggestmgr.obj
 0001:00018980       ?commoncharacterpositions@SuggestMgr@@AEAAHPEADPEBDPEAH@Z 0000000180019980 f   hunspell:suggestmgr.obj
 0001:00018bd0       ?lcs@SuggestMgr@@AEAAXPEBD0PEAH1PEAPEAD@Z 0000000180019bd0 f   hunspell:suggestmgr.obj
 0001:00018e90       ??0AffixMgr@@QEAA@PEBDPEAPEAVHashMgr@@PEAH0@Z 0000000180019e90 f   hunspell:affixmgr.obj
 0001:00019100       ??1AffixMgr@@QEAA@XZ       000000018001a100 f   hunspell:affixmgr.obj
 0001:000197f0       ??_GRepList@@QEAAPEAXI@Z   000000018001a7f0 f i hunspell:affixmgr.obj
 0001:00019870       ?parse_file@AffixMgr@@AEAAHPEBD0@Z 000000018001a870 f   hunspell:affixmgr.obj
 0001:0001ab40       ?build_pfxtree@AffixMgr@@AEAAHPEAVPfxEntry@@@Z 000000018001bb40 f   hunspell:affixmgr.obj
 0001:0001ac20       ?build_sfxtree@AffixMgr@@AEAAHPEAVSfxEntry@@@Z 000000018001bc20 f   hunspell:affixmgr.obj
 0001:0001ad10       ?process_pfx_tree_to_list@AffixMgr@@AEAAHXZ 000000018001bd10 f   hunspell:affixmgr.obj
 0001:0001ad80       ?process_pfx_in_order@AffixMgr@@AEAAPEAVPfxEntry@@PEAV2@0@Z 000000018001bd80 f   hunspell:affixmgr.obj
 0001:0001add0       ?process_sfx_tree_to_list@AffixMgr@@AEAAHXZ 000000018001bdd0 f   hunspell:affixmgr.obj
 0001:0001ae50       ?process_sfx_in_order@AffixMgr@@AEAAPEAVSfxEntry@@PEAV2@0@Z 000000018001be50 f   hunspell:affixmgr.obj
 0001:0001aea0       ?process_pfx_order@AffixMgr@@AEAAHXZ 000000018001bea0 f   hunspell:affixmgr.obj
 0001:0001b000       ?process_sfx_order@AffixMgr@@AEAAHXZ 000000018001c000 f   hunspell:affixmgr.obj
 0001:0001b160       ?debugflag@AffixMgr@@AEAAXPEADG@Z 000000018001c160 f   hunspell:affixmgr.obj
 0001:0001b280       ?encodeit@AffixMgr@@AEAAHAEAUaffentry@@PEAD@Z 000000018001c280 f   hunspell:affixmgr.obj
 0001:0001b360       ?prefix_check@AffixMgr@@QEAAPEAUhentry@@PEBDHDG@Z 000000018001c360 f   hunspell:affixmgr.obj
 0001:0001b600       ?prefix_check_twosfx@AffixMgr@@QEAAPEAUhentry@@PEBDHDG@Z 000000018001c600 f   hunspell:affixmgr.obj
 0001:0001b710       ?prefix_check_morph@AffixMgr@@QEAAPEADPEBDHDG@Z 000000018001c710 f   hunspell:affixmgr.obj
 0001:0001b9c0       ?prefix_check_twosfx_morph@AffixMgr@@QEAAPEADPEBDHDG@Z 000000018001c9c0 f   hunspell:affixmgr.obj
 0001:0001bc10       ?cpdrep_check@AffixMgr@@QEAAHPEBDH@Z 000000018001cc10 f   hunspell:affixmgr.obj
 0001:0001c050       ?cpdpat_check@AffixMgr@@QEAAHPEBDHPEAUhentry@@1D@Z 000000018001d050 f   hunspell:affixmgr.obj
 0001:0001c240       ?cpdcase_check@AffixMgr@@QEAAHPEBDH@Z 000000018001d240 f   hunspell:affixmgr.obj
 0001:0001c3a0       ?defcpd_check@AffixMgr@@QEAAHPEAPEAPEAUhentry@@FPEAU2@PEAPEAU2@D@Z 000000018001d3a0 f   hunspell:affixmgr.obj
 0001:0001c9f0       ?get_syllable@AffixMgr@@QEAAFPEBDH@Z 000000018001d9f0 f   hunspell:affixmgr.obj
 0001:0001cb40       ?compound_check@AffixMgr@@QEAAPEAUhentry@@PEBDHFFFFPEAPEAU2@DDPEAH@Z 000000018001db40 f   hunspell:affixmgr.obj
 0001:0001f550       ?compound_check_morph@AffixMgr@@QEAAHPEBDHFFFFPEAPEAUhentry@@DPEAPEADPEAD@Z 0000000180020550 f   hunspell:affixmgr.obj
 0001:00021cd0       ?suffix_check@AffixMgr@@QEAAPEAUhentry@@PEBDHHPEAVPfxEntry@@PEAPEADHPEAHGGD@Z 0000000180022cd0 f   hunspell:affixmgr.obj
 0001:00022360       ?suffix_check_twosfx@AffixMgr@@QEAAPEAUhentry@@PEBDHHPEAVPfxEntry@@G@Z 0000000180023360 f   hunspell:affixmgr.obj
 0001:000224c0       ?suffix_check_twosfx_morph@AffixMgr@@QEAAPEADPEBDHHPEAVPfxEntry@@G@Z 00000001800234c0 f   hunspell:affixmgr.obj
 0001:00022b90       ?suffix_check_morph@AffixMgr@@QEAAPEADPEBDHHPEAVPfxEntry@@GGD@Z 0000000180023b90 f   hunspell:affixmgr.obj
 0001:00023ac0       ?affix_check@AffixMgr@@QEAAPEAUhentry@@PEBDHGD@Z 0000000180024ac0 f   hunspell:affixmgr.obj
 0001:00023ba0       ?affix_check_morph@AffixMgr@@QEAAPEADPEBDHGD@Z 0000000180024ba0 f   hunspell:affixmgr.obj
 0001:00023e60       ?morphgen@AffixMgr@@QEAAPEADPEADHPEBGG00H@Z 0000000180024e60 f   hunspell:affixmgr.obj
 0001:000242b0       ?expand_rootword@AffixMgr@@QEAAHPEAUguessword@@HPEBDHPEBGGPEADH3@Z 00000001800252b0 f   hunspell:affixmgr.obj
 0001:00024b00       ?get_encoding@AffixMgr@@QEAAPEADXZ 0000000180025b00 f   hunspell:affixmgr.obj
 0001:00024b70       ?get_key_string@AffixMgr@@QEAAPEADXZ 0000000180025b70 f   hunspell:affixmgr.obj
 0001:00024bf0       ?lookup@AffixMgr@@QEAAPEAUhentry@@PEBD@Z 0000000180025bf0 f   hunspell:affixmgr.obj
 0001:00024d20       ?parse_flag@AffixMgr@@AEAAHPEADPEAGPEAVFileMgr@@@Z 0000000180025d20 f   hunspell:affixmgr.obj
 0001:00024db0       ?parse_cpdsyllable@AffixMgr@@AEAAHPEADPEAVFileMgr@@@Z 0000000180025db0 f   hunspell:affixmgr.obj
 0001:00024f80       ?parse_reptable@AffixMgr@@AEAAHPEADPEAVFileMgr@@@Z 0000000180025f80 f   hunspell:affixmgr.obj
 0001:00025340       ?parse_convtable@AffixMgr@@AEAAHPEADPEAVFileMgr@@PEAPEAVRepList@@PEBD@Z 0000000180026340 f   hunspell:affixmgr.obj
 0001:000256d0       ?parse_phonetable@AffixMgr@@AEAAHPEADPEAVFileMgr@@@Z 00000001800266d0 f   hunspell:affixmgr.obj
 0001:00025b00       ?parse_checkcpdtable@AffixMgr@@AEAAHPEADPEAVFileMgr@@@Z 0000000180026b00 f   hunspell:affixmgr.obj
 0001:00025f00       ?parse_defcpdtable@AffixMgr@@AEAAHPEADPEAVFileMgr@@@Z 0000000180026f00 f   hunspell:affixmgr.obj
 0001:00026360       ?parse_maptable@AffixMgr@@AEAAHPEADPEAVFileMgr@@@Z 0000000180027360 f   hunspell:affixmgr.obj
 0001:000267f0       ?parse_breaktable@AffixMgr@@AEAAHPEADPEAVFileMgr@@@Z 00000001800277f0 f   hunspell:affixmgr.obj
 0001:00026ae0       ?reverse_condition@AffixMgr@@AEAAXPEAD@Z 0000000180027ae0 f   hunspell:affixmgr.obj
 0001:00026b60       ?parse_affix@AffixMgr@@AEAAHPEADDPEAVFileMgr@@0@Z 0000000180027b60 f   hunspell:affixmgr.obj
 0001:00027590       ?redundant_condition@AffixMgr@@AEAAHDPEADHPEBDH@Z 0000000180028590 f   hunspell:affixmgr.obj
 0001:000277e0       ?resize@?$vector@Uaffentry@@V?$allocator@Uaffentry@@@std@@@std@@QEAAX_K@Z 00000001800287e0 f i hunspell:affixmgr.obj
 0001:000278f0       ?_Reserve@?$vector@Uaffentry@@V?$allocator@Uaffentry@@@std@@@std@@IEAAX_K@Z 00000001800288f0 f i hunspell:affixmgr.obj
 0001:000279c0       ?deallocate@?$_Wrap_alloc@V?$allocator@Uaffentry@@@std@@@std@@QEAAXPEAUaffentry@@_K@Z 00000001800289c0 f i hunspell:affixmgr.obj
 0001:00027a30       ?_Reallocate@?$vector@Uaffentry@@V?$allocator@Uaffentry@@@std@@@std@@IEAAX_K@Z 0000000180028a30 f i hunspell:affixmgr.obj
 0001:00027b50       fprintf                    0000000180028b50 f i hunspell:filemgr.obj
 0001:00027ba0       ??0FileMgr@@QEAA@PEBD0@Z   0000000180028ba0 f   hunspell:filemgr.obj
 0001:00027ca0       ?getline@FileMgr@@QEAAPEADXZ 0000000180028ca0 f   hunspell:filemgr.obj
 0001:00027d20       ?init_phonet_hash@@YAXAEAUphonetable@@@Z 0000000180028d20 f   hunspell:phonet.obj
 0001:00027dd0       ?phonet@@YAHPEBDPEADHAEAUphonetable@@@Z 0000000180028dd0 f   hunspell:phonet.obj
 0001:00028580       ?add@PfxEntry@@QEAAPEADPEBDH@Z 0000000180029580 f   hunspell:affentry.obj
 0001:000286b0       ?test_condition@PfxEntry@@QEAAHPEBD@Z 00000001800296b0 f i hunspell:affentry.obj
 0001:00028a50       ?checkword@PfxEntry@@QEAAPEAUhentry@@PEBDHDG@Z 0000000180029a50 f   hunspell:affentry.obj
 0001:00028d10       ?check_twosfx@PfxEntry@@QEAAPEAUhentry@@PEBDHDG@Z 0000000180029d10 f   hunspell:affentry.obj
 0001:00028e40       ?check_twosfx_morph@PfxEntry@@QEAAPEADPEBDHDG@Z 0000000180029e40 f   hunspell:affentry.obj
 0001:00028f60       ?check_morph@PfxEntry@@QEAAPEADPEBDHDG@Z 0000000180029f60 f   hunspell:affentry.obj
 0001:000296e0       ??0SfxEntry@@QEAA@PEAVAffixMgr@@PEAUaffentry@@@Z 000000018002a6e0 f   hunspell:affentry.obj
 0001:00029790       ?add@SfxEntry@@QEAAPEADPEBDH@Z 000000018002a790 f   hunspell:affentry.obj
 0001:000298e0       ?nextchar@SfxEntry@@QEAAPEADPEAD@Z 000000018002a8e0 f i hunspell:affentry.obj
 0001:00029920       ?test_condition@SfxEntry@@QEAAHPEBD0@Z 000000018002a920 f i hunspell:affentry.obj
 0001:00029d40       ?checkword@SfxEntry@@QEAAPEAUhentry@@PEBDHHPEAVPfxEntry@@PEAPEADHPEAHGGG@Z 000000018002ad40 f   hunspell:affentry.obj
 0001:0002a030       ?check_twosfx@SfxEntry@@QEAAPEAUhentry@@PEBDHHPEAVPfxEntry@@G@Z 000000018002b030 f   hunspell:affentry.obj
 0001:0002a1c0       ?check_twosfx_morph@SfxEntry@@QEAAPEADPEBDHHPEAVPfxEntry@@G@Z 000000018002b1c0 f   hunspell:affentry.obj
 0001:0002a5f0       ?get_next_homonym@SfxEntry@@QEAAPEAUhentry@@PEAU2@HPEAVPfxEntry@@GG@Z 000000018002b5f0 f   hunspell:affentry.obj
 0001:0002a8b0       ??0Hunzip@@QEAA@PEBD0@Z    000000018002b8b0 f   hunspell:hunzip.obj
 0001:0002a940       ?getcode@Hunzip@@IEAAHPEBD@Z 000000018002b940 f   hunspell:hunzip.obj
 0001:0002acd0       ?getbuf@Hunzip@@IEAAHXZ    000000018002bcd0 f   hunspell:hunzip.obj
 0001:0002ae60       ?getline@Hunzip@@QEAAPEBDXZ 000000018002be60 f   hunspell:hunzip.obj
 0001:0002b090       ??0bad_alloc@std@@QEAA@AEBV01@@Z 000000018002c090 f i libcpmt:xthrow.obj
 0001:0002b0d0       ??0bad_alloc@std@@QEAA@XZ  000000018002c0d0 f i libcpmt:xthrow.obj
 0001:0002b0f0       ??0exception@std@@QEAA@AEBV01@@Z 000000018002c0f0 f i libcpmt:xthrow.obj
 0001:0002b128       ??0length_error@std@@QEAA@AEBV01@@Z 000000018002c128 f i libcpmt:xthrow.obj
 0001:0002b168       ??0length_error@std@@QEAA@PEBD@Z 000000018002c168 f i libcpmt:xthrow.obj
 0001:0002b1b4       ??0logic_error@std@@QEAA@AEBV01@@Z 000000018002c1b4 f i libcpmt:xthrow.obj
 0001:0002b1f4       ??0out_of_range@std@@QEAA@AEBV01@@Z 000000018002c1f4 f i libcpmt:xthrow.obj
 0001:0002b234       ??0out_of_range@std@@QEAA@PEBD@Z 000000018002c234 f i libcpmt:xthrow.obj
 0001:0002b280       ??1length_error@std@@UEAA@XZ 000000018002c280 f i libcpmt:xthrow.obj
 0001:0002b280       ??1bad_array_new_length@std@@UEAA@XZ 000000018002c280 f i LIBCMT:throw_bad_alloc.obj
 0001:0002b280       ??1out_of_range@std@@UEAA@XZ 000000018002c280 f i libcpmt:xthrow.obj
 0001:0002b280       ??1bad_alloc@std@@UEAA@XZ  000000018002c280 f i libcpmt:xthrow.obj
 0001:0002b294       ??_Gout_of_range@std@@UEAAPEAXI@Z 000000018002c294 f i libcpmt:xthrow.obj
 0001:0002b294       ??_Elength_error@std@@UEAAPEAXI@Z 000000018002c294 f i libcpmt:xthrow.obj
 0001:0002b294       ??_Gbad_array_new_length@std@@UEAAPEAXI@Z 000000018002c294 f i LIBCMT:throw_bad_alloc.obj
 0001:0002b294       ??_Ebad_array_new_length@std@@UEAAPEAXI@Z 000000018002c294 f i LIBCMT:throw_bad_alloc.obj
 0001:0002b294       ??_Gbad_alloc@std@@UEAAPEAXI@Z 000000018002c294 f i libcpmt:xthrow.obj
 0001:0002b294       ??_Gexception@std@@UEAAPEAXI@Z 000000018002c294 f i libcpmt:xthrow.obj
 0001:0002b294       ??_Glogic_error@std@@UEAAPEAXI@Z 000000018002c294 f i libcpmt:xthrow.obj
 0001:0002b294       ??_Ebad_alloc@std@@UEAAPEAXI@Z 000000018002c294 f i libcpmt:xthrow.obj
 0001:0002b294       ??_Glength_error@std@@UEAAPEAXI@Z 000000018002c294 f i libcpmt:xthrow.obj
 0001:0002b294       ??_Elogic_error@std@@UEAAPEAXI@Z 000000018002c294 f i libcpmt:xthrow.obj
 0001:0002b294       ??_Eexception@std@@UEAAPEAXI@Z 000000018002c294 f i libcpmt:xthrow.obj
 0001:0002b294       ??_Eout_of_range@std@@UEAAPEAXI@Z 000000018002c294 f i libcpmt:xthrow.obj
 0001:0002b2d8       ?_Xlength_error@std@@YAXPEBD@Z 000000018002c2d8 f   libcpmt:xthrow.obj
 0001:0002b2fc       ?_Xout_of_range@std@@YAXPEBD@Z 000000018002c2fc f   libcpmt:xthrow.obj
 0001:0002b320       ?what@exception@std@@UEBAPEBDXZ 000000018002c320 f i libcpmt:xthrow.obj
 0001:0002b350       __security_check_cookie    000000018002c350 f   LIBCMT:_amdsecgs_.obj
 0001:0002b374       ??2@YAPEAX_K@Z             000000018002c374 f   LIBCMT:new_scalar.obj
 0001:0002b3b0       ??3@YAXPEAX@Z              000000018002c3b0 f   LIBCMT:delete_scalar.obj
 0001:0002b3b8       ??_U@YAPEAX_K@Z            000000018002c3b8 f   LIBCMT:new_array.obj
 0001:0002b70c       _DllMainCRTStartup         000000018002c70c f   LIBCMT:dll_dllmain.obj
 0001:0002b74c       __raise_securityfailure    000000018002c74c f   LIBCMT:gs_report.obj
 0001:0002b780       __report_gsfailure         000000018002c780 f   LIBCMT:gs_report.obj
 0001:0002b854       __report_rangecheckfailure 000000018002c854 f   LIBCMT:gs_report.obj
 0001:0002b868       __report_securityfailure   000000018002c868 f   LIBCMT:gs_report.obj
 0001:0002b9e8       ??3@YAXPEAX_K@Z            000000018002c9e8 f   LIBCMT:delete_scalar_size.obj
 0001:0002b9e8       ??_V@YAXPEAX@Z             000000018002c9e8 f   LIBCMT:delete_array.obj
 0001:0002b9f0       ??_Gtype_info@@UEAAPEAXI@Z 000000018002c9f0 f i LIBCMT:std_type_info_static.obj
 0001:0002b9f0       ??_Etype_info@@UEAAPEAXI@Z 000000018002c9f0 f i LIBCMT:std_type_info_static.obj
 0001:0002ba1c       ??0bad_array_new_length@std@@QEAA@AEBV01@@Z 000000018002ca1c f i LIBCMT:throw_bad_alloc.obj
 0001:0002ba5c       ??0bad_array_new_length@std@@QEAA@XZ 000000018002ca5c f i LIBCMT:throw_bad_alloc.obj
 0001:0002ba7c       ?__scrt_throw_std_bad_alloc@@YAXXZ 000000018002ca7c f   LIBCMT:throw_bad_alloc.obj
 0001:0002ba7c       ?_Xbad_alloc@std@@YAXXZ    000000018002ca7c f   libcpmt:xthrow.obj
 0001:0002ba9c       ?__scrt_throw_std_bad_array_new_length@@YAXXZ 000000018002ca9c f   LIBCMT:throw_bad_alloc.obj
 0001:0002babc       __scrt_acquire_startup_lock 000000018002cabc f   LIBCMT:utility.obj
 0001:0002baf8       __scrt_dllmain_after_initialize_c 000000018002caf8 f   LIBCMT:utility.obj
 0001:0002bb2c       __scrt_dllmain_before_initialize_c 000000018002cb2c f   LIBCMT:utility.obj
 0001:0002bb44       __scrt_dllmain_crt_thread_attach 000000018002cb44 f   LIBCMT:utility.obj
 0001:0002bb6c       __scrt_dllmain_crt_thread_detach 000000018002cb6c f   LIBCMT:utility.obj
 0001:0002bb84       __scrt_dllmain_exception_filter 000000018002cb84 f   LIBCMT:utility.obj
 0001:0002bbe8       __scrt_dllmain_uninitialize_c 000000018002cbe8 f   LIBCMT:utility.obj
 0001:0002bc18       __scrt_dllmain_uninitialize_critical 000000018002cc18 f   LIBCMT:utility.obj
 0001:0002bc2c       __scrt_initialize_crt      000000018002cc2c f   LIBCMT:utility.obj
 0001:0002bc78       __scrt_initialize_onexit_tables 000000018002cc78 f   LIBCMT:utility.obj
 0001:0002bd44       __scrt_is_nonwritable_in_current_image 000000018002cd44 f   LIBCMT:utility.obj
 0001:0002bde0       __scrt_release_startup_lock 000000018002cde0 f   LIBCMT:utility.obj
 0001:0002be04       __scrt_uninitialize_crt    000000018002ce04 f   LIBCMT:utility.obj
 0001:0002be30       _onexit                    000000018002ce30 f   LIBCMT:utility.obj
 0001:0002be80       atexit                     000000018002ce80 f   LIBCMT:utility.obj
 0001:0002be98       __security_init_cookie     000000018002ce98 f   LIBCMT:gs_support.obj
 0001:0002bf44       _get_startup_argv_mode     000000018002cf44 f   LIBCMT:argv_mode.obj
 0001:0002bf44       DllMain                    000000018002cf44 f   LIBCMT:dll_dllmain_stub.obj
 0001:0002bf4c       ?__scrt_initialize_type_info@@YAXXZ 000000018002cf4c f   LIBCMT:tncleanup.obj
 0001:0002bf5c       ?__scrt_uninitialize_type_info@@YAXXZ 000000018002cf5c f   LIBCMT:tncleanup.obj
 0001:0002bf68       __local_stdio_scanf_options 000000018002cf68 f i LIBCMT:default_local_stdio_options.obj
 0001:0002bf70       __scrt_initialize_default_local_stdio_options 000000018002cf70 f   LIBCMT:default_local_stdio_options.obj
 0001:0002bf8c       __scrt_get_dyn_tls_init_callback 000000018002cf8c f   LIBCMT:dyn_tls_init.obj
 0001:0002bf94       __crt_debugger_hook        000000018002cf94 f   LIBCMT:utility_desktop.obj
 0001:0002bf9c       __scrt_fastfail            000000018002cf9c f   LIBCMT:utility_desktop.obj
 0001:0002c0e4       _RTC_Initialize            000000018002d0e4 f   LIBCMT:_initsect_.obj
 0001:0002c130       _RTC_Terminate             000000018002d130 f   LIBCMT:_initsect_.obj
 0001:0002c17c       _guard_check_icall         000000018002d17c f i LIBCMT:checkcfg.obj
 0001:0002c184       __isa_available_init       000000018002d184 f   LIBCMT:_cpu_disp_.obj
 0001:0002c34c       __scrt_is_ucrt_dll_in_use  000000018002d34c f   LIBCMT:ucrt_detection.obj
 0001:0002c358       __except_validate_context_record 000000018002d358 f i libvcruntime:jbcxrval.obj
 0001:0002c358       _guard_check_icall_nop     000000018002d358 f i LIBCMT:guard_support.obj
 0001:0002c370       memmove                    000000018002d370 f   libvcruntime:memcpy.obj
 0001:0002c370       memcpy                     000000018002d370 f   libvcruntime:memcpy.obj
 0001:0002c7a8       _purecall                  000000018002d7a8 f   libvcruntime:purevirt.obj
 0001:0002c7e4       strstr                     000000018002d7e4 f   libvcruntime:strstr.obj
 0001:0002c9d8       strchr                     000000018002d9d8 f   libvcruntime:strchr.obj
 0001:0002ca64       __std_exception_copy       000000018002da64 f   libvcruntime:std_exception.obj
 0001:0002caf4       __std_exception_destroy    000000018002daf4 f   libvcruntime:std_exception.obj
 0001:0002cb1c       _CxxThrowException         000000018002db1c f   libvcruntime:throw.obj
 0001:0002cbf4       __C_specific_handler       000000018002dbf4 f   libvcruntime:_chandler_.obj
 0001:0002cdf0       __vcrt_initialize          000000018002ddf0 f   libvcruntime:initialization.obj
 0001:0002ce24       __vcrt_thread_attach       000000018002de24 f   libvcruntime:initialization.obj
 0001:0002ce38       __vcrt_thread_detach       000000018002de38 f   libvcruntime:initialization.obj
 0001:0002ce4c       __vcrt_uninitialize        000000018002de4c f   libvcruntime:initialization.obj
 0001:0002ce6c       __vcrt_uninitialize_critical 000000018002de6c f   libvcruntime:initialization.obj
 0001:0002ce7c       __std_type_info_destroy_list 000000018002de7c f   libvcruntime:std_type_info.obj
 0001:0002cec0       memset                     000000018002dec0 f   libvcruntime:memset.obj
 0001:0002d060       __vcrt_initialize_pure_virtual_call_handler 000000018002e060 f   libvcruntime:purevirt_data.obj
 0001:0002d0a0       _local_unwind              000000018002e0a0 f   libvcruntime:_jmpuwind_.obj
 0001:0002d0d0       _NLG_Notify                000000018002e0d0 f   libvcruntime:_jmpuwind_.obj
 0001:0002d0f0       __NLG_Dispatch2            000000018002e0f0 f   libvcruntime:_jmpuwind_.obj
 0001:0002d100       __NLG_Return2              000000018002e100 f   libvcruntime:_jmpuwind_.obj
 0001:0002d104       __vcrt_freefls             000000018002e104 f   libvcruntime:per_thread_data.obj
 0001:0002d124       __vcrt_freeptd             000000018002e124 f   libvcruntime:per_thread_data.obj
 0001:0002d174       __vcrt_getptd_noexit       000000018002e174 f   libvcruntime:per_thread_data.obj
 0001:0002d22c       __vcrt_initialize_ptd      000000018002e22c f   libvcruntime:per_thread_data.obj
 0001:0002d26c       __vcrt_uninitialize_ptd    000000018002e26c f   libvcruntime:per_thread_data.obj
 0001:0002d290       __vcrt_initialize_locks    000000018002e290 f   libvcruntime:locks.obj
 0001:0002d2d8       __vcrt_uninitialize_locks  000000018002e2d8 f   libvcruntime:locks.obj
 0001:0002d4d8       __vcrt_FlsAlloc            000000018002e4d8 f   libvcruntime:winapi_downlevel.obj
 0001:0002d52c       __vcrt_FlsFree             000000018002e52c f   libvcruntime:winapi_downlevel.obj
 0001:0002d580       __vcrt_FlsGetValue         000000018002e580 f   libvcruntime:winapi_downlevel.obj
 0001:0002d5d4       __vcrt_FlsSetValue         000000018002e5d4 f   libvcruntime:winapi_downlevel.obj
 0001:0002d63c       __vcrt_InitializeCriticalSectionEx 000000018002e63c f   libvcruntime:winapi_downlevel.obj
 0001:0002d6b4       __vcrt_initialize_winapi_thunks 000000018002e6b4 f   libvcruntime:winapi_downlevel.obj
 0001:0002d700       __vcrt_uninitialize_winapi_thunks 000000018002e700 f   libvcruntime:winapi_downlevel.obj
 0001:0002e128       ??$ftprintf@PEAU_iobuf@@PEB_WAEBQEB_WAEBQEB_WAEBI@?$__crt_char_traits@_W@@SAH$$QEAPEAU_iobuf@@$$QEAPEB_WAEBQEB_W2AEBI@Z 000000018002f128 f i libucrt:assert.obj
 0001:0002e150       _wassert                   000000018002f150 f   libucrt:assert.obj
 0001:0002e1d4       fwprintf                   000000018002f1d4 f i libucrt:assert.obj
 0001:0002e218       swprintf                   000000018002f218 f i libucrt:assert.obj
 0001:0002e26c       __acrt_call_reportfault    000000018002f26c f   libucrt:invalid_parameter.obj
 0001:0002e3c8       __acrt_initialize_invalid_parameter_handler 000000018002f3c8 f   libucrt:invalid_parameter.obj
 0001:0002e3d0       _invalid_parameter         000000018002f3d0 f   libucrt:invalid_parameter.obj
 0001:0002e478       _invalid_parameter_noinfo  000000018002f478 f   libucrt:invalid_parameter.obj
 0001:0002e498       _invalid_parameter_noinfo_noreturn 000000018002f498 f   libucrt:invalid_parameter.obj
 0001:0002e4c8       _invoke_watson             000000018002f4c8 f   libucrt:invalid_parameter.obj
 0001:0002e5e0       fopen                      000000018002f5e0 f   libucrt:fopen.obj
 0001:0002e5ec       _fclose_nolock             000000018002f5ec f   libucrt:fclose.obj
 0001:0002e670       fclose                     000000018002f670 f   libucrt:fclose.obj
 0001:0002e6dc       ??0_LocaleUpdate@@QEAA@QEAU__crt_locale_pointers@@@Z 000000018002f6dc f i libucrt:_wctype.obj
 0001:0002e76c       _isleadbyte_l              000000018002f76c f i libucrt:_wctype.obj
 0001:0002e7ac       iswalpha                   000000018002f7ac f i libucrt:_wctype.obj
 0001:0002e7b8       iswpunct                   000000018002f7b8 f i libucrt:_wctype.obj
 0001:0002e7c4       iswspace                   000000018002f7c4 f i libucrt:_wctype.obj
 0001:0002e8c4       getenv                     000000018002f8c4 f   libucrt:getenv.obj
 0001:0002e8cc       realloc                    000000018002f8cc f   libucrt:realloc.obj
 0001:0002e8f0       strncpy                    000000018002f8f0 f   libucrt:strncpy.obj
 0001:0002ea70       strncmp                    000000018002fa70 f   libucrt:strncmp.obj
 0001:0002eaf0       ??$?RV<lambda_7b91131dde12e1c3dfc74ff76b3f2eac>@@AEAV<lambda_dd75445284c072d0bd3768540cc698fa>@@V<lambda_16bc4ecb55b4718497c16bceaea2ceaf>@@@?$__crt_seh_guarded_call@H@@QEAAH$$QEAV<lambda_7b91131dde12e1c3dfc74ff76b3f2eac>@@AEAV<lambda_dd75445284c072d0bd3768540cc698fa>@@$$QEAV<lambda_16bc4ecb55b4718497c16bceaea2ceaf>@@@Z 000000018002faf0 f i libucrt:output.obj
 0001:0002eb30       ??$?RV<lambda_aa279a7bcb127014629d5b1d62c7325d>@@AEAV<lambda_0a64b6a4deda75c01876f29c44fc5eb3>@@V<lambda_3323e69fbefe9d1a11713e670d47cdfa>@@@?$__crt_seh_guarded_call@H@@QEAAH$$QEAV<lambda_aa279a7bcb127014629d5b1d62c7325d>@@AEAV<lambda_0a64b6a4deda75c01876f29c44fc5eb3>@@$$QEAV<lambda_3323e69fbefe9d1a11713e670d47cdfa>@@@Z 000000018002fb30 f i libucrt:output.obj
 0001:0002eb70       ??$ensure_buffer_is_big_enough@D@formatting_buffer@__crt_stdio_output@@QEAA_N_K@Z 000000018002fb70 f i libucrt:output.obj
 0001:0002ec1c       ??$is_wide_character_specifier@D@__crt_stdio_output@@YA_N_KDW4length_modifier@0@@Z 000000018002fc1c f i libucrt:output.obj
 0001:0002ec4c       ??$is_wide_character_specifier@_W@__crt_stdio_output@@YA_N_K_WW4length_modifier@0@@Z 000000018002fc4c f i libucrt:output.obj
 0001:0002ec90       ??$type_case_integer_parse_into_buffer@I@?$output_processor@DV?$stream_output_adapter@D@__crt_stdio_output@@V?$standard_base@DV?$stream_output_adapter@D@__crt_stdio_output@@@2@@__crt_stdio_output@@AEAAXII_N@Z 000000018002fc90 f i libucrt:output.obj
 0001:0002ec90       ??$type_case_integer_parse_into_buffer@I@?$output_processor@_WV?$string_output_adapter@_W@__crt_stdio_output@@V?$standard_base@_WV?$string_output_adapter@_W@__crt_stdio_output@@@2@@__crt_stdio_output@@AEAAXII_N@Z 000000018002fc90 f i libucrt:output.obj
 0001:0002ec90       ??$type_case_integer_parse_into_buffer@I@?$output_processor@DV?$string_output_adapter@D@__crt_stdio_output@@V?$standard_base@DV?$string_output_adapter@D@__crt_stdio_output@@@2@@__crt_stdio_output@@AEAAXII_N@Z 000000018002fc90 f i libucrt:output.obj
 0001:0002ec90       ??$type_case_integer_parse_into_buffer@I@?$output_processor@_WV?$stream_output_adapter@_W@__crt_stdio_output@@V?$standard_base@_WV?$stream_output_adapter@_W@__crt_stdio_output@@@2@@__crt_stdio_output@@AEAAXII_N@Z 000000018002fc90 f i libucrt:output.obj
 0001:0002ed2c       ??$type_case_integer_parse_into_buffer@_K@?$output_processor@_WV?$stream_output_adapter@_W@__crt_stdio_output@@V?$standard_base@_WV?$stream_output_adapter@_W@__crt_stdio_output@@@2@@__crt_stdio_output@@AEAAX_KI_N@Z 000000018002fd2c f i libucrt:output.obj
 0001:0002ed2c       ??$type_case_integer_parse_into_buffer@_K@?$output_processor@DV?$string_output_adapter@D@__crt_stdio_output@@V?$standard_base@DV?$string_output_adapter@D@__crt_stdio_output@@@2@@__crt_stdio_output@@AEAAX_KI_N@Z 000000018002fd2c f i libucrt:output.obj
 0001:0002ed2c       ??$type_case_integer_parse_into_buffer@_K@?$output_processor@_WV?$string_output_adapter@_W@__crt_stdio_output@@V?$standard_base@_WV?$string_output_adapter@_W@__crt_stdio_output@@@2@@__crt_stdio_output@@AEAAX_KI_N@Z 000000018002fd2c f i libucrt:output.obj
 0001:0002ed2c       ??$type_case_integer_parse_into_buffer@_K@?$output_processor@DV?$stream_output_adapter@D@__crt_stdio_output@@V?$standard_base@DV?$stream_output_adapter@D@__crt_stdio_output@@@2@@__crt_stdio_output@@AEAAX_KI_N@Z 000000018002fd2c f i libucrt:output.obj
 0001:0002edc8       ??$write_multiple_characters@V?$stream_output_adapter@D@__crt_stdio_output@@D@__crt_stdio_output@@YAXAEBV?$stream_output_adapter@D@0@DHQEAH@Z 000000018002fdc8 f i libucrt:output.obj
 0001:0002ee4c       ??$write_multiple_characters@V?$stream_output_adapter@_W@__crt_stdio_output@@D@__crt_stdio_output@@YAXAEBV?$stream_output_adapter@_W@0@DHQEAH@Z 000000018002fe4c f i libucrt:output.obj
 0001:0002eedc       ??$write_multiple_characters@V?$string_output_adapter@D@__crt_stdio_output@@D@__crt_stdio_output@@YAXAEBV?$string_output_adapter@D@0@DHQEAH@Z 000000018002fedc f i libucrt:output.obj
 0001:0002ef38       ??$write_multiple_characters@V?$string_output_adapter@_W@__crt_stdio_output@@D@__crt_stdio_output@@YAXAEBV?$string_output_adapter@_W@0@DHQEAH@Z 000000018002ff38 f i libucrt:output.obj
 0001:0002efa8       ??0?$output_processor@DV?$string_output_adapter@D@__crt_stdio_output@@V?$standard_base@DV?$string_output_adapter@D@__crt_stdio_output@@@2@@__crt_stdio_output@@QEAA@AEBV?$string_output_adapter@D@1@_KQEBDQEAU__crt_locale_pointers@@QEAD@Z 000000018002ffa8 f i libucrt:output.obj
 0001:0002efa8       ??0?$output_processor@DV?$stream_output_adapter@D@__crt_stdio_output@@V?$standard_base@DV?$stream_output_adapter@D@__crt_stdio_output@@@2@@__crt_stdio_output@@QEAA@AEBV?$stream_output_adapter@D@1@_KQEBDQEAU__crt_locale_pointers@@QEAD@Z 000000018002ffa8 f i libucrt:output.obj
 0001:0002f024       ??0?$output_processor@_WV?$string_output_adapter@_W@__crt_stdio_output@@V?$standard_base@_WV?$string_output_adapter@_W@__crt_stdio_output@@@2@@__crt_stdio_output@@QEAA@AEBV?$string_output_adapter@_W@1@_KQEB_WQEAU__crt_locale_pointers@@QEAD@Z 0000000180030024 f i libucrt:output.obj
 0001:0002f024       ??0?$output_processor@_WV?$stream_output_adapter@_W@__crt_stdio_output@@V?$standard_base@_WV?$stream_output_adapter@_W@__crt_stdio_output@@@2@@__crt_stdio_output@@QEAA@AEBV?$stream_output_adapter@_W@1@_KQEB_WQEAU__crt_locale_pointers@@QEAD@Z 0000000180030024 f i libucrt:output.obj
 0001:0002f284       ?force_decimal_point@__crt_stdio_output@@YAXPEADQEAU__crt_locale_pointers@@@Z 0000000180030284 f i libucrt:output.obj
 0001:0002f2f4       ?parse_int_from_format_string@?$output_processor@DV?$stream_output_adapter@D@__crt_stdio_output@@V?$standard_base@DV?$stream_output_adapter@D@__crt_stdio_output@@@2@@__crt_stdio_output@@AEAA_NQEAH@Z 00000001800302f4 f i libucrt:output.obj
 0001:0002f2f4       ?parse_int_from_format_string@?$output_processor@DV?$string_output_adapter@D@__crt_stdio_output@@V?$standard_base@DV?$string_output_adapter@D@__crt_stdio_output@@@2@@__crt_stdio_output@@AEAA_NQEAH@Z 00000001800302f4 f i libucrt:output.obj
 0001:0002f378       ?parse_int_from_format_string@?$output_processor@_WV?$string_output_adapter@_W@__crt_stdio_output@@V?$standard_base@_WV?$string_output_adapter@_W@__crt_stdio_output@@@2@@__crt_stdio_output@@AEAA_NQEAH@Z 0000000180030378 f i libucrt:output.obj
 0001:0002f378       ?parse_int_from_format_string@?$output_processor@_WV?$stream_output_adapter@_W@__crt_stdio_output@@V?$standard_base@_WV?$stream_output_adapter@_W@__crt_stdio_output@@@2@@__crt_stdio_output@@AEAA_NQEAH@Z 0000000180030378 f i libucrt:output.obj
 0001:0002f3f8       ?process@?$output_processor@DV?$stream_output_adapter@D@__crt_stdio_output@@V?$standard_base@DV?$stream_output_adapter@D@__crt_stdio_output@@@2@@__crt_stdio_output@@QEAAHXZ 00000001800303f8 f i libucrt:output.obj
 0001:0002f608       ?process@?$output_processor@DV?$string_output_adapter@D@__crt_stdio_output@@V?$standard_base@DV?$string_output_adapter@D@__crt_stdio_output@@@2@@__crt_stdio_output@@QEAAHXZ 0000000180030608 f i libucrt:output.obj
 0001:0002f80c       ?process@?$output_processor@_WV?$stream_output_adapter@_W@__crt_stdio_output@@V?$standard_base@_WV?$stream_output_adapter@_W@__crt_stdio_output@@@2@@__crt_stdio_output@@QEAAHXZ 000000018003080c f i libucrt:output.obj
 0001:0002fa84       ?process@?$output_processor@_WV?$string_output_adapter@_W@__crt_stdio_output@@V?$standard_base@_WV?$string_output_adapter@_W@__crt_stdio_output@@@2@@__crt_stdio_output@@QEAAHXZ 0000000180030a84 f i libucrt:output.obj
 0001:0002fd00       ?state_case_normal@?$output_processor@DV?$stream_output_adapter@D@__crt_stdio_output@@V?$standard_base@DV?$stream_output_adapter@D@__crt_stdio_output@@@2@@__crt_stdio_output@@AEAA_NXZ 0000000180030d00 f i libucrt:output.obj
 0001:0002fd70       ?state_case_normal@?$output_processor@DV?$string_output_adapter@D@__crt_stdio_output@@V?$standard_base@DV?$string_output_adapter@D@__crt_stdio_output@@@2@@__crt_stdio_output@@AEAA_NXZ 0000000180030d70 f i libucrt:output.obj
 0001:0002fde4       ?state_case_normal_tchar@?$output_processor@DV?$stream_output_adapter@D@__crt_stdio_output@@V?$standard_base@DV?$stream_output_adapter@D@__crt_stdio_output@@@2@@__crt_stdio_output@@AEAA_ND@Z 0000000180030de4 f i libucrt:output.obj
 0001:0002fe78       ?state_case_normal_tchar@?$output_processor@DV?$string_output_adapter@D@__crt_stdio_output@@V?$standard_base@DV?$string_output_adapter@D@__crt_stdio_output@@@2@@__crt_stdio_output@@AEAA_ND@Z 0000000180030e78 f i libucrt:output.obj
 0001:0002ff10       ?state_case_size@?$output_processor@DV?$stream_output_adapter@D@__crt_stdio_output@@V?$standard_base@DV?$stream_output_adapter@D@__crt_stdio_output@@@2@@__crt_stdio_output@@AEAA_NXZ 0000000180030f10 f i libucrt:output.obj
 0001:0003008c       ?state_case_size@?$output_processor@DV?$string_output_adapter@D@__crt_stdio_output@@V?$standard_base@DV?$string_output_adapter@D@__crt_stdio_output@@@2@@__crt_stdio_output@@AEAA_NXZ 000000018003108c f i libucrt:output.obj
 0001:00030208       ?state_case_size@?$output_processor@_WV?$stream_output_adapter@_W@__crt_stdio_output@@V?$standard_base@_WV?$stream_output_adapter@_W@__crt_stdio_output@@@2@@__crt_stdio_output@@AEAA_NXZ 0000000180031208 f i libucrt:output.obj
 0001:000303ac       ?state_case_size@?$output_processor@_WV?$string_output_adapter@_W@__crt_stdio_output@@V?$standard_base@_WV?$string_output_adapter@_W@__crt_stdio_output@@@2@@__crt_stdio_output@@AEAA_NXZ 00000001800313ac f i libucrt:output.obj
 0001:00030550       ?state_case_type@?$output_processor@DV?$stream_output_adapter@D@__crt_stdio_output@@V?$standard_base@DV?$stream_output_adapter@D@__crt_stdio_output@@@2@@__crt_stdio_output@@AEAA_NXZ 0000000180031550 f i libucrt:output.obj
 0001:000307cc       ?state_case_type@?$output_processor@DV?$string_output_adapter@D@__crt_stdio_output@@V?$standard_base@DV?$string_output_adapter@D@__crt_stdio_output@@@2@@__crt_stdio_output@@AEAA_NXZ 00000001800317cc f i libucrt:output.obj
 0001:00030a48       ?state_case_type@?$output_processor@_WV?$stream_output_adapter@_W@__crt_stdio_output@@V?$standard_base@_WV?$stream_output_adapter@_W@__crt_stdio_output@@@2@@__crt_stdio_output@@AEAA_NXZ 0000000180031a48 f i libucrt:output.obj
 0001:00030d14       ?state_case_type@?$output_processor@_WV?$string_output_adapter@_W@__crt_stdio_output@@V?$standard_base@_WV?$string_output_adapter@_W@__crt_stdio_output@@@2@@__crt_stdio_output@@AEAA_NXZ 0000000180031d14 f i libucrt:output.obj
 0001:00030fe0       ?type_case_Z@?$output_processor@DV?$stream_output_adapter@D@__crt_stdio_output@@V?$standard_base@DV?$stream_output_adapter@D@__crt_stdio_output@@@2@@__crt_stdio_output@@AEAA_NXZ 0000000180031fe0 f i libucrt:output.obj
 0001:00030fe0       ?type_case_Z@?$output_processor@DV?$string_output_adapter@D@__crt_stdio_output@@V?$standard_base@DV?$string_output_adapter@D@__crt_stdio_output@@@2@@__crt_stdio_output@@AEAA_NXZ 0000000180031fe0 f i libucrt:output.obj
 0001:00031060       ?type_case_Z@?$output_processor@_WV?$stream_output_adapter@_W@__crt_stdio_output@@V?$standard_base@_WV?$stream_output_adapter@_W@__crt_stdio_output@@@2@@__crt_stdio_output@@AEAA_NXZ 0000000180032060 f i libucrt:output.obj
 0001:00031060       ?type_case_Z@?$output_processor@_WV?$string_output_adapter@_W@__crt_stdio_output@@V?$standard_base@_WV?$string_output_adapter@_W@__crt_stdio_output@@@2@@__crt_stdio_output@@AEAA_NXZ 0000000180032060 f i libucrt:output.obj
 0001:000310e0       ?type_case_a@?$output_processor@DV?$string_output_adapter@D@__crt_stdio_output@@V?$standard_base@DV?$string_output_adapter@D@__crt_stdio_output@@@2@@__crt_stdio_output@@AEAA_NXZ 00000001800320e0 f i libucrt:output.obj
 0001:000310e0       ?type_case_a@?$output_processor@DV?$stream_output_adapter@D@__crt_stdio_output@@V?$standard_base@DV?$stream_output_adapter@D@__crt_stdio_output@@@2@@__crt_stdio_output@@AEAA_NXZ 00000001800320e0 f i libucrt:output.obj
 0001:000312fc       ?type_case_a@?$output_processor@_WV?$string_output_adapter@_W@__crt_stdio_output@@V?$standard_base@_WV?$string_output_adapter@_W@__crt_stdio_output@@@2@@__crt_stdio_output@@AEAA_NXZ 00000001800322fc f i libucrt:output.obj
 0001:000312fc       ?type_case_a@?$output_processor@_WV?$stream_output_adapter@_W@__crt_stdio_output@@V?$standard_base@_WV?$stream_output_adapter@_W@__crt_stdio_output@@@2@@__crt_stdio_output@@AEAA_NXZ 00000001800322fc f i libucrt:output.obj
 0001:00031540       ?type_case_c_tchar@?$output_processor@DV?$string_output_adapter@D@__crt_stdio_output@@V?$standard_base@DV?$string_output_adapter@D@__crt_stdio_output@@@2@@__crt_stdio_output@@AEAA_ND@Z 0000000180032540 f i libucrt:output.obj
 0001:00031540       ?type_case_c_tchar@?$output_processor@DV?$stream_output_adapter@D@__crt_stdio_output@@V?$standard_base@DV?$stream_output_adapter@D@__crt_stdio_output@@@2@@__crt_stdio_output@@AEAA_ND@Z 0000000180032540 f i libucrt:output.obj
 0001:000315f4       ?type_case_c_tchar@?$output_processor@_WV?$string_output_adapter@_W@__crt_stdio_output@@V?$standard_base@_WV?$string_output_adapter@_W@__crt_stdio_output@@@2@@__crt_stdio_output@@AEAA_N_W@Z 00000001800325f4 f i libucrt:output.obj
 0001:000315f4       ?type_case_c_tchar@?$output_processor@_WV?$stream_output_adapter@_W@__crt_stdio_output@@V?$standard_base@_WV?$stream_output_adapter@_W@__crt_stdio_output@@@2@@__crt_stdio_output@@AEAA_N_W@Z 00000001800325f4 f i libucrt:output.obj
 0001:0003169c       ?type_case_integer@?$output_processor@DV?$string_output_adapter@D@__crt_stdio_output@@V?$standard_base@DV?$string_output_adapter@D@__crt_stdio_output@@@2@@__crt_stdio_output@@AEAA_NI_N@Z 000000018003269c f i libucrt:output.obj
 0001:0003169c       ?type_case_integer@?$output_processor@_WV?$stream_output_adapter@_W@__crt_stdio_output@@V?$standard_base@_WV?$stream_output_adapter@_W@__crt_stdio_output@@@2@@__crt_stdio_output@@AEAA_NI_N@Z 000000018003269c f i libucrt:output.obj
 0001:0003169c       ?type_case_integer@?$output_processor@_WV?$string_output_adapter@_W@__crt_stdio_output@@V?$standard_base@_WV?$string_output_adapter@_W@__crt_stdio_output@@@2@@__crt_stdio_output@@AEAA_NI_N@Z 000000018003269c f i libucrt:output.obj
 0001:0003169c       ?type_case_integer@?$output_processor@DV?$stream_output_adapter@D@__crt_stdio_output@@V?$standard_base@DV?$stream_output_adapter@D@__crt_stdio_output@@@2@@__crt_stdio_output@@AEAA_NI_N@Z 000000018003269c f i libucrt:output.obj
 0001:0003183c       ?type_case_n@?$output_processor@DV?$stream_output_adapter@D@__crt_stdio_output@@V?$standard_base@DV?$stream_output_adapter@D@__crt_stdio_output@@@2@@__crt_stdio_output@@AEAA_NXZ 000000018003283c f i libucrt:output.obj
 0001:0003183c       ?type_case_n@?$output_processor@_WV?$string_output_adapter@_W@__crt_stdio_output@@V?$standard_base@_WV?$string_output_adapter@_W@__crt_stdio_output@@@2@@__crt_stdio_output@@AEAA_NXZ 000000018003283c f i libucrt:output.obj
 0001:0003183c       ?type_case_n@?$output_processor@DV?$string_output_adapter@D@__crt_stdio_output@@V?$standard_base@DV?$string_output_adapter@D@__crt_stdio_output@@@2@@__crt_stdio_output@@AEAA_NXZ 000000018003283c f i libucrt:output.obj
 0001:0003183c       ?type_case_n@?$output_processor@_WV?$stream_output_adapter@_W@__crt_stdio_output@@V?$standard_base@_WV?$stream_output_adapter@_W@__crt_stdio_output@@@2@@__crt_stdio_output@@AEAA_NXZ 000000018003283c f i libucrt:output.obj
 0001:00031918       ?type_case_s@?$output_processor@DV?$string_output_adapter@D@__crt_stdio_output@@V?$standard_base@DV?$string_output_adapter@D@__crt_stdio_output@@@2@@__crt_stdio_output@@AEAA_NXZ 0000000180032918 f i libucrt:output.obj
 0001:00031918       ?type_case_s@?$output_processor@DV?$stream_output_adapter@D@__crt_stdio_output@@V?$standard_base@DV?$stream_output_adapter@D@__crt_stdio_output@@@2@@__crt_stdio_output@@AEAA_NXZ 0000000180032918 f i libucrt:output.obj
 0001:000319a8       ?type_case_s@?$output_processor@_WV?$string_output_adapter@_W@__crt_stdio_output@@V?$standard_base@_WV?$string_output_adapter@_W@__crt_stdio_output@@@2@@__crt_stdio_output@@AEAA_NXZ 00000001800329a8 f i libucrt:output.obj
 0001:000319a8       ?type_case_s@?$output_processor@_WV?$stream_output_adapter@_W@__crt_stdio_output@@V?$standard_base@_WV?$stream_output_adapter@_W@__crt_stdio_output@@@2@@__crt_stdio_output@@AEAA_NXZ 00000001800329a8 f i libucrt:output.obj
 0001:00031a70       ?validate_stream_is_ansi_if_required@?$__acrt_stdio_char_traits@D@@SA_NQEAU_iobuf@@@Z 0000000180032a70 f i libucrt:output.obj
 0001:00031afc       ?write_stored_string_tchar@?$output_processor@DV?$stream_output_adapter@D@__crt_stdio_output@@V?$standard_base@DV?$stream_output_adapter@D@__crt_stdio_output@@@2@@__crt_stdio_output@@AEAA_ND@Z 0000000180032afc f i libucrt:output.obj
 0001:00031bd4       ?write_stored_string_tchar@?$output_processor@DV?$string_output_adapter@D@__crt_stdio_output@@V?$standard_base@DV?$string_output_adapter@D@__crt_stdio_output@@@2@@__crt_stdio_output@@AEAA_ND@Z 0000000180032bd4 f i libucrt:output.obj
 0001:00031cac       ?write_stored_string_tchar@?$output_processor@_WV?$stream_output_adapter@_W@__crt_stdio_output@@V?$standard_base@_WV?$stream_output_adapter@_W@__crt_stdio_output@@@2@@__crt_stdio_output@@AEAA_N_W@Z 0000000180032cac f i libucrt:output.obj
 0001:00031d98       ?write_stored_string_tchar@?$output_processor@_WV?$string_output_adapter@_W@__crt_stdio_output@@V?$standard_base@_WV?$string_output_adapter@_W@__crt_stdio_output@@@2@@__crt_stdio_output@@AEAA_N_W@Z 0000000180032d98 f i libucrt:output.obj
 0001:00031e88       ?write_string@?$stream_output_adapter@D@__crt_stdio_output@@QEBAXQEBDHQEAH1@Z 0000000180032e88 f i libucrt:output.obj
 0001:00031f80       ?write_string@?$stream_output_adapter@_W@__crt_stdio_output@@QEBAXQEB_WHQEAH1@Z 0000000180032f80 f i libucrt:output.obj
 0001:0003208c       ?write_string@?$string_output_adapter@D@__crt_stdio_output@@QEBAXQEBDHQEAH1@Z 000000018003308c f i libucrt:output.obj
 0001:00032148       ?write_string@?$string_output_adapter@_W@__crt_stdio_output@@QEBAXQEB_WHQEAH1@Z 0000000180033148 f i libucrt:output.obj
 0001:00032208       __stdio_common_vfprintf    0000000180033208 f   libucrt:output.obj
 0001:00032294       __stdio_common_vfwprintf   0000000180033294 f   libucrt:output.obj
 0001:00032320       __stdio_common_vsprintf    0000000180033320 f   libucrt:output.obj
 0001:00032554       __stdio_common_vswprintf   0000000180033554 f   libucrt:output.obj
 0001:0003278c       free                       000000018003378c f   libucrt:free.obj
 0001:00032794       malloc                     0000000180033794 f   libucrt:malloc.obj
 0001:0003279c       __acrt_initialize_stdio    000000018003379c f   libucrt:_file.obj
 0001:000328bc       __acrt_iob_func            00000001800338bc f   libucrt:_file.obj
 0001:000328d0       __acrt_uninitialize_stdio  00000001800338d0 f   libucrt:_file.obj
 0001:0003292c       _lock_file                 000000018003392c f   libucrt:_file.obj
 0001:00032938       _unlock_file               0000000180033938 f   libucrt:_file.obj
 0001:00032944       ??$is_overflow_condition@K@__crt_strtox@@YA_NIK@Z 0000000180033944 f i libucrt:atox.obj
 0001:00032970       ??$parse_integer@KV?$c_string_character_source@D@__crt_strtox@@@__crt_strtox@@YAKQEAU__crt_locale_pointers@@V?$c_string_character_source@D@0@H_N@Z 0000000180033970 f i libucrt:atox.obj
 0001:00032c84       ??$parse_integer@KV?$c_string_character_source@_W@__crt_strtox@@@__crt_strtox@@YAKQEAU__crt_locale_pointers@@V?$c_string_character_source@_W@0@H_N@Z 0000000180033c84 f i libucrt:atox.obj
 0001:00033358       atoi                       0000000180034358 f   libucrt:atox.obj
 0001:00033384       isalpha                    0000000180034384 f i libucrt:_ctype.obj
 0001:00033400       isdigit                    0000000180034400 f i libucrt:_ctype.obj
 0001:00033474       isspace                    0000000180034474 f i libucrt:_ctype.obj
 0001:000334e8       calloc                     00000001800344e8 f   libucrt:calloc.obj
 0001:000334f0       __acrt_initialize_clock    00000001800344f0 f   libucrt:clock.obj
 0001:00033544       clock                      0000000180034544 f   libucrt:clock.obj
 0001:0003368c       fgets                      000000018003468c f   libucrt:fgets.obj
 0001:00033694       _fread_nolock_s            0000000180034694 f   libucrt:fread.obj
 0001:00033914       fread                      0000000180034914 f   libucrt:fread.obj
 0001:00033934       fread_s                    0000000180034934 f   libucrt:fread.obj
 0001:000339dc       __acrt_initialize_new_handler 00000001800349dc f   libucrt:new_handler.obj
 0001:000339e4       _callnewh                  00000001800349e4 f   libucrt:new_handler.obj
 0001:00033a24       _query_new_handler         0000000180034a24 f   libucrt:new_handler.obj
 0001:00033a58       _initterm                  0000000180034a58 f   libucrt:initterm.obj
 0001:00033ad0       _initterm_e                0000000180034ad0 f   libucrt:initterm.obj
 0001:00033b1c       _seh_filter_dll            0000000180034b1c f   libucrt:exception_filter.obj
 0001:00033b30       _seh_filter_exe            0000000180034b30 f   libucrt:exception_filter.obj
 0001:00033ef0       __acrt_initialize_thread_local_exit_callback 0000000180034ef0 f   libucrt:exit.obj
 0001:00033ef8       _cexit                     0000000180034ef8 f   libucrt:exit.obj
 0001:00033f08       _exit                      0000000180034f08 f   libucrt:exit.obj
 0001:00033f14       _is_c_termination_complete 0000000180034f14 f   libucrt:exit.obj
 0001:000340d8       __acrt_allocate_buffer_for_argv 00000001800350d8 f   libucrt:argv_parsing.obj
 0001:0003413c       _configure_narrow_argv     000000018003513c f   libucrt:argv_parsing.obj
 0001:000345b4       __dcrt_get_or_create_narrow_environment_nolock 00000001800355b4 f   libucrt:environment_initialization.obj
 0001:000345bc       __dcrt_uninitialize_environments_nolock 00000001800355bc f   libucrt:environment_initialization.obj
 0001:000345f4       _initialize_narrow_environment 00000001800355f4 f   libucrt:environment_initialization.obj
 0001:000345fc       ??$?RV<lambda_b8c45f8f788dd370798f47cfe8ac3a86>@@AEAV<lambda_4e60a939b0d047cfe11ddc22648dfba9>@@V<lambda_332c3edc96d0294ec56c57d38c1cdfd5>@@@?$__crt_seh_guarded_call@H@@QEAAH$$QEAV<lambda_b8c45f8f788dd370798f47cfe8ac3a86>@@AEAV<lambda_4e60a939b0d047cfe11ddc22648dfba9>@@$$QEAV<lambda_332c3edc96d0294ec56c57d38c1cdfd5>@@@Z 00000001800355fc f i libucrt:onexit.obj
 0001:00034638       ??$?RV<lambda_e24bbb7b643b32fcea6fa61b31d4c984>@@AEAV<lambda_275893d493268fdec8709772e3fcec0e>@@V<lambda_9d71df4d7cf3f480f8d633942495c3b0>@@@?$__crt_seh_guarded_call@H@@QEAAH$$QEAV<lambda_e24bbb7b643b32fcea6fa61b31d4c984>@@AEAV<lambda_275893d493268fdec8709772e3fcec0e>@@$$QEAV<lambda_9d71df4d7cf3f480f8d633942495c3b0>@@@Z 0000000180035638 f i libucrt:onexit.obj
 0001:000349b4       _crt_atexit                00000001800359b4 f   libucrt:onexit.obj
 0001:000349c4       _execute_onexit_table      00000001800359c4 f   libucrt:onexit.obj
 0001:00034a00       _initialize_onexit_table   0000000180035a00 f   libucrt:onexit.obj
 0001:00034a40       _register_onexit_function  0000000180035a40 f   libucrt:onexit.obj
 0001:00034bbc       __acrt_initialize          0000000180035bbc f   libucrt:initialization.obj
 0001:00034bd0       __acrt_thread_attach       0000000180035bd0 f   libucrt:initialization.obj
 0001:00034be4       __acrt_thread_detach       0000000180035be4 f   libucrt:initialization.obj
 0001:00034bf4       __acrt_uninitialize        0000000180035bf4 f   libucrt:initialization.obj
 0001:00034c08       __acrt_uninitialize_critical 0000000180035c08 f   libucrt:initialization.obj
 0001:00034c18       terminate                  0000000180035c18 f   libucrt:terminate.obj
 0001:00034c40       abort                      0000000180035c40 f   libucrt:abort.obj
 0001:00034c98       strcpy_s                   0000000180035c98 f   libucrt:strcpy_s.obj
 0001:00034cf8       _free_base                 0000000180035cf8 f   libucrt:free_base.obj
 0001:00034d38       _malloc_base               0000000180035d38 f   libucrt:malloc_base.obj
 0001:00034d98       _calloc_base               0000000180035d98 f   libucrt:calloc_base.obj
 0001:00034e10       _query_app_type            0000000180035e10 f   libucrt:report_runtime_error.obj
 0001:00034e18       __acrt_errno_from_os_error 0000000180035e18 f   libucrt:errno.obj
 0001:00034e60       __acrt_errno_map_os_error  0000000180035e60 f   libucrt:errno.obj
 0001:00034eb0       __doserrno                 0000000180035eb0 f   libucrt:errno.obj
 0001:00034ed0       _errno                     0000000180035ed0 f   libucrt:errno.obj
 0001:00035018       _itow_s                    0000000180036018 f   libucrt:xtoa.obj
 0001:00035038       _set_error_mode            0000000180036038 f   libucrt:set_error_mode.obj
 0001:00035078       wcscat_s                   0000000180036078 f   libucrt:wcscat_s.obj
 0001:000350f8       wcscpy_s                   00000001800360f8 f   libucrt:wcscpy_s.obj
 0001:00035160       wcsncat_s                  0000000180036160 f   libucrt:wcsncat_s.obj
 0001:00035288       __acrt_show_wide_message_box 0000000180036288 f   libucrt:crtmbox.obj
 0001:000353a4       __acrt_stdio_flush_nolock  00000001800363a4 f   libucrt:fflush.obj
 0001:0003541c       _fflush_nolock             000000018003641c f   libucrt:fflush.obj
 0001:00035468       _flushall                  0000000180036468 f   libucrt:fflush.obj
 0001:00035558       fflush                     0000000180036558 f   libucrt:fflush.obj
 0001:0003559c       ??$?RV<lambda_7a5ef57ff966f610505f1d28a3d40618>@@AEAV<lambda_b721fa326cdb32351d23dfa67958c160>@@V<lambda_5e0fb27672408a07956fe59e48ccb2aa>@@@?$__crt_seh_guarded_call@H@@QEAAH$$QEAV<lambda_7a5ef57ff966f610505f1d28a3d40618>@@AEAV<lambda_b721fa326cdb32351d23dfa67958c160>@@$$QEAV<lambda_5e0fb27672408a07956fe59e48ccb2aa>@@@Z 000000018003659c f i libucrt:setvbuf.obj
 0001:000356cc       setvbuf                    00000001800366cc f   libucrt:setvbuf.obj
 0001:0003576c       ??$?RV<lambda_c36588078e9f5dfd39652860aa6b3aaf>@@AEAV<lambda_ec61778202f4f5fc7e7711acc23c3bca>@@V<lambda_dc9d2797ccde5d239b4a0efae8ebd7db>@@@?$__crt_seh_guarded_call@P6AXH@Z@@QEAAP6AXH@Z$$QEAV<lambda_c36588078e9f5dfd39652860aa6b3aaf>@@AEAV<lambda_ec61778202f4f5fc7e7711acc23c3bca>@@$$QEAV<lambda_dc9d2797ccde5d239b4a0efae8ebd7db>@@@Z 000000018003676c f i libucrt:signal.obj
 0001:000357b4       __acrt_get_sigabrt_handler 00000001800367b4 f   libucrt:signal.obj
 0001:000357e4       __acrt_initialize_signal_handlers 00000001800367e4 f   libucrt:signal.obj
 0001:00035804       raise                      0000000180036804 f   libucrt:signal.obj
 0001:00035aa0       ??$?RV<lambda_46352004c1216016012b18bd6f87e700>@@AEAV<lambda_3bd07e1a1191394380780325891bf33f>@@V<lambda_334532d3f185bcaa59b5be82d7d22bff>@@@?$__crt_seh_guarded_call@X@@QEAAX$$QEAV<lambda_46352004c1216016012b18bd6f87e700>@@AEAV<lambda_3bd07e1a1191394380780325891bf33f>@@$$QEAV<lambda_334532d3f185bcaa59b5be82d7d22bff>@@@Z 0000000180036aa0 f i libucrt:per_thread_data.obj
 0001:00035b00       ??$?RV<lambda_5e887d1dcbef67a5eb4283622ba103bf>@@AEAV<lambda_4466841279450cc726390878d4a41900>@@V<lambda_341c25c0346d94847f1f3c463c57e077>@@@?$__crt_seh_guarded_call@X@@QEAAX$$QEAV<lambda_5e887d1dcbef67a5eb4283622ba103bf>@@AEAV<lambda_4466841279450cc726390878d4a41900>@@$$QEAV<lambda_341c25c0346d94847f1f3c463c57e077>@@@Z 0000000180036b00 f i libucrt:per_thread_data.obj
 0001:00035b48       ??$?RV<lambda_72d1df2b273a38828b1ce30cbf4cdab5>@@AEAV<lambda_876a65b173b8412d3a47c70a915b0cf4>@@V<lambda_41932305e351933ebe8f8be3ed8bb5dc>@@@?$__crt_seh_guarded_call@X@@QEAAX$$QEAV<lambda_72d1df2b273a38828b1ce30cbf4cdab5>@@AEAV<lambda_876a65b173b8412d3a47c70a915b0cf4>@@$$QEAV<lambda_41932305e351933ebe8f8be3ed8bb5dc>@@@Z 0000000180036b48 f i libucrt:per_thread_data.obj
 0001:00035b88       ??$?RV<lambda_fb3a7dec4e47f37f22dae91bb15c9095>@@AEAV<lambda_698284760c8add0bfb0756c19673e34b>@@V<lambda_dfb8eca1e75fef3034a8fb18dd509707>@@@?$__crt_seh_guarded_call@X@@QEAAX$$QEAV<lambda_fb3a7dec4e47f37f22dae91bb15c9095>@@AEAV<lambda_698284760c8add0bfb0756c19673e34b>@@$$QEAV<lambda_dfb8eca1e75fef3034a8fb18dd509707>@@@Z 0000000180036b88 f i libucrt:per_thread_data.obj
 0001:00035e18       __acrt_freeptd             0000000180036e18 f   libucrt:per_thread_data.obj
 0001:00035e5c       __acrt_getptd              0000000180036e5c f   libucrt:per_thread_data.obj
 0001:00035ef0       __acrt_getptd_noexit       0000000180036ef0 f   libucrt:per_thread_data.obj
 0001:00035f90       __acrt_initialize_ptd      0000000180036f90 f   libucrt:per_thread_data.obj
 0001:00035fcc       __acrt_uninitialize_ptd    0000000180036fcc f   libucrt:per_thread_data.obj
 0001:00035ff0       ?__acrt_stdio_allocate_stream@@YA?AV__crt_stdio_stream@@XZ 0000000180036ff0 f   libucrt:stream.obj
 0001:0003604c       ?__acrt_stdio_free_stream@@YAXV__crt_stdio_stream@@@Z 000000018003704c f   libucrt:stream.obj
 0001:0003617c       ??$__acrt_stdio_parse_mode@D@@YA?AU__acrt_stdio_stream_mode@@QEBD@Z 000000018003717c f i libucrt:openfile.obj
 0001:00036418       _openfile                  0000000180037418 f   libucrt:openfile.obj
 0001:000364b4       ??$?RV<lambda_bfedae4ebbf01fab1bb6dcc6a9e276e0>@@AEAV<lambda_2fe9b910cf3cbf4a0ab98a02ba45b3ec>@@V<lambda_237c231691f317818eb88cc1d5d642d6>@@@?$__crt_seh_guarded_call@H@@QEAAH$$QEAV<lambda_bfedae4ebbf01fab1bb6dcc6a9e276e0>@@AEAV<lambda_2fe9b910cf3cbf4a0ab98a02ba45b3ec>@@$$QEAV<lambda_237c231691f317818eb88cc1d5d642d6>@@@Z 00000001800374b4 f i libucrt:close.obj
 0001:00036528       _close                     0000000180037528 f   libucrt:close.obj
 0001:000365cc       _close_nolock              00000001800375cc f   libucrt:close.obj
 0001:00036688       _fileno                    0000000180037688 f   libucrt:fileno.obj
 0001:000366b0       __acrt_stdio_free_buffer_nolock 00000001800376b0 f   libucrt:_freebuf.obj
 0001:000366f0       iswctype                   00000001800376f0 f   libucrt:iswctype.obj
 0001:00036760       __acrt_update_locale_info  0000000180037760 f   libucrt:locale_update.obj
 0001:00036794       __acrt_update_multibyte_info 0000000180037794 f   libucrt:locale_update.obj
 0001:000367c8       __acrt_set_locale_changed  00000001800377c8 f   libucrt:wsetlocale.obj
 0001:000367d4       __acrt_uninitialize_locale 00000001800377d4 f   libucrt:wsetlocale.obj
 0001:0003681c       strnlen                    000000018003781c f   libucrt:strnlen.obj
 0001:00036978       wcsnlen                    0000000180037978 f   libucrt:strnlen.obj
 0001:00036b68       _strnicoll                 0000000180037b68 f   libucrt:strnicol.obj
 0001:00036b80       _strnicoll_l               0000000180037b80 f   libucrt:strnicol.obj
 0001:00036c80       __acrt_initialize_locks    0000000180037c80 f   libucrt:locks.obj
 0001:00036cc8       __acrt_lock                0000000180037cc8 f   libucrt:locks.obj
 0001:00036ce4       __acrt_uninitialize_locks  0000000180037ce4 f   libucrt:locks.obj
 0001:00036d1c       __acrt_unlock              0000000180037d1c f   libucrt:locks.obj
 0001:00036d88       _tolower_l                 0000000180037d88 f   libucrt:tolower_toupper.obj
 0001:00036ec8       tolower                    0000000180037ec8 f   libucrt:tolower_toupper.obj
 0001:00036ef4       _realloc_base              0000000180037ef4 f   libucrt:realloc_base.obj
 0001:00036f78       ??$make_c_string_character_source@DPEAPEAD@__crt_strtox@@YA?AV?$c_string_character_source@D@0@QEBDQEAPEAD@Z 0000000180037f78 f i libucrt:strtox.obj
 0001:00036f78       ??$make_c_string_character_source@_WPEAPEA_W@__crt_strtox@@YA?AV?$c_string_character_source@_W@0@QEB_WQEAPEA_W@Z 0000000180037f78 f i libucrt:strtox.obj
 0001:00036f78       ??$make_c_string_character_source@D$$T@__crt_strtox@@YA?AV?$c_string_character_source@D@0@QEBD$$T@Z 0000000180037f78 f i libucrt:atox.obj
 0001:00036f8c       strtol                     0000000180037f8c f   libucrt:strtox.obj
 0001:00036fbc       wcstol                     0000000180037fbc f   libucrt:strtox.obj
 0001:00036fec       _mbtowc_l                  0000000180037fec f   libucrt:mbtowc.obj
 0001:00037134       mbtowc                     0000000180038134 f   libucrt:mbtowc.obj
 0001:0003713c       _wctomb_s_l                000000018003813c f   libucrt:wctomb.obj
 0001:000372c0       wctomb_s                   00000001800382c0 f   libucrt:wctomb.obj
 0001:000372d4       ?__acrt_fp_classify@@YA?AW4__acrt_fp_class@@AEBN@Z 00000001800382d4 f i libucrt:cvt.obj
 0001:00037d0c       __acrt_fp_format           0000000180038d0c f   libucrt:cvt.obj
 0001:00037f50       _fputwc_nolock             0000000180038f50 f   libucrt:fputwc.obj
 0001:000380cc       _fputc_nolock              00000001800390cc f   libucrt:fputc.obj
 0001:000380e4       _get_printf_count_output   00000001800390e4 f   libucrt:printf_count_output.obj
 0001:000380fc       __acrt_stdio_begin_temporary_buffering_nolock 00000001800390fc f   libucrt:_sftbuf.obj
 0001:000381cc       __acrt_stdio_end_temporary_buffering_nolock 00000001800391cc f   libucrt:_sftbuf.obj
 0001:000383f0       __acrt_initialize_lowio    00000001800393f0 f   libucrt:ioinit.obj
 0001:0003842c       __acrt_uninitialize_lowio  000000018003942c f   libucrt:ioinit.obj
 0001:0003860c       __acrt_AreFileApisANSI     000000018003960c f   libucrt:winapi_thunks.obj
 0001:00038658       __acrt_CompareStringEx     0000000180039658 f   libucrt:winapi_thunks.obj
 0001:00038748       __acrt_FlsAlloc            0000000180039748 f   libucrt:winapi_thunks.obj
 0001:000387a0       __acrt_FlsFree             00000001800397a0 f   libucrt:winapi_thunks.obj
 0001:000387f8       __acrt_FlsGetValue         00000001800397f8 f   libucrt:winapi_thunks.obj
 0001:00038850       __acrt_FlsSetValue         0000000180039850 f   libucrt:winapi_thunks.obj
 0001:000388b8       __acrt_InitializeCriticalSectionEx 00000001800398b8 f   libucrt:winapi_thunks.obj
 0001:00038930       __acrt_LCMapStringEx       0000000180039930 f   libucrt:winapi_thunks.obj
 0001:00038a20       __acrt_LocaleNameToLCID    0000000180039a20 f   libucrt:winapi_thunks.obj
 0001:00038a88       __acrt_MessageBoxW         0000000180039a88 f   libucrt:winapi_thunks.obj
 0001:00038b10       __acrt_can_show_message_box 0000000180039b10 f   libucrt:winapi_thunks.obj
 0001:00038b6c       __acrt_get_parent_window   0000000180039b6c f   libucrt:winapi_thunks.obj
 0001:00038bfc       __acrt_initialize_winapi_thunks 0000000180039bfc f   libucrt:winapi_thunks.obj
 0001:00038c34       __acrt_is_interactive      0000000180039c34 f   libucrt:winapi_thunks.obj
 0001:00038d08       __acrt_is_packaged_app     0000000180039d08 f   libucrt:winapi_thunks.obj
 0001:00038d90       __acrt_uninitialize_winapi_thunks 0000000180039d90 f   libucrt:winapi_thunks.obj
 0001:00038dd4       _fcloseall                 0000000180039dd4 f   libucrt:closeall.obj
 0001:00038e88       __pctype_func              0000000180039e88 f   libucrt:ctype.obj
 0001:00038eb8       _isctype_l                 0000000180039eb8 f   libucrt:isctype.obj
 0001:00038fc8       _fgetc_nolock              0000000180039fc8 f   libucrt:fgetc.obj
 0001:0003900c       _getc_nolock               000000018003a00c f   libucrt:fgetc.obj
 0001:00039544       _read                      000000018003a544 f   libucrt:read.obj
 0001:0003965c       _read_nolock               000000018003a65c f   libucrt:read.obj
 0001:00039c6c       __acrt_stdio_refill_and_read_narrow_nolock 000000018003ac6c f   libucrt:_filbuf.obj
 0001:0003a150       ?expand_if_necessary@?$argument_list@D@?A0xca0879c4@@AEAAHXZ 000000018003b150 f i libucrt:argv_wildcards.obj
 0001:0003a218       __acrt_expand_narrow_argv_wildcards 000000018003b218 f   libucrt:argv_wildcards.obj
 0001:0003a220       ??$?RV<lambda_99476a1ad63dd22509b5d3e65b0ffc95>@@AEAV<lambda_ad1ced32f4ac17aa236e5ef05d6b3b7c>@@V<lambda_f7424dd8d45958661754dc4f2697e9c3>@@@?$__crt_seh_guarded_call@X@@QEAAX$$QEAV<lambda_99476a1ad63dd22509b5d3e65b0ffc95>@@AEAV<lambda_ad1ced32f4ac17aa236e5ef05d6b3b7c>@@$$QEAV<lambda_f7424dd8d45958661754dc4f2697e9c3>@@@Z 000000018003b220 f i libucrt:mbctype.obj
 0001:0003a91c       __acrt_initialize_multibyte 000000018003b91c f   libucrt:mbctype.obj
 0001:0003a944       __acrt_update_thread_multibyte_data 000000018003b944 f   libucrt:mbctype.obj
 0001:0003aa04       _setmbcp_nolock            000000018003ba04 f   libucrt:mbctype.obj
 0001:0003ad24       _ismbblead                 000000018003bd24 f   libucrt:ismbbyte.obj
 0001:0003ad38       __acrt_initialize_command_line 000000018003bd38 f   libucrt:argv_data.obj
 0001:0003ad60       __acrt_uninitialize_command_line 000000018003bd60 f   libucrt:argv_data.obj
 0001:0003ad64       __dcrt_get_narrow_environment_from_os 000000018003bd64 f   libucrt:get_environment_from_os.obj
 0001:0003b244       __dcrt_set_variable_in_narrow_environment_nolock 000000018003c244 f   libucrt:setenv.obj
 0001:0003b24c       _recalloc                  000000018003c24c f   libucrt:recalloc.obj
 0001:0003b254       _recalloc_base             000000018003c254 f   libucrt:recalloc.obj
 0001:0003b2ec       __acrt_initialize_heap     000000018003c2ec f   libucrt:heap_handle.obj
 0001:0003b308       __acrt_uninitialize_heap   000000018003c308 f   libucrt:heap_handle.obj
 0001:0003b314       __acrt_execute_initializers 000000018003c314 f   libucrt:shared_initialization.obj
 0001:0003b3a8       __acrt_execute_uninitializers 000000018003c3a8 f   libucrt:shared_initialization.obj
 0001:0003b3f8       __acrt_has_user_matherr    000000018003c3f8 f   libucrt:matherr.obj
 0001:0003b418       __acrt_initialize_user_matherr 000000018003c418 f   libucrt:matherr.obj
 0001:0003b420       __acrt_invoke_user_matherr 000000018003c420 f   libucrt:matherr.obj
 0001:0003b468       _query_new_mode            000000018003c468 f   libucrt:new_mode.obj
 0001:0003b470       ??$?RV<lambda_b521505b218e5242e90febf6bfebc422>@@AEAV<lambda_6978c1fb23f02e42e1d9e99668cc68aa>@@V<lambda_314360699dd331753a4119843814e9a7>@@@?$__crt_seh_guarded_call@H@@QEAAH$$QEAV<lambda_b521505b218e5242e90febf6bfebc422>@@AEAV<lambda_6978c1fb23f02e42e1d9e99668cc68aa>@@$$QEAV<lambda_314360699dd331753a4119843814e9a7>@@@Z 000000018003c470 f i libucrt:commit.obj
 0001:0003b4fc       _commit                    000000018003c4fc f   libucrt:commit.obj
 0001:0003bb30       _write                     000000018003cb30 f   libucrt:write.obj
 0001:0003bc1c       _write_nolock              000000018003cc1c f   libucrt:write.obj
 0001:0003bf00       __acrt_add_locale_ref      000000018003cf00 f   libucrt:locale_refcounting.obj
 0001:0003bf8c       __acrt_free_locale         000000018003cf8c f   libucrt:locale_refcounting.obj
 0001:0003c104       __acrt_locale_add_lc_time_reference 000000018003d104 f   libucrt:locale_refcounting.obj
 0001:0003c12c       __acrt_locale_free_lc_time_if_unreferenced 000000018003d12c f   libucrt:locale_refcounting.obj
 0001:0003c164       __acrt_locale_release_lc_time_reference 000000018003d164 f   libucrt:locale_refcounting.obj
 0001:0003c18c       __acrt_release_locale_ref  000000018003d18c f   libucrt:locale_refcounting.obj
 0001:0003c234       __acrt_update_thread_locale_data 000000018003d234 f   libucrt:locale_refcounting.obj
 0001:0003c2a4       _updatetlocinfoEx_nolock   000000018003d2a4 f   libucrt:locale_refcounting.obj
 0001:0003c30c       __ascii_strnicmp           000000018003d30c f   libucrt:strnicmp.obj
 0001:0003c354       _strnicmp                  000000018003d354 f   libucrt:strnicmp.obj
 0001:0003c3a4       _strnicmp_l                000000018003d3a4 f   libucrt:strnicmp.obj
 0001:0003cac4       _sopen_nolock              000000018003dac4 f   libucrt:open.obj
 0001:0003cb54       _sopen_s                   000000018003db54 f   libucrt:open.obj
 0001:0003cb88       _wsopen_nolock             000000018003db88 f   libucrt:open.obj
 0001:0003cf78       __acrt_lowio_create_handle_array 000000018003df78 f   libucrt:osfinfo.obj
 0001:0003d010       __acrt_lowio_destroy_handle_array 000000018003e010 f   libucrt:osfinfo.obj
 0001:0003d060       __acrt_lowio_ensure_fh_exists 000000018003e060 f   libucrt:osfinfo.obj
 0001:0003d118       __acrt_lowio_lock_fh       000000018003e118 f   libucrt:osfinfo.obj
 0001:0003d13c       __acrt_lowio_set_os_handle 000000018003e13c f   libucrt:osfinfo.obj
 0001:0003d1fc       __acrt_lowio_unlock_fh     000000018003e1fc f   libucrt:osfinfo.obj
 0001:0003d220       _alloc_osfhnd              000000018003e220 f   libucrt:osfinfo.obj
 0001:0003d350       _free_osfhnd               000000018003e350 f   libucrt:osfinfo.obj
 0001:0003d40c       _get_osfhandle             000000018003e40c f   libucrt:osfinfo.obj
 0001:0003d484       __acrt_locale_free_monetary 000000018003e484 f   libucrt:initmon.obj
 0001:0003d590       __acrt_locale_free_numeric 000000018003e590 f   libucrt:initnum.obj
 0001:0003d654       __acrt_locale_free_time    000000018003e654 f   libucrt:inittime.obj
 0001:0003d75c       __acrt_GetStringTypeA      000000018003e75c f   libucrt:getstringtypea.obj
 0001:0003dca4       __acrt_CompareStringA      000000018003eca4 f   libucrt:comparestringa.obj
 0001:0003e08c       __acrt_LCMapStringA        000000018003f08c f   libucrt:lcmapstringa.obj
 0001:0003e124       __acrt_fp_strflt_to_string 000000018003f124 f   libucrt:_fptostr.obj
 0001:0003e1f0       ?divide@__crt_strtox@@YA_KAEAUbig_integer@1@AEBU21@@Z 000000018003f1f0 f i libucrt:cfout.obj
 0001:0003e6c0       __acrt_fltout              000000018003f6c0 f   libucrt:cfout.obj
 0001:0003fcc4       __acrt_stdio_flush_and_write_narrow_nolock 0000000180040cc4 f   libucrt:_flsbuf.obj
 0001:0003fdac       __acrt_stdio_flush_and_write_wide_nolock 0000000180040dac f   libucrt:_flsbuf.obj
 0001:0003fe98       _isatty                    0000000180040e98 f   libucrt:isatty.obj
 0001:0003ffc0       __acrt_DownlevelLocaleNameToLCID 0000000180040fc0 f   libucrt:lcidtoname_downlevel.obj
 0001:00040180       _lseeki64                  0000000180041180 f   libucrt:lseek.obj
 0001:00040188       _lseeki64_nolock           0000000180041188 f   libucrt:lseek.obj
 0001:00040190       __acrt_stdio_allocate_buffer_nolock 0000000180041190 f   libucrt:_getbuf.obj
 0001:000402d0       qsort                      00000001800412d0 f   libucrt:qsort.obj
 0001:00040604       strncpy_s                  0000000180041604 f   libucrt:strncpy_s.obj
 0001:000406d8       strpbrk                    00000001800416d8 f   libucrt:strpbrk.obj
 0001:00040778       _mbsdec                    0000000180041778 f   libucrt:mbsdec.obj
 0001:00040780       _mbsdec_l                  0000000180041780 f   libucrt:mbsdec.obj
 0001:00040830       _msize                     0000000180041830 f   libucrt:msize.obj
 0001:0004086c       _putwch_nolock             000000018004186c f   libucrt:putwch.obj
 0001:000408c8       _get_fmode                 00000001800418c8 f   libucrt:setmode.obj
 0001:000408f8       _setmode_nolock            00000001800418f8 f   libucrt:setmode.obj
 0001:000409d8       __acrt_copy_path_to_wide_string 00000001800419d8 f   libucrt:string_utilities.obj
 0001:00040ad0       _chsize_nolock             0000000180041ad0 f   libucrt:chsize.obj
 0001:00040c4c       __strncnt                  0000000180041c4c f   libucrt:strncnt.obj
 0001:00040c64       fegetenv                   0000000180041c64 f   libucrt:fegetenv.obj
 0001:00040c84       fesetenv                   0000000180041c84 f   libucrt:fesetenv.obj
 0001:00040cd0       feholdexcept               0000000180041cd0 f   libucrt:feholdexcept.obj
 0001:00040d20       ceil                       0000000180041d20 f   libucrt:ceil.obj
 0001:00040df0       log10                      0000000180041df0 f   libucrt:log10.obj
 0001:0004139c       __dcrt_lowio_initialize_console_output 000000018004239c f   libucrt:initcon.obj
 0001:000413d8       __dcrt_terminate_console_output 00000001800423d8 f   libucrt:initcon.obj
 0001:000413f8       _getfpcontrolword          00000001800423f8 f   libucrt:_fenvutils.obj
 0001:00041410       _getfpstatusword           0000000180042410 f   libucrt:_fenvutils.obj
 0001:00041424       _setfpcontrolword          0000000180042424 f   libucrt:_fenvutils.obj
 0001:00041430       _setfpstatusword           0000000180042430 f   libucrt:_fenvutils.obj
 0001:00041480       _clearfp                   0000000180042480 f   libucrt:ieee.obj
 0001:000414d4       _controlfp                 00000001800424d4 f   libucrt:ieee.obj
 0001:000414e0       _statusfp                  00000001800424e0 f   libucrt:ieee.obj
 0001:000418e4       _handle_error              00000001800428e4 f   libucrt:libm_error.obj
 0001:00041a0c       _handle_nan                0000000180042a0c f   libucrt:libm_error.obj
 0001:00041a30       __acrt_initialize_fma3     0000000180042a30 f   libucrt:fma3_available.obj
 0001:00041aa0       _log10_special             0000000180042aa0 f   libucrt:log_special.obj
 0001:00041b70       _get_fpsr                  0000000180042b70 f   libucrt:fpsr.obj
 0001:00041b80       _set_fpsr                  0000000180042b80 f   libucrt:fpsr.obj
 0001:00041b8a       _fclrf                     0000000180042b8a f   libucrt:fpsr.obj
 0001:00041b9e       _frnd                      0000000180042b9e f   libucrt:fpsr.obj
 0001:00041bc0       _raise_exc                 0000000180042bc0 f   libucrt:fpexcept.obj
 0001:00041be8       _raise_exc_ex              0000000180042be8 f   libucrt:fpexcept.obj
 0001:00041ef0       _set_errno_from_matherr    0000000180042ef0 f   libucrt:fpexcept.obj
 0001:00041f20       _clrfp                     0000000180042f20 f   libucrt:fpctrl.obj
 0001:00041f40       _ctrlfp                    0000000180042f40 f   libucrt:fpctrl.obj
 0001:00041fbc       _set_statfp                0000000180042fbc f   libucrt:fpctrl.obj
 0001:00041fdc       _statfp                    0000000180042fdc f   libucrt:fpctrl.obj
 0001:00041fee       IsProcessorFeaturePresent  0000000180042fee f   kernel32:KERNEL32.dll
 0001:00041ff4       RtlUnwindEx                0000000180042ff4 f   kernel32:KERNEL32.dll
 0001:00042000       _FindPESection             0000000180043000 f   LIBCMT:pesect.obj
 0001:00042050       _IsNonwritableInCurrentImage 0000000180043050 f   LIBCMT:pesect.obj
 0001:000420a0       _ValidateImageBase         00000001800430a0 f   LIBCMT:pesect.obj
 0001:000420d0       __GSHandlerCheck           00000001800430d0 f   LIBCMT:_gshandler_.obj
 0001:000420f0       __GSHandlerCheckCommon     00000001800430f0 f   LIBCMT:_gshandler_.obj
 0001:00042160       __chkstk                   0000000180043160 f   LIBCMT:_chkstk_.obj
 0001:00042160       _alloca_probe              0000000180043160 f   LIBCMT:_chkstk_.obj
 0001:000421d0       memcmp                     00000001800431d0 f   libvcruntime:memcmp.obj
 0001:00042298       strrchr                    0000000180043298 f   libvcruntime:strrchr.obj
 0001:000423f0       _guard_dispatch_icall_nop  00000001800433f0 f   LIBCMT:_guard_dispatch_.obj
 0002:00000000       __imp_MultiByteToWideChar  0000000180044000     kernel32:KERNEL32.dll
 0002:00000008       __imp_WideCharToMultiByte  0000000180044008     kernel32:KERNEL32.dll
 0002:00000010       __imp_HeapSize             0000000180044010     kernel32:KERNEL32.dll
 0002:00000018       __imp_SetFilePointerEx     0000000180044018     kernel32:KERNEL32.dll
 0002:00000020       __imp_SetStdHandle         0000000180044020     kernel32:KERNEL32.dll
 0002:00000028       __imp_CreateFileW          0000000180044028     kernel32:KERNEL32.dll
 0002:00000030       __imp_GetConsoleCP         0000000180044030     kernel32:KERNEL32.dll
 0002:00000038       __imp_FlushFileBuffers     0000000180044038     kernel32:KERNEL32.dll
 0002:00000040       __imp_GetProcessHeap       0000000180044040     kernel32:KERNEL32.dll
 0002:00000048       __imp_SetEnvironmentVariableA 0000000180044048     kernel32:KERNEL32.dll
 0002:00000050       __imp_FreeEnvironmentStringsW 0000000180044050     kernel32:KERNEL32.dll
 0002:00000058       __imp_GetEnvironmentStringsW 0000000180044058     kernel32:KERNEL32.dll
 0002:00000060       __imp_GetCommandLineW      0000000180044060     kernel32:KERNEL32.dll
 0002:00000068       __imp_GetCommandLineA      0000000180044068     kernel32:KERNEL32.dll
 0002:00000070       __imp_GetCPInfo            0000000180044070     kernel32:KERNEL32.dll
 0002:00000078       __imp_GetOEMCP             0000000180044078     kernel32:KERNEL32.dll
 0002:00000080       __imp_IsValidCodePage      0000000180044080     kernel32:KERNEL32.dll
 0002:00000088       __imp_FindNextFileA        0000000180044088     kernel32:KERNEL32.dll
 0002:00000090       __imp_FindFirstFileExA     0000000180044090     kernel32:KERNEL32.dll
 0002:00000098       __imp_FindClose            0000000180044098     kernel32:KERNEL32.dll
 0002:000000a0       __imp_ReadConsoleW         00000001800440a0     kernel32:KERNEL32.dll
 0002:000000a8       __imp_GetConsoleMode       00000001800440a8     kernel32:KERNEL32.dll
 0002:000000b0       __imp_ReadFile             00000001800440b0     kernel32:KERNEL32.dll
 0002:000000b8       __imp_LCMapStringW         00000001800440b8     kernel32:KERNEL32.dll
 0002:000000c0       __imp_CompareStringW       00000001800440c0     kernel32:KERNEL32.dll
 0002:000000c8       __imp_HeapReAlloc          00000001800440c8     kernel32:KERNEL32.dll
 0002:000000d0       __imp_GetACP               00000001800440d0     kernel32:KERNEL32.dll
 0002:000000d8       __imp_GetStringTypeW       00000001800440d8     kernel32:KERNEL32.dll
 0002:000000e0       __imp_CreateThread         00000001800440e0     kernel32:KERNEL32.dll
 0002:000000e8       __imp_WaitForSingleObjectEx 00000001800440e8     kernel32:KERNEL32.dll
 0002:000000f0       __imp_CloseHandle          00000001800440f0     kernel32:KERNEL32.dll
 0002:000000f8       __imp_OutputDebugStringW   00000001800440f8     kernel32:KERNEL32.dll
 0002:00000100       __imp_WriteFile            0000000180044100     kernel32:KERNEL32.dll
 0002:00000108       __imp_HeapAlloc            0000000180044108     kernel32:KERNEL32.dll
 0002:00000110       __imp_HeapFree             0000000180044110     kernel32:KERNEL32.dll
 0002:00000118       __imp_ExitProcess          0000000180044118     kernel32:KERNEL32.dll
 0002:00000120       __imp_QueryPerformanceFrequency 0000000180044120     kernel32:KERNEL32.dll
 0002:00000128       __imp_WriteConsoleW        0000000180044128     kernel32:KERNEL32.dll
 0002:00000130       __imp_GetModuleHandleExW   0000000180044130     kernel32:KERNEL32.dll
 0002:00000138       __imp_GetModuleFileNameW   0000000180044138     kernel32:KERNEL32.dll
 0002:00000140       __imp_GetModuleFileNameA   0000000180044140     kernel32:KERNEL32.dll
 0002:00000148       __imp_GetFileType          0000000180044148     kernel32:KERNEL32.dll
 0002:00000150       __imp_GetStdHandle         0000000180044150     kernel32:KERNEL32.dll
 0002:00000158       __imp_LoadLibraryExW       0000000180044158     kernel32:KERNEL32.dll
 0002:00000160       __imp_GetProcAddress       0000000180044160     kernel32:KERNEL32.dll
 0002:00000168       __imp_FreeLibrary          0000000180044168     kernel32:KERNEL32.dll
 0002:00000170       __imp_TlsFree              0000000180044170     kernel32:KERNEL32.dll
 0002:00000178       __imp_TlsSetValue          0000000180044178     kernel32:KERNEL32.dll
 0002:00000180       __imp_RtlCaptureContext    0000000180044180     kernel32:KERNEL32.dll
 0002:00000188       __imp_RtlLookupFunctionEntry 0000000180044188     kernel32:KERNEL32.dll
 0002:00000190       __imp_RtlVirtualUnwind     0000000180044190     kernel32:KERNEL32.dll
 0002:00000198       __imp_UnhandledExceptionFilter 0000000180044198     kernel32:KERNEL32.dll
 0002:000001a0       __imp_SetUnhandledExceptionFilter 00000001800441a0     kernel32:KERNEL32.dll
 0002:000001a8       __imp_GetCurrentProcess    00000001800441a8     kernel32:KERNEL32.dll
 0002:000001b0       __imp_TerminateProcess     00000001800441b0     kernel32:KERNEL32.dll
 0002:000001b8       __imp_IsProcessorFeaturePresent 00000001800441b8     kernel32:KERNEL32.dll
 0002:000001c0       __imp_QueryPerformanceCounter 00000001800441c0     kernel32:KERNEL32.dll
 0002:000001c8       __imp_GetCurrentProcessId  00000001800441c8     kernel32:KERNEL32.dll
 0002:000001d0       __imp_GetCurrentThreadId   00000001800441d0     kernel32:KERNEL32.dll
 0002:000001d8       __imp_GetSystemTimeAsFileTime 00000001800441d8     kernel32:KERNEL32.dll
 0002:000001e0       __imp_InitializeSListHead  00000001800441e0     kernel32:KERNEL32.dll
 0002:000001e8       __imp_IsDebuggerPresent    00000001800441e8     kernel32:KERNEL32.dll
 0002:000001f0       __imp_GetStartupInfoW      00000001800441f0     kernel32:KERNEL32.dll
 0002:000001f8       __imp_GetModuleHandleW     00000001800441f8     kernel32:KERNEL32.dll
 0002:00000200       __imp_RtlPcToFileHeader    0000000180044200     kernel32:KERNEL32.dll
 0002:00000208       __imp_RaiseException       0000000180044208     kernel32:KERNEL32.dll
 0002:00000210       __imp_RtlUnwindEx          0000000180044210     kernel32:KERNEL32.dll
 0002:00000218       __imp_InterlockedFlushSList 0000000180044218     kernel32:KERNEL32.dll
 0002:00000220       __imp_GetLastError         0000000180044220     kernel32:KERNEL32.dll
 0002:00000228       __imp_SetLastError         0000000180044228     kernel32:KERNEL32.dll
 0002:00000230       __imp_EnterCriticalSection 0000000180044230     kernel32:KERNEL32.dll
 0002:00000238       __imp_LeaveCriticalSection 0000000180044238     kernel32:KERNEL32.dll
 0002:00000240       __imp_DeleteCriticalSection 0000000180044240     kernel32:KERNEL32.dll
 0002:00000248       __imp_InitializeCriticalSectionAndSpinCount 0000000180044248     kernel32:KERNEL32.dll
 0002:00000250       __imp_TlsAlloc             0000000180044250     kernel32:KERNEL32.dll
 0002:00000258       __imp_TlsGetValue          0000000180044258     kernel32:KERNEL32.dll
 0002:00000260       __imp_SetEndOfFile         0000000180044260     kernel32:KERNEL32.dll
 0002:00000268       \177KERNEL32_NULL_THUNK_DATA 0000000180044268     kernel32:KERNEL32.dll
 0002:00000270       __imp_node_module_register 0000000180044270     iojs:node.dll
 0002:00000278       __imp_?New@ObjectTemplate@v8@@SA?AV?$Local@VObjectTemplate@v8@@@2@PEAVIsolate@2@V?$Local@VFunctionTemplate@v8@@@2@@Z 0000000180044278     iojs:node.dll
 0002:00000280       __imp_?NewInstance@ObjectTemplate@v8@@QEAA?AV?$MaybeLocal@VObject@v8@@@2@V?$Local@VContext@v8@@@2@@Z 0000000180044280     iojs:node.dll
 0002:00000288       __imp_?SetInternalFieldCount@ObjectTemplate@v8@@QEAAXH@Z 0000000180044288     iojs:node.dll
 0002:00000290       __imp_?Set@Object@v8@@QEAA_NIV?$Local@VValue@v8@@@2@@Z 0000000180044290     iojs:node.dll
 0002:00000298       __imp_?Set@Object@v8@@QEAA_NV?$Local@VValue@v8@@@2@0@Z 0000000180044298     iojs:node.dll
 0002:000002a0       __imp_?InternalFieldCount@Object@v8@@QEAAHXZ 00000001800442a0     iojs:node.dll
 0002:000002a8       __imp_?SetInternalField@Object@v8@@QEAAXHV?$Local@VValue@v8@@@2@@Z 00000001800442a8     iojs:node.dll
 0002:000002b0       __imp_?SetAlignedPointerInInternalField@Object@v8@@QEAAXHPEAX@Z 00000001800442b0     iojs:node.dll
 0002:000002b8       __imp_?New@Object@v8@@SA?AV?$Local@VObject@v8@@@2@PEAVIsolate@2@@Z 00000001800442b8     iojs:node.dll
 0002:000002c0       __imp_?SlowGetInternalField@Object@v8@@AEAA?AV?$Local@VValue@v8@@@2@H@Z 00000001800442c0     iojs:node.dll
 0002:000002c8       __imp_?SlowGetAlignedPointerFromInternalField@Object@v8@@AEAAPEAXH@Z 00000001800442c8     iojs:node.dll
 0002:000002d0       __imp_?Length@String@v8@@QEBAHXZ 00000001800442d0     iojs:node.dll
 0002:000002d8       __imp_?Write@String@v8@@QEBAHPEAGHHH@Z 00000001800442d8     iojs:node.dll
 0002:000002e0       __imp_?NewFromUtf8@String@v8@@SA?AV?$MaybeLocal@VString@v8@@@2@PEAVIsolate@2@PEBDW4NewStringType@2@H@Z 00000001800442e0     iojs:node.dll
 0002:000002e8       __imp_??0Utf8Value@String@v8@@QEAA@V?$Local@VValue@v8@@@2@@Z 00000001800442e8     iojs:node.dll
 0002:000002f0       __imp_??1Utf8Value@String@v8@@QEAA@XZ 00000001800442f0     iojs:node.dll
 0002:000002f8       __imp_??0EscapableHandleScope@v8@@QEAA@PEAVIsolate@1@@Z 00000001800442f8     iojs:node.dll
 0002:00000300       __imp_?Escape@EscapableHandleScope@v8@@AEAAPEAPEAVObject@internal@2@PEAPEAV342@@Z 0000000180044300     iojs:node.dll
 0002:00000308       __imp_?ToInteger@Value@v8@@QEBA?AV?$MaybeLocal@VInteger@v8@@@2@V?$Local@VContext@v8@@@2@@Z 0000000180044308     iojs:node.dll
 0002:00000310       __imp_?GlobalizeReference@V8@v8@@CAPEAPEAVObject@internal@2@PEAVIsolate@42@PEAPEAV342@@Z 0000000180044310     iojs:node.dll
 0002:00000318       __imp_?DisposeGlobal@V8@v8@@CAXPEAPEAVObject@internal@2@@Z 0000000180044318     iojs:node.dll
 0002:00000320       __imp_?MakeWeak@V8@v8@@CAXPEAPEAVObject@internal@2@PEAXP6AXAEBV?$WeakCallbackInfo@X@2@@ZW4WeakCallbackType@2@@Z 0000000180044320     iojs:node.dll
 0002:00000328       __imp_?ClearWeak@V8@v8@@CAPEAXPEAPEAVObject@internal@2@@Z 0000000180044328     iojs:node.dll
 0002:00000330       __imp_?ToLocalEmpty@V8@v8@@CAXXZ 0000000180044330     iojs:node.dll
 0002:00000338       __imp_?New@FunctionTemplate@v8@@SA?AV?$Local@VFunctionTemplate@v8@@@2@PEAVIsolate@2@P6AXAEBV?$FunctionCallbackInfo@VValue@v8@@@2@@ZV?$Local@VValue@v8@@@2@V?$Local@VSignature@v8@@@2@HW4ConstructorBehavior@2@@Z 0000000180044338     iojs:node.dll
 0002:00000340       __imp_?GetFunction@FunctionTemplate@v8@@QEAA?AV?$Local@VFunction@v8@@@2@XZ 0000000180044340     iojs:node.dll
 0002:00000348       __imp_?InstanceTemplate@FunctionTemplate@v8@@QEAA?AV?$Local@VObjectTemplate@v8@@@2@XZ 0000000180044348     iojs:node.dll
 0002:00000350       __imp_?SetClassName@FunctionTemplate@v8@@QEAAXV?$Local@VString@v8@@@2@@Z 0000000180044350     iojs:node.dll
 0002:00000358       __imp_?New@Array@v8@@SA?AV?$Local@VArray@v8@@@2@PEAVIsolate@2@H@Z 0000000180044358     iojs:node.dll
 0002:00000360       __imp_?Error@Exception@v8@@SA?AV?$Local@VValue@v8@@@2@V?$Local@VString@v8@@@2@@Z 0000000180044360     iojs:node.dll
 0002:00000368       __imp_?Set@Template@v8@@QEAAXV?$Local@VName@v8@@@2@V?$Local@VData@v8@@@2@W4PropertyAttribute@2@@Z 0000000180044368     iojs:node.dll
 0002:00000370       __imp_??0HandleScope@v8@@QEAA@PEAVIsolate@1@@Z 0000000180044370     iojs:node.dll
 0002:00000378       __imp_??1HandleScope@v8@@QEAA@XZ 0000000180044378     iojs:node.dll
 0002:00000380       __imp_?CreateHandle@HandleScope@v8@@CAPEAPEAVObject@internal@2@PEAVHeapObject@42@PEAV342@@Z 0000000180044380     iojs:node.dll
 0002:00000388       __imp_?CreateHandle@HandleScope@v8@@KAPEAPEAVObject@internal@2@PEAVIsolate@42@PEAV342@@Z 0000000180044388     iojs:node.dll
 0002:00000390       __imp_?GetCurrent@Isolate@v8@@SAPEAV12@XZ 0000000180044390     iojs:node.dll
 0002:00000398       __imp_?GetCurrentContext@Isolate@v8@@QEAA?AV?$Local@VContext@v8@@@2@XZ 0000000180044398     iojs:node.dll
 0002:000003a0       __imp_?ThrowException@Isolate@v8@@QEAA?AV?$Local@VValue@v8@@@2@V32@@Z 00000001800443a0     iojs:node.dll
 0002:000003a8       __imp_?NewFromUnsigned@Integer@v8@@SA?AV?$Local@VInteger@v8@@@2@PEAVIsolate@2@I@Z 00000001800443a8     iojs:node.dll
 0002:000003b0       __imp_?New@External@v8@@SA?AV?$Local@VExternal@v8@@@2@PEAVIsolate@2@PEAX@Z 00000001800443b0     iojs:node.dll
 0002:000003b8       __imp_?Value@External@v8@@QEBAPEAXXZ 00000001800443b8     iojs:node.dll
 0002:000003c0       \177node_NULL_THUNK_DATA   00000001800443c0     iojs:node.dll
 0002:000003c8       __imp_CoCreateInstance     00000001800443c8     ole32:ole32.dll
 0002:000003d0       __imp_CoUninitialize       00000001800443d0     ole32:ole32.dll
 0002:000003d8       __imp_CoInitialize         00000001800443d8     ole32:ole32.dll
 0002:000003e0       __imp_CoTaskMemFree        00000001800443e0     ole32:ole32.dll
 0002:000003e8       \177ole32_NULL_THUNK_DATA  00000001800443e8     ole32:ole32.dll
 0002:000003f0       __guard_check_icall_fptr   00000001800443f0     LIBCMT:guard_support.obj
 0002:000003f8       __guard_dispatch_icall_fptr 00000001800443f8     LIBCMT:guard_support.obj
 0002:00000400       __xc_a                     0000000180044400     LIBCMT:initializers.obj
 0002:00000408       _register_spellchecker_    0000000180044408     main.obj
 0002:00000410       __xc_z                     0000000180044410     LIBCMT:initializers.obj
 0002:00000418       __xi_a                     0000000180044418     LIBCMT:initializers.obj
 0002:00000420       __acrt_stdio_initializer   0000000180044420     libucrt:stdio_initializer.obj
 0002:00000428       __acrt_clock_initializer   0000000180044428     libucrt:clock_initializer.obj
 0002:00000430       __acrt_multibyte_initializer 0000000180044430     libucrt:multibyte_initializer.obj
 0002:00000438       __acrt_tran_fma3_initializer 0000000180044438     libucrt:fma3_initializer.obj
 0002:00000440       __xi_z                     0000000180044440     LIBCMT:initializers.obj
 0002:00000448       __xp_a                     0000000180044448     LIBCMT:initializers.obj
 0002:00000450       __acrt_locale_terminator   0000000180044450     libucrt:locale_initializer.obj
 0002:00000458       __dcrt_console_output_terminator 0000000180044458     libucrt:console_output_initializer.obj
 0002:00000460       __acrt_stdio_terminator    0000000180044460     libucrt:stdio_initializer.obj
 0002:00000468       __xp_z                     0000000180044468     LIBCMT:initializers.obj
 0002:00000470       __xt_a                     0000000180044470     LIBCMT:initializers.obj
 0002:00000478       __xt_z                     0000000180044478     LIBCMT:initializers.obj
 0002:00000488       ??_7exception@std@@6B@     0000000180044488     libcpmt:xthrow.obj
 0002:00000498       ??_C@_0BC@EOODALEL@Unknown?5exception?$AA@ 0000000180044498     libcpmt:xthrow.obj
 0002:000004b8       ??_7bad_alloc@std@@6B@     00000001800444b8     libcpmt:xthrow.obj
 0002:000004c8       ??_C@_0P@GHFPNOJB@bad?5allocation?$AA@ 00000001800444c8     libcpmt:xthrow.obj
 0002:000004e0       ??_7logic_error@std@@6B@   00000001800444e0     libcpmt:xthrow.obj
 0002:000004f8       ??_7length_error@std@@6B@  00000001800444f8     libcpmt:xthrow.obj
 0002:00000510       ??_7out_of_range@std@@6B@  0000000180044510     libcpmt:xthrow.obj
 0002:00000520       _pDefaultRawDllMain        0000000180044520     LIBCMT:dll_dllmain.obj
 0002:00000520       _pRawDllMain               0000000180044520     LIBCMT:dll_dllmain.obj
 0002:00000540       ??_7type_info@@6B@         0000000180044540     LIBCMT:std_type_info_static.obj
 0002:00000550       ??_7bad_array_new_length@std@@6B@ 0000000180044550     LIBCMT:throw_bad_alloc.obj
 0002:00000560       ??_C@_0BF@KINCDENJ@bad?5array?5new?5length?$AA@ 0000000180044560     LIBCMT:throw_bad_alloc.obj
 0002:000005e0       ??_C@_1BC@DNHGCMLG@?$AAa?$AAd?$AAv?$AAa?$AAp?$AAi?$AA3?$AA2?$AA?$AA@ 00000001800445e0     libvcruntime:winapi_downlevel.obj
 0002:000005f8       ??_C@_1DM@KHCHBNEB@?$AAa?$AAp?$AAi?$AA?9?$AAm?$AAs?$AA?9?$AAw?$AAi?$AAn?$AA?9?$AAc?$AAo?$AAr?$AAe?$AA?9?$AAf?$AAi?$AAb?$AAe?$AAr?$AAs?$AA?9?$AAl?$AA1?$AA?9?$AA1?$AA?9?$AA1?$AA?$AA@ 00000001800445f8     libvcruntime:winapi_downlevel.obj
 0002:00000638       ??_C@_1DK@LPPGFMPP@?$AAa?$AAp?$AAi?$AA?9?$AAm?$AAs?$AA?9?$AAw?$AAi?$AAn?$AA?9?$AAc?$AAo?$AAr?$AAe?$AA?9?$AAs?$AAy?$AAn?$AAc?$AAh?$AA?9?$AAl?$AA1?$AA?9?$AA2?$AA?9?$AA0?$AA?$AA@ 0000000180044638     libvcruntime:winapi_downlevel.obj
 0002:00000678       ??_C@_1BC@GDMECMAK@?$AAk?$AAe?$AAr?$AAn?$AAe?$AAl?$AA3?$AA2?$AA?$AA@ 0000000180044678     libvcruntime:winapi_downlevel.obj
 0002:00000698       ??_C@_08KNHFBNJ@FlsAlloc?$AA@ 0000000180044698     libvcruntime:winapi_downlevel.obj
 0002:000006b0       ??_C@_07PEJMOBNF@FlsFree?$AA@ 00000001800446b0     libvcruntime:winapi_downlevel.obj
 0002:000006c0       ??_C@_0M@GDNOONDI@FlsGetValue?$AA@ 00000001800446c0     libvcruntime:winapi_downlevel.obj
 0002:000006d8       ??_C@_0M@JCPCPOEF@FlsSetValue?$AA@ 00000001800446d8     libvcruntime:winapi_downlevel.obj
 0002:000006f0       ??_C@_0BM@HCFOFFN@InitializeCriticalSectionEx?$AA@ 00000001800446f0     libvcruntime:winapi_downlevel.obj
 0002:00000a30       ??_C@_08EHJDFFNH@__based?$CI?$AA@ 0000000180044a30     libvcruntime:undname.obj
 0002:00000a40       ??_C@_07KOLFKCDI@__cdecl?$AA@ 0000000180044a40     libvcruntime:undname.obj
 0002:00000a48       ??_C@_08GHMPAG@__pascal?$AA@ 0000000180044a48     libvcruntime:undname.obj
 0002:00000a58       ??_C@_09IFJBGAPI@__stdcall?$AA@ 0000000180044a58     libvcruntime:undname.obj
 0002:00000a68       ??_C@_0L@NPHFGOKO@__thiscall?$AA@ 0000000180044a68     libvcruntime:undname.obj
 0002:00000a78       ??_C@_0L@JMKHOMEK@__fastcall?$AA@ 0000000180044a78     libvcruntime:undname.obj
 0002:00000a88       ??_C@_0N@BCKKPABJ@__vectorcall?$AA@ 0000000180044a88     libvcruntime:undname.obj
 0002:00000a98       ??_C@_09HIJEGCPM@__clrcall?$AA@ 0000000180044a98     libvcruntime:undname.obj
 0002:00000aa4       ??_C@_06GHPCKEAG@__eabi?$AA@ 0000000180044aa4     libvcruntime:undname.obj
 0002:00000ab0       ??_C@_07JOMMBBKO@__ptr64?$AA@ 0000000180044ab0     libvcruntime:undname.obj
 0002:00000ab8       ??_C@_0L@PILCLIHE@__restrict?$AA@ 0000000180044ab8     libvcruntime:undname.obj
 0002:00000ac8       ??_C@_0M@GFIIJFMG@__unaligned?$AA@ 0000000180044ac8     libvcruntime:undname.obj
 0002:00000ad8       ??_C@_09DHDLOLLB@restrict?$CI?$AA@ 0000000180044ad8     libvcruntime:undname.obj
 0002:00000ae4       ??_C@_04NIHEBCM@?5new?$AA@ 0000000180044ae4     libvcruntime:undname.obj
 0002:00000af0       ??_C@_07FPCDHGMM@?5delete?$AA@ 0000000180044af0     libvcruntime:undname.obj
 0002:00000af8       ??_C@_01NEMOKFLO@?$DN?$AA@ 0000000180044af8     libvcruntime:undname.obj
 0002:00000afc       ??_C@_02GPIOPFAK@?$DO?$DO?$AA@ 0000000180044afc     libvcruntime:undname.obj
 0002:00000b00       ??_C@_02FODMEDOG@?$DM?$DM?$AA@ 0000000180044b00     libvcruntime:undname.obj
 0002:00000b04       ??_C@_01DCLJPIOD@?$CB?$AA@ 0000000180044b04     libvcruntime:undname.obj
 0002:00000b08       ??_C@_02EGOFBIJA@?$DN?$DN?$AA@ 0000000180044b08     libvcruntime:undname.obj
 0002:00000b0c       ??_C@_02FDNJECIE@?$CB?$DN?$AA@ 0000000180044b0c     libvcruntime:undname.obj
 0002:00000b10       ??_C@_02GPECMEKF@?$FL?$FN?$AA@ 0000000180044b10     libvcruntime:undname.obj
 0002:00000b18       ??_C@_08LHJFAFGD@operator?$AA@ 0000000180044b18     libvcruntime:undname.obj
 0002:00000b24       ??_C@_02HBOOOICD@?9?$DO?$AA@ 0000000180044b24     libvcruntime:undname.obj
 0002:00000b28       ??_C@_01NBENCBCI@?$CK?$AA@ 0000000180044b28     libvcruntime:undname.obj
 0002:00000b2c       ??_C@_02ECNGHCIF@?$CL?$CL?$AA@ 0000000180044b2c     libvcruntime:undname.obj
 0002:00000b30       ??_C@_02BAABKJLB@?9?9?$AA@ 0000000180044b30     libvcruntime:undname.obj
 0002:00000b34       ??_C@_03MNHNFDLC@?9?$DO?$CK?$AA@ 0000000180044b34     libvcruntime:undname.obj
 0002:00000b38       ??_C@_01FGNFDNOH@?$CF?$AA@ 0000000180044b38     libvcruntime:undname.obj
 0002:00000b3c       ??_C@_02EHCHHCKH@?$DM?$DN?$AA@ 0000000180044b3c     libvcruntime:undname.obj
 0002:00000b40       ??_C@_01PPODPGHN@?$DO?$AA@ 0000000180044b40     libvcruntime:undname.obj
 0002:00000b44       ??_C@_02EEKDKGMJ@?$DO?$DN?$AA@ 0000000180044b44     libvcruntime:undname.obj
 0002:00000b48       ??_C@_01IHBHIGKO@?0?$AA@   0000000180044b48     libvcruntime:undname.obj
 0002:00000b4c       ??_C@_02HCKGKOFO@?$CI?$CJ?$AA@ 0000000180044b4c     libvcruntime:undname.obj
 0002:00000b50       ??_C@_01PJKLJHI@?$HO?$AA@  0000000180044b50     libvcruntime:undname.obj
 0002:00000b54       ??_C@_01JKBOJNNK@?$FO?$AA@ 0000000180044b54     libvcruntime:undname.obj
 0002:00000b58       ??_C@_01DNKMNLPK@?$HM?$AA@ 0000000180044b58     libvcruntime:undname.obj
 0002:00000b5c       ??_C@_02PPKAJPJL@?$CG?$CG?$AA@ 0000000180044b5c     libvcruntime:undname.obj
 0002:00000b60       ??_C@_02NONPIBCD@?$HM?$HM?$AA@ 0000000180044b60     libvcruntime:undname.obj
 0002:00000b64       ??_C@_02FPIMKNGF@?$CK?$DN?$AA@ 0000000180044b64     libvcruntime:undname.obj
 0002:00000b68       ??_C@_02FOEOMHFC@?$CL?$DN?$AA@ 0000000180044b68     libvcruntime:undname.obj
 0002:00000b6c       ??_C@_02FKMDLLOA@?9?$DN?$AA@ 0000000180044b6c     libvcruntime:undname.obj
 0002:00000b70       ??_C@_02FJEHGPIO@?1?$DN?$AA@ 0000000180044b70     libvcruntime:undname.obj
 0002:00000b74       ??_C@_02FENAOKFI@?$CF?$DN?$AA@ 0000000180044b74     libvcruntime:undname.obj
 0002:00000b78       ??_C@_03IKFCCPFF@?$DO?$DO?$DN?$AA@ 0000000180044b78     libvcruntime:undname.obj
 0002:00000b7c       ??_C@_03CDNPDDLA@?$DM?$DM?$DN?$AA@ 0000000180044b7c     libvcruntime:undname.obj
 0002:00000b80       ??_C@_02FGJGFEAB@?$CG?$DN?$AA@ 0000000180044b80     libvcruntime:undname.obj
 0002:00000b84       ??_C@_02DHLNPPGH@?$HM?$DN?$AA@ 0000000180044b84     libvcruntime:undname.obj
 0002:00000b88       ??_C@_02MHEGNOJ@?$FO?$DN?$AA@ 0000000180044b88     libvcruntime:undname.obj
 0002:00000b90       ??_C@_09IFPLHPGF@?$GAvftable?8?$AA@ 0000000180044b90     libvcruntime:undname.obj
 0002:00000ba0       ??_C@_09BLBHBJP@?$GAvbtable?8?$AA@ 0000000180044ba0     libvcruntime:undname.obj
 0002:00000bb0       ??_C@_07FEEIOKP@?$GAvcall?8?$AA@ 0000000180044bb0     libvcruntime:undname.obj
 0002:00000bb8       ??_C@_08LLFFHHDJ@?$GAtypeof?8?$AA@ 0000000180044bb8     libvcruntime:undname.obj
 0002:00000bc8       ??_C@_0BF@KDPPACIK@?$GAlocal?5static?5guard?8?$AA@ 0000000180044bc8     libvcruntime:undname.obj
 0002:00000be0       ??_C@_08OBABFOLI@?$GAstring?8?$AA@ 0000000180044be0     libvcruntime:undname.obj
 0002:00000bf0       ??_C@_0BD@JDLKDPAB@?$GAvbase?5destructor?8?$AA@ 0000000180044bf0     libvcruntime:undname.obj
 0002:00000c08       ??_C@_0BN@DEGPLNFK@?$GAvector?5deleting?5destructor?8?$AA@ 0000000180044c08     libvcruntime:undname.obj
 0002:00000c28       ??_C@_0BO@OBMKPJIG@?$GAdefault?5constructor?5closure?8?$AA@ 0000000180044c28     libvcruntime:undname.obj
 0002:00000c48       ??_C@_0BN@IMDCHIKM@?$GAscalar?5deleting?5destructor?8?$AA@ 0000000180044c48     libvcruntime:undname.obj
 0002:00000c68       ??_C@_0BO@PFGOCPJJ@?$GAvector?5constructor?5iterator?8?$AA@ 0000000180044c68     libvcruntime:undname.obj
 0002:00000c88       ??_C@_0BN@LFPFMEDL@?$GAvector?5destructor?5iterator?8?$AA@ 0000000180044c88     libvcruntime:undname.obj
 0002:00000ca8       ??_C@_0CE@IKBNEHA@?$GAvector?5vbase?5constructor?5iterat@ 0000000180044ca8     libvcruntime:undname.obj
 0002:00000cd0       ??_C@_0BL@NILFHHPC@?$GAvirtual?5displacement?5map?8?$AA@ 0000000180044cd0     libvcruntime:undname.obj
 0002:00000cf0       ??_C@_0CB@JONCMFFK@?$GAeh?5vector?5constructor?5iterator?8@ 0000000180044cf0     libvcruntime:undname.obj
 0002:00000d18       ??_C@_0CA@GCEOPDGL@?$GAeh?5vector?5destructor?5iterator?8?$AA@ 0000000180044d18     libvcruntime:undname.obj
 0002:00000d38       ??_C@_0CH@OOJPLCPH@?$GAeh?5vector?5vbase?5constructor?5ite@ 0000000180044d38     libvcruntime:undname.obj
 0002:00000d60       ??_C@_0BL@LLKPOHJI@?$GAcopy?5constructor?5closure?8?$AA@ 0000000180044d60     libvcruntime:undname.obj
 0002:00000d80       ??_C@_0BA@KBCDOMBN@?$GAudt?5returning?8?$AA@ 0000000180044d80     libvcruntime:undname.obj
 0002:00000d90       ??_C@_03KLGMFNMG@?$GAEH?$AA@ 0000000180044d90     libvcruntime:undname.obj
 0002:00000d94       ??_C@_05KHLCHHI@?$GARTTI?$AA@ 0000000180044d94     libvcruntime:undname.obj
 0002:00000da0       ??_C@_0BA@KKLDJDLB@?$GAlocal?5vftable?8?$AA@ 0000000180044da0     libvcruntime:undname.obj
 0002:00000db0       ??_C@_0CE@IIHCMGGL@?$GAlocal?5vftable?5constructor?5closu@ 0000000180044db0     libvcruntime:undname.obj
 0002:00000dd4       ??_C@_06FHBGPFGH@?5new?$FL?$FN?$AA@ 0000000180044dd4     libvcruntime:undname.obj
 0002:00000de0       ??_C@_09LBNFPBCA@?5delete?$FL?$FN?$AA@ 0000000180044de0     libvcruntime:undname.obj
 0002:00000df0       ??_C@_0P@HJKNJFNN@?$GAomni?5callsig?8?$AA@ 0000000180044df0     libvcruntime:undname.obj
 0002:00000e00       ??_C@_0BL@CNOONJFP@?$GAplacement?5delete?5closure?8?$AA@ 0000000180044e00     libvcruntime:undname.obj
 0002:00000e20       ??_C@_0BN@CKNJLHMB@?$GAplacement?5delete?$FL?$FN?5closure?8?$AA@ 0000000180044e20     libvcruntime:undname.obj
 0002:00000e40       ??_C@_0CG@CFDHKGGD@?$GAmanaged?5vector?5constructor?5iter@ 0000000180044e40     libvcruntime:undname.obj
 0002:00000e68       ??_C@_0CF@IMGKMJNO@?$GAmanaged?5vector?5destructor?5itera@ 0000000180044e68     libvcruntime:undname.obj
 0002:00000e90       ??_C@_0CG@HLDDJMAG@?$GAeh?5vector?5copy?5constructor?5iter@ 0000000180044e90     libvcruntime:undname.obj
 0002:00000eb8       ??_C@_0CM@FCBBDIGB@?$GAeh?5vector?5vbase?5copy?5constructo@ 0000000180044eb8     libvcruntime:undname.obj
 0002:00000ee8       ??_C@_0BL@CLIPGLGB@?$GAdynamic?5initializer?5for?5?8?$AA@ 0000000180044ee8     libvcruntime:undname.obj
 0002:00000f08       ??_C@_0CB@PDBIFEP@?$GAdynamic?5atexit?5destructor?5for?5?8@ 0000000180044f08     libvcruntime:undname.obj
 0002:00000f30       ??_C@_0CD@CGAJBKEJ@?$GAvector?5copy?5constructor?5iterato@ 0000000180044f30     libvcruntime:undname.obj
 0002:00000f58       ??_C@_0CJ@GJELGAMM@?$GAvector?5vbase?5copy?5constructor?5i@ 0000000180044f58     libvcruntime:undname.obj
 0002:00000f88       ??_C@_0CL@FGIJHLCE@?$GAmanaged?5vector?5copy?5constructor@ 0000000180044f88     libvcruntime:undname.obj
 0002:00000fb8       ??_C@_0BM@PMGGMLDN@?$GAlocal?5static?5thread?5guard?8?$AA@ 0000000180044fb8     libvcruntime:undname.obj
 0002:00000fd8       ??_C@_0N@BDNMDMOL@operator?5?$CC?$CC?5?$AA@ 0000000180044fd8     libvcruntime:undname.obj
 0002:00000fe8       ??_C@_0BC@DAFEJGAK@?5Type?5Descriptor?8?$AA@ 0000000180044fe8     libvcruntime:undname.obj
 0002:00001000       ??_C@_0BM@LDKODKLH@?5Base?5Class?5Descriptor?5at?5?$CI?$AA@ 0000000180045000     libvcruntime:undname.obj
 0002:00001020       ??_C@_0BD@LGICGFMM@?5Base?5Class?5Array?8?$AA@ 0000000180045020     libvcruntime:undname.obj
 0002:00001038       ??_C@_0BN@MECKDCOJ@?5Class?5Hierarchy?5Descriptor?8?$AA@ 0000000180045038     libvcruntime:undname.obj
 0002:00001058       ??_C@_0BK@CFCOFLF@?5Complete?5Object?5Locator?8?$AA@ 0000000180045058     libvcruntime:undname.obj
 0002:00001080       ??_C@_1EK@MBDPDCGA@?$AAM?$AAi?$AAc?$AAr?$AAo?$AAs?$AAo?$AAf?$AAt?$AA?5?$AAV?$AAi?$AAs?$AAu?$AAa?$AAl?$AA?5?$AAC?$AA?$CL?$AA?$CL?$AA?5?$AAR?$AAu?$AAn?$AAt?$AAi?$AAm?$AAe?$AA?5?$AAL?$AAi?$AAb@ 0000000180045080     libucrt:assert.obj
 0002:000010d0       ??_C@_1FE@LHBLIKM@?$AAA?$AAs?$AAs?$AAe?$AAr?$AAt?$AAi?$AAo?$AAn?$AA?5?$AAf?$AAa?$AAi?$AAl?$AAe?$AAd?$AA?3?$AA?5?$AA?$CF?$AAT?$AAs?$AA?0?$AA?5?$AAf?$AAi?$AAl?$AAe?$AA?5?$AA?$CF?$AAT?$AAs?$AA?0@ 00000001800450d0     libucrt:assert.obj
 0002:00001128       ??_C@_1CE@OJBNHDMO@?$AAA?$AAs?$AAs?$AAe?$AAr?$AAt?$AAi?$AAo?$AAn?$AA?5?$AAf?$AAa?$AAi?$AAl?$AAe?$AAd?$AA?$CB?$AA?$AA@ 0000000180045128     libucrt:assert.obj
 0002:00001150       ??_C@_1BE@PHKBBGE@?$AAP?$AAr?$AAo?$AAg?$AAr?$AAa?$AAm?$AA?3?$AA?5?$AA?$AA@ 0000000180045150     libucrt:assert.obj
 0002:00001168       ??_C@_1O@HEMHKNDC@?$AAF?$AAi?$AAl?$AAe?$AA?3?$AA?5?$AA?$AA@ 0000000180045168     libucrt:assert.obj
 0002:00001178       ??_C@_1O@KCAFKHJE@?$AAL?$AAi?$AAn?$AAe?$AA?3?$AA?5?$AA?$AA@ 0000000180045178     libucrt:assert.obj
 0002:00001188       ??_C@_1BK@PEDCIPMA@?$AAE?$AAx?$AAp?$AAr?$AAe?$AAs?$AAs?$AAi?$AAo?$AAn?$AA?3?$AA?5?$AA?$AA@ 0000000180045188     libucrt:assert.obj
 0002:000011b0       ??_C@_1OA@EGMLFBHJ@?$AAF?$AAo?$AAr?$AA?5?$AAi?$AAn?$AAf?$AAo?$AAr?$AAm?$AAa?$AAt?$AAi?$AAo?$AAn?$AA?5?$AAo?$AAn?$AA?5?$AAh?$AAo?$AAw?$AA?5?$AAy?$AAo?$AAu?$AAr?$AA?5?$AAp?$AAr?$AAo?$AAg@ 00000001800451b0     libucrt:assert.obj
 0002:00001290       ??_C@_1HK@POCJMFGK@?$AA?$CI?$AAP?$AAr?$AAe?$AAs?$AAs?$AA?5?$AAR?$AAe?$AAt?$AAr?$AAy?$AA?5?$AAt?$AAo?$AA?5?$AAd?$AAe?$AAb?$AAu?$AAg?$AA?5?$AAt?$AAh?$AAe?$AA?5?$AAa?$AAp?$AAp?$AAl?$AAi?$AAc@ 0000000180045290     libucrt:assert.obj
 0002:00001310       ??_C@_17LGKOMLJ@?$AA?4?$AA?4?$AA?4?$AA?$AA@ 0000000180045310     libucrt:assert.obj
 0002:00001318       ??_C@_13LBAGMAIH@?$AA?6?$AA?$AA@ 0000000180045318     libucrt:assert.obj
 0002:0000131c       ??_C@_15IABLJNFO@?$AA?6?$AA?6?$AA?$AA@ 000000018004531c     libucrt:assert.obj
 0002:00001328       ??_C@_1CO@EAEJAADC@?$AA?$DM?$AAp?$AAr?$AAo?$AAg?$AAr?$AAa?$AAm?$AA?5?$AAn?$AAa?$AAm?$AAe?$AA?5?$AAu?$AAn?$AAk?$AAn?$AAo?$AAw?$AAn?$AA?$DO?$AA?$AA@ 0000000180045328     libucrt:assert.obj
 0002:00001360       standard_lookup_table      0000000180045360     libucrt:output.obj
 0002:000013bc       ??_C@_06OJHGLDPL@?$CInull?$CJ?$AA@ 00000001800453bc     libucrt:output.obj
 0002:000013c8       ??_C@_1O@CEDCILHN@?$AA?$CI?$AAn?$AAu?$AAl?$AAl?$AA?$CJ?$AA?$AA@ 00000001800453c8     libucrt:output.obj
 0002:000013e0       __acrt_exception_action_table 00000001800453e0     libucrt:exception_filter.obj
 0002:000014a0       __acrt_signal_action_table_count 00000001800454a0     libucrt:exception_filter.obj
 0002:000014a8       __acrt_signal_action_first_fpe_index 00000001800454a8     libucrt:exception_filter.obj
 0002:000014b0       __acrt_signal_action_fpe_count 00000001800454b0     libucrt:exception_filter.obj
 0002:000014b8       ??_C@_1BI@BGOHAHKC@?$AAm?$AAs?$AAc?$AAo?$AAr?$AAe?$AAe?$AA?4?$AAd?$AAl?$AAl?$AA?$AA@ 00000001800454b8     libucrt:exit.obj
 0002:000014d0       ??_C@_0P@MIGLKIOC@CorExitProcess?$AA@ 00000001800454d0     libucrt:exit.obj
 0002:00001738       ?ccs@?BL@???$__acrt_stdio_parse_mode@D@@YA?AU__acrt_stdio_stream_mode@@QEBD@Z@4QBDB 0000000180045738     libucrt:openfile.obj
 0002:0000173c       ?utf8_encoding@?BL@???$__acrt_stdio_parse_mode@D@@YA?AU__acrt_stdio_stream_mode@@QEBD@Z@4QBDB 000000018004573c     libucrt:openfile.obj
 0002:00001748       ?utf16_encoding@?BL@???$__acrt_stdio_parse_mode@D@@YA?AU__acrt_stdio_stream_mode@@QEBD@Z@4QBDB 0000000180045748     libucrt:openfile.obj
 0002:00001750       ?unicode_encoding@?BL@???$__acrt_stdio_parse_mode@D@@YA?AU__acrt_stdio_stream_mode@@QEBD@Z@4QBDB 0000000180045750     libucrt:openfile.obj
 0002:00001760       __lc_time_c                0000000180045760     libucrt:nlsdata.obj
 0002:00001a20       ??_C@_03KOEHGMDN@Sun?$AA@  0000000180045a20     libucrt:nlsdata.obj
 0002:00001a24       ??_C@_03PDAGKDH@Mon?$AA@   0000000180045a24     libucrt:nlsdata.obj
 0002:00001a28       ??_C@_03NAGEINEP@Tue?$AA@  0000000180045a28     libucrt:nlsdata.obj
 0002:00001a2c       ??_C@_03MHOMLAJA@Wed?$AA@  0000000180045a2c     libucrt:nlsdata.obj
 0002:00001a30       ??_C@_03IOFIKPDN@Thu?$AA@  0000000180045a30     libucrt:nlsdata.obj
 0002:00001a34       ??_C@_03IDIOELNC@Fri?$AA@  0000000180045a34     libucrt:nlsdata.obj
 0002:00001a38       ??_C@_03FEFJNEK@Sat?$AA@   0000000180045a38     libucrt:nlsdata.obj
 0002:00001a3c       ??_C@_06OOPIFAJ@Sunday?$AA@ 0000000180045a3c     libucrt:nlsdata.obj
 0002:00001a44       ??_C@_06JLEDEDGH@Monday?$AA@ 0000000180045a44     libucrt:nlsdata.obj
 0002:00001a50       ??_C@_07BAAGCFCM@Tuesday?$AA@ 0000000180045a50     libucrt:nlsdata.obj
 0002:00001a58       ??_C@_09DLIGFAKA@Wednesday?$AA@ 0000000180045a58     libucrt:nlsdata.obj
 0002:00001a68       ??_C@_08HACCIKIA@Thursday?$AA@ 0000000180045a68     libucrt:nlsdata.obj
 0002:00001a74       ??_C@_06JECMNKMI@Friday?$AA@ 0000000180045a74     libucrt:nlsdata.obj
 0002:00001a80       ??_C@_08INBOOONO@Saturday?$AA@ 0000000180045a80     libucrt:nlsdata.obj
 0002:00001a8c       ??_C@_03JIHJHPIE@Jan?$AA@  0000000180045a8c     libucrt:nlsdata.obj
 0002:00001a90       ??_C@_03HJBDCHOM@Feb?$AA@  0000000180045a90     libucrt:nlsdata.obj
 0002:00001a94       ??_C@_03ODNJBKGA@Mar?$AA@  0000000180045a94     libucrt:nlsdata.obj
 0002:00001a98       ??_C@_03LEOLGMJP@Apr?$AA@  0000000180045a98     libucrt:nlsdata.obj
 0002:00001a9c       ??_C@_03CNMDKL@May?$AA@    0000000180045a9c     libucrt:nlsdata.obj
 0002:00001aa0       ??_C@_03IDFGHECI@Jun?$AA@  0000000180045aa0     libucrt:nlsdata.obj
 0002:00001aa4       ??_C@_03LBGABGKK@Jul?$AA@  0000000180045aa4     libucrt:nlsdata.obj
 0002:00001aa8       ??_C@_03IFJFEIGA@Aug?$AA@  0000000180045aa8     libucrt:nlsdata.obj
 0002:00001aac       ??_C@_03GGCAPAJC@Sep?$AA@  0000000180045aac     libucrt:nlsdata.obj
 0002:00001ab0       ??_C@_03BMAOKBAD@Oct?$AA@  0000000180045ab0     libucrt:nlsdata.obj
 0002:00001ab4       ??_C@_03JPJOFNIA@Nov?$AA@  0000000180045ab4     libucrt:nlsdata.obj
 0002:00001ab8       ??_C@_03MKABNOCG@Dec?$AA@  0000000180045ab8     libucrt:nlsdata.obj
 0002:00001ac0       ??_C@_07CGJPFGJA@January?$AA@ 0000000180045ac0     libucrt:nlsdata.obj
 0002:00001ac8       ??_C@_08GNJGEPFN@February?$AA@ 0000000180045ac8     libucrt:nlsdata.obj
 0002:00001ad4       ??_C@_05HPCKOFNC@March?$AA@ 0000000180045ad4     libucrt:nlsdata.obj
 0002:00001adc       ??_C@_05DMJDNLEJ@April?$AA@ 0000000180045adc     libucrt:nlsdata.obj
 0002:00001ae4       ??_C@_04CNLMGBGM@June?$AA@ 0000000180045ae4     libucrt:nlsdata.obj
 0002:00001aec       ??_C@_04MIEPOIFP@July?$AA@ 0000000180045aec     libucrt:nlsdata.obj
 0002:00001af4       ??_C@_06LBBHFDDG@August?$AA@ 0000000180045af4     libucrt:nlsdata.obj
 0002:00001b00       ??_C@_09BHHEALKD@September?$AA@ 0000000180045b00     libucrt:nlsdata.obj
 0002:00001b10       ??_C@_07JJNFCEND@October?$AA@ 0000000180045b10     libucrt:nlsdata.obj
 0002:00001b18       ??_C@_08HCHEGEOA@November?$AA@ 0000000180045b18     libucrt:nlsdata.obj
 0002:00001b28       ??_C@_08EDHMEBNP@December?$AA@ 0000000180045b28     libucrt:nlsdata.obj
 0002:00001b34       ??_C@_02CJNFDJBF@PM?$AA@   0000000180045b34     libucrt:nlsdata.obj
 0002:00001b38       ??_C@_08BPBNCDIB@MM?1dd?1yy?$AA@ 0000000180045b38     libucrt:nlsdata.obj
 0002:00001b48       ??_C@_0BE@CKGJFCPC@dddd?0?5MMMM?5dd?0?5yyyy?$AA@ 0000000180045b48     libucrt:nlsdata.obj
 0002:00001b60       ??_C@_08JCCMCCIL@HH?3mm?3ss?$AA@ 0000000180045b60     libucrt:nlsdata.obj
 0002:00001b70       ??_C@_17MBGCMIPB@?$AAS?$AAu?$AAn?$AA?$AA@ 0000000180045b70     libucrt:nlsdata.obj
 0002:00001b78       ??_C@_17KBOMKBF@?$AAM?$AAo?$AAn?$AA?$AA@ 0000000180045b78     libucrt:nlsdata.obj
 0002:00001b80       ??_C@_17BMKGEGOJ@?$AAT?$AAu?$AAe?$AA?$AA@ 0000000180045b80     libucrt:nlsdata.obj
 0002:00001b88       ??_C@_17CJEDCEPE@?$AAW?$AAe?$AAd?$AA?$AA@ 0000000180045b88     libucrt:nlsdata.obj
 0002:00001b90       ??_C@_17PDPHAADD@?$AAT?$AAh?$AAu?$AA?$AA@ 0000000180045b90     libucrt:nlsdata.obj
 0002:00001b98       ??_C@_17HFOLPPLP@?$AAF?$AAr?$AAi?$AA?$AA@ 0000000180045b98     libucrt:nlsdata.obj
 0002:00001ba0       ??_C@_17GGIBDPIH@?$AAS?$AAa?$AAt?$AA?$AA@ 0000000180045ba0     libucrt:nlsdata.obj
 0002:00001ba8       ??_C@_1O@IHNHDHPB@?$AAS?$AAu?$AAn?$AAd?$AAa?$AAy?$AA?$AA@ 0000000180045ba8     libucrt:nlsdata.obj
 0002:00001bb8       ??_C@_1O@MMNBFLIA@?$AAM?$AAo?$AAn?$AAd?$AAa?$AAy?$AA?$AA@ 0000000180045bb8     libucrt:nlsdata.obj
 0002:00001bc8       ??_C@_1BA@ENFBFFEK@?$AAT?$AAu?$AAe?$AAs?$AAd?$AAa?$AAy?$AA?$AA@ 0000000180045bc8     libucrt:nlsdata.obj
 0002:00001bd8       ??_C@_1BE@EBOGMDOH@?$AAW?$AAe?$AAd?$AAn?$AAe?$AAs?$AAd?$AAa?$AAy?$AA?$AA@ 0000000180045bd8     libucrt:nlsdata.obj
 0002:00001bf0       ??_C@_1BC@HHMNLIHE@?$AAT?$AAh?$AAu?$AAr?$AAs?$AAd?$AAa?$AAy?$AA?$AA@ 0000000180045bf0     libucrt:nlsdata.obj
 0002:00001c08       ??_C@_1O@PDICJHAG@?$AAF?$AAr?$AAi?$AAd?$AAa?$AAy?$AA?$AA@ 0000000180045c08     libucrt:nlsdata.obj
 0002:00001c18       ??_C@_1BC@ENMNNPAJ@?$AAS?$AAa?$AAt?$AAu?$AAr?$AAd?$AAa?$AAy?$AA?$AA@ 0000000180045c18     libucrt:nlsdata.obj
 0002:00001c30       ??_C@_17DKNBKCHM@?$AAJ?$AAa?$AAn?$AA?$AA@ 0000000180045c30     libucrt:nlsdata.obj
 0002:00001c38       ??_C@_17LMDJEKJN@?$AAF?$AAe?$AAb?$AA?$AA@ 0000000180045c38     libucrt:nlsdata.obj
 0002:00001c40       ??_C@_17CKNLEDEC@?$AAM?$AAa?$AAr?$AA?$AA@ 0000000180045c40     libucrt:nlsdata.obj
 0002:00001c48       ??_C@_17LFPOIHDD@?$AAA?$AAp?$AAr?$AA?$AA@ 0000000180045c48     libucrt:nlsdata.obj
 0002:00001c50       ??_C@_17PNNKMEED@?$AAM?$AAa?$AAy?$AA?$AA@ 0000000180045c50     libucrt:nlsdata.obj
 0002:00001c58       ??_C@_17KCJGOCPB@?$AAJ?$AAu?$AAn?$AA?$AA@ 0000000180045c58     libucrt:nlsdata.obj
 0002:00001c60       ??_C@_17IJPCKHK@?$AAJ?$AAu?$AAl?$AA?$AA@ 0000000180045c60     libucrt:nlsdata.obj
 0002:00001c68       ??_C@_17ICPELBCN@?$AAA?$AAu?$AAg?$AA?$AA@ 0000000180045c68     libucrt:nlsdata.obj
 0002:00001c70       ??_C@_17HCHCOKMG@?$AAS?$AAe?$AAp?$AA?$AA@ 0000000180045c70     libucrt:nlsdata.obj
 0002:00001c78       ??_C@_17FNLKOI@?$AAO?$AAc?$AAt?$AA?$AA@ 0000000180045c78     libucrt:nlsdata.obj
 0002:00001c80       ??_C@_17BBDMLCIG@?$AAN?$AAo?$AAv?$AA?$AA@ 0000000180045c80     libucrt:nlsdata.obj
 0002:00001c88       ??_C@_17EGKACKIF@?$AAD?$AAe?$AAc?$AA?$AA@ 0000000180045c88     libucrt:nlsdata.obj
 0002:00001c90       ??_C@_1BA@EFMEIEBA@?$AAJ?$AAa?$AAn?$AAu?$AAa?$AAr?$AAy?$AA?$AA@ 0000000180045c90     libucrt:nlsdata.obj
 0002:00001ca0       ??_C@_1BC@JGDDFFAM@?$AAF?$AAe?$AAb?$AAr?$AAu?$AAa?$AAr?$AAy?$AA?$AA@ 0000000180045ca0     libucrt:nlsdata.obj
 0002:00001cb8       ??_C@_1M@IKEENEDF@?$AAM?$AAa?$AAr?$AAc?$AAh?$AA?$AA@ 0000000180045cb8     libucrt:nlsdata.obj
 0002:00001cc8       ??_C@_1M@GJNLMHFD@?$AAA?$AAp?$AAr?$AAi?$AAl?$AA?$AA@ 0000000180045cc8     libucrt:nlsdata.obj
 0002:00001cd8       ??_C@_19EPFLPGAP@?$AAJ?$AAu?$AAn?$AAe?$AA?$AA@ 0000000180045cd8     libucrt:nlsdata.obj
 0002:00001ce8       ??_C@_19BIFMLPCD@?$AAJ?$AAu?$AAl?$AAy?$AA?$AA@ 0000000180045ce8     libucrt:nlsdata.obj
 0002:00001cf8       ??_C@_1O@PAHLKOAC@?$AAA?$AAu?$AAg?$AAu?$AAs?$AAt?$AA?$AA@ 0000000180045cf8     libucrt:nlsdata.obj
 0002:00001d08       ??_C@_1BE@DKAAMBJL@?$AAS?$AAe?$AAp?$AAt?$AAe?$AAm?$AAb?$AAe?$AAr?$AA?$AA@ 0000000180045d08     libucrt:nlsdata.obj
 0002:00001d20       ??_C@_1BA@EPANDLNG@?$AAO?$AAc?$AAt?$AAo?$AAb?$AAe?$AAr?$AA?$AA@ 0000000180045d20     libucrt:nlsdata.obj
 0002:00001d30       ??_C@_1BC@BGLIFPF@?$AAN?$AAo?$AAv?$AAe?$AAm?$AAb?$AAe?$AAr?$AA?$AA@ 0000000180045d30     libucrt:nlsdata.obj
 0002:00001d48       ??_C@_1BC@FEMKIFH@?$AAD?$AAe?$AAc?$AAe?$AAm?$AAb?$AAe?$AAr?$AA?$AA@ 0000000180045d48     libucrt:nlsdata.obj
 0002:00001d5c       ??_C@_15ODEHAHHF@?$AAA?$AAM?$AA?$AA@ 0000000180045d5c     libucrt:nlsdata.obj
 0002:00001d64       ??_C@_15CLMNNGEL@?$AAP?$AAM?$AA?$AA@ 0000000180045d64     libucrt:nlsdata.obj
 0002:00001d70       ??_C@_1BC@IEBCMHCM@?$AAM?$AAM?$AA?1?$AAd?$AAd?$AA?1?$AAy?$AAy?$AA?$AA@ 0000000180045d70     libucrt:nlsdata.obj
 0002:00001d88       ??_C@_1CI@KNAKOEBC@?$AAd?$AAd?$AAd?$AAd?$AA?0?$AA?5?$AAM?$AAM?$AAM?$AAM?$AA?5?$AAd?$AAd?$AA?0?$AA?5?$AAy?$AAy?$AAy?$AAy?$AA?$AA@ 0000000180045d88     libucrt:nlsdata.obj
 0002:00001db0       ??_C@_1BC@GDGBMEMK@?$AAH?$AAH?$AA?3?$AAm?$AAm?$AA?3?$AAs?$AAs?$AA?$AA@ 0000000180045db0     libucrt:nlsdata.obj
 0002:00001dc8       ??_C@_1M@BMHNFIME@?$AAe?$AAn?$AA?9?$AAU?$AAS?$AA?$AA@ 0000000180045dc8     libucrt:nlsdata.obj
 0002:00001dd4       ??_C@_03OEIAHPBN@INF?$AA@  0000000180045dd4     libucrt:cvt.obj
 0002:00001dd8       ??_C@_03OJHLLCGB@inf?$AA@  0000000180045dd8     libucrt:cvt.obj
 0002:00001ddc       ??_C@_03LKNCIKJB@NAN?$AA@  0000000180045ddc     libucrt:cvt.obj
 0002:00001de0       ??_C@_03LHCJEHON@nan?$AA@  0000000180045de0     libucrt:cvt.obj
 0002:00001de8       ??_C@_09OFJJIMPC@NAN?$CISNAN?$CJ?$AA@ 0000000180045de8     libucrt:cvt.obj
 0002:00001df8       ??_C@_09IPFBKMDL@nan?$CIsnan?$CJ?$AA@ 0000000180045df8     libucrt:cvt.obj
 0002:00001e08       ??_C@_08IKHNHAJ@NAN?$CIIND?$CJ?$AA@ 0000000180045e08     libucrt:cvt.obj
 0002:00001e18       ??_C@_08OFCDMILK@nan?$CIind?$CJ?$AA@ 0000000180045e18     libucrt:cvt.obj
 0002:00001e24       ??_C@_05KLBDPFGC@e?$CL000?$AA@ 0000000180045e24     libucrt:cvt.obj
 0002:00001ed0       ??_C@_1EG@CNNIPFIM@?$AAa?$AAp?$AAi?$AA?9?$AAm?$AAs?$AA?9?$AAw?$AAi?$AAn?$AA?9?$AAa?$AAp?$AAp?$AAm?$AAo?$AAd?$AAe?$AAl?$AA?9?$AAr?$AAu?$AAn?$AAt?$AAi?$AAm?$AAe?$AA?9?$AAl?$AA1?$AA?9?$AA1@ 0000000180045ed0     libucrt:winapi_thunks.obj
 0002:00001f20       ??_C@_1EA@JGEFHKEI@?$AAa?$AAp?$AAi?$AA?9?$AAm?$AAs?$AA?9?$AAw?$AAi?$AAn?$AA?9?$AAc?$AAo?$AAr?$AAe?$AA?9?$AAd?$AAa?$AAt?$AAe?$AAt?$AAi?$AAm?$AAe?$AA?9?$AAl?$AA1?$AA?9?$AA1?$AA?9?$AA1?$AA?$AA@ 0000000180045f20     libucrt:winapi_thunks.obj
 0002:00001f60       ??_C@_1DI@GCIAAENM@?$AAa?$AAp?$AAi?$AA?9?$AAm?$AAs?$AA?9?$AAw?$AAi?$AAn?$AA?9?$AAc?$AAo?$AAr?$AAe?$AA?9?$AAf?$AAi?$AAl?$AAe?$AA?9?$AAl?$AA2?$AA?9?$AA1?$AA?9?$AA1?$AA?$AA@ 0000000180045f60     libucrt:winapi_thunks.obj
 0002:00001fa0       ??_C@_1EI@MPIAOHOC@?$AAa?$AAp?$AAi?$AA?9?$AAm?$AAs?$AA?9?$AAw?$AAi?$AAn?$AA?9?$AAc?$AAo?$AAr?$AAe?$AA?9?$AAl?$AAo?$AAc?$AAa?$AAl?$AAi?$AAz?$AAa?$AAt?$AAi?$AAo?$AAn?$AA?9?$AAl?$AA1?$AA?9@ 0000000180045fa0     libucrt:winapi_thunks.obj
 0002:00001ff0       ??_C@_1FK@FPHCKFIE@?$AAa?$AAp?$AAi?$AA?9?$AAm?$AAs?$AA?9?$AAw?$AAi?$AAn?$AA?9?$AAc?$AAo?$AAr?$AAe?$AA?9?$AAl?$AAo?$AAc?$AAa?$AAl?$AAi?$AAz?$AAa?$AAt?$AAi?$AAo?$AAn?$AA?9?$AAo?$AAb?$AAs@ 0000000180045ff0     libucrt:winapi_thunks.obj
 0002:00002050       ??_C@_1EM@DILCGIIO@?$AAa?$AAp?$AAi?$AA?9?$AAm?$AAs?$AA?9?$AAw?$AAi?$AAn?$AA?9?$AAc?$AAo?$AAr?$AAe?$AA?9?$AAp?$AAr?$AAo?$AAc?$AAe?$AAs?$AAs?$AAt?$AAh?$AAr?$AAe?$AAa?$AAd?$AAs?$AA?9?$AAl@ 0000000180046050     libucrt:winapi_thunks.obj
 0002:000020a0       ??_C@_1DM@LNCGDDPN@?$AAa?$AAp?$AAi?$AA?9?$AAm?$AAs?$AA?9?$AAw?$AAi?$AAn?$AA?9?$AAc?$AAo?$AAr?$AAe?$AA?9?$AAs?$AAt?$AAr?$AAi?$AAn?$AAg?$AA?9?$AAl?$AA1?$AA?9?$AA1?$AA?9?$AA0?$AA?$AA@ 00000001800460a0     libucrt:winapi_thunks.obj
 0002:000020e0       ??_C@_1DO@FPAPJEMD@?$AAa?$AAp?$AAi?$AA?9?$AAm?$AAs?$AA?9?$AAw?$AAi?$AAn?$AA?9?$AAc?$AAo?$AAr?$AAe?$AA?9?$AAs?$AAy?$AAs?$AAi?$AAn?$AAf?$AAo?$AA?9?$AAl?$AA1?$AA?9?$AA2?$AA?9?$AA1?$AA?$AA@ 00000001800460e0     libucrt:winapi_thunks.obj
 0002:00002120       ??_C@_1DK@NDHNAHIO@?$AAa?$AAp?$AAi?$AA?9?$AAm?$AAs?$AA?9?$AAw?$AAi?$AAn?$AA?9?$AAc?$AAo?$AAr?$AAe?$AA?9?$AAw?$AAi?$AAn?$AAr?$AAt?$AA?9?$AAl?$AA1?$AA?9?$AA1?$AA?9?$AA0?$AA?$AA@ 0000000180046120     libucrt:winapi_thunks.obj
 0002:00002160       ??_C@_1DM@KGHDGBCM@?$AAa?$AAp?$AAi?$AA?9?$AAm?$AAs?$AA?9?$AAw?$AAi?$AAn?$AA?9?$AAc?$AAo?$AAr?$AAe?$AA?9?$AAx?$AAs?$AAt?$AAa?$AAt?$AAe?$AA?9?$AAl?$AA2?$AA?9?$AA1?$AA?9?$AA0?$AA?$AA@ 0000000180046160     libucrt:winapi_thunks.obj
 0002:000021a0       ??_C@_1EO@IJIOEFOH@?$AAa?$AAp?$AAi?$AA?9?$AAm?$AAs?$AA?9?$AAw?$AAi?$AAn?$AA?9?$AAr?$AAt?$AAc?$AAo?$AAr?$AAe?$AA?9?$AAn?$AAt?$AAu?$AAs?$AAe?$AAr?$AA?9?$AAw?$AAi?$AAn?$AAd?$AAo?$AAw?$AA?9@ 00000001800461a0     libucrt:winapi_thunks.obj
 0002:000021f0       ??_C@_1FG@HHGEKANL@?$AAa?$AAp?$AAi?$AA?9?$AAm?$AAs?$AA?9?$AAw?$AAi?$AAn?$AA?9?$AAs?$AAe?$AAc?$AAu?$AAr?$AAi?$AAt?$AAy?$AA?9?$AAs?$AAy?$AAs?$AAt?$AAe?$AAm?$AAf?$AAu?$AAn?$AAc?$AAt?$AAi@ 00000001800461f0     libucrt:winapi_thunks.obj
 0002:00002250       ??_C@_1FG@NCKKOLKO@?$AAe?$AAx?$AAt?$AA?9?$AAm?$AAs?$AA?9?$AAw?$AAi?$AAn?$AA?9?$AAk?$AAe?$AAr?$AAn?$AAe?$AAl?$AA3?$AA2?$AA?9?$AAp?$AAa?$AAc?$AAk?$AAa?$AAg?$AAe?$AA?9?$AAc?$AAu?$AAr?$AAr@ 0000000180046250     libucrt:winapi_thunks.obj
 0002:000022b0       ??_C@_1EG@DBIOJECG@?$AAe?$AAx?$AAt?$AA?9?$AAm?$AAs?$AA?9?$AAw?$AAi?$AAn?$AA?9?$AAn?$AAt?$AAu?$AAs?$AAe?$AAr?$AA?9?$AAd?$AAi?$AAa?$AAl?$AAo?$AAg?$AAb?$AAo?$AAx?$AA?9?$AAl?$AA1?$AA?9?$AA1@ 00000001800462b0     libucrt:winapi_thunks.obj
 0002:00002300       ??_C@_1EO@FIHMJCLF@?$AAe?$AAx?$AAt?$AA?9?$AAm?$AAs?$AA?9?$AAw?$AAi?$AAn?$AA?9?$AAn?$AAt?$AAu?$AAs?$AAe?$AAr?$AA?9?$AAw?$AAi?$AAn?$AAd?$AAo?$AAw?$AAs?$AAt?$AAa?$AAt?$AAi?$AAo?$AAn?$AA?9@ 0000000180046300     libucrt:winapi_thunks.obj
 0002:00002350       ??_C@_1O@BCCLBEOE@?$AAu?$AAs?$AAe?$AAr?$AA3?$AA2?$AA?$AA@ 0000000180046350     libucrt:winapi_thunks.obj
 0002:00002368       ??_C@_0BA@FHFNEAED@AreFileApisANSI?$AA@ 0000000180046368     libucrt:winapi_thunks.obj
 0002:00002380       ??_C@_0BA@IHGNDAEB@CompareStringEx?$AA@ 0000000180046380     libucrt:winapi_thunks.obj
 0002:000023b8       ??_C@_0BA@HNOPNCHB@GetActiveWindow?$AA@ 00000001800463b8     libucrt:winapi_thunks.obj
 0002:000023d0       ??_C@_0BE@JOGNEJCI@GetCurrentPackageId?$AA@ 00000001800463d0     libucrt:winapi_thunks.obj
 0002:000023f0       ??_C@_0BD@HHGDFDBJ@GetLastActivePopup?$AA@ 00000001800463f0     libucrt:winapi_thunks.obj
 0002:00002410       ??_C@_0BI@DFKBFLJE@GetProcessWindowStation?$AA@ 0000000180046410     libucrt:winapi_thunks.obj
 0002:00002430       ??_C@_0BK@DEKFELLI@GetUserObjectInformationW?$AA@ 0000000180046430     libucrt:winapi_thunks.obj
 0002:00002460       ??_C@_0O@KKBNKAPF@LCMapStringEx?$AA@ 0000000180046460     libucrt:winapi_thunks.obj
 0002:00002478       ??_C@_0BB@HBDEELFH@LocaleNameToLCID?$AA@ 0000000180046478     libucrt:winapi_thunks.obj
 0002:00002498       ??_C@_0M@CHKKJDAI@MessageBoxA?$AA@ 0000000180046498     libucrt:winapi_thunks.obj
 0002:000024b0       ??_C@_0M@DLDCCGNP@MessageBoxW?$AA@ 00000001800464b0     libucrt:winapi_thunks.obj
 0002:000024c0       __newctype                 00000001800464c0     libucrt:ctype.obj
 0002:000027c0       __newclmap                 00000001800467c0     libucrt:ctype.obj
 0002:00002940       __newcumap                 0000000180046940     libucrt:ctype.obj
 0002:00002ac0       _wctype                    0000000180046ac0     libucrt:ctype.obj
 0002:00002ce8       ??_C@_1M@HPNHIDJI@?$AAj?$AAa?$AA?9?$AAJ?$AAP?$AA?$AA@ 0000000180046ce8     libucrt:mbctype.obj
 0002:00002cf8       ??_C@_1M@BIBDDEMK@?$AAz?$AAh?$AA?9?$AAC?$AAN?$AA?$AA@ 0000000180046cf8     libucrt:mbctype.obj
 0002:00002d08       ??_C@_1M@JLOOOEGK@?$AAk?$AAo?$AA?9?$AAK?$AAR?$AA?$AA@ 0000000180046d08     libucrt:mbctype.obj
 0002:00002d18       ??_C@_1M@CLNBBOPM@?$AAz?$AAh?$AA?9?$AAT?$AAW?$AA?$AA@ 0000000180046d18     libucrt:mbctype.obj
 0002:00002d24       ??_C@_15PJPFLCCM@?$AAu?$AAk?$AA?$AA@ 0000000180046d24     libucrt:get_qualified_locale.obj
 0002:00002d30       ?large_power_data@?1??multiply_by_power_of_ten@__crt_strtox@@YA_NAEAUbig_integer@2@I@Z@4QBIB 0000000180046d30     libucrt:cfout.obj
 0002:00003640       ?large_power_indices@?1??multiply_by_power_of_ten@__crt_strtox@@YA_NAEAUbig_integer@2@I@Z@4QBUunpack_index@?1??12@YA_N0I@Z@B 0000000180047640     libucrt:cfout.obj
 0002:000036d8       ?small_powers_of_ten@?6??multiply_by_power_of_ten@__crt_strtox@@YA_NAEAUbig_integer@2@I@Z@4QBIB 00000001800476d8     libucrt:cfout.obj
 0002:000036fc       ??_C@_05DNEBIAHO@1?$CDINF?$AA@ 00000001800476fc     libucrt:cfout.obj
 0002:00003704       ??_C@_06IMKFLFPG@1?$CDQNAN?$AA@ 0000000180047704     libucrt:cfout.obj
 0002:0000370c       ??_C@_06PGGFOGJG@1?$CDSNAN?$AA@ 000000018004770c     libucrt:cfout.obj
 0002:00003714       ??_C@_05PHHOCPM@1?$CDIND?$AA@ 0000000180047714     libucrt:cfout.obj
 0002:00004560       ??_C@_15EMKDOKLE@?$AAa?$AAr?$AA?$AA@ 0000000180048560     libucrt:lcidtoname_downlevel.obj
 0002:00004568       ??_C@_15KNPADPLH@?$AAb?$AAg?$AA?$AA@ 0000000180048568     libucrt:lcidtoname_downlevel.obj
 0002:00004570       ??_C@_15EDMHLDMO@?$AAc?$AAa?$AA?$AA@ 0000000180048570     libucrt:lcidtoname_downlevel.obj
 0002:00004578       ??_C@_1O@BPEAJADD@?$AAz?$AAh?$AA?9?$AAC?$AAH?$AAS?$AA?$AA@ 0000000180048578     libucrt:lcidtoname_downlevel.obj
 0002:00004588       ??_C@_15LJNHCMNK@?$AAc?$AAs?$AA?$AA@ 0000000180048588     libucrt:lcidtoname_downlevel.obj
 0002:00004590       ??_C@_15FOMCIDHG@?$AAd?$AAa?$AA?$AA@ 0000000180048590     libucrt:lcidtoname_downlevel.obj
 0002:00004598       ??_C@_15NBKABECB@?$AAd?$AAe?$AA?$AA@ 0000000180048598     libucrt:lcidtoname_downlevel.obj
 0002:000045a0       ??_C@_15GHPEIIAO@?$AAe?$AAl?$AA?$AA@ 00000001800485a0     libucrt:lcidtoname_downlevel.obj
 0002:000045a8       ??_C@_15MNPNEAIF@?$AAe?$AAn?$AA?$AA@ 00000001800485a8     libucrt:lcidtoname_downlevel.obj
 0002:000045b0       ??_C@_15GPIOMPMH@?$AAe?$AAs?$AA?$AA@ 00000001800485b0     libucrt:lcidtoname_downlevel.obj
 0002:000045b8       ??_C@_15NGLOAKJC@?$AAf?$AAi?$AA?$AA@ 00000001800485b8     libucrt:lcidtoname_downlevel.obj
 0002:000045c0       ??_C@_15FBKGNKAM@?$AAf?$AAr?$AA?$AA@ 00000001800485c0     libucrt:lcidtoname_downlevel.obj
 0002:000045c8       ??_C@_15KGGCNEFK@?$AAh?$AAe?$AA?$AA@ 00000001800485c8     libucrt:lcidtoname_downlevel.obj
 0002:000045d0       ??_C@_15PGHLIDMF@?$AAh?$AAu?$AA?$AA@ 00000001800485d0     libucrt:lcidtoname_downlevel.obj
 0002:000045d8       ??_C@_15BIEMAPLM@?$AAi?$AAs?$AA?$AA@ 00000001800485d8     libucrt:lcidtoname_downlevel.obj
 0002:000045e0       ??_C@_15IFJLDHAF@?$AAi?$AAt?$AA?$AA@ 00000001800485e0     libucrt:lcidtoname_downlevel.obj
 0002:000045e8       ??_C@_15GEMIOCAG@?$AAj?$AAa?$AA?$AA@ 00000001800485e8     libucrt:lcidtoname_downlevel.obj
 0002:000045f0       ??_C@_15EPELEGJA@?$AAk?$AAo?$AA?$AA@ 00000001800485f0     libucrt:lcidtoname_downlevel.obj
 0002:000045f8       ??_C@_15NDDHIMN@?$AAn?$AAl?$AA?$AA@ 00000001800485f8     libucrt:lcidtoname_downlevel.obj
 0002:00004600       ??_C@_15BPIGNHCD@?$AAn?$AAo?$AA?$AA@ 0000000180048600     libucrt:lcidtoname_downlevel.obj
 0002:00004608       ??_C@_15DEOPBLCG@?$AAp?$AAl?$AA?$AA@ 0000000180048608     libucrt:lcidtoname_downlevel.obj
 0002:00004610       ??_C@_15KBECGEFG@?$AAp?$AAt?$AA?$AA@ 0000000180048610     libucrt:lcidtoname_downlevel.obj
 0002:00004618       ??_C@_15GLJCBFMD@?$AAr?$AAo?$AA?$AA@ 0000000180048618     libucrt:lcidtoname_downlevel.obj
 0002:00004620       ??_C@_15FEDGKCDI@?$AAr?$AAu?$AA?$AA@ 0000000180048620     libucrt:lcidtoname_downlevel.obj
 0002:00004628       ??_C@_15GLKMLLHM@?$AAh?$AAr?$AA?$AA@ 0000000180048628     libucrt:lcidtoname_downlevel.obj
 0002:00004630       ??_C@_15CPKMFBDB@?$AAs?$AAk?$AA?$AA@ 0000000180048630     libucrt:lcidtoname_downlevel.obj
 0002:00004638       ??_C@_15BAAIOGMK@?$AAs?$AAq?$AA?$AA@ 0000000180048638     libucrt:lcidtoname_downlevel.obj
 0002:00004640       ??_C@_15INNPNOHD@?$AAs?$AAv?$AA?$AA@ 0000000180048640     libucrt:lcidtoname_downlevel.obj
 0002:00004648       ??_C@_15CABMMOGH@?$AAt?$AAh?$AA?$AA@ 0000000180048648     libucrt:lcidtoname_downlevel.obj
 0002:00004650       ??_C@_15BPLIHJJM@?$AAt?$AAr?$AA?$AA@ 0000000180048650     libucrt:lcidtoname_downlevel.obj
 0002:00004658       ??_C@_15NEOEKKDJ@?$AAu?$AAr?$AA?$AA@ 0000000180048658     libucrt:lcidtoname_downlevel.obj
 0002:00004660       ??_C@_15NFICGAJK@?$AAi?$AAd?$AA?$AA@ 0000000180048660     libucrt:lcidtoname_downlevel.obj
 0002:00004668       ??_C@_15HPJPHDM@?$AAb?$AAe?$AA?$AA@ 0000000180048668     libucrt:lcidtoname_downlevel.obj
 0002:00004670       ??_C@_15LCHLGJII@?$AAs?$AAl?$AA?$AA@ 0000000180048670     libucrt:lcidtoname_downlevel.obj
 0002:00004678       ??_C@_15PCFJPHHO@?$AAe?$AAt?$AA?$AA@ 0000000180048678     libucrt:lcidtoname_downlevel.obj
 0002:00004680       ??_C@_15HPFPGODN@?$AAl?$AAv?$AA?$AA@ 0000000180048680     libucrt:lcidtoname_downlevel.obj
 0002:00004688       ??_C@_15NFFGKGLG@?$AAl?$AAt?$AA?$AA@ 0000000180048688     libucrt:lcidtoname_downlevel.obj
 0002:00004690       ??_C@_15BDAKCCHN@?$AAf?$AAa?$AA?$AA@ 0000000180048690     libucrt:lcidtoname_downlevel.obj
 0002:00004698       ??_C@_15NFGIAIAJ@?$AAv?$AAi?$AA?$AA@ 0000000180048698     libucrt:lcidtoname_downlevel.obj
 0002:000046a0       ??_C@_15LMKNDMHN@?$AAh?$AAy?$AA?$AA@ 00000001800486a0     libucrt:lcidtoname_downlevel.obj
 0002:000046a8       ??_C@_15IJBHMCFL@?$AAa?$AAz?$AA?$AA@ 00000001800486a8     libucrt:lcidtoname_downlevel.obj
 0002:000046b0       ??_C@_15EKOFJABL@?$AAe?$AAu?$AA?$AA@ 00000001800486b0     libucrt:lcidtoname_downlevel.obj
 0002:000046b8       ??_C@_15BGHADCNK@?$AAm?$AAk?$AA?$AA@ 00000001800486b8     libucrt:lcidtoname_downlevel.obj
 0002:000046c0       ??_C@_15JDNICKHM@?$AAa?$AAf?$AA?$AA@ 00000001800486c0     libucrt:lcidtoname_downlevel.obj
 0002:000046c8       ??_C@_15KPJEDBKD@?$AAk?$AAa?$AA?$AA@ 00000001800486c8     libucrt:lcidtoname_downlevel.obj
 0002:000046d0       ??_C@_15PDNFFFEO@?$AAf?$AAo?$AA?$AA@ 00000001800486d0     libucrt:lcidtoname_downlevel.obj
 0002:000046d8       ??_C@_15OMLEGLOC@?$AAh?$AAi?$AA?$AA@ 00000001800486d8     libucrt:lcidtoname_downlevel.obj
 0002:000046e0       ??_C@_15IDNNENKK@?$AAm?$AAs?$AA?$AA@ 00000001800486e0     libucrt:lcidtoname_downlevel.obj
 0002:000046e8       ??_C@_15MACJNBMH@?$AAk?$AAk?$AA?$AA@ 00000001800486e8     libucrt:lcidtoname_downlevel.obj
 0002:000046f0       ??_C@_15DKDJEOND@?$AAk?$AAy?$AA?$AA@ 00000001800486f0     libucrt:lcidtoname_downlevel.obj
 0002:000046f8       ??_C@_15DFGDLJBG@?$AAs?$AAw?$AA?$AA@ 00000001800486f8     libucrt:lcidtoname_downlevel.obj
 0002:00004700       ??_C@_15BBFAICNG@?$AAu?$AAz?$AA?$AA@ 0000000180048700     libucrt:lcidtoname_downlevel.obj
 0002:00004708       ??_C@_15DKNDCGEA@?$AAt?$AAt?$AA?$AA@ 0000000180048708     libucrt:lcidtoname_downlevel.obj
 0002:00004710       ??_C@_15MGIFMDPL@?$AAp?$AAa?$AA?$AA@ 0000000180048710     libucrt:lcidtoname_downlevel.obj
 0002:00004718       ??_C@_15HCNDBBA@?$AAg?$AAu?$AA?$AA@ 0000000180048718     libucrt:lcidtoname_downlevel.obj
 0002:00004720       ??_C@_15FNBEIBON@?$AAt?$AAa?$AA?$AA@ 0000000180048720     libucrt:lcidtoname_downlevel.obj
 0002:00004728       ??_C@_15NCHGBGLK@?$AAt?$AAe?$AA?$AA@ 0000000180048728     libucrt:lcidtoname_downlevel.obj
 0002:00004730       ??_C@_15PHPHCBPF@?$AAk?$AAn?$AA?$AA@ 0000000180048730     libucrt:lcidtoname_downlevel.obj
 0002:00004738       ??_C@_15DLGBCKMP@?$AAm?$AAr?$AA?$AA@ 0000000180048738     libucrt:lcidtoname_downlevel.obj
 0002:00004740       ??_C@_15EABBLBFF@?$AAs?$AAa?$AA?$AA@ 0000000180048740     libucrt:lcidtoname_downlevel.obj
 0002:00004748       ??_C@_15CBKOMCOI@?$AAm?$AAn?$AA?$AA@ 0000000180048748     libucrt:lcidtoname_downlevel.obj
 0002:00004750       ??_C@_15CKDMCJAF@?$AAg?$AAl?$AA?$AA@ 0000000180048750     libucrt:lcidtoname_downlevel.obj
 0002:00004758       ??_C@_17CNJFBPG@?$AAk?$AAo?$AAk?$AA?$AA@ 0000000180048758     libucrt:lcidtoname_downlevel.obj
 0002:00004760       ??_C@_17FFBJICPL@?$AAs?$AAy?$AAr?$AA?$AA@ 0000000180048760     libucrt:lcidtoname_downlevel.obj
 0002:00004768       ??_C@_17KPNDCPAF@?$AAd?$AAi?$AAv?$AA?$AA@ 0000000180048768     libucrt:lcidtoname_downlevel.obj
 0002:00004770       ??_C@_11LOCGONAA@?$AA?$AA@ 0000000180048770     libucrt:lcidtoname_downlevel.obj
 0002:00004778       ??_C@_1M@OKAHONE@?$AAa?$AAr?$AA?9?$AAS?$AAA?$AA?$AA@ 0000000180048778     libucrt:lcidtoname_downlevel.obj
 0002:00004788       ??_C@_1M@FFFIGIGK@?$AAb?$AAg?$AA?9?$AAB?$AAG?$AA?$AA@ 0000000180048788     libucrt:lcidtoname_downlevel.obj
 0002:00004798       ??_C@_1M@BJNKEDC@?$AAc?$AAa?$AA?9?$AAE?$AAS?$AA?$AA@ 0000000180048798     libucrt:lcidtoname_downlevel.obj
 0002:000047a8       ??_C@_1M@IJJHFJHA@?$AAc?$AAs?$AA?9?$AAC?$AAZ?$AA?$AA@ 00000001800487a8     libucrt:lcidtoname_downlevel.obj
 0002:000047b8       ??_C@_1M@CLPEOBGI@?$AAd?$AAa?$AA?9?$AAD?$AAK?$AA?$AA@ 00000001800487b8     libucrt:lcidtoname_downlevel.obj
 0002:000047c8       ??_C@_1M@MCMADGCB@?$AAd?$AAe?$AA?9?$AAD?$AAE?$AA?$AA@ 00000001800487c8     libucrt:lcidtoname_downlevel.obj
 0002:000047d8       ??_C@_1M@OOCKEMAM@?$AAe?$AAl?$AA?9?$AAG?$AAR?$AA?$AA@ 00000001800487d8     libucrt:lcidtoname_downlevel.obj
 0002:000047e8       ??_C@_1M@DDNJFGID@?$AAf?$AAi?$AA?9?$AAF?$AAI?$AA?$AA@ 00000001800487e8     libucrt:lcidtoname_downlevel.obj
 0002:000047f8       ??_C@_1M@GLIPPMAC@?$AAf?$AAr?$AA?9?$AAF?$AAR?$AA?$AA@ 00000001800487f8     libucrt:lcidtoname_downlevel.obj
 0002:00004808       ??_C@_1M@GFMCHPE@?$AAh?$AAe?$AA?9?$AAI?$AAL?$AA?$AA@ 0000000180048808     libucrt:lcidtoname_downlevel.obj
 0002:00004818       ??_C@_1M@MHLPGNKM@?$AAh?$AAu?$AA?9?$AAH?$AAU?$AA?$AA@ 0000000180048818     libucrt:lcidtoname_downlevel.obj
 0002:00004828       ??_C@_1M@LPDDNNPN@?$AAi?$AAs?$AA?9?$AAI?$AAS?$AA?$AA@ 0000000180048828     libucrt:lcidtoname_downlevel.obj
 0002:00004838       ??_C@_1M@MADIPODN@?$AAi?$AAt?$AA?9?$AAI?$AAT?$AA?$AA@ 0000000180048838     libucrt:lcidtoname_downlevel.obj
 0002:00004848       ??_C@_1M@IHBJJGG@?$AAn?$AAl?$AA?9?$AAN?$AAL?$AA?$AA@ 0000000180048848     libucrt:lcidtoname_downlevel.obj
 0002:00004858       ??_C@_1M@EANAGDL@?$AAn?$AAb?$AA?9?$AAN?$AAO?$AA?$AA@ 0000000180048858     libucrt:lcidtoname_downlevel.obj
 0002:00004868       ??_C@_1M@NEIEMEGP@?$AAp?$AAl?$AA?9?$AAP?$AAL?$AA?$AA@ 0000000180048868     libucrt:lcidtoname_downlevel.obj
 0002:00004878       ??_C@_1M@BOCFIGEP@?$AAp?$AAt?$AA?9?$AAB?$AAR?$AA?$AA@ 0000000180048878     libucrt:lcidtoname_downlevel.obj
 0002:00004888       ??_C@_1M@IMPFOPBG@?$AAr?$AAo?$AA?9?$AAR?$AAO?$AA?$AA@ 0000000180048888     libucrt:lcidtoname_downlevel.obj
 0002:00004898       ??_C@_1M@IDNNEJMM@?$AAr?$AAu?$AA?9?$AAR?$AAU?$AA?$AA@ 0000000180048898     libucrt:lcidtoname_downlevel.obj
 0002:000048a8       ??_C@_1M@LILEEOGM@?$AAh?$AAr?$AA?9?$AAH?$AAR?$AA?$AA@ 00000001800488a8     libucrt:lcidtoname_downlevel.obj
 0002:000048b8       ??_C@_1M@FKIFEHPB@?$AAs?$AAk?$AA?9?$AAS?$AAK?$AA?$AA@ 00000001800488b8     libucrt:lcidtoname_downlevel.obj
 0002:000048c8       ??_C@_1M@LJMAMNPJ@?$AAs?$AAq?$AA?9?$AAA?$AAL?$AA?$AA@ 00000001800488c8     libucrt:lcidtoname_downlevel.obj
 0002:000048d8       ??_C@_1M@GIAKDKJK@?$AAs?$AAv?$AA?9?$AAS?$AAE?$AA?$AA@ 00000001800488d8     libucrt:lcidtoname_downlevel.obj
 0002:000048e8       ??_C@_1M@MKJKIKCL@?$AAt?$AAh?$AA?9?$AAT?$AAH?$AA?$AA@ 00000001800488e8     libucrt:lcidtoname_downlevel.obj
 0002:000048f8       ??_C@_1M@MFLCCMPB@?$AAt?$AAr?$AA?9?$AAT?$AAR?$AA?$AA@ 00000001800488f8     libucrt:lcidtoname_downlevel.obj
 0002:00004908       ??_C@_1M@OIJHDKJN@?$AAu?$AAr?$AA?9?$AAP?$AAK?$AA?$AA@ 0000000180048908     libucrt:lcidtoname_downlevel.obj
 0002:00004918       ??_C@_1M@LHIPCIEK@?$AAi?$AAd?$AA?9?$AAI?$AAD?$AA?$AA@ 0000000180048918     libucrt:lcidtoname_downlevel.obj
 0002:00004928       ??_C@_1M@MFMOBGI@?$AAu?$AAk?$AA?9?$AAU?$AAA?$AA?$AA@ 0000000180048928     libucrt:lcidtoname_downlevel.obj
 0002:00004938       ??_C@_1M@OBGLJIPL@?$AAb?$AAe?$AA?9?$AAB?$AAY?$AA?$AA@ 0000000180048938     libucrt:lcidtoname_downlevel.obj
 0002:00004948       ??_C@_1M@BCFAJEAD@?$AAs?$AAl?$AA?9?$AAS?$AAI?$AA?$AA@ 0000000180048948     libucrt:lcidtoname_downlevel.obj
 0002:00004958       ??_C@_1M@FKFFEDDN@?$AAe?$AAt?$AA?9?$AAE?$AAE?$AA?$AA@ 0000000180048958     libucrt:lcidtoname_downlevel.obj
 0002:00004968       ??_C@_1M@KGKKAACI@?$AAl?$AAv?$AA?9?$AAL?$AAV?$AA?$AA@ 0000000180048968     libucrt:lcidtoname_downlevel.obj
 0002:00004978       ??_C@_1M@IFGBIJO@?$AAl?$AAt?$AA?9?$AAL?$AAT?$AA?$AA@ 0000000180048978     libucrt:lcidtoname_downlevel.obj
 0002:00004988       ??_C@_1M@FGEAHEDM@?$AAf?$AAa?$AA?9?$AAI?$AAR?$AA?$AA@ 0000000180048988     libucrt:lcidtoname_downlevel.obj
 0002:00004998       ??_C@_1M@KBMAIBFN@?$AAv?$AAi?$AA?9?$AAV?$AAN?$AA?$AA@ 0000000180048998     libucrt:lcidtoname_downlevel.obj
 0002:000049a8       ??_C@_1M@GPCBKDJK@?$AAh?$AAy?$AA?9?$AAA?$AAM?$AA?$AA@ 00000001800489a8     libucrt:lcidtoname_downlevel.obj
 0002:000049b8       ??_C@_1BG@BECMDDJB@?$AAa?$AAz?$AA?9?$AAA?$AAZ?$AA?9?$AAL?$AAa?$AAt?$AAn?$AA?$AA@ 00000001800489b8     libucrt:lcidtoname_downlevel.obj
 0002:000049d0       ??_C@_1M@MAOFCAEA@?$AAe?$AAu?$AA?9?$AAE?$AAS?$AA?$AA@ 00000001800489d0     libucrt:lcidtoname_downlevel.obj
 0002:000049e0       ??_C@_1M@IGHABKPI@?$AAm?$AAk?$AA?9?$AAM?$AAK?$AA?$AA@ 00000001800489e0     libucrt:lcidtoname_downlevel.obj
 0002:000049f0       ??_C@_1M@IAIGNEJG@?$AAt?$AAn?$AA?9?$AAZ?$AAA?$AA?$AA@ 00000001800489f0     libucrt:lcidtoname_downlevel.obj
 0002:00004a00       ??_C@_1M@IIJCOJFA@?$AAx?$AAh?$AA?9?$AAZ?$AAA?$AA?$AA@ 0000000180048a00     libucrt:lcidtoname_downlevel.obj
 0002:00004a10       ??_C@_1M@LGPJHNJH@?$AAz?$AAu?$AA?9?$AAZ?$AAA?$AA?$AA@ 0000000180048a10     libucrt:lcidtoname_downlevel.obj
 0002:00004a20       ??_C@_1M@HOKAOIO@?$AAa?$AAf?$AA?9?$AAZ?$AAA?$AA?$AA@ 0000000180048a20     libucrt:lcidtoname_downlevel.obj
 0002:00004a30       ??_C@_1M@DPCLHLIE@?$AAk?$AAa?$AA?9?$AAG?$AAE?$AA?$AA@ 0000000180048a30     libucrt:lcidtoname_downlevel.obj
 0002:00004a40       ??_C@_1M@BLKMHJBI@?$AAf?$AAo?$AA?9?$AAF?$AAO?$AA?$AA@ 0000000180048a40     libucrt:lcidtoname_downlevel.obj
 0002:00004a50       ??_C@_1M@LGGJAPPB@?$AAh?$AAi?$AA?9?$AAI?$AAN?$AA?$AA@ 0000000180048a50     libucrt:lcidtoname_downlevel.obj
 0002:00004a60       ??_C@_1M@FIKPIHFE@?$AAm?$AAt?$AA?9?$AAM?$AAT?$AA?$AA@ 0000000180048a60     libucrt:lcidtoname_downlevel.obj
 0002:00004a70       ??_C@_1M@HEGGPBFA@?$AAs?$AAe?$AA?9?$AAN?$AAO?$AA?$AA@ 0000000180048a70     libucrt:lcidtoname_downlevel.obj
 0002:00004a80       ??_C@_1M@EIBJEEPA@?$AAm?$AAs?$AA?9?$AAM?$AAY?$AA?$AA@ 0000000180048a80     libucrt:lcidtoname_downlevel.obj
 0002:00004a90       ??_C@_1M@FHLBGMPP@?$AAk?$AAk?$AA?9?$AAK?$AAZ?$AA?$AA@ 0000000180048a90     libucrt:lcidtoname_downlevel.obj
 0002:00004aa0       ??_C@_1M@NGJJLCGI@?$AAk?$AAy?$AA?9?$AAK?$AAG?$AA?$AA@ 0000000180048aa0     libucrt:lcidtoname_downlevel.obj
 0002:00004ab0       ??_C@_1M@GIENNBFC@?$AAs?$AAw?$AA?9?$AAK?$AAE?$AA?$AA@ 0000000180048ab0     libucrt:lcidtoname_downlevel.obj
 0002:00004ac0       ??_C@_1BG@NDGMJIMJ@?$AAu?$AAz?$AA?9?$AAU?$AAZ?$AA?9?$AAL?$AAa?$AAt?$AAn?$AA?$AA@ 0000000180048ac0     libucrt:lcidtoname_downlevel.obj
 0002:00004ad8       ??_C@_1M@IDCCIHBC@?$AAt?$AAt?$AA?9?$AAR?$AAU?$AA?$AA@ 0000000180048ad8     libucrt:lcidtoname_downlevel.obj
 0002:00004ae8       ??_C@_1M@LOICPMOJ@?$AAb?$AAn?$AA?9?$AAI?$AAN?$AA?$AA@ 0000000180048ae8     libucrt:lcidtoname_downlevel.obj
 0002:00004af8       ??_C@_1M@KPKKNEAH@?$AAp?$AAa?$AA?9?$AAI?$AAN?$AA?$AA@ 0000000180048af8     libucrt:lcidtoname_downlevel.obj
 0002:00004b08       ??_C@_1M@PJGPPBOG@?$AAg?$AAu?$AA?9?$AAI?$AAN?$AA?$AA@ 0000000180048b08     libucrt:lcidtoname_downlevel.obj
 0002:00004b18       ??_C@_1M@KMKMOPHI@?$AAt?$AAa?$AA?9?$AAI?$AAN?$AA?$AA@ 0000000180048b18     libucrt:lcidtoname_downlevel.obj
 0002:00004b28       ??_C@_1M@KFEHEPAC@?$AAt?$AAe?$AA?9?$AAI?$AAN?$AA?$AA@ 0000000180048b28     libucrt:lcidtoname_downlevel.obj
 0002:00004b38       ??_C@_1M@CDCLMGHI@?$AAk?$AAn?$AA?9?$AAI?$AAN?$AA?$AA@ 0000000180048b38     libucrt:lcidtoname_downlevel.obj
 0002:00004b48       ??_C@_1M@MIODLDKF@?$AAm?$AAl?$AA?9?$AAI?$AAN?$AA?$AA@ 0000000180048b48     libucrt:lcidtoname_downlevel.obj
 0002:00004b58       ??_C@_1M@PBIEACPO@?$AAm?$AAr?$AA?9?$AAI?$AAN?$AA?$AA@ 0000000180048b58     libucrt:lcidtoname_downlevel.obj
 0002:00004b68       ??_C@_1M@NIDEAGPH@?$AAs?$AAa?$AA?9?$AAI?$AAN?$AA?$AA@ 0000000180048b68     libucrt:lcidtoname_downlevel.obj
 0002:00004b78       ??_C@_1M@FHIHCBIO@?$AAm?$AAn?$AA?9?$AAM?$AAN?$AA?$AA@ 0000000180048b78     libucrt:lcidtoname_downlevel.obj
 0002:00004b88       ??_C@_1M@JAIJPENP@?$AAc?$AAy?$AA?9?$AAG?$AAB?$AA?$AA@ 0000000180048b88     libucrt:lcidtoname_downlevel.obj
 0002:00004b98       ??_C@_1M@PHGFBEPN@?$AAg?$AAl?$AA?9?$AAE?$AAS?$AA?$AA@ 0000000180048b98     libucrt:lcidtoname_downlevel.obj
 0002:00004ba8       ??_C@_1O@KPIPDNCP@?$AAk?$AAo?$AAk?$AA?9?$AAI?$AAN?$AA?$AA@ 0000000180048ba8     libucrt:lcidtoname_downlevel.obj
 0002:00004bb8       ??_C@_1O@KNHJLDJA@?$AAs?$AAy?$AAr?$AA?9?$AAS?$AAY?$AA?$AA@ 0000000180048bb8     libucrt:lcidtoname_downlevel.obj
 0002:00004bc8       ??_C@_1O@MKEKBLAH@?$AAd?$AAi?$AAv?$AA?9?$AAM?$AAV?$AA?$AA@ 0000000180048bc8     libucrt:lcidtoname_downlevel.obj
 0002:00004bd8       ??_C@_1O@OHDCKDDF@?$AAq?$AAu?$AAz?$AA?9?$AAB?$AAO?$AA?$AA@ 0000000180048bd8     libucrt:lcidtoname_downlevel.obj
 0002:00004be8       ??_C@_1M@LEPJNLFD@?$AAn?$AAs?$AA?9?$AAZ?$AAA?$AA?$AA@ 0000000180048be8     libucrt:lcidtoname_downlevel.obj
 0002:00004bf8       ??_C@_1M@OMLEIIJB@?$AAm?$AAi?$AA?9?$AAN?$AAZ?$AA?$AA@ 0000000180048bf8     libucrt:lcidtoname_downlevel.obj
 0002:00004c08       ??_C@_1M@PMPEAILG@?$AAa?$AAr?$AA?9?$AAI?$AAQ?$AA?$AA@ 0000000180048c08     libucrt:lcidtoname_downlevel.obj
 0002:00004c18       ??_C@_1M@CNKPNOEE@?$AAd?$AAe?$AA?9?$AAC?$AAH?$AA?$AA@ 0000000180048c18     libucrt:lcidtoname_downlevel.obj
 0002:00004c28       ??_C@_1M@LKMGMLKO@?$AAe?$AAn?$AA?9?$AAG?$AAB?$AA?$AA@ 0000000180048c28     libucrt:lcidtoname_downlevel.obj
 0002:00004c38       ??_C@_1M@PGKJFFGL@?$AAe?$AAs?$AA?9?$AAM?$AAX?$AA?$AA@ 0000000180048c38     libucrt:lcidtoname_downlevel.obj
 0002:00004c48       ??_C@_1M@DNNANBDC@?$AAf?$AAr?$AA?9?$AAB?$AAE?$AA?$AA@ 0000000180048c48     libucrt:lcidtoname_downlevel.obj
 0002:00004c58       ??_C@_1M@HLGMDFHM@?$AAi?$AAt?$AA?9?$AAC?$AAH?$AA?$AA@ 0000000180048c58     libucrt:lcidtoname_downlevel.obj
 0002:00004c68       ??_C@_1M@CLLBGJH@?$AAn?$AAl?$AA?9?$AAB?$AAE?$AA?$AA@ 0000000180048c68     libucrt:lcidtoname_downlevel.obj
 0002:00004c78       ??_C@_1M@BODBOGLF@?$AAn?$AAn?$AA?9?$AAN?$AAO?$AA?$AA@ 0000000180048c78     libucrt:lcidtoname_downlevel.obj
 0002:00004c88       ??_C@_1M@HFFAHKAD@?$AAp?$AAt?$AA?9?$AAP?$AAT?$AA?$AA@ 0000000180048c88     libucrt:lcidtoname_downlevel.obj
 0002:00004c98       ??_C@_1BG@LNOAKHIE@?$AAs?$AAr?$AA?9?$AAS?$AAP?$AA?9?$AAL?$AAa?$AAt?$AAn?$AA?$AA@ 0000000180048c98     libucrt:lcidtoname_downlevel.obj
 0002:00004cb0       ??_C@_1M@HBMHBGAK@?$AAs?$AAv?$AA?9?$AAF?$AAI?$AA?$AA@ 0000000180048cb0     libucrt:lcidtoname_downlevel.obj
 0002:00004cc0       ??_C@_1BG@DGCJGJBE@?$AAa?$AAz?$AA?9?$AAA?$AAZ?$AA?9?$AAC?$AAy?$AAr?$AAl?$AA?$AA@ 0000000180048cc0     libucrt:lcidtoname_downlevel.obj
 0002:00004cd8       ??_C@_1M@KEJDAAHB@?$AAs?$AAe?$AA?9?$AAS?$AAE?$AA?$AA@ 0000000180048cd8     libucrt:lcidtoname_downlevel.obj
 0002:00004ce8       ??_C@_1M@HEIBJJAD@?$AAm?$AAs?$AA?9?$AAB?$AAN?$AA?$AA@ 0000000180048ce8     libucrt:lcidtoname_downlevel.obj
 0002:00004cf8       ??_C@_1BG@PBGJMCEM@?$AAu?$AAz?$AA?9?$AAU?$AAZ?$AA?9?$AAC?$AAy?$AAr?$AAl?$AA?$AA@ 0000000180048cf8     libucrt:lcidtoname_downlevel.obj
 0002:00004d10       ??_C@_1O@LAOBCMDF@?$AAq?$AAu?$AAz?$AA?9?$AAE?$AAC?$AA?$AA@ 0000000180048d10     libucrt:lcidtoname_downlevel.obj
 0002:00004d20       ??_C@_1M@POEEMAIO@?$AAa?$AAr?$AA?9?$AAE?$AAG?$AA?$AA@ 0000000180048d20     libucrt:lcidtoname_downlevel.obj
 0002:00004d30       ??_C@_1M@EFAKDEDL@?$AAz?$AAh?$AA?9?$AAH?$AAK?$AA?$AA@ 0000000180048d30     libucrt:lcidtoname_downlevel.obj
 0002:00004d40       ??_C@_1M@HKKIJHGI@?$AAd?$AAe?$AA?9?$AAA?$AAT?$AA?$AA@ 0000000180048d40     libucrt:lcidtoname_downlevel.obj
 0002:00004d50       ??_C@_1M@KBFBEHJF@?$AAe?$AAn?$AA?9?$AAA?$AAU?$AA?$AA@ 0000000180048d50     libucrt:lcidtoname_downlevel.obj
 0002:00004d60       ??_C@_1M@MNPLFAAH@?$AAe?$AAs?$AA?9?$AAE?$AAS?$AA?$AA@ 0000000180048d60     libucrt:lcidtoname_downlevel.obj
 0002:00004d70       ??_C@_1M@HJOOJFMA@?$AAf?$AAr?$AA?9?$AAC?$AAA?$AA?$AA@ 0000000180048d70     libucrt:lcidtoname_downlevel.obj
 0002:00004d80       ??_C@_1BG@JPOFPNAB@?$AAs?$AAr?$AA?9?$AAS?$AAP?$AA?9?$AAC?$AAy?$AAr?$AAl?$AA?$AA@ 0000000180048d80     libucrt:lcidtoname_downlevel.obj
 0002:00004d98       ??_C@_1M@LNFOCMOB@?$AAs?$AAe?$AA?9?$AAF?$AAI?$AA?$AA@ 0000000180048d98     libucrt:lcidtoname_downlevel.obj
 0002:00004da8       ??_C@_1O@MGJBOAMB@?$AAq?$AAu?$AAz?$AA?9?$AAP?$AAE?$AA?$AA@ 0000000180048da8     libucrt:lcidtoname_downlevel.obj
 0002:00004db8       ??_C@_1M@GJINLBOK@?$AAa?$AAr?$AA?9?$AAL?$AAY?$AA?$AA@ 0000000180048db8     libucrt:lcidtoname_downlevel.obj
 0002:00004dc8       ??_C@_1M@GGMNHJNL@?$AAz?$AAh?$AA?9?$AAS?$AAG?$AA?$AA@ 0000000180048dc8     libucrt:lcidtoname_downlevel.obj
 0002:00004dd8       ??_C@_1M@HOIKODND@?$AAd?$AAe?$AA?9?$AAL?$AAU?$AA?$AA@ 0000000180048dd8     libucrt:lcidtoname_downlevel.obj
 0002:00004de8       ??_C@_1M@DDOCCGFG@?$AAe?$AAn?$AA?9?$AAC?$AAA?$AA?$AA@ 0000000180048de8     libucrt:lcidtoname_downlevel.obj
 0002:00004df8       ??_C@_1M@BNOEMJLF@?$AAe?$AAs?$AA?9?$AAG?$AAT?$AA?$AA@ 0000000180048df8     libucrt:lcidtoname_downlevel.obj
 0002:00004e08       ??_C@_1M@EOGNKEK@?$AAf?$AAr?$AA?9?$AAC?$AAH?$AA?$AA@ 0000000180048e08     libucrt:lcidtoname_downlevel.obj
 0002:00004e18       ??_C@_1M@FLIDJFHL@?$AAh?$AAr?$AA?9?$AAB?$AAA?$AA?$AA@ 0000000180048e18     libucrt:lcidtoname_downlevel.obj
 0002:00004e28       ??_C@_1O@FMCELNAJ@?$AAs?$AAm?$AAj?$AA?9?$AAN?$AAO?$AA?$AA@ 0000000180048e28     libucrt:lcidtoname_downlevel.obj
 0002:00004e38       ??_C@_1M@JHGLJMGJ@?$AAa?$AAr?$AA?9?$AAD?$AAZ?$AA?$AA@ 0000000180048e38     libucrt:lcidtoname_downlevel.obj
 0002:00004e48       ??_C@_1M@JKKFDCNP@?$AAz?$AAh?$AA?9?$AAM?$AAO?$AA?$AA@ 0000000180048e48     libucrt:lcidtoname_downlevel.obj
 0002:00004e58       ??_C@_1M@GEEFALPE@?$AAd?$AAe?$AA?9?$AAL?$AAI?$AA?$AA@ 0000000180048e58     libucrt:lcidtoname_downlevel.obj
 0002:00004e68       ??_C@_1M@IGEOFBG@?$AAe?$AAn?$AA?9?$AAN?$AAZ?$AA?$AA@ 0000000180048e68     libucrt:lcidtoname_downlevel.obj
 0002:00004e78       ??_C@_1M@KDBONEHP@?$AAe?$AAs?$AA?9?$AAC?$AAR?$AA?$AA@ 0000000180048e78     libucrt:lcidtoname_downlevel.obj
 0002:00004e88       ??_C@_1M@FHMDOHNN@?$AAf?$AAr?$AA?9?$AAL?$AAU?$AA?$AA@ 0000000180048e88     libucrt:lcidtoname_downlevel.obj
 0002:00004e98       ??_C@_1BG@NFKKMAFG@?$AAb?$AAs?$AA?9?$AAB?$AAA?$AA?9?$AAL?$AAa?$AAt?$AAn?$AA?$AA@ 0000000180048e98     libucrt:lcidtoname_downlevel.obj
 0002:00004eb0       ??_C@_1O@IMNBEMCI@?$AAs?$AAm?$AAj?$AA?9?$AAS?$AAE?$AA?$AA@ 0000000180048eb0     libucrt:lcidtoname_downlevel.obj
 0002:00004ec0       ??_C@_1M@DHHMBNDP@?$AAa?$AAr?$AA?9?$AAM?$AAA?$AA?$AA@ 0000000180048ec0     libucrt:lcidtoname_downlevel.obj
 0002:00004ed0       ??_C@_1M@BNBLJCGH@?$AAe?$AAn?$AA?9?$AAI?$AAE?$AA?$AA@ 0000000180048ed0     libucrt:lcidtoname_downlevel.obj
 0002:00004ee0       ??_C@_1M@GEPAFMDL@?$AAe?$AAs?$AA?9?$AAP?$AAA?$AA?$AA@ 0000000180048ee0     libucrt:lcidtoname_downlevel.obj
 0002:00004ef0       ??_C@_1M@OJONDMDL@?$AAf?$AAr?$AA?9?$AAM?$AAC?$AA?$AA@ 0000000180048ef0     libucrt:lcidtoname_downlevel.obj
 0002:00004f00       ??_C@_1BG@OBCNFJB@?$AAs?$AAr?$AA?9?$AAB?$AAA?$AA?9?$AAL?$AAa?$AAt?$AAn?$AA?$AA@ 0000000180048f00     libucrt:lcidtoname_downlevel.obj
 0002:00004f18       ??_C@_1O@KEMEEGPO@?$AAs?$AAm?$AAa?$AA?9?$AAN?$AAO?$AA?$AA@ 0000000180048f18     libucrt:lcidtoname_downlevel.obj
 0002:00004f28       ??_C@_1M@ELMGFODK@?$AAa?$AAr?$AA?9?$AAT?$AAN?$AA?$AA@ 0000000180048f28     libucrt:lcidtoname_downlevel.obj
 0002:00004f38       ??_C@_1M@BHDLHFAF@?$AAe?$AAn?$AA?9?$AAZ?$AAA?$AA?$AA@ 0000000180048f38     libucrt:lcidtoname_downlevel.obj
 0002:00004f48       ??_C@_1M@BMGIGLIF@?$AAe?$AAs?$AA?9?$AAD?$AAO?$AA?$AA@ 0000000180048f48     libucrt:lcidtoname_downlevel.obj
 0002:00004f58       ??_C@_1BG@CMBHIPBE@?$AAs?$AAr?$AA?9?$AAB?$AAA?$AA?9?$AAC?$AAy?$AAr?$AAl?$AA?$AA@ 0000000180048f58     libucrt:lcidtoname_downlevel.obj
 0002:00004f70       ??_C@_1O@HEDBLHNP@?$AAs?$AAm?$AAa?$AA?9?$AAS?$AAE?$AA?$AA@ 0000000180048f70     libucrt:lcidtoname_downlevel.obj
 0002:00004f80       ??_C@_1M@DAGCADIM@?$AAa?$AAr?$AA?9?$AAO?$AAM?$AA?$AA@ 0000000180048f80     libucrt:lcidtoname_downlevel.obj
 0002:00004f90       ??_C@_1M@FODLMICG@?$AAe?$AAn?$AA?9?$AAJ?$AAM?$AA?$AA@ 0000000180048f90     libucrt:lcidtoname_downlevel.obj
 0002:00004fa0       ??_C@_1M@DNMLCIHB@?$AAe?$AAs?$AA?9?$AAV?$AAE?$AA?$AA@ 0000000180048fa0     libucrt:lcidtoname_downlevel.obj
 0002:00004fb0       ??_C@_1O@EOKHMKJK@?$AAs?$AAm?$AAs?$AA?9?$AAF?$AAI?$AA?$AA@ 0000000180048fb0     libucrt:lcidtoname_downlevel.obj
 0002:00004fc0       ??_C@_1M@CAFJMKOF@?$AAa?$AAr?$AA?9?$AAY?$AAE?$AA?$AA@ 0000000180048fc0     libucrt:lcidtoname_downlevel.obj
 0002:00004fd0       ??_C@_1M@CBFHIJLI@?$AAe?$AAn?$AA?9?$AAC?$AAB?$AA?$AA@ 0000000180048fd0     libucrt:lcidtoname_downlevel.obj
 0002:00004fe0       ??_C@_1M@BGNFLDN@?$AAe?$AAs?$AA?9?$AAC?$AAO?$AA?$AA@ 0000000180048fe0     libucrt:lcidtoname_downlevel.obj
 0002:00004ff0       ??_C@_1O@JMPHMAMC@?$AAs?$AAm?$AAn?$AA?9?$AAF?$AAI?$AA?$AA@ 0000000180048ff0     libucrt:lcidtoname_downlevel.obj
 0002:00005000       ??_C@_1M@JLANABKE@?$AAa?$AAr?$AA?9?$AAS?$AAY?$AA?$AA@ 0000000180049000     libucrt:lcidtoname_downlevel.obj
 0002:00005010       ??_C@_1M@HPKGCFGN@?$AAe?$AAn?$AA?9?$AAB?$AAZ?$AA?$AA@ 0000000180049010     libucrt:lcidtoname_downlevel.obj
 0002:00005020       ??_C@_1M@OLJCMLGM@?$AAe?$AAs?$AA?9?$AAP?$AAE?$AA?$AA@ 0000000180049020     libucrt:lcidtoname_downlevel.obj
 0002:00005030       ??_C@_1M@MKKGFKLE@?$AAa?$AAr?$AA?9?$AAJ?$AAO?$AA?$AA@ 0000000180049030     libucrt:lcidtoname_downlevel.obj
 0002:00005040       ??_C@_1M@EKPGLDNI@?$AAe?$AAn?$AA?9?$AAT?$AAT?$AA?$AA@ 0000000180049040     libucrt:lcidtoname_downlevel.obj
 0002:00005050       ??_C@_1M@OONGHFHE@?$AAe?$AAs?$AA?9?$AAA?$AAR?$AA?$AA@ 0000000180049050     libucrt:lcidtoname_downlevel.obj
 0002:00005060       ??_C@_1M@OOJFGBHE@?$AAa?$AAr?$AA?9?$AAL?$AAB?$AA?$AA@ 0000000180049060     libucrt:lcidtoname_downlevel.obj
 0002:00005070       ??_C@_1M@GCEJHNEG@?$AAe?$AAn?$AA?9?$AAZ?$AAW?$AA?$AA@ 0000000180049070     libucrt:lcidtoname_downlevel.obj
 0002:00005080       ??_C@_1M@JNOCAHJI@?$AAe?$AAs?$AA?9?$AAE?$AAC?$AA?$AA@ 0000000180049080     libucrt:lcidtoname_downlevel.obj
 0002:00005090       ??_C@_1M@JEFHPGGB@?$AAa?$AAr?$AA?9?$AAK?$AAW?$AA?$AA@ 0000000180049090     libucrt:lcidtoname_downlevel.obj
 0002:000050a0       ??_C@_1M@MLKIBJOJ@?$AAe?$AAn?$AA?9?$AAP?$AAH?$AA?$AA@ 00000001800490a0     libucrt:lcidtoname_downlevel.obj
 0002:000050b0       ??_C@_1M@BDNIPEND@?$AAe?$AAs?$AA?9?$AAC?$AAL?$AA?$AA@ 00000001800490b0     libucrt:lcidtoname_downlevel.obj
 0002:000050c0       ??_C@_1M@MPNMEKBD@?$AAa?$AAr?$AA?9?$AAA?$AAE?$AA?$AA@ 00000001800490c0     libucrt:lcidtoname_downlevel.obj
 0002:000050d0       ??_C@_1M@KBJALCPI@?$AAe?$AAs?$AA?9?$AAU?$AAY?$AA?$AA@ 00000001800490d0     libucrt:lcidtoname_downlevel.obj
 0002:000050e0       ??_C@_1M@LLCCOAGA@?$AAa?$AAr?$AA?9?$AAB?$AAH?$AA?$AA@ 00000001800490e0     libucrt:lcidtoname_downlevel.obj
 0002:000050f0       ??_C@_1M@PBFNCDEL@?$AAe?$AAs?$AA?9?$AAP?$AAY?$AA?$AA@ 00000001800490f0     libucrt:lcidtoname_downlevel.obj
 0002:00005100       ??_C@_1M@EDGINPNP@?$AAa?$AAr?$AA?9?$AAQ?$AAA?$AA?$AA@ 0000000180049100     libucrt:lcidtoname_downlevel.obj
 0002:00005110       ??_C@_1M@MKDBIIJI@?$AAe?$AAs?$AA?9?$AAB?$AAO?$AA?$AA@ 0000000180049110     libucrt:lcidtoname_downlevel.obj
 0002:00005120       ??_C@_1M@CPKKEBLD@?$AAe?$AAs?$AA?9?$AAS?$AAV?$AA?$AA@ 0000000180049120     libucrt:lcidtoname_downlevel.obj
 0002:00005130       ??_C@_1M@NDBGMMJL@?$AAe?$AAs?$AA?9?$AAH?$AAN?$AA?$AA@ 0000000180049130     libucrt:lcidtoname_downlevel.obj
 0002:00005140       ??_C@_1M@JIJIBHDP@?$AAe?$AAs?$AA?9?$AAN?$AAI?$AA?$AA@ 0000000180049140     libucrt:lcidtoname_downlevel.obj
 0002:00005150       ??_C@_1M@CGFMKEEK@?$AAe?$AAs?$AA?9?$AAP?$AAR?$AA?$AA@ 0000000180049150     libucrt:lcidtoname_downlevel.obj
 0002:00005160       ??_C@_1O@ICJHKIIK@?$AAz?$AAh?$AA?9?$AAC?$AAH?$AAT?$AA?$AA@ 0000000180049160     libucrt:lcidtoname_downlevel.obj
 0002:00005170       ??_C@_15CLNEJCE@?$AAs?$AAr?$AA?$AA@ 0000000180049170     libucrt:lcidtoname_downlevel.obj
 0002:00005fc0       ??_C@_1M@KAHEKEIG@?$AAa?$AAf?$AA?9?$AAz?$AAa?$AA?$AA@ 0000000180049fc0     libucrt:lcidtoname_downlevel.obj
 0002:00005fd0       ??_C@_1M@GIECOABL@?$AAa?$AAr?$AA?9?$AAa?$AAe?$AA?$AA@ 0000000180049fd0     libucrt:lcidtoname_downlevel.obj
 0002:00005fe0       ??_C@_1M@BMLMEKGI@?$AAa?$AAr?$AA?9?$AAb?$AAh?$AA?$AA@ 0000000180049fe0     libucrt:lcidtoname_downlevel.obj
 0002:00005ff0       ??_C@_1M@DAPFDGGB@?$AAa?$AAr?$AA?9?$AAd?$AAz?$AA?$AA@ 0000000180049ff0     libucrt:lcidtoname_downlevel.obj
 0002:00006000       ??_C@_1M@FJNKGKIG@?$AAa?$AAr?$AA?9?$AAe?$AAg?$AA?$AA@ 000000018004a000     libucrt:lcidtoname_downlevel.obj
 0002:00006010       ??_C@_1M@FLGKKCLO@?$AAa?$AAr?$AA?9?$AAi?$AAq?$AA?$AA@ 000000018004a010     libucrt:lcidtoname_downlevel.obj
 0002:00006020       ??_C@_1M@GNDIPALM@?$AAa?$AAr?$AA?9?$AAj?$AAo?$AA?$AA@ 000000018004a020     libucrt:lcidtoname_downlevel.obj
 0002:00006030       ??_C@_1M@DDMJFMGJ@?$AAa?$AAr?$AA?9?$AAk?$AAw?$AA?$AA@ 000000018004a030     libucrt:lcidtoname_downlevel.obj
 0002:00006040       ??_C@_1M@EJALMLHM@?$AAa?$AAr?$AA?9?$AAl?$AAb?$AA?$AA@ 000000018004a040     libucrt:lcidtoname_downlevel.obj
 0002:00006050       ??_C@_1M@MOBDBLOC@?$AAa?$AAr?$AA?9?$AAl?$AAy?$AA?$AA@ 000000018004a050     libucrt:lcidtoname_downlevel.obj
 0002:00006060       ??_C@_1M@JAOCLHDH@?$AAa?$AAr?$AA?9?$AAm?$AAa?$AA?$AA@ 000000018004a060     libucrt:lcidtoname_downlevel.obj
 0002:00006070       ??_C@_1M@JHPMKJIE@?$AAa?$AAr?$AA?9?$AAo?$AAm?$AA?$AA@ 000000018004a070     libucrt:lcidtoname_downlevel.obj
 0002:00006080       ??_C@_1M@OEPGHFNH@?$AAa?$AAr?$AA?9?$AAq?$AAa?$AA?$AA@ 000000018004a080     libucrt:lcidtoname_downlevel.obj
 0002:00006090       ??_C@_1M@KJDONENM@?$AAa?$AAr?$AA?9?$AAs?$AAa?$AA?$AA@ 000000018004a090     libucrt:lcidtoname_downlevel.obj
 0002:000060a0       ??_C@_1M@DMJDKLKM@?$AAa?$AAr?$AA?9?$AAs?$AAy?$AA?$AA@ 000000018004a0a0     libucrt:lcidtoname_downlevel.obj
 0002:000060b0       ??_C@_1M@OMFIPEDC@?$AAa?$AAr?$AA?9?$AAt?$AAn?$AA?$AA@ 000000018004a0b0     libucrt:lcidtoname_downlevel.obj
 0002:000060c0       ??_C@_1M@IHMHGAON@?$AAa?$AAr?$AA?9?$AAy?$AAe?$AA?$AA@ 000000018004a0c0     libucrt:lcidtoname_downlevel.obj
 0002:000060d0       ??_C@_1BG@KDCPGJGB@?$AAa?$AAz?$AA?9?$AAa?$AAz?$AA?9?$AAc?$AAy?$AAr?$AAl?$AA?$AA@ 000000018004a0d0     libucrt:lcidtoname_downlevel.obj
 0002:000060e8       ??_C@_1BG@IBCKDDOE@?$AAa?$AAz?$AA?9?$AAa?$AAz?$AA?9?$AAl?$AAa?$AAt?$AAn?$AA?$AA@ 000000018004a0e8     libucrt:lcidtoname_downlevel.obj
 0002:00006100       ??_C@_1M@EGPFDCPD@?$AAb?$AAe?$AA?9?$AAb?$AAy?$AA?$AA@ 000000018004a100     libucrt:lcidtoname_downlevel.obj
 0002:00006110       ??_C@_1M@PCMGMCGC@?$AAb?$AAg?$AA?9?$AAb?$AAg?$AA?$AA@ 000000018004a110     libucrt:lcidtoname_downlevel.obj
 0002:00006120       ??_C@_1M@BJBMFGOB@?$AAb?$AAn?$AA?9?$AAi?$AAn?$AA?$AA@ 000000018004a120     libucrt:lcidtoname_downlevel.obj
 0002:00006130       ??_C@_1BG@EAKMMACD@?$AAb?$AAs?$AA?9?$AAb?$AAa?$AA?9?$AAl?$AAa?$AAt?$AAn?$AA?$AA@ 000000018004a130     libucrt:lcidtoname_downlevel.obj
 0002:00006148       ??_C@_1M@KGADAODK@?$AAc?$AAa?$AA?9?$AAe?$AAs?$AA?$AA@ 000000018004a148     libucrt:lcidtoname_downlevel.obj
 0002:00006158       ??_C@_1M@COAJPDHI@?$AAc?$AAs?$AA?9?$AAc?$AAz?$AA?$AA@ 000000018004a158     libucrt:lcidtoname_downlevel.obj
 0002:00006168       ??_C@_1M@DHBHFONH@?$AAc?$AAy?$AA?9?$AAg?$AAb?$AA?$AA@ 000000018004a168     libucrt:lcidtoname_downlevel.obj
 0002:00006178       ??_C@_1M@IMGKELGA@?$AAd?$AAa?$AA?9?$AAd?$AAk?$AA?$AA@ 000000018004a178     libucrt:lcidtoname_downlevel.obj
 0002:00006188       ??_C@_1M@NNDGDNGA@?$AAd?$AAe?$AA?9?$AAa?$AAt?$AA?$AA@ 000000018004a188     libucrt:lcidtoname_downlevel.obj
 0002:00006198       ??_C@_1M@IKDBHEEM@?$AAd?$AAe?$AA?9?$AAc?$AAh?$AA?$AA@ 000000018004a198     libucrt:lcidtoname_downlevel.obj
 0002:000061a8       ??_C@_1M@GFFOJMCJ@?$AAd?$AAe?$AA?9?$AAd?$AAe?$AA?$AA@ 000000018004a1a8     libucrt:lcidtoname_downlevel.obj
 0002:000061b8       ??_C@_1M@MDNLKBPM@?$AAd?$AAe?$AA?9?$AAl?$AAi?$AA?$AA@ 000000018004a1b8     libucrt:lcidtoname_downlevel.obj
 0002:000061c8       ??_C@_1M@NJBEEJNL@?$AAd?$AAe?$AA?9?$AAl?$AAu?$AA?$AA@ 000000018004a1c8     libucrt:lcidtoname_downlevel.obj
 0002:000061d8       ??_C@_1O@GNNELBAP@?$AAd?$AAi?$AAv?$AA?9?$AAm?$AAv?$AA?$AA@ 000000018004a1d8     libucrt:lcidtoname_downlevel.obj
 0002:000061e8       ??_C@_1M@EJLEOGAE@?$AAe?$AAl?$AA?9?$AAg?$AAr?$AA?$AA@ 000000018004a1e8     libucrt:lcidtoname_downlevel.obj
 0002:000061f8       ??_C@_1M@GMPONJN@?$AAe?$AAn?$AA?9?$AAa?$AAu?$AA?$AA@ 000000018004a1f8     libucrt:lcidtoname_downlevel.obj
 0002:00006208       ??_C@_1M@NIDIIPGF@?$AAe?$AAn?$AA?9?$AAb?$AAz?$AA?$AA@ 000000018004a208     libucrt:lcidtoname_downlevel.obj
 0002:00006218       ??_C@_1M@JEHMIMFO@?$AAe?$AAn?$AA?9?$AAc?$AAa?$AA?$AA@ 000000018004a218     libucrt:lcidtoname_downlevel.obj
 0002:00006228       ??_C@_1M@IGMJCDLA@?$AAe?$AAn?$AA?9?$AAc?$AAb?$AA?$AA@ 000000018004a228     libucrt:lcidtoname_downlevel.obj
 0002:00006238       ??_C@_1M@BNFIGBKG@?$AAe?$AAn?$AA?9?$AAg?$AAb?$AA?$AA@ 000000018004a238     libucrt:lcidtoname_downlevel.obj
 0002:00006248       ??_C@_1M@LKIFDIGP@?$AAe?$AAn?$AA?9?$AAi?$AAe?$AA?$AA@ 000000018004a248     libucrt:lcidtoname_downlevel.obj
 0002:00006258       ??_C@_1M@PJKFGCCO@?$AAe?$AAn?$AA?9?$AAj?$AAm?$AA?$AA@ 000000018004a258     libucrt:lcidtoname_downlevel.obj
 0002:00006268       ??_C@_1M@KPPKEPBO@?$AAe?$AAn?$AA?9?$AAn?$AAz?$AA?$AA@ 000000018004a268     libucrt:lcidtoname_downlevel.obj
 0002:00006278       ??_C@_1M@GMDGLDOB@?$AAe?$AAn?$AA?9?$AAp?$AAh?$AA?$AA@ 000000018004a278     libucrt:lcidtoname_downlevel.obj
 0002:00006288       ??_C@_1M@ONGIBJNA@?$AAe?$AAn?$AA?9?$AAt?$AAt?$AA?$AA@ 000000018004a288     libucrt:lcidtoname_downlevel.obj
 0002:00006298       ??_C@_1M@LLODPCMM@?$AAe?$AAn?$AA?9?$AAu?$AAs?$AA?$AA@ 000000018004a298     libucrt:lcidtoname_downlevel.obj
 0002:000062a8       ??_C@_1M@LAKFNPAN@?$AAe?$AAn?$AA?9?$AAz?$AAa?$AA?$AA@ 000000018004a2a8     libucrt:lcidtoname_downlevel.obj
 0002:000062b8       ??_C@_1M@MFNHNHEO@?$AAe?$AAn?$AA?9?$AAz?$AAw?$AA?$AA@ 000000018004a2b8     libucrt:lcidtoname_downlevel.obj
 0002:000062c8       ??_C@_1M@EJEINPHM@?$AAe?$AAs?$AA?9?$AAa?$AAr?$AA?$AA@ 000000018004a2c8     libucrt:lcidtoname_downlevel.obj
 0002:000062d8       ??_C@_1M@GNKPCCJA@?$AAe?$AAs?$AA?9?$AAb?$AAo?$AA?$AA@ 000000018004a2d8     libucrt:lcidtoname_downlevel.obj
 0002:000062e8       ??_C@_1M@LEEGFONL@?$AAe?$AAs?$AA?9?$AAc?$AAl?$AA?$AA@ 000000018004a2e8     libucrt:lcidtoname_downlevel.obj
 0002:000062f8       ??_C@_1M@KGPDPBDF@?$AAe?$AAs?$AA?9?$AAc?$AAo?$AA?$AA@ 000000018004a2f8     libucrt:lcidtoname_downlevel.obj
 0002:00006308       ??_C@_1M@EIAHOHH@?$AAe?$AAs?$AA?9?$AAc?$AAr?$AA?$AA@ 000000018004a308     libucrt:lcidtoname_downlevel.obj
 0002:00006318       ??_C@_1M@LLPGMBIN@?$AAe?$AAs?$AA?9?$AAd?$AAo?$AA?$AA@ 000000018004a318     libucrt:lcidtoname_downlevel.obj
 0002:00006328       ??_C@_1M@DKHMKNJA@?$AAe?$AAs?$AA?9?$AAe?$AAc?$AA?$AA@ 000000018004a328     libucrt:lcidtoname_downlevel.obj
 0002:00006338       ??_C@_1M@GKGFPKAP@?$AAe?$AAs?$AA?9?$AAe?$AAs?$AA?$AA@ 000000018004a338     libucrt:lcidtoname_downlevel.obj
 0002:00006348       ??_C@_1M@LKHKGDLN@?$AAe?$AAs?$AA?9?$AAg?$AAt?$AA?$AA@ 000000018004a348     libucrt:lcidtoname_downlevel.obj
 0002:00006358       ??_C@_1M@HEIIGGJD@?$AAe?$AAs?$AA?9?$AAh?$AAn?$AA?$AA@ 000000018004a358     libucrt:lcidtoname_downlevel.obj
 0002:00006368       ??_C@_1M@FBDHPPGD@?$AAe?$AAs?$AA?9?$AAm?$AAx?$AA?$AA@ 000000018004a368     libucrt:lcidtoname_downlevel.obj
 0002:00006378       ??_C@_1M@DPAGLNDH@?$AAe?$AAs?$AA?9?$AAn?$AAi?$AA?$AA@ 000000018004a378     libucrt:lcidtoname_downlevel.obj
 0002:00006388       ??_C@_1M@MDGOPGDD@?$AAe?$AAs?$AA?9?$AAp?$AAa?$AA?$AA@ 000000018004a388     libucrt:lcidtoname_downlevel.obj
 0002:00006398       ??_C@_1M@EMAMGBGE@?$AAe?$AAs?$AA?9?$AAp?$AAe?$AA?$AA@ 000000018004a398     libucrt:lcidtoname_downlevel.obj
 0002:000063a8       ??_C@_1M@IBMCAOEC@?$AAe?$AAs?$AA?9?$AAp?$AAr?$AA?$AA@ 000000018004a3a8     libucrt:lcidtoname_downlevel.obj
 0002:000063b8       ??_C@_1M@FGMDIJED@?$AAe?$AAs?$AA?9?$AAp?$AAy?$AA?$AA@ 000000018004a3b8     libucrt:lcidtoname_downlevel.obj
 0002:000063c8       ??_C@_1M@IIDEOLLL@?$AAe?$AAs?$AA?9?$AAs?$AAv?$AA?$AA@ 000000018004a3c8     libucrt:lcidtoname_downlevel.obj
 0002:000063d8       ??_C@_1M@GAOBIPA@?$AAe?$AAs?$AA?9?$AAu?$AAy?$AA?$AA@ 000000018004a3d8     libucrt:lcidtoname_downlevel.obj
 0002:000063e8       ??_C@_1M@JKFFICHJ@?$AAe?$AAs?$AA?9?$AAv?$AAe?$AA?$AA@ 000000018004a3e8     libucrt:lcidtoname_downlevel.obj
 0002:000063f8       ??_C@_1M@PNMLOJDF@?$AAe?$AAt?$AA?9?$AAe?$AAe?$AA?$AA@ 000000018004a3f8     libucrt:lcidtoname_downlevel.obj
 0002:00006408       ??_C@_1M@GHHLIKEI@?$AAe?$AAu?$AA?9?$AAe?$AAs?$AA?$AA@ 000000018004a408     libucrt:lcidtoname_downlevel.obj
 0002:00006418       ??_C@_1M@PBNONODE@?$AAf?$AAa?$AA?9?$AAi?$AAr?$AA?$AA@ 000000018004a418     libucrt:lcidtoname_downlevel.obj
 0002:00006428       ??_C@_1M@JEEHPMIL@?$AAf?$AAi?$AA?9?$AAf?$AAi?$AA?$AA@ 000000018004a428     libucrt:lcidtoname_downlevel.obj
 0002:00006438       ??_C@_1M@LMDCNDBA@?$AAf?$AAo?$AA?9?$AAf?$AAo?$AA?$AA@ 000000018004a438     libucrt:lcidtoname_downlevel.obj
 0002:00006448       ??_C@_1M@JKEOHLDK@?$AAf?$AAr?$AA?9?$AAb?$AAe?$AA?$AA@ 000000018004a448     libucrt:lcidtoname_downlevel.obj
 0002:00006458       ??_C@_1M@NOHADPMI@?$AAf?$AAr?$AA?9?$AAc?$AAa?$AA?$AA@ 000000018004a458     libucrt:lcidtoname_downlevel.obj
 0002:00006468       ??_C@_1M@KDHIHAEC@?$AAf?$AAr?$AA?9?$AAc?$AAh?$AA?$AA@ 000000018004a468     libucrt:lcidtoname_downlevel.obj
 0002:00006478       ??_C@_1M@MMBBFGAK@?$AAf?$AAr?$AA?9?$AAf?$AAr?$AA?$AA@ 000000018004a478     libucrt:lcidtoname_downlevel.obj
 0002:00006488       ??_C@_1M@PAFNENNF@?$AAf?$AAr?$AA?9?$AAl?$AAu?$AA?$AA@ 000000018004a488     libucrt:lcidtoname_downlevel.obj
 0002:00006498       ??_C@_1M@EOHDJGDD@?$AAf?$AAr?$AA?9?$AAm?$AAc?$AA?$AA@ 000000018004a498     libucrt:lcidtoname_downlevel.obj
 0002:000064a8       ??_C@_1M@FAPLLOPF@?$AAg?$AAl?$AA?9?$AAe?$AAs?$AA?$AA@ 000000018004a4a8     libucrt:lcidtoname_downlevel.obj
 0002:000064b8       ??_C@_1M@FOPBFLOO@?$AAg?$AAu?$AA?9?$AAi?$AAn?$AA?$AA@ 000000018004a4b8     libucrt:lcidtoname_downlevel.obj
 0002:000064c8       ??_C@_1M@KBMCINPM@?$AAh?$AAe?$AA?9?$AAi?$AAl?$AA?$AA@ 000000018004a4c8     libucrt:lcidtoname_downlevel.obj
 0002:000064d8       ??_C@_1M@BBPHKFPJ@?$AAh?$AAi?$AA?9?$AAi?$AAn?$AA?$AA@ 000000018004a4d8     libucrt:lcidtoname_downlevel.obj
 0002:000064e8       ??_C@_1M@PMBNDPHD@?$AAh?$AAr?$AA?9?$AAb?$AAa?$AA?$AA@ 000000018004a4e8     libucrt:lcidtoname_downlevel.obj
 0002:000064f8       ??_C@_1M@BPCKOEGE@?$AAh?$AAr?$AA?9?$AAh?$AAr?$AA?$AA@ 000000018004a4f8     libucrt:lcidtoname_downlevel.obj
 0002:00006508       ??_C@_1M@GACBMHKE@?$AAh?$AAu?$AA?9?$AAh?$AAu?$AA?$AA@ 000000018004a508     libucrt:lcidtoname_downlevel.obj
 0002:00006518       ??_C@_1M@MILPAJJC@?$AAh?$AAy?$AA?9?$AAa?$AAm?$AA?$AA@ 000000018004a518     libucrt:lcidtoname_downlevel.obj
 0002:00006528       ??_C@_1M@BABBICEC@?$AAi?$AAd?$AA?9?$AAi?$AAd?$AA?$AA@ 000000018004a528     libucrt:lcidtoname_downlevel.obj
 0002:00006538       ??_C@_1M@BIKNHHPF@?$AAi?$AAs?$AA?9?$AAi?$AAs?$AA?$AA@ 000000018004a538     libucrt:lcidtoname_downlevel.obj
 0002:00006548       ??_C@_1M@NMPCJPHE@?$AAi?$AAt?$AA?9?$AAc?$AAh?$AA?$AA@ 000000018004a548     libucrt:lcidtoname_downlevel.obj
 0002:00006558       ??_C@_1M@GHKGFEDF@?$AAi?$AAt?$AA?9?$AAi?$AAt?$AA?$AA@ 000000018004a558     libucrt:lcidtoname_downlevel.obj
 0002:00006568       ??_C@_1M@NIEJCJJA@?$AAj?$AAa?$AA?9?$AAj?$AAp?$AA?$AA@ 000000018004a568     libucrt:lcidtoname_downlevel.obj
 0002:00006578       ??_C@_1M@JILFNBIM@?$AAk?$AAa?$AA?9?$AAg?$AAe?$AA?$AA@ 000000018004a578     libucrt:lcidtoname_downlevel.obj
 0002:00006588       ??_C@_1M@PACPMGPH@?$AAk?$AAk?$AA?9?$AAk?$AAz?$AA?$AA@ 000000018004a588     libucrt:lcidtoname_downlevel.obj
 0002:00006598       ??_C@_1M@IELFGMHA@?$AAk?$AAn?$AA?9?$AAi?$AAn?$AA?$AA@ 000000018004a598     libucrt:lcidtoname_downlevel.obj
 0002:000065a8       ??_C@_1O@IBBJHCH@?$AAk?$AAo?$AAk?$AA?9?$AAi?$AAn?$AA?$AA@ 000000018004a5a8     libucrt:lcidtoname_downlevel.obj
 0002:000065b8       ??_C@_1M@DMHAEOGC@?$AAk?$AAo?$AA?9?$AAk?$AAr?$AA?$AA@ 000000018004a5b8     libucrt:lcidtoname_downlevel.obj
 0002:000065c8       ??_C@_1M@HBAHBIGA@?$AAk?$AAy?$AA?9?$AAk?$AAg?$AA?$AA@ 000000018004a5c8     libucrt:lcidtoname_downlevel.obj
 0002:000065d8       ??_C@_1M@KPMILCJG@?$AAl?$AAt?$AA?9?$AAl?$AAt?$AA?$AA@ 000000018004a5d8     libucrt:lcidtoname_downlevel.obj
 0002:000065e8       ??_C@_1M@BDEKKCA@?$AAl?$AAv?$AA?9?$AAl?$AAv?$AA?$AA@ 000000018004a5e8     libucrt:lcidtoname_downlevel.obj
 0002:000065f8       ??_C@_1M@ELCKCCJJ@?$AAm?$AAi?$AA?9?$AAn?$AAz?$AA?$AA@ 000000018004a5f8     libucrt:lcidtoname_downlevel.obj
 0002:00006608       ??_C@_1M@CBOOLAPA@?$AAm?$AAk?$AA?9?$AAm?$AAk?$AA?$AA@ 000000018004a608     libucrt:lcidtoname_downlevel.obj
 0002:00006618       ??_C@_1M@GPHNBJKN@?$AAm?$AAl?$AA?9?$AAi?$AAn?$AA?$AA@ 000000018004a618     libucrt:lcidtoname_downlevel.obj
 0002:00006628       ??_C@_1M@PABJILIG@?$AAm?$AAn?$AA?9?$AAm?$AAn?$AA?$AA@ 000000018004a628     libucrt:lcidtoname_downlevel.obj
 0002:00006638       ??_C@_1M@FGBKKIPG@?$AAm?$AAr?$AA?9?$AAi?$AAn?$AA?$AA@ 000000018004a638     libucrt:lcidtoname_downlevel.obj
 0002:00006648       ??_C@_1M@NDBPDDAL@?$AAm?$AAs?$AA?9?$AAb?$AAn?$AA?$AA@ 000000018004a648     libucrt:lcidtoname_downlevel.obj
 0002:00006658       ??_C@_1M@OPIHOOPI@?$AAm?$AAs?$AA?9?$AAm?$AAy?$AA?$AA@ 000000018004a658     libucrt:lcidtoname_downlevel.obj
 0002:00006668       ??_C@_1M@PPDBCNFM@?$AAm?$AAt?$AA?9?$AAm?$AAt?$AA?$AA@ 000000018004a668     libucrt:lcidtoname_downlevel.obj
 0002:00006678       ??_C@_1M@KDJDKMDD@?$AAn?$AAb?$AA?9?$AAn?$AAo?$AA?$AA@ 000000018004a678     libucrt:lcidtoname_downlevel.obj
 0002:00006688       ??_C@_1M@KFCFLMJP@?$AAn?$AAl?$AA?9?$AAb?$AAe?$AA?$AA@ 000000018004a688     libucrt:lcidtoname_downlevel.obj
 0002:00006698       ??_C@_1M@KPOPDDGO@?$AAn?$AAl?$AA?9?$AAn?$AAl?$AA?$AA@ 000000018004a698     libucrt:lcidtoname_downlevel.obj
 0002:000066a8       ??_C@_1M@LJKPEMLN@?$AAn?$AAn?$AA?9?$AAn?$AAo?$AA?$AA@ 000000018004a6a8     libucrt:lcidtoname_downlevel.obj
 0002:000066b8       ??_C@_1M@BDGHHBFL@?$AAn?$AAs?$AA?9?$AAz?$AAa?$AA?$AA@ 000000018004a6b8     libucrt:lcidtoname_downlevel.obj
 0002:000066c8       ??_C@_1M@IDEHOAP@?$AAp?$AAa?$AA?9?$AAi?$AAn?$AA?$AA@ 000000018004a6c8     libucrt:lcidtoname_downlevel.obj
 0002:000066d8       ??_C@_1M@HDBKGOGH@?$AAp?$AAl?$AA?9?$AAp?$AAl?$AA?$AA@ 000000018004a6d8     libucrt:lcidtoname_downlevel.obj
 0002:000066e8       ??_C@_1M@LJLLCMEH@?$AAp?$AAt?$AA?9?$AAb?$AAr?$AA?$AA@ 000000018004a6e8     libucrt:lcidtoname_downlevel.obj
 0002:000066f8       ??_C@_1M@NCMONAAL@?$AAp?$AAt?$AA?9?$AAp?$AAt?$AA?$AA@ 000000018004a6f8     libucrt:lcidtoname_downlevel.obj
 0002:00006708       ??_C@_1O@EAKMAJDN@?$AAq?$AAu?$AAz?$AA?9?$AAb?$AAo?$AA?$AA@ 000000018004a708     libucrt:lcidtoname_downlevel.obj
 0002:00006718       ??_C@_1O@BHHPIGDN@?$AAq?$AAu?$AAz?$AA?9?$AAe?$AAc?$AA?$AA@ 000000018004a718     libucrt:lcidtoname_downlevel.obj
 0002:00006728       ??_C@_1O@GBAPEKMJ@?$AAq?$AAu?$AAz?$AA?9?$AAp?$AAe?$AA?$AA@ 000000018004a728     libucrt:lcidtoname_downlevel.obj
 0002:00006738       ??_C@_1M@CLGLEFBO@?$AAr?$AAo?$AA?9?$AAr?$AAo?$AA?$AA@ 000000018004a738     libucrt:lcidtoname_downlevel.obj
 0002:00006748       ??_C@_1M@CEEDODME@?$AAr?$AAu?$AA?9?$AAr?$AAu?$AA?$AA@ 000000018004a748     libucrt:lcidtoname_downlevel.obj
 0002:00006758       ??_C@_1M@HPKKKMPP@?$AAs?$AAa?$AA?9?$AAi?$AAn?$AA?$AA@ 000000018004a758     libucrt:lcidtoname_downlevel.obj
 0002:00006768       ??_C@_1M@BKMAIGOJ@?$AAs?$AAe?$AA?9?$AAf?$AAi?$AA?$AA@ 000000018004a768     libucrt:lcidtoname_downlevel.obj
 0002:00006778       ??_C@_1M@NDPIFLFI@?$AAs?$AAe?$AA?9?$AAn?$AAo?$AA?$AA@ 000000018004a778     libucrt:lcidtoname_downlevel.obj
 0002:00006788       ??_C@_1M@DANKKHJ@?$AAs?$AAe?$AA?9?$AAs?$AAe?$AA?$AA@ 000000018004a788     libucrt:lcidtoname_downlevel.obj
 0002:00006798       ??_C@_1M@PNBLONPJ@?$AAs?$AAk?$AA?9?$AAs?$AAk?$AA?$AA@ 000000018004a798     libucrt:lcidtoname_downlevel.obj
 0002:000067a8       ??_C@_1M@LFMODOAL@?$AAs?$AAl?$AA?9?$AAs?$AAi?$AA?$AA@ 000000018004a7a8     libucrt:lcidtoname_downlevel.obj
 0002:000067b8       ??_C@_1O@DFKOMPG@?$AAs?$AAm?$AAa?$AA?9?$AAn?$AAo?$AA?$AA@ 000000018004a7b8     libucrt:lcidtoname_downlevel.obj
 0002:000067c8       ??_C@_1O@NDKPBNNH@?$AAs?$AAm?$AAa?$AA?9?$AAs?$AAe?$AA?$AA@ 000000018004a7c8     libucrt:lcidtoname_downlevel.obj
 0002:000067d8       ??_C@_1O@PLLKBHAB@?$AAs?$AAm?$AAj?$AA?9?$AAn?$AAo?$AA?$AA@ 000000018004a7d8     libucrt:lcidtoname_downlevel.obj
 0002:000067e8       ??_C@_1O@CLEPOGCA@?$AAs?$AAm?$AAj?$AA?9?$AAs?$AAe?$AA?$AA@ 000000018004a7e8     libucrt:lcidtoname_downlevel.obj
 0002:000067f8       ??_C@_1O@DLGJGKMK@?$AAs?$AAm?$AAn?$AA?9?$AAf?$AAi?$AA?$AA@ 000000018004a7f8     libucrt:lcidtoname_downlevel.obj
 0002:00006808       ??_C@_1O@OJDJGAJC@?$AAs?$AAm?$AAs?$AA?9?$AAf?$AAi?$AA?$AA@ 000000018004a808     libucrt:lcidtoname_downlevel.obj
 0002:00006818       ??_C@_1M@BOFOGHPB@?$AAs?$AAq?$AA?9?$AAa?$AAl?$AA?$AA@ 000000018004a818     libucrt:lcidtoname_downlevel.obj
 0002:00006828       ??_C@_1BG@LJBBIPGB@?$AAs?$AAr?$AA?9?$AAb?$AAa?$AA?9?$AAc?$AAy?$AAr?$AAl?$AA?$AA@ 000000018004a828     libucrt:lcidtoname_downlevel.obj
 0002:00006840       ??_C@_1BG@JLBENFOE@?$AAs?$AAr?$AA?9?$AAb?$AAa?$AA?9?$AAl?$AAa?$AAt?$AAn?$AA?$AA@ 000000018004a840     libucrt:lcidtoname_downlevel.obj
 0002:00006858       ??_C@_1BG@KODPNHE@?$AAs?$AAr?$AA?9?$AAs?$AAp?$AA?9?$AAc?$AAy?$AAr?$AAl?$AA?$AA@ 000000018004a858     libucrt:lcidtoname_downlevel.obj
 0002:00006870       ??_C@_1BG@CIOGKHPB@?$AAs?$AAr?$AA?9?$AAs?$AAp?$AA?9?$AAl?$AAa?$AAt?$AAn?$AA?$AA@ 000000018004a870     libucrt:lcidtoname_downlevel.obj
 0002:00006888       ??_C@_1M@NGFJLMAC@?$AAs?$AAv?$AA?9?$AAf?$AAi?$AA?$AA@ 000000018004a888     libucrt:lcidtoname_downlevel.obj
 0002:00006898       ??_C@_1M@MPJEJAJC@?$AAs?$AAv?$AA?9?$AAs?$AAe?$AA?$AA@ 000000018004a898     libucrt:lcidtoname_downlevel.obj
 0002:000068a8       ??_C@_1M@MPNDHLFK@?$AAs?$AAw?$AA?9?$AAk?$AAe?$AA?$AA@ 000000018004a8a8     libucrt:lcidtoname_downlevel.obj
 0002:000068b8       ??_C@_1O@KOHBJJI@?$AAs?$AAy?$AAr?$AA?9?$AAs?$AAy?$AA?$AA@ 000000018004a8b8     libucrt:lcidtoname_downlevel.obj
 0002:000068c8       ??_C@_1M@LDCEFHA@?$AAt?$AAa?$AA?9?$AAi?$AAn?$AA?$AA@ 000000018004a8c8     libucrt:lcidtoname_downlevel.obj
 0002:000068d8       ??_C@_1M@CNJOFAK@?$AAt?$AAe?$AA?9?$AAi?$AAn?$AA?$AA@ 000000018004a8d8     libucrt:lcidtoname_downlevel.obj
 0002:000068e8       ??_C@_1M@GNAECACD@?$AAt?$AAh?$AA?9?$AAt?$AAh?$AA?$AA@ 000000018004a8e8     libucrt:lcidtoname_downlevel.obj
 0002:000068f8       ??_C@_1M@CHBIHOJO@?$AAt?$AAn?$AA?9?$AAz?$AAa?$AA?$AA@ 000000018004a8f8     libucrt:lcidtoname_downlevel.obj
 0002:00006908       ??_C@_1M@GCCMIGPJ@?$AAt?$AAr?$AA?9?$AAt?$AAr?$AA?$AA@ 000000018004a908     libucrt:lcidtoname_downlevel.obj
 0002:00006918       ??_C@_1M@CELMCNBK@?$AAt?$AAt?$AA?9?$AAr?$AAu?$AA?$AA@ 000000018004a918     libucrt:lcidtoname_downlevel.obj
 0002:00006928       ??_C@_1M@KLMCELGA@?$AAu?$AAk?$AA?9?$AAu?$AAa?$AA?$AA@ 000000018004a928     libucrt:lcidtoname_downlevel.obj
 0002:00006938       ??_C@_1M@EPAJJAJF@?$AAu?$AAr?$AA?9?$AAp?$AAk?$AA?$AA@ 000000018004a938     libucrt:lcidtoname_downlevel.obj
 0002:00006948       ??_C@_1BG@GEGPMCDJ@?$AAu?$AAz?$AA?9?$AAu?$AAz?$AA?9?$AAc?$AAy?$AAr?$AAl?$AA?$AA@ 000000018004a948     libucrt:lcidtoname_downlevel.obj
 0002:00006960       ??_C@_1BG@EGGKJILM@?$AAu?$AAz?$AA?9?$AAu?$AAz?$AA?9?$AAl?$AAa?$AAt?$AAn?$AA?$AA@ 000000018004a960     libucrt:lcidtoname_downlevel.obj
 0002:00006978       ??_C@_1M@GFOCLFF@?$AAv?$AAi?$AA?9?$AAv?$AAn?$AA?$AA@ 000000018004a978     libucrt:lcidtoname_downlevel.obj
 0002:00006988       ??_C@_1M@CPAMEDFI@?$AAx?$AAh?$AA?9?$AAz?$AAa?$AA?$AA@ 000000018004a988     libucrt:lcidtoname_downlevel.obj
 0002:00006998       ??_C@_1O@EBKIFIGN@?$AAz?$AAh?$AA?9?$AAc?$AAh?$AAs?$AA?$AA@ 000000018004a998     libucrt:lcidtoname_downlevel.obj
 0002:000069a8       ??_C@_1O@NMHPGANE@?$AAz?$AAh?$AA?9?$AAc?$AAh?$AAt?$AA?$AA@ 000000018004a9a8     libucrt:lcidtoname_downlevel.obj
 0002:000069b8       ??_C@_1M@LPINJOMC@?$AAz?$AAh?$AA?9?$AAc?$AAn?$AA?$AA@ 000000018004a9b8     libucrt:lcidtoname_downlevel.obj
 0002:000069c8       ??_C@_1M@OCJEJODD@?$AAz?$AAh?$AA?9?$AAh?$AAk?$AA?$AA@ 000000018004a9c8     libucrt:lcidtoname_downlevel.obj
 0002:000069d8       ??_C@_1M@DNDLJINH@?$AAz?$AAh?$AA?9?$AAm?$AAo?$AA?$AA@ 000000018004a9d8     libucrt:lcidtoname_downlevel.obj
 0002:000069e8       ??_C@_1M@MBFDNDND@?$AAz?$AAh?$AA?9?$AAs?$AAg?$AA?$AA@ 000000018004a9e8     libucrt:lcidtoname_downlevel.obj
 0002:000069f8       ??_C@_1M@IMEPLEPE@?$AAz?$AAh?$AA?9?$AAt?$AAw?$AA?$AA@ 000000018004a9f8     libucrt:lcidtoname_downlevel.obj
 0002:00006a08       ??_C@_1M@BBGHNHJP@?$AAz?$AAu?$AA?9?$AAz?$AAa?$AA?$AA@ 000000018004aa08     libucrt:lcidtoname_downlevel.obj
 0002:00006c70       ??_C@_1BA@BALFACEM@?$AAC?$AAO?$AAN?$AAO?$AAU?$AAT?$AA$?$AA?$AA@ 000000018004ac70     libucrt:initcon.obj
 0002:00006c80       __log10_256_lead           000000018004ac80     libucrt:log10_256_lead_tail_table.obj
 0002:00007490       __log10_256_tail           000000018004b490     libucrt:log10_256_lead_tail_table.obj
 0002:00007ca0       __log_F_inv_qword          000000018004bca0     libucrt:log_f_inv_qword_table.obj
 0002:000084b0       ??_C@_05HGHHAHAP@log10?$AA@ 000000018004c4b0     libucrt:log_special.obj
 0002:000084d0       ??_C@_1DG@OKCGPKIB@?$AAp?$AAe?$AAr?$AAs?$AAi?$AAs?$AAt?$AAe?$AAn?$AAt?$AA?$CI?$AA?$CJ?$AA?4?$AAI?$AAs?$AAN?$AAe?$AAa?$AAr?$AAD?$AAe?$AAa?$AAt?$AAh?$AA?$CI?$AA?$CJ?$AA?$AA@ 000000018004c4d0     main.obj
 0002:00008508       ??_C@_1CO@EGNPJLKI@?$AAp?$AAe?$AAr?$AAs?$AAi?$AAs?$AAt?$AAe?$AAn?$AAt?$AA?$CI?$AA?$CJ?$AA?4?$AAI?$AAs?$AAE?$AAm?$AAp?$AAt?$AAy?$AA?$CI?$AA?$CJ?$AA?$AA@ 000000018004c508     main.obj
 0002:00008538       ??_C@_1DA@FBGAEOIO@?$AA?$CB?$AAp?$AAe?$AAr?$AAs?$AAi?$AAs?$AAt?$AAe?$AAn?$AAt?$AA?$CI?$AA?$CJ?$AA?4?$AAI?$AAs?$AAE?$AAm?$AAp?$AAt?$AAy?$AA?$CI?$AA?$CJ?$AA?$AA@ 000000018004c538     main.obj
 0002:00008568       ??_C@_1CO@JCKLEFMA@?$AA?$CB?$AAp?$AAe?$AAr?$AAs?$AAi?$AAs?$AAt?$AAe?$AAn?$AAt?$AA?$CI?$AA?$CJ?$AA?4?$AAI?$AAs?$AAW?$AAe?$AAa?$AAk?$AA?$CI?$AA?$CJ?$AA?$AA@ 000000018004c568     main.obj
 0002:00008598       ??_C@_1BE@GMLLOIPJ@?$AAr?$AAe?$AAf?$AAs?$AA_?$AA?5?$AA?$DO?$AA?5?$AA0?$AA?$AA@ 000000018004c598     main.obj
 0002:000085b0       ??_C@_1CC@GBFLAAPF@?$AAw?$AAr?$AAa?$AAp?$AA?9?$AA?$DO?$AAr?$AAe?$AAf?$AAs?$AA_?$AA?5?$AA?$DN?$AA?$DN?$AA?5?$AA0?$AA?$AA@ 000000018004c5b0     main.obj
 0002:000085d8       ??_C@_0BA@JFNIOLAK@string?5too?5long?$AA@ 000000018004c5d8     main.obj
 0002:000085f0       ??_C@_1GI@MBLPPIG@?$AAc?$AA?3?$AA?2?$AAp?$AAr?$AAo?$AAj?$AAe?$AAc?$AAt?$AAs?$AA?2?$AAa?$AAt?$AAo?$AAm?$AA?2?$AAn?$AAo?$AAd?$AAe?$AA_?$AAm?$AAo?$AAd?$AAu?$AAl?$AAe?$AAs?$AA?2?$AAn?$AAa@ 000000018004c5f0     main.obj
 0002:00008660       ??_C@_1EC@MGGLMBLC@?$AAo?$AAb?$AAj?$AAe?$AAc?$AAt?$AA?9?$AA?$DO?$AAI?$AAn?$AAt?$AAe?$AAr?$AAn?$AAa?$AAl?$AAF?$AAi?$AAe?$AAl?$AAd?$AAC?$AAo?$AAu?$AAn?$AAt?$AA?$CI?$AA?$CJ?$AA?5?$AA?$DO?$AA?5?$AA0@ 000000018004c660     main.obj
 0002:000086a8       ??_C@_1DI@ELDBKNAK@?$AAw?$AAr?$AAa?$AAp?$AA?9?$AA?$DO?$AAh?$AAa?$AAn?$AAd?$AAl?$AAe?$AA_?$AA?4?$AAI?$AAs?$AAN?$AAe?$AAa?$AAr?$AAD?$AAe?$AAa?$AAt?$AAh?$AA?$CI?$AA?$CJ?$AA?$AA@ 000000018004c6a8     main.obj
 0002:000086e0       ??_C@_0N@OFCOFIJG@Bad?5argument?$AA@ 000000018004c6e0     main.obj
 0002:000086f0       ??_C@_01LFCBOECM@?4?$AA@   000000018004c6f0     main.obj
 0002:000086f4       ??_C@_05FAGFPHJG@start?$AA@ 000000018004c6f4     main.obj
 0002:000086fc       ??_C@_03JBJLGPFL@end?$AA@  000000018004c6fc     main.obj
 0002:00008700       ??_C@_0N@OPCKJLBB@Spellchecker?$AA@ 000000018004c700     main.obj
 0002:00008710       ??_C@_0O@GBNBDHMO@setDictionary?$AA@ 000000018004c710     main.obj
 0002:00008720       ??_C@_0BJ@DHBHFHDL@getAvailableDictionaries?$AA@ 000000018004c720     main.obj
 0002:00008740       ??_C@_0BN@KAEFFPMB@getCorrectionsForMisspelling?$AA@ 000000018004c740     main.obj
 0002:00008760       ??_C@_0N@CHAIBDKD@isMisspelled?$AA@ 000000018004c760     main.obj
 0002:00008770       ??_C@_0O@OJOGEIJA@checkSpelling?$AA@ 000000018004c770     main.obj
 0002:00008780       ??_C@_03BDGOHNNK@add?$AA@  000000018004c780     main.obj
 0002:00008788       ??_C@_0P@KIADDMJD@?4?4?2src?2main?4cc?$AA@ 000000018004c788     main.obj
 0002:00008798       ??_C@_0N@FMFENAOE@spellchecker?$AA@ 000000018004c798     main.obj
 0002:000087a8       ??_C@_0BD@OLBABOEK@vector?$DMT?$DO?5too?5long?$AA@ 000000018004c7a8     main.obj
 0002:000087c0       ??_C@_0BI@CFPLBAOH@invalid?5string?5position?$AA@ 000000018004c7c0     main.obj
 0002:000087d8       ??_C@_1CE@LNAGEONJ@?$AA?$CB?$AAo?$AAb?$AAj?$AAe?$AAc?$AAt?$AA?4?$AAI?$AAs?$AAE?$AAm?$AAp?$AAt?$AAy?$AA?$CI?$AA?$CJ?$AA?$AA@ 000000018004c7d8     main.obj
 0002:00008800       ??_7Spellchecker@?A0x29701496@@6B@ 000000018004c800     main.obj
 0002:00008818       ??_7ObjectWrap@Nan@@6B@    000000018004c818     main.obj
 0002:00008830       ??_C@_04LLELHCFC@?4aff?$AA@ 000000018004c830     spellchecker_hunspell.obj
 0002:00008838       ??_C@_01KMDKNFGN@?1?$AA@   000000018004c838     spellchecker_hunspell.obj
 0002:0000883c       ??_C@_04PKLODBBI@?4dic?$AA@ 000000018004c83c     spellchecker_hunspell.obj
 0002:00008844       ??_C@_01KDCPPGHE@r?$AA@    000000018004c844     spellchecker_hunspell.obj
 0002:00008848       ??_7HunspellSpellchecker@spellchecker@@6B@ 000000018004c848     spellchecker_hunspell.obj
 0002:00008880       ??_7SpellcheckerImplementation@spellchecker@@6B@ 000000018004c880     spellchecker_hunspell.obj
 0002:000088b8       ??_C@_0BN@BAIIPJJD@SPELLCHECKER_PREFER_HUNSPELL?$AA@ 000000018004c8b8     spellchecker_win.obj
 0002:000088d8       CLSID_SpellCheckerFactory  000000018004c8d8     spellchecker_win.obj
 0002:000088e8       IID_ISpellCheckerFactory   000000018004c8e8     spellchecker_win.obj
 0002:000088f8       ??_7WindowsSpellchecker@spellchecker@@6B@ 000000018004c8f8     spellchecker_win.obj
 0002:00008930       ??_C@_02FCBLNKNB@ss?$AA@   000000018004c930     hunspell:hunspell.obj
 0002:00008938       ??_C@_07IPEFHOCE@?$DM?$DPxml?$DP?$DO?$AA@ 000000018004c938     hunspell:hunspell.obj
 0002:00008940       ??_C@_02PPNCLIJD@SS?$AA@   000000018004c940     hunspell:hunspell.obj
 0002:00008944       ??_C@_02GFIOJICB@?C?$JP?$AA@ 000000018004c944     hunspell:hunspell.obj
 0002:00008948       ??_C@_01JOAMLHOP@?9?$AA@   000000018004c948     hunspell:hunspell.obj
 0002:0000894c       ??_C@_01LIIGDENA@?$NP?$AA@ 000000018004c94c     hunspell:hunspell.obj
 0002:00008950       ??_C@_03NJDIPPBB@pa?3?$AA@ 000000018004c950     hunspell:hunspell.obj
 0002:00008954       ??_C@_03LGOGDKEL@?5?$HM?5?$AA@ 000000018004c954     hunspell:hunspell.obj
 0002:00008958       ??_C@_03BJOBEIMH@ds?3?$AA@ 000000018004c958     hunspell:hunspell.obj
 0002:0000895c       ??_C@_03OLILJABK@is?3?$AA@ 000000018004c95c     hunspell:hunspell.obj
 0002:00008960       ??_C@_06DLEJEKHG@?$CFc?$CFs?$CFs?$AA@ 000000018004c960     hunspell:hunspell.obj
 0002:00008968       ??_C@_04CDPLFOEF@?$CFc?$CFs?$AA@ 000000018004c968     hunspell:hunspell.obj
 0002:00008970       ??_C@_03NGGJJJLI@sp?3?$AA@ 000000018004c970     hunspell:hunspell.obj
 0002:00008974       ??_C@_03NBGADBGE@st?3?$AA@ 000000018004c974     hunspell:hunspell.obj
 0002:00008978       ??_C@_01EEMJAFIK@?6?$AA@   000000018004c978     hunspell:hunspell.obj
 0002:0000897c       ??_C@_01MIFGBAGJ@?$CL?$AA@ 000000018004c97c     hunspell:hunspell.obj
 0002:00008980       ??_C@_02CIKBGMLM@?9e?$AA@  000000018004c980     hunspell:hunspell.obj
 0002:00008984       ??_C@_01MNNFJEPP@?$DM?$AA@ 000000018004c984     hunspell:hunspell.obj
 0002:00008988       ??_C@_04GJOGLFEJ@?$CGlt?$DL?$AA@ 000000018004c988     hunspell:hunspell.obj
 0002:00008990       ??_C@_01HNPIGOCE@?$CG?$AA@ 000000018004c990     hunspell:hunspell.obj
 0002:00008994       ??_C@_05JKJFEODM@?$CGamp?$DL?$AA@ 000000018004c994     hunspell:hunspell.obj
 0002:0000899c       ??_C@_06FJGMCHMM@?$DMquery?$AA@ 000000018004c99c     hunspell:hunspell.obj
 0002:000089a4       ??_C@_05EDNGFAJN@?$DMword?$AA@ 000000018004c9a4     hunspell:hunspell.obj
 0002:000089b0       ??_C@_07JFKEGMMK@analyze?$AA@ 000000018004c9b0     hunspell:hunspell.obj
 0002:000089b8       ??_C@_05GFIHHCNM@type?$DN?$AA@ 000000018004c9b8     hunspell:hunspell.obj
 0002:000089c0       ??_C@_06CDMPAACN@?$DMcode?$DO?$AA@ 000000018004c9c0     hunspell:hunspell.obj
 0002:000089c8       ??_C@_03GMJGNNJA@?$DMa?$DO?$AA@ 000000018004c9c8     hunspell:hunspell.obj
 0002:000089cc       ??_C@_01CLKCMJKC@?5?$AA@   000000018004c9cc     hunspell:hunspell.obj
 0002:000089d0       ??_C@_01GPOEFGEJ@?7?$AA@   000000018004c9d0     hunspell:hunspell.obj
 0002:000089d4       ??_C@_04KNINFIGH@?$DM?1a?$DO?$AA@ 000000018004c9d4     hunspell:hunspell.obj
 0002:000089e0       ??_C@_07FPNFMAFL@?$DM?1code?$DO?$AA@ 000000018004c9e0     hunspell:hunspell.obj
 0002:000089e8       ??_C@_04PNLNLJBH@stem?$AA@ 000000018004c9e8     hunspell:hunspell.obj
 0002:000089f0       ??_C@_08HBLFHMBF@generate?$AA@ 000000018004c9f0     hunspell:hunspell.obj
 0002:000089fc       ??_C@_05NHAGIPFM@?$DMcode?$AA@ 000000018004c9fc     hunspell:hunspell.obj
 0002:00008a10       ??_C@_0FD@EEPPDLMD@UTF?98?5encoding?5error?4?5Unexpected@ 000000018004ca10     hunspell:csutil.obj
 0002:00008a70       ??_C@_0FA@FLAHNLML@UTF?98?5encoding?5error?4?5Missing?5co@ 000000018004ca70     hunspell:csutil.obj
 0002:00008ac0       ??_C@_0DB@DOKALABA@This?5UTF?98?5encoding?5can?8t?5conver@ 000000018004cac0     hunspell:csutil.obj
 0002:00008af4       ??_C@_02HAOIJKIC@?$CFc?$AA@ 000000018004caf4     hunspell:csutil.obj
 0002:00008af8       ??_C@_04HDOCAJNK@?$CFs?$CFs?$AA@ 000000018004caf8     hunspell:csutil.obj
 0002:00008b00       ??_C@_03EJPIBPFI@ts?3?$AA@ 000000018004cb00     hunspell:csutil.obj
 0002:00008b08       ??_C@_08OFHNNBGI@iso88591?$AA@ 000000018004cb08     hunspell:csutil.obj
 0002:00008b18       ??_C@_08MOFAICKL@iso88592?$AA@ 000000018004cb18     hunspell:csutil.obj
 0002:00008b28       ??_C@_08NHELLDOK@iso88593?$AA@ 000000018004cb28     hunspell:csutil.obj
 0002:00008b38       ??_C@_08JIAKCFCN@iso88594?$AA@ 000000018004cb38     hunspell:csutil.obj
 0002:00008b48       ??_C@_08IBBBBEGM@iso88595?$AA@ 000000018004cb48     hunspell:csutil.obj
 0002:00008b58       ??_C@_08KKDMEHKP@iso88596?$AA@ 000000018004cb58     hunspell:csutil.obj
 0002:00008b68       ??_C@_08LDCHHGOO@iso88597?$AA@ 000000018004cb68     hunspell:csutil.obj
 0002:00008b78       ??_C@_08DELPGKCB@iso88598?$AA@ 000000018004cb78     hunspell:csutil.obj
 0002:00008b88       ??_C@_08CNKEFLGA@iso88599?$AA@ 000000018004cb88     hunspell:csutil.obj
 0002:00008b98       ??_C@_09JMMKKCEI@iso885910?$AA@ 000000018004cb98     hunspell:csutil.obj
 0002:00008ba4       ??_C@_06MGNELAEE@tis620?$AA@ 000000018004cba4     hunspell:csutil.obj
 0002:00008bb0       ??_C@_0L@IICJILGI@tis6202533?$AA@ 000000018004cbb0     hunspell:csutil.obj
 0002:00008bc0       ??_C@_09IFNBJDAJ@iso885911?$AA@ 000000018004cbc0     hunspell:csutil.obj
 0002:00008bd0       ??_C@_09LHOHPBIL@iso885913?$AA@ 000000018004cbd0     hunspell:csutil.obj
 0002:00008be0       ??_C@_09PIKGGHEM@iso885914?$AA@ 000000018004cbe0     hunspell:csutil.obj
 0002:00008bf0       ??_C@_09OBLNFGAN@iso885915?$AA@ 000000018004cbf0     hunspell:csutil.obj
 0002:00008bfc       ??_C@_05EGDDFGIM@koi8r?$AA@ 000000018004cbfc     hunspell:csutil.obj
 0002:00008c04       ??_C@_05JHCMAEL@koi8u?$AA@ 000000018004cc04     hunspell:csutil.obj
 0002:00008c0c       ??_C@_06PBHBPKON@cp1251?$AA@ 000000018004cc0c     hunspell:csutil.obj
 0002:00008c18       ??_C@_0BA@LEHMGPJL@microsoftcp1251?$AA@ 000000018004cc18     hunspell:csutil.obj
 0002:00008c28       ??_C@_08FBMCKANJ@xisciias?$AA@ 000000018004cc28     hunspell:csutil.obj
 0002:00008c38       ??_C@_0BA@DHKGCHKD@isciidevanagari?$AA@ 000000018004cc38     hunspell:csutil.obj
 0002:00008c48       ??_C@_0DC@GDCCJAFK@error?3?5unknown?5encoding?5?$CFs?3?5usin@ 000000018004cc48     hunspell:csutil.obj
 0002:00008c7c       ??_C@_02FEKCJMIO@ar?$AA@   000000018004cc7c     hunspell:csutil.obj
 0002:00008c80       ??_C@_02JMHLBGIG@az?$AA@   000000018004cc80     hunspell:csutil.obj
 0002:00008c84       ??_C@_05JMJFDHBA@az_AZ?$AA@ 000000018004cc84     hunspell:csutil.obj
 0002:00008c8c       ??_C@_02GBFBMEMD@bg?$AA@   000000018004cc8c     hunspell:csutil.obj
 0002:00008c90       ??_C@_02DGMJAJHC@ca?$AA@   000000018004cc90     hunspell:csutil.obj
 0002:00008c94       ??_C@_02EODNHJKB@cs?$AA@   000000018004cc94     hunspell:csutil.obj
 0002:00008c98       ??_C@_02DDIGBPPH@da?$AA@   000000018004cc98     hunspell:csutil.obj
 0002:00008c9c       ??_C@_02FHOKNKPD@de?$AA@   000000018004cc9c     hunspell:csutil.obj
 0002:00008ca0       ??_C@_02IHOKALIN@el?$AA@   000000018004cca0     hunspell:csutil.obj
 0002:00008ca4       ??_C@_02LFNMGJAP@en?$AA@   000000018004cca4     hunspell:csutil.obj
 0002:00008ca8       ??_C@_02EKLAAFBD@es?$AA@   000000018004cca8     hunspell:csutil.obj
 0002:00008cac       ??_C@_02BMOKKCJF@eu?$AA@   000000018004ccac     hunspell:csutil.obj
 0002:00008cb0       ??_C@_02IEGONPOD@gl?$AA@   000000018004ccb0     hunspell:csutil.obj
 0002:00008cb4       ??_C@_02FBONIKAL@fr?$AA@   000000018004ccb4     hunspell:csutil.obj
 0002:00008cb8       ??_C@_02FLHDKHAB@hr?$AA@   000000018004ccb8     hunspell:csutil.obj
 0002:00008cbc       ??_C@_02BEDCDBMG@hu?$AA@   000000018004ccbc     hunspell:csutil.obj
 0002:00008cc0       ??_C@_05LBIDNGEJ@hu_HU?$AA@ 000000018004ccc0     hunspell:csutil.obj
 0002:00008cc8       ??_C@_02MOLGKLA@it?$AA@    000000018004ccc8     hunspell:csutil.obj
 0002:00008ccc       ??_C@_02DNJFEOEP@la?$AA@   000000018004cccc     hunspell:csutil.obj
 0002:00008cd0       ??_C@_02DIBGMKNJ@lv?$AA@   000000018004ccd0     hunspell:csutil.obj
 0002:00008cd4       ??_C@_02ILLPOEGM@nl?$AA@   000000018004ccd4     hunspell:csutil.obj
 0002:00008cd8       ??_C@_02JNAHGKBG@pl?$AA@   000000018004ccd8     hunspell:csutil.obj
 0002:00008cdc       ??_C@_02BPBMPCEP@pt?$AA@   000000018004ccdc     hunspell:csutil.obj
 0002:00008ce0       ??_C@_02CPGMCOJE@sv?$AA@   000000018004cce0     hunspell:csutil.obj
 0002:00008ce4       ??_C@_02EOEPPNBF@tr?$AA@   000000018004cce4     hunspell:csutil.obj
 0002:00008ce8       ??_C@_05CNMKAEGK@tr_TR?$AA@ 000000018004cce8     hunspell:csutil.obj
 0002:00008cf0       ??_C@_02FIDBHGA@ru?$AA@    000000018004ccf0     hunspell:csutil.obj
 0002:00008cf4       ??_C@_02NEINDODK@uk?$AA@   000000018004ccf4     hunspell:csutil.obj
 0002:00008cf8       ??_C@_03NGOJMEJO@ph?3?$AA@ 000000018004ccf8     hunspell:hashmgr.obj
 0002:00008cfc       ??_C@_03PKPBNCAL@?o?$LL?$LP?$AA@ 000000018004ccfc     hunspell:hashmgr.obj
 0002:00008d00       ??_C@_06LHGEHABH@?$CINULL?$CJ?$AA@ 000000018004cd00     hunspell:hashmgr.obj
 0002:00008d08       ??_C@_02DPKJAMEF@?$CFd?$AA@ 000000018004cd08     hunspell:hashmgr.obj
 0002:00008d10       ??_C@_0DC@GBGBFMCI@Error?5?9?5could?5not?5open?5affix?5des@ 000000018004cd10     hunspell:hashmgr.obj
 0002:00008d44       ??_C@_04PBMMHMLL@FLAG?$AA@ 000000018004cd44     hunspell:hashmgr.obj
 0002:00008d4c       ??_C@_04GOKPGOLB@long?$AA@ 000000018004cd4c     hunspell:hashmgr.obj
 0002:00008d54       ??_C@_03IHCLBPIC@num?$AA@  000000018004cd54     hunspell:hashmgr.obj
 0002:00008d58       ??_C@_05EGJIMALK@UTF?98?$AA@ 000000018004cd58     hunspell:hashmgr.obj
 0002:00008d60       ??_C@_0O@IOKILCIH@FORBIDDENWORD?$AA@ 000000018004cd60     hunspell:hashmgr.obj
 0002:00008d70       ??_C@_03KPIFFHNE@SET?$AA@  000000018004cd70     hunspell:hashmgr.obj
 0002:00008d74       ??_C@_04ECEKPLPK@LANG?$AA@ 000000018004cd74     hunspell:hashmgr.obj
 0002:00008d7c       ??_C@_06GHNPMFCC@IGNORE?$AA@ 000000018004cd7c     hunspell:hashmgr.obj
 0002:00008d84       ??_C@_02NHMFCJJJ@AF?$AA@   000000018004cd84     hunspell:hashmgr.obj
 0002:00008d88       ??_C@_02DEDBPAFC@AM?$AA@   000000018004cd88     hunspell:hashmgr.obj
 0002:00008d90       ??_C@_0BA@FLADCNFC@COMPLEXPREFIXES?$AA@ 000000018004cd90     hunspell:hashmgr.obj
 0002:00008da0       ??_C@_03BHGKGIB@SFX?$AA@   000000018004cda0     hunspell:hashmgr.obj
 0002:00008da4       ??_C@_03BDMDAJGP@PFX?$AA@  000000018004cda4     hunspell:hashmgr.obj
 0002:00008da8       ??_C@_09KEDHCKDI@ISO8859?91?$AA@ 000000018004cda8     hunspell:hashmgr.obj
 0002:00008db4       ??_C@_01IDAFKMJL@_?$AA@    000000018004cdb4     hunspell:replist.obj
 0002:00008db6       ??_C@_00CNPNBAHC@?$AA@     000000018004cdb6     hunspell:suggestmgr.obj
 0002:00008db8       ??_C@_03DJEFFMLI@al?3?$AA@ 000000018004cdb8     hunspell:suggestmgr.obj
 0002:00008dc0       ??_C@_0BN@NNBJIGA@Failure?5loading?5aff?5file?5?$CFs?6?$AA@ 000000018004cdc0     hunspell:affixmgr.obj
 0002:00008de0       ??_C@_0DB@PNJHIABK@error?3?5could?5not?5open?5affix?5desc@ 000000018004cde0     hunspell:affixmgr.obj
 0002:00008e14       ??_C@_03IPIGFGOJ@KEY?$AA@  000000018004ce14     hunspell:affixmgr.obj
 0002:00008e18       ??_C@_03JOJFKENF@TRY?$AA@  000000018004ce18     hunspell:affixmgr.obj
 0002:00008e20       ??_C@_0N@ECPCLNEK@COMPOUNDFLAG?$AA@ 000000018004ce20     hunspell:affixmgr.obj
 0002:00008e30       ??_C@_0O@EBMFGKAJ@COMPOUNDBEGIN?$AA@ 000000018004ce30     hunspell:affixmgr.obj
 0002:00008e40       ??_C@_0P@MDFHAAHP@COMPOUNDMIDDLE?$AA@ 000000018004ce40     hunspell:affixmgr.obj
 0002:00008e50       ??_C@_0M@MENLHNNP@COMPOUNDEND?$AA@ 000000018004ce50     hunspell:affixmgr.obj
 0002:00008e60       ??_C@_0BA@FGIKNKBH@COMPOUNDWORDMAX?$AA@ 000000018004ce60     hunspell:affixmgr.obj
 0002:00008e70       ??_C@_0N@KOFGEPHO@COMPOUNDROOT?$AA@ 000000018004ce70     hunspell:affixmgr.obj
 0002:00008e80       ??_C@_0BD@CJKDCLAB@COMPOUNDPERMITFLAG?$AA@ 000000018004ce80     hunspell:affixmgr.obj
 0002:00008e98       ??_C@_0BD@KCDEKFHH@COMPOUNDFORBIDFLAG?$AA@ 000000018004ce98     hunspell:affixmgr.obj
 0002:00008eb0       ??_C@_0BB@DNNBNILN@CHECKCOMPOUNDDUP?$AA@ 000000018004ceb0     hunspell:affixmgr.obj
 0002:00008ec8       ??_C@_0BB@FEIFHDIO@CHECKCOMPOUNDREP?$AA@ 000000018004cec8     hunspell:affixmgr.obj
 0002:00008ee0       ??_C@_0BE@FNBLFJOI@CHECKCOMPOUNDTRIPLE?$AA@ 000000018004cee0     hunspell:affixmgr.obj
 0002:00008ef8       ??_C@_0BB@NOKHNNAJ@SIMPLIFIEDTRIPLE?$AA@ 000000018004cef8     hunspell:affixmgr.obj
 0002:00008f10       ??_C@_0BC@FHPOAHCI@CHECKCOMPOUNDCASE?$AA@ 000000018004cf10     hunspell:affixmgr.obj
 0002:00008f28       ??_C@_09NDAAEAEC@NOSUGGEST?$AA@ 000000018004cf28     hunspell:affixmgr.obj
 0002:00008f38       ??_C@_0P@CLEDNPFG@NONGRAMSUGGEST?$AA@ 000000018004cf38     hunspell:affixmgr.obj
 0002:00008f48       ??_C@_0O@EDHKHHJK@LEMMA_PRESENT?$AA@ 000000018004cf48     hunspell:affixmgr.obj
 0002:00008f58       ??_C@_09DGFPGGGH@CIRCUMFIX?$AA@ 000000018004cf58     hunspell:affixmgr.obj
 0002:00008f68       ??_C@_0P@GBHPFHDD@ONLYINCOMPOUND?$AA@ 000000018004cf68     hunspell:affixmgr.obj
 0002:00008f78       ??_C@_0L@FNNJHKCI@PSEUDOROOT?$AA@ 000000018004cf78     hunspell:affixmgr.obj
 0002:00008f88       ??_C@_09HJNLGJOD@NEEDAFFIX?$AA@ 000000018004cf88     hunspell:affixmgr.obj
 0002:00008f98       ??_C@_0M@POMPKLDP@COMPOUNDMIN?$AA@ 000000018004cf98     hunspell:affixmgr.obj
 0002:00008fa8       ??_C@_0BB@POGLPBEA@COMPOUNDSYLLABLE?$AA@ 000000018004cfa8     hunspell:affixmgr.obj
 0002:00008fc0       ??_C@_0M@PKFNAMOA@SYLLABLENUM?$AA@ 000000018004cfc0     hunspell:affixmgr.obj
 0002:00008fd0       ??_C@_08OACGLEJC@CHECKNUM?$AA@ 000000018004cfd0     hunspell:affixmgr.obj
 0002:00008fe0       ??_C@_09NNJIMDOE@WORDCHARS?$AA@ 000000018004cfe0     hunspell:affixmgr.obj
 0002:00008fec       ??_C@_03HDFFPFLF@REP?$AA@  000000018004cfec     hunspell:affixmgr.obj
 0002:00008ff0       ??_C@_05CMKLDFBC@ICONV?$AA@ 000000018004cff0     hunspell:affixmgr.obj
 0002:00008ff8       ??_C@_05PKPCNGAP@OCONV?$AA@ 000000018004cff8     hunspell:affixmgr.obj
 0002:00009000       ??_C@_05BOENBGMC@PHONE?$AA@ 000000018004d000     hunspell:affixmgr.obj
 0002:00009008       ??_C@_0BF@DMKDNGML@CHECKCOMPOUNDPATTERN?$AA@ 000000018004d008     hunspell:affixmgr.obj
 0002:00009020       ??_C@_0N@MAGNGFMM@COMPOUNDRULE?$AA@ 000000018004d020     hunspell:affixmgr.obj
 0002:00009030       ??_C@_03HMCGBKKA@MAP?$AA@  000000018004d030     hunspell:affixmgr.obj
 0002:00009034       ??_C@_05IAGBLAKG@BREAK?$AA@ 000000018004d034     hunspell:affixmgr.obj
 0002:00009040       ??_C@_07NCHCCDCP@VERSION?$AA@ 000000018004d040     hunspell:affixmgr.obj
 0002:00009048       ??_C@_0N@HIILJKBG@MAXNGRAMSUGS?$AA@ 000000018004d048     hunspell:affixmgr.obj
 0002:00009058       ??_C@_0M@DBPGOAFP@ONLYMAXDIFF?$AA@ 000000018004d058     hunspell:affixmgr.obj
 0002:00009068       ??_C@_07LDLPPDDC@MAXDIFF?$AA@ 000000018004d068     hunspell:affixmgr.obj
 0002:00009070       ??_C@_0L@EGHLCOJB@MAXCPDSUGS?$AA@ 000000018004d070     hunspell:affixmgr.obj
 0002:00009080       ??_C@_0M@GHCELONK@NOSPLITSUGS?$AA@ 000000018004d080     hunspell:affixmgr.obj
 0002:00009090       ??_C@_09KJPABDJI@FULLSTRIP?$AA@ 000000018004d090     hunspell:affixmgr.obj
 0002:000090a0       ??_C@_0N@MNBEHADM@SUGSWITHDOTS?$AA@ 000000018004d0a0     hunspell:affixmgr.obj
 0002:000090b0       ??_C@_08OBPONOED@KEEPCASE?$AA@ 000000018004d0b0     hunspell:affixmgr.obj
 0002:000090c0       ??_C@_0L@KLPNJIJO@FORCEUCASE?$AA@ 000000018004d0c0     hunspell:affixmgr.obj
 0002:000090cc       ??_C@_04JBIELMDE@WARN?$AA@ 000000018004d0cc     hunspell:affixmgr.obj
 0002:000090d8       ??_C@_0L@BPCLKBPE@FORBIDWARN?$AA@ 000000018004d0d8     hunspell:affixmgr.obj
 0002:000090e8       ??_C@_0M@GEACDDMH@SUBSTANDARD?$AA@ 000000018004d0e8     hunspell:affixmgr.obj
 0002:000090f8       ??_C@_0M@EMKMGEHL@CHECKSHARPS?$AA@ 000000018004d0f8     hunspell:affixmgr.obj
 0002:00009104       ??_C@_02EGLGHPLI@?$FO?9?$AA@ 000000018004d104     hunspell:affixmgr.obj
 0002:00009108       ??_C@_02MBMDBCPI@?9$?$AA@  000000018004d108     hunspell:affixmgr.obj
 0002:0000910c       ??_C@_03KEJCGEAB@fl?3?$AA@ 000000018004d10c     hunspell:affixmgr.obj
 0002:00009110       ??_C@_08NFPIODIJ@?$CFc?$CFs?$CFs?$CFs?$AA@ 000000018004d110     hunspell:affixmgr.obj
 0002:00009120       ??_C@_0BN@DPANBNIL@qwertyuiop?$HMasdfghjkl?$HMzxcvbnm?$AA@ 000000018004d120     hunspell:affixmgr.obj
 0002:00009140       ??_C@_0L@HLLGMIBA@aeiouAEIOU?$AA@ 000000018004d140     hunspell:affixmgr.obj
 0002:00009150       ??_C@_0CF@OAPHLBEI@error?3?5line?5?$CFd?3?5affix?5?$CFs?5is?5corr@ 000000018004d150     hunspell:affixmgr.obj
 0002:00009178       ??_C@_01GBGANLPD@0?$AA@    000000018004d178     hunspell:affixmgr.obj
 0002:00009180       ??_C@_0CD@MHBOHPNC@error?3?5bad?5affix?5flag?5alias?3?5?$CC?$CFs@ 000000018004d180     hunspell:affixmgr.obj
 0002:000091a8       ??_C@_0CM@HCAAOIMI@error?3?5line?5?$CFd?3?5missing?5?$FN?5in?5con@ 000000018004d1a8     hunspell:affixmgr.obj
 0002:000091d8       ??_C@_0CN@JOKFNJDA@error?3?5line?3?5?$CFd?3?5missing?5?$FN?5in?5co@ 000000018004d1d8     hunspell:affixmgr.obj
 0002:00009208       ??_C@_03NECPDAK@?4hz?$AA@  000000018004d208     hunspell:filemgr.obj
 0002:00009210       ??_C@_0BI@CKHBECJD@error?3?5?$CFs?3?5cannot?5open?6?$AA@ 000000018004d210     hunspell:filemgr.obj
 0002:00009228       ??_C@_05LBKEJHLH@?$CI?9?$DM?$FO$?$AA@ 000000018004d228     hunspell:phonet.obj
 0002:00009230       ??_C@_02ECKEFFIN@?$FO?$FO?$AA@ 000000018004d230     hunspell:phonet.obj
 0002:00009234       ??_C@_02JDPG@rb?$AA@       000000018004d234     hunspell:hunzip.obj
 0002:00009238       ??_C@_03KGAJCEHK@hz0?$AA@  000000018004d238     hunspell:hunzip.obj
 0002:0000923c       ??_C@_03LPBCBFDL@hz1?$AA@  000000018004d23c     hunspell:hunzip.obj
 0002:00009240       ??_C@_0BP@DAEACJGO@error?3?5?$CFs?3?5not?5in?5hzip?5format?6?$AA@ 000000018004d240     hunspell:hunzip.obj
 0002:00009260       ??_C@_0CE@NCPPEKPN@error?3?5?$CFs?3?5missing?5or?5bad?5passwo@ 000000018004d260     hunspell:hunzip.obj
 0002:00009288       ??_C@_0BL@FJFIEOJK@error?3?5?$CFs?3?5missing?5memory?6?$AA@ 000000018004d288     hunspell:hunzip.obj
 0002:000092a8       __real@3ff0000000000000    000000018004d2a8     hunspell:suggestmgr.obj
 0002:000092b0       __real@4014000000000000    000000018004d2b0     hunspell:suggestmgr.obj
 0002:000092b8       __real@4024000000000000    000000018004d2b8     hunspell:suggestmgr.obj
 0002:000092c0       __xmm@00000003000000020000000100000000 000000018004d2c0     hunspell:suggestmgr.obj
 0002:000092d0       __xmm@ffffff9cffffff9cffffff9cffffff9c 000000018004d2d0     hunspell:suggestmgr.obj
 0002:00009340       _load_config_used          000000018004d340     LIBCMT:loadcfg.obj
 0002:000093d8       ??_R4exception@std@@6B@    000000018004d3d8     libcpmt:xthrow.obj
 0002:00009400       ??_R3exception@std@@8      000000018004d400     libcpmt:xthrow.obj
 0002:00009418       ??_R2exception@std@@8      000000018004d418     libcpmt:xthrow.obj
 0002:00009428       ??_R1A@?0A@EA@exception@std@@8 000000018004d428     libcpmt:xthrow.obj
 0002:00009450       ??_R4bad_alloc@std@@6B@    000000018004d450     libcpmt:xthrow.obj
 0002:00009478       ??_R3bad_alloc@std@@8      000000018004d478     libcpmt:xthrow.obj
 0002:00009490       ??_R2bad_alloc@std@@8      000000018004d490     libcpmt:xthrow.obj
 0002:000094a8       ??_R1A@?0A@EA@bad_alloc@std@@8 000000018004d4a8     libcpmt:xthrow.obj
 0002:000094d0       ??_R4logic_error@std@@6B@  000000018004d4d0     libcpmt:xthrow.obj
 0002:000094f8       ??_R3logic_error@std@@8    000000018004d4f8     libcpmt:xthrow.obj
 0002:00009510       ??_R2logic_error@std@@8    000000018004d510     libcpmt:xthrow.obj
 0002:00009528       ??_R1A@?0A@EA@logic_error@std@@8 000000018004d528     libcpmt:xthrow.obj
 0002:00009550       ??_R4length_error@std@@6B@ 000000018004d550     libcpmt:xthrow.obj
 0002:00009578       ??_R3length_error@std@@8   000000018004d578     libcpmt:xthrow.obj
 0002:00009590       ??_R2length_error@std@@8   000000018004d590     libcpmt:xthrow.obj
 0002:000095b0       ??_R1A@?0A@EA@length_error@std@@8 000000018004d5b0     libcpmt:xthrow.obj
 0002:000095d8       ??_R4out_of_range@std@@6B@ 000000018004d5d8     libcpmt:xthrow.obj
 0002:00009600       ??_R3out_of_range@std@@8   000000018004d600     libcpmt:xthrow.obj
 0002:00009618       ??_R2out_of_range@std@@8   000000018004d618     libcpmt:xthrow.obj
 0002:00009638       ??_R1A@?0A@EA@out_of_range@std@@8 000000018004d638     libcpmt:xthrow.obj
 0002:00009660       ??_R4type_info@@6B@        000000018004d660     LIBCMT:std_type_info_static.obj
 0002:00009688       ??_R3type_info@@8          000000018004d688     LIBCMT:std_type_info_static.obj
 0002:000096a0       ??_R2type_info@@8          000000018004d6a0     LIBCMT:std_type_info_static.obj
 0002:000096b0       ??_R1A@?0A@EA@type_info@@8 000000018004d6b0     LIBCMT:std_type_info_static.obj
 0002:000096d8       ??_R4bad_array_new_length@std@@6B@ 000000018004d6d8     LIBCMT:throw_bad_alloc.obj
 0002:00009700       ??_R3bad_array_new_length@std@@8 000000018004d700     LIBCMT:throw_bad_alloc.obj
 0002:00009718       ??_R2bad_array_new_length@std@@8 000000018004d718     LIBCMT:throw_bad_alloc.obj
 0002:00009738       ??_R1A@?0A@EA@bad_array_new_length@std@@8 000000018004d738     LIBCMT:throw_bad_alloc.obj
 0002:00009ac8       __rtc_iaa                  000000018004dac8     LIBCMT:_initsect_.obj
 0002:00009ad0       __rtc_izz                  000000018004dad0     LIBCMT:_initsect_.obj
 0002:00009ad8       __rtc_taa                  000000018004dad8     LIBCMT:_initsect_.obj
 0002:00009ae0       __rtc_tzz                  000000018004dae0     LIBCMT:_initsect_.obj
 0002:0000d4b0       _TI2?AVbad_alloc@std@@     00000001800514b0     libcpmt:xthrow.obj
 0002:0000d4d0       _CTA2?AVbad_alloc@std@@    00000001800514d0     libcpmt:xthrow.obj
 0002:0000d4e8       _CT??_R0?AVbad_alloc@std@@@8??0bad_alloc@std@@QEAA@AEBV01@@Z24 00000001800514e8     libcpmt:xthrow.obj
 0002:0000d510       _CT??_R0?AVexception@std@@@8??0exception@std@@QEAA@AEBV01@@Z24 0000000180051510     libcpmt:xthrow.obj
 0002:0000d538       _CT??_R0?AVlogic_error@std@@@8??0logic_error@std@@QEAA@AEBV01@@Z24 0000000180051538     libcpmt:xthrow.obj
 0002:0000d560       _TI3?AVlength_error@std@@  0000000180051560     libcpmt:xthrow.obj
 0002:0000d580       _CTA3?AVlength_error@std@@ 0000000180051580     libcpmt:xthrow.obj
 0002:0000d5a0       _CT??_R0?AVlength_error@std@@@8??0length_error@std@@QEAA@AEBV01@@Z24 00000001800515a0     libcpmt:xthrow.obj
 0002:0000d5c8       _TI3?AVout_of_range@std@@  00000001800515c8     libcpmt:xthrow.obj
 0002:0000d5e8       _CTA3?AVout_of_range@std@@ 00000001800515e8     libcpmt:xthrow.obj
 0002:0000d608       _CT??_R0?AVout_of_range@std@@@8??0out_of_range@std@@QEAA@AEBV01@@Z24 0000000180051608     libcpmt:xthrow.obj
 0002:0000d630       _TI3?AVbad_array_new_length@std@@ 0000000180051630     LIBCMT:throw_bad_alloc.obj
 0002:0000d650       _CTA3?AVbad_array_new_length@std@@ 0000000180051650     LIBCMT:throw_bad_alloc.obj
 0002:0000d670       _CT??_R0?AVbad_array_new_length@std@@@8??0bad_array_new_length@std@@QEAA@AEBV01@@Z24 0000000180051670     LIBCMT:throw_bad_alloc.obj
 0002:0000d6fc       __IMPORT_DESCRIPTOR_KERNEL32 00000001800516fc     kernel32:KERNEL32.dll
 0002:0000d710       __IMPORT_DESCRIPTOR_ole32  0000000180051710     ole32:ole32.dll
 0002:0000d724       __IMPORT_DESCRIPTOR_node   0000000180051724     iojs:node.dll
 0002:0000d738       __NULL_IMPORT_DESCRIPTOR   0000000180051738     kernel32:KERNEL32.dll
 0003:00000000       __security_cookie          0000000180053000     LIBCMT:gs_cookie.obj
 0003:00000008       __security_cookie_complement 0000000180053008     LIBCMT:gs_cookie.obj
 0003:00000010       __scrt_native_dllmain_reason 0000000180053010     LIBCMT:utility.obj
 0003:00000018       __isa_available            0000000180053018     LIBCMT:_cpu_disp_.obj
 0003:0000001c       __isa_enabled              000000018005301c     LIBCMT:_cpu_disp_.obj
 0003:00000020       __memcpy_nt_iters          0000000180053020     LIBCMT:_cpu_disp_.obj
 0003:00000040       _iob                       0000000180053040     libucrt:_file.obj
 0003:00000148       __abort_behavior           0000000180053148     libucrt:abort.obj
 0003:00000160       __acrt_initial_locale_data 0000000180053160     libucrt:nlsdata.obj
 0003:000002b8       __acrt_initial_locale_pointers 00000001800532b8     libucrt:nlsdata.obj
 0003:000002c8       __acrt_wide_c_locale_string 00000001800532c8     libucrt:nlsdata.obj
 0003:000002d0       __badioinfo                00000001800532d0     libucrt:ioinit.obj
 0003:00000310       _pwctype                   0000000180053310     libucrt:ctype.obj
 0003:00000320       _lookuptrailbytes          0000000180053320     libucrt:read.obj
 0003:00000420       __acrt_initial_multibyte_data 0000000180053420     libucrt:mbctype.obj
 0003:00000648       __acrt_current_multibyte_data 0000000180053648     libucrt:mbctype.obj
 0003:00000750       _mbctype                   0000000180053750     libucrt:mbctype.obj
 0003:00000860       _mbcasemap                 0000000180053860     libucrt:mbctype.obj
 0003:00000960       __globallocalestatus       0000000180053960     libucrt:glstatus.obj
 0003:00000970       __acrt_lconv_c             0000000180053970     libucrt:localeconv.obj
 0003:00000a08       __acrt_lconv_static_decimal 0000000180053a08     libucrt:localeconv.obj
 0003:00000a0c       __acrt_lconv_static_W_decimal 0000000180053a0c     libucrt:localeconv.obj
 0003:00000a10       __dcrt_lowio_console_output_handle 0000000180053a10     libucrt:initcon.obj
 0003:00000a30       _fltused                   0000000180053a30     LIBCMT:fltused.obj
 0003:000210b0       ??_R0?AVbad_alloc@std@@@8  00000001800740b0     libcpmt:xthrow.obj
 0003:000210d8       ??_R0?AVexception@std@@@8  00000001800740d8     libcpmt:xthrow.obj
 0003:00021100       ??_R0?AVlogic_error@std@@@8 0000000180074100     libcpmt:xthrow.obj
 0003:00021128       ??_R0?AVlength_error@std@@@8 0000000180074128     libcpmt:xthrow.obj
 0003:00021150       ??_R0?AVout_of_range@std@@@8 0000000180074150     libcpmt:xthrow.obj
 0003:00021178       ??_R0?AVtype_info@@@8      0000000180074178     LIBCMT:std_type_info_static.obj
 0003:00021198       ??_R0?AVbad_array_new_length@std@@@8 0000000180074198     LIBCMT:throw_bad_alloc.obj
 0003:00021750       __scrt_current_native_startup_state 0000000180074750     LIBCMT:utility.obj
 0003:00021758       __scrt_native_startup_lock 0000000180074758     LIBCMT:utility.obj
 0003:000217a0       ?__type_info_root_node@@3U__type_info_node@@A 00000001800747a0     LIBCMT:tncleanup.obj
 0003:000217b0       ?_OptionsStorage@?1??__local_stdio_scanf_options@@9@4_KA 00000001800747b0     LIBCMT:default_local_stdio_options.obj
 0003:000217b8       __scrt_debugger_hook_flag  00000001800747b8     LIBCMT:utility_desktop.obj
 0003:000217bc       __favor                    00000001800747bc     LIBCMT:_cpu_disp_.obj
 0003:000217c0       __pPurecall                00000001800747c0     libvcruntime:purevirt_data.obj
 0003:000218e8       ?pArgList@UnDecorator@@0PEAVReplicator@@EA 00000001800748e8     libvcruntime:undname.obj
 0003:000218f0       ?pZNameList@UnDecorator@@0PEAVReplicator@@EA 00000001800748f0     libvcruntime:undname.obj
 0003:000218f8       ?pTemplateArgList@UnDecorator@@0PEAVReplicator@@EA 00000001800748f8     libvcruntime:undname.obj
 0003:00021900       ?gName@UnDecorator@@0PEBDEB 0000000180074900     libvcruntime:undname.obj
 0003:00021908       ?name@UnDecorator@@0PEBDEB 0000000180074908     libvcruntime:undname.obj
 0003:00021910       ?outputString@UnDecorator@@0PEADEA 0000000180074910     libvcruntime:undname.obj
 0003:00021918       ?maxStringLength@UnDecorator@@0HA 0000000180074918     libvcruntime:undname.obj
 0003:0002191c       ?disableFlags@UnDecorator@@0KA 000000018007491c     libvcruntime:undname.obj
 0003:00021920       ?fExplicitTemplateParams@UnDecorator@@0_NA 0000000180074920     libvcruntime:undname.obj
 0003:00021921       ?fGetTemplateArgumentList@UnDecorator@@0_NA 0000000180074921     libvcruntime:undname.obj
 0003:00021928       ?m_pGetParameter@UnDecorator@@0P6APEADJ@ZEA 0000000180074928     libvcruntime:undname.obj
 0003:00021960       _nstream                   0000000180074960     libucrt:_file.obj
 0003:00021968       __piob                     0000000180074968     libucrt:_file.obj
 0003:00021970       _cflush                    0000000180074970     libucrt:_file.obj
 0003:00021ab8       _environ_table             0000000180074ab8     libucrt:environment_initialization.obj
 0003:00021ac0       _wenviron_table            0000000180074ac0     libucrt:environment_initialization.obj
 0003:00021ac8       __dcrt_initial_wide_environment 0000000180074ac8     libucrt:environment_initialization.obj
 0003:00021ad0       __dcrt_initial_narrow_environment 0000000180074ad0     libucrt:environment_initialization.obj
 0003:00021ad8       __acrt_atexit_table        0000000180074ad8     libucrt:onexit.obj
 0003:00021af0       __acrt_at_quick_exit_table 0000000180074af0     libucrt:onexit.obj
 0003:00021b30       __acrt_locale_changed_data 0000000180074b30     libucrt:wsetlocale.obj
 0003:00021b38       __acrt_current_locale_data 0000000180074b38     libucrt:nlsdata.obj
 0003:00021d58       __acrt_stdout_buffer       0000000180074d58     libucrt:_sftbuf.obj
 0003:00021d60       __acrt_stderr_buffer       0000000180074d60     libucrt:_sftbuf.obj
 0003:00021d70       __pioinfo                  0000000180074d70     libucrt:ioinit.obj
 0003:00022170       _nhandle                   0000000180075170     libucrt:ioinit.obj
 0003:00022324       __mbcodepage               0000000180075324     libucrt:mbctype.obj
 0003:00022328       __ismbcodepage             0000000180075328     libucrt:mbctype.obj
 0003:00022330       __mbulinfo                 0000000180075330     libucrt:mbctype.obj
 0003:00022340       __mblocalename             0000000180075340     libucrt:mbctype.obj
 0003:0002234c       __argc                     000000018007534c     libucrt:argv_data.obj
 0003:00022350       __argv                     0000000180075350     libucrt:argv_data.obj
 0003:00022358       __wargv                    0000000180075358     libucrt:argv_data.obj
 0003:00022360       _acmdln                    0000000180075360     libucrt:argv_data.obj
 0003:00022368       _wcmdln                    0000000180075368     libucrt:argv_data.obj
 0003:00022370       _pgmptr                    0000000180075370     libucrt:argv_data.obj
 0003:00022378       __acrt_heap                0000000180075378     libucrt:heap_handle.obj
 0003:0002238c       _commode                   000000018007538c     libucrt:ncommode.obj
 0003:00022390       __acrt_lconv_static_null   0000000180075390     libucrt:localeconv.obj
 0003:00022394       __acrt_lconv_static_W_null 0000000180075394     libucrt:localeconv.obj
 0003:00022398       _umaskval                  0000000180075398     libucrt:umask.obj
 0003:0002239c       _fmode                     000000018007539c     libucrt:txtmode.obj
 0003:000223a0       __fma3_is_available        00000001800753a0     libucrt:fma3_available.obj
 0003:000223a4       __use_fma3_lib             00000001800753a4     libucrt:fma3_available.obj
 0003:000223a8       ?g_COMRefcount@spellchecker@@3JA 00000001800753a8     spellchecker_win.obj
 0003:000223ac       ?g_COMFailed@spellchecker@@3_NA 00000001800753ac     spellchecker_win.obj
 0003:000223c0       ?_OptionsStorage@?1??__local_stdio_printf_options@@9@4_KA 00000001800753c0     hunspell:hunspell.obj
 0003:000223c8       __scrt_ucrt_dll_is_in_use  00000001800753c8     <common>
 0003:000223d0       __dyn_tls_init_callback    00000001800753d0     <common>
 0003:000223d8       _pDestructExceptionObject  00000001800753d8     <common>

 entry point at        0001:0002b70c

 Static symbols

 0000:fff84000       .debug$S                   0000000180000000     kernel32:KERNEL32.dll
 0000:fff84000       .debug$S                   0000000180000000     spellchecker.exp
 0000:fff84000       .debug$S                   0000000180000000     kernel32:KERNEL32.dll
 0000:fff84000       .debug$S                   0000000180000000     kernel32:KERNEL32.dll
 0000:fff84000       .debug$S                   0000000180000000     kernel32:KERNEL32.dll
 0000:fff84000       .debug$S                   0000000180000000     kernel32:KERNEL32.dll
 0000:fff84000       .debug$S                   0000000180000000     kernel32:KERNEL32.dll
 0000:fff84000       .debug$S                   0000000180000000     kernel32:KERNEL32.dll
 0000:fff84000       .debug$S                   0000000180000000     kernel32:KERNEL32.dll
 0000:fff84000       .debug$S                   0000000180000000     kernel32:KERNEL32.dll
 0000:fff84000       .debug$S                   0000000180000000     kernel32:KERNEL32.dll
 0000:fff84000       .debug$S                   0000000180000000     kernel32:KERNEL32.dll
 0000:fff84000       .debug$S                   0000000180000000     kernel32:KERNEL32.dll
 0000:fff84000       .debug$S                   0000000180000000     kernel32:KERNEL32.dll
 0000:fff84000       .debug$S                   0000000180000000     kernel32:KERNEL32.dll
 0000:fff84000       .debug$S                   0000000180000000     kernel32:KERNEL32.dll
 0000:fff84000       .debug$S                   0000000180000000     kernel32:KERNEL32.dll
 0000:fff84000       .debug$S                   0000000180000000     kernel32:KERNEL32.dll
 0000:fff84000       .debug$S                   0000000180000000     kernel32:KERNEL32.dll
 0000:fff84000       .debug$S                   0000000180000000     kernel32:KERNEL32.dll
 0000:fff84000       .debug$S                   0000000180000000     kernel32:KERNEL32.dll
 0000:fff84000       .debug$S                   0000000180000000     kernel32:KERNEL32.dll
 0000:fff84000       .debug$S                   0000000180000000     kernel32:KERNEL32.dll
 0000:fff84000       .debug$S                   0000000180000000     kernel32:KERNEL32.dll
 0000:fff84000       .debug$S                   0000000180000000     kernel32:KERNEL32.dll
 0000:fff84000       .debug$S                   0000000180000000     kernel32:KERNEL32.dll
 0000:fff84000       .debug$S                   0000000180000000     kernel32:KERNEL32.dll
 0000:fff84000       .debug$S                   0000000180000000     kernel32:KERNEL32.dll
 0000:fff84000       .debug$S                   0000000180000000     kernel32:KERNEL32.dll
 0000:fff84000       .debug$S                   0000000180000000     kernel32:KERNEL32.dll
 0000:fff84000       .debug$S                   0000000180000000     kernel32:KERNEL32.dll
 0000:fff84000       .debug$S                   0000000180000000     kernel32:KERNEL32.dll
 0000:fff84000       .debug$S                   0000000180000000     kernel32:KERNEL32.dll
 0000:fff84000       .debug$S                   0000000180000000     kernel32:KERNEL32.dll
 0000:fff84000       .debug$S                   0000000180000000     kernel32:KERNEL32.dll
 0000:fff84000       .debug$S                   0000000180000000     kernel32:KERNEL32.dll
 0000:fff84000       .debug$S                   0000000180000000     kernel32:KERNEL32.dll
 0000:fff84000       .debug$S                   0000000180000000     kernel32:KERNEL32.dll
 0000:fff84000       .debug$S                   0000000180000000     kernel32:KERNEL32.dll
 0000:fff84000       .debug$S                   0000000180000000     kernel32:KERNEL32.dll
 0000:fff84000       .debug$S                   0000000180000000     kernel32:KERNEL32.dll
 0000:fff84000       .debug$S                   0000000180000000     kernel32:KERNEL32.dll
 0000:fff84000       .debug$S                   0000000180000000     kernel32:KERNEL32.dll
 0000:fff84000       .debug$S                   0000000180000000     kernel32:KERNEL32.dll
 0000:fff84000       .debug$S                   0000000180000000     kernel32:KERNEL32.dll
 0000:fff84000       .debug$S                   0000000180000000     kernel32:KERNEL32.dll
 0000:fff84000       .debug$S                   0000000180000000     kernel32:KERNEL32.dll
 0000:fff84000       .debug$S                   0000000180000000     kernel32:KERNEL32.dll
 0000:fff84000       .debug$S                   0000000180000000     kernel32:KERNEL32.dll
 0000:fff84000       .debug$S                   0000000180000000     kernel32:KERNEL32.dll
 0000:fff84000       .debug$S                   0000000180000000     kernel32:KERNEL32.dll
 0000:fff84000       .debug$S                   0000000180000000     kernel32:KERNEL32.dll
 0000:fff84000       .debug$S                   0000000180000000     kernel32:KERNEL32.dll
 0000:fff84000       .debug$S                   0000000180000000     kernel32:KERNEL32.dll
 0000:fff84000       .debug$S                   0000000180000000     kernel32:KERNEL32.dll
 0000:fff84000       .debug$S                   0000000180000000     kernel32:KERNEL32.dll
 0000:fff84000       .debug$S                   0000000180000000     kernel32:KERNEL32.dll
 0000:fff84000       .debug$S                   0000000180000000     kernel32:KERNEL32.dll
 0000:fff84000       .debug$S                   0000000180000000     kernel32:KERNEL32.dll
 0000:fff84000       .debug$S                   0000000180000000     kernel32:KERNEL32.dll
 0000:fff84000       .debug$S                   0000000180000000     kernel32:KERNEL32.dll
 0000:fff84000       .debug$S                   0000000180000000     kernel32:KERNEL32.dll
 0000:fff84000       .debug$S                   0000000180000000     kernel32:KERNEL32.dll
 0000:fff84000       .debug$S                   0000000180000000     kernel32:KERNEL32.dll
 0000:fff84000       .debug$S                   0000000180000000     kernel32:KERNEL32.dll
 0000:fff84000       .debug$S                   0000000180000000     kernel32:KERNEL32.dll
 0000:fff84000       .debug$S                   0000000180000000     kernel32:KERNEL32.dll
 0000:fff84000       .debug$S                   0000000180000000     kernel32:KERNEL32.dll
 0000:fff84000       .debug$S                   0000000180000000     kernel32:KERNEL32.dll
 0000:fff84000       .debug$S                   0000000180000000     kernel32:KERNEL32.dll
 0000:fff84000       .debug$S                   0000000180000000     kernel32:KERNEL32.dll
 0000:fff84000       .debug$S                   0000000180000000     kernel32:KERNEL32.dll
 0000:fff84000       .debug$S                   0000000180000000     kernel32:KERNEL32.dll
 0000:fff84000       .debug$S                   0000000180000000     kernel32:KERNEL32.dll
 0000:fff84000       .debug$S                   0000000180000000     kernel32:KERNEL32.dll
 0000:fff84000       .debug$S                   0000000180000000     kernel32:KERNEL32.dll
 0000:fff84000       .debug$S                   0000000180000000     kernel32:KERNEL32.dll
 0000:fff84000       .debug$S                   0000000180000000     kernel32:KERNEL32.dll
 0000:fff84000       .debug$S                   0000000180000000     kernel32:KERNEL32.dll
 0000:fff84000       .debug$S                   0000000180000000     kernel32:KERNEL32.dll
 0000:fff84000       .debug$S                   0000000180000000     kernel32:KERNEL32.dll
 0000:fff84000       .debug$S                   0000000180000000     kernel32:KERNEL32.dll
 0000:fff84000       .debug$S                   0000000180000000     kernel32:KERNEL32.dll
 0000:fff84000       .debug$S                   0000000180000000     kernel32:KERNEL32.dll
 0000:fff84000       .debug$S                   0000000180000000     kernel32:KERNEL32.dll
 0000:fff84000       .debug$S                   0000000180000000     kernel32:KERNEL32.dll
 0000:fff84000       .debug$S                   0000000180000000     kernel32:KERNEL32.dll
 0000:fff84000       .debug$S                   0000000180000000     kernel32:KERNEL32.dll
 0000:fff84000       .debug$S                   0000000180000000     kernel32:KERNEL32.dll
 0000:fff84000       .debug$S                   0000000180000000     kernel32:KERNEL32.dll
 0000:fff84000       .debug$S                   0000000180000000     kernel32:KERNEL32.dll
 0000:fff84000       .debug$S                   0000000180000000     kernel32:KERNEL32.dll
 0000:fff84000       .debug$S                   0000000180000000     ole32:ole32.dll
 0000:fff84000       .debug$S                   0000000180000000     ole32:ole32.dll
 0000:fff84000       .debug$S                   0000000180000000     ole32:ole32.dll
 0000:fff84000       .debug$S                   0000000180000000     ole32:ole32.dll
 0000:fff84000       .debug$S                   0000000180000000     iojs:node.dll
 0000:fff84000       .debug$S                   0000000180000000     iojs:node.dll
 0000:fff84000       .debug$S                   0000000180000000     iojs:node.dll
 0000:fff84000       .debug$S                   0000000180000000     iojs:node.dll
 0000:fff84000       .debug$S                   0000000180000000     iojs:node.dll
 0000:fff84000       .debug$S                   0000000180000000     iojs:node.dll
 0000:fff84000       .debug$S                   0000000180000000     iojs:node.dll
 0000:fff84000       .debug$S                   0000000180000000     iojs:node.dll
 0000:fff84000       .debug$S                   0000000180000000     iojs:node.dll
 0000:fff84000       .debug$S                   0000000180000000     iojs:node.dll
 0000:fff84000       .debug$S                   0000000180000000     iojs:node.dll
 0000:fff84000       .debug$S                   0000000180000000     iojs:node.dll
 0000:fff84000       .debug$S                   0000000180000000     iojs:node.dll
 0000:fff84000       .debug$S                   0000000180000000     iojs:node.dll
 0000:fff84000       .debug$S                   0000000180000000     iojs:node.dll
 0000:fff84000       .debug$S                   0000000180000000     iojs:node.dll
 0000:fff84000       .debug$S                   0000000180000000     iojs:node.dll
 0000:fff84000       .debug$S                   0000000180000000     iojs:node.dll
 0000:fff84000       .debug$S                   0000000180000000     iojs:node.dll
 0000:fff84000       .debug$S                   0000000180000000     iojs:node.dll
 0000:fff84000       .debug$S                   0000000180000000     iojs:node.dll
 0000:fff84000       .debug$S                   0000000180000000     iojs:node.dll
 0000:fff84000       .debug$S                   0000000180000000     iojs:node.dll
 0000:fff84000       .debug$S                   0000000180000000     iojs:node.dll
 0000:fff84000       .debug$S                   0000000180000000     iojs:node.dll
 0000:fff84000       .debug$S                   0000000180000000     iojs:node.dll
 0000:fff84000       .debug$S                   0000000180000000     iojs:node.dll
 0000:fff84000       .debug$S                   0000000180000000     iojs:node.dll
 0000:fff84000       .debug$S                   0000000180000000     iojs:node.dll
 0000:fff84000       .debug$S                   0000000180000000     iojs:node.dll
 0000:fff84000       .debug$S                   0000000180000000     iojs:node.dll
 0000:fff84000       .debug$S                   0000000180000000     iojs:node.dll
 0000:fff84000       .debug$S                   0000000180000000     iojs:node.dll
 0000:fff84000       .debug$S                   0000000180000000     iojs:node.dll
 0000:fff84000       .debug$S                   0000000180000000     iojs:node.dll
 0000:fff84000       .debug$S                   0000000180000000     iojs:node.dll
 0000:fff84000       .debug$S                   0000000180000000     iojs:node.dll
 0000:fff84000       .debug$S                   0000000180000000     iojs:node.dll
 0000:fff84000       .debug$S                   0000000180000000     iojs:node.dll
 0000:fff84000       .debug$S                   0000000180000000     iojs:node.dll
 0000:fff84000       .debug$S                   0000000180000000     iojs:node.dll
 0000:fff84000       .debug$S                   0000000180000000     iojs:node.dll
 0000:fff84000       .debug$S                   0000000180000000     iojs:node.dll
 0000:fff84000       .debug$S                   0000000180000000     iojs:node.dll
 0000:fff84000       .debug$S                   0000000180000000     iojs:node.dll
 0000:fff84000       .debug$S                   0000000180000000     iojs:node.dll
 0000:fff84000       .debug$S                   0000000180000000     iojs:node.dll
 0000:fff84000       .debug$S                   0000000180000000     iojs:node.dll
 0000:fff84000       .debug$S                   0000000180000000     iojs:node.dll
 0000:fff84000       .debug$S                   0000000180000000     iojs:node.dll
 0000:fff84000       .debug$S                   0000000180000000     iojs:node.dll
 0000:fff84000       .debug$S                   0000000180000000     iojs:node.dll
 0001:00000000       ?FunctionCallbackWrapper@imp@Nan@@YAXAEBV?$FunctionCallbackInfo@VValue@v8@@@v8@@@Z 0000000180001000 f   main.obj
 0001:00000650       ?New@Spellchecker@?A0x29701496@@CAXAEBV?$FunctionCallbackInfo@VValue@v8@@@Nan@@@Z 0000000180001650 f   main.obj
 0001:000006f0       ?SetDictionary@Spellchecker@?A0x29701496@@CAXAEBV?$FunctionCallbackInfo@VValue@v8@@@Nan@@@Z 00000001800016f0 f   main.obj
 0001:000009a0       ?IsMisspelled@Spellchecker@?A0x29701496@@CAXAEBV?$FunctionCallbackInfo@VValue@v8@@@Nan@@@Z 00000001800019a0 f   main.obj
 0001:00000b40       ?CheckSpelling@Spellchecker@?A0x29701496@@CAXAEBV?$FunctionCallbackInfo@VValue@v8@@@Nan@@@Z 0000000180001b40 f   main.obj
 0001:00001030       ?Add@Spellchecker@?A0x29701496@@CAXAEBV?$FunctionCallbackInfo@VValue@v8@@@Nan@@@Z 0000000180002030 f   main.obj
 0001:00001190       ?GetAvailableDictionaries@Spellchecker@?A0x29701496@@CAXAEBV?$FunctionCallbackInfo@VValue@v8@@@Nan@@@Z 0000000180002190 f   main.obj
 0001:00001520       ?GetCorrectionsForMisspelling@Spellchecker@?A0x29701496@@CAXAEBV?$FunctionCallbackInfo@VValue@v8@@@Nan@@@Z 0000000180002520 f   main.obj
 0001:00001830       ?Init@Spellchecker@?A0x29701496@@SAXV?$Local@VObject@v8@@@v8@@@Z 0000000180002830 f   main.obj
 0001:00001d20       ?Init@?A0x29701496@@YAXV?$Local@VObject@v8@@@v8@@0@Z 0000000180002d20 f   main.obj
 0001:00001d30       _register_spellchecker     0000000180002d30 f   main.obj
 0001:0000af40       ?HUNSPELL_WARNING@@YAXPEAU_iobuf@@PEBDZZ 000000018000bf40 f   hunspell:csutil.obj
 0001:0000af40       ?HUNSPELL_WARNING@@YAXPEAU_iobuf@@PEBDZZ 000000018000bf40 f   hunspell:affixmgr.obj
 0001:0000af40       ?HUNSPELL_WARNING@@YAXPEAU_iobuf@@PEBDZZ 000000018000bf40 f   hunspell:hashmgr.obj
 0001:0000b190       $LN23                      000000018000c190     hunspell:csutil.obj
 0001:0000b1a8       $LN22                      000000018000c1a8     hunspell:csutil.obj
 0001:00027574       $LN1273                    0000000180028574     hunspell:affixmgr.obj
 0001:0002b340       $$000000                   000000018002c340     LIBCMT:_amdsecgs_.obj
 0001:0002b3c0       ?dllmain_crt_dispatch@@YAHQEAUHINSTANCE__@@KQEAX@Z 000000018002c3c0 f   LIBCMT:dll_dllmain.obj
 0001:0002b410       ?dllmain_crt_process_attach@@YAHQEAUHINSTANCE__@@QEAX@Z 000000018002c410 f   LIBCMT:dll_dllmain.obj
 0001:0002b53c       ?dllmain_crt_process_detach@@YAH_N@Z 000000018002c53c f   LIBCMT:dll_dllmain.obj
 0001:0002b5c0       ?dllmain_dispatch@@YAHQEAUHINSTANCE__@@KQEAX@Z 000000018002c5c0 f   LIBCMT:dll_dllmain.obj
 0001:0002b6b8       ?dllmain_raw@@YAHQEAUHINSTANCE__@@KQEAX@Z 000000018002c6b8 f   LIBCMT:dll_dllmain.obj
 0001:0002b904       capture_current_context    000000018002c904 f   LIBCMT:gs_report.obj
 0001:0002b974       capture_previous_context   000000018002c974 f   LIBCMT:gs_report.obj
 0001:0002c360       $$000000                   000000018002d360     libvcruntime:memcpy.obj
 0001:0002c407       MoveSmall                  000000018002d407     libvcruntime:memcpy.obj
 0001:0002ceb0       $$000000                   000000018002deb0     libvcruntime:memset.obj
 0001:0002cf9c       MsetTab                    000000018002df9c     libvcruntime:memset.obj
 0001:0002d090       $$000000                   000000018002e090     libvcruntime:_jmpuwind_.obj
 0001:0002d310       ?try_get_function@@YAPEAXW4function_id@?A0x679b24ab@@QEBDQEBW4module_id@2@2@Z 000000018002e310 f   libvcruntime:winapi_downlevel.obj
 0001:0002d740       ??$common_assert_to_message_box@_W@@YAXQEB_W0IQEAX@Z 000000018002e740 f   libucrt:assert.obj
 0001:0002d804       ??$common_assert_to_message_box_build_string@_W@@YAXQEA_W_KQEB_W2IQEAX@Z 000000018002e804 f   libucrt:assert.obj
 0001:0002dfd8       ??$common_assert_to_stderr@_W@@YAXQEB_W0I@Z 000000018002efd8 f   libucrt:assert.obj
 0001:0002e148       ?get_assert_format@@YAPEB_W_W@Z 000000018002f148 f   libucrt:assert.obj
 0001:0002e510       ??$common_fsopen@D@@YAPEAU_iobuf@@QEBD0H@Z 000000018002f510 f   libucrt:fopen.obj
 0001:0002e7d0       ??$common_getenv@D@@YAPEADQEBD@Z 000000018002f7d0 f   libucrt:getenv.obj
 0001:0002e83c       ??$common_getenv_nolock@D@@YAPEADQEBD@Z 000000018002f83c f   libucrt:getenv.obj
 0001:0002e8e0       $$000000                   000000018002f8e0     libucrt:strncpy.obj
 0001:0002ea60       $$000000                   000000018002fa60     libucrt:strncmp.obj
 0001:0002f0a4       ??R<lambda_0a64b6a4deda75c01876f29c44fc5eb3>@@QEBAHXZ 00000001800300a4 f   libucrt:output.obj
 0001:0002f194       ??R<lambda_dd75445284c072d0bd3768540cc698fa>@@QEBAHXZ 0000000180030194 f   libucrt:output.obj
 0001:000335b0       ??$common_fgets@D@@YAPEADQEADHV__crt_stdio_stream@@@Z 00000001800345b0 f   libucrt:fgets.obj
 0001:00033cc0       ?atexit_exception_filter@@YAHK@Z 0000000180034cc0 f   libucrt:exit.obj
 0001:00033ccc       ?common_exit@@YAXHW4_crt_exit_cleanup_mode@@W4_crt_exit_return_mode@@@Z 0000000180034ccc f   libucrt:exit.obj
 0001:00033e38       ?exit_or_terminate_process@@YAXI@Z 0000000180034e38 f   libucrt:exit.obj
 0001:00033e84       ?try_cor_exit_process@@YAXI@Z 0000000180034e84 f   libucrt:exit.obj
 0001:00033f1c       ??$parse_command_line@D@@YAXPEADPEAPEAD0PEA_K2@Z 0000000180034f1c f   libucrt:argv_parsing.obj
 0001:000342b4       ??$common_get_or_create_environment_nolock@D@@YAPEAPEADXZ 00000001800352b4 f   libucrt:environment_initialization.obj
 0001:000342fc       ??$common_initialize_environment_nolock@D@@YAHXZ 00000001800352fc f   libucrt:environment_initialization.obj
 0001:00034368       ??$create_environment@D@@YAQEAPEADQEAD@Z 0000000180035368 f   libucrt:environment_initialization.obj
 0001:00034464       ??$free_environment@_W@@YAXQEAPEA_W@Z 0000000180035464 f   libucrt:environment_initialization.obj
 0001:00034464       ??$free_environment@D@@YAXQEAPEAD@Z 0000000180035464 f   libucrt:environment_initialization.obj
 0001:000344a8       ??$initialize_environment_by_cloning_nolock@D@@YAHXZ 00000001800354a8 f   libucrt:environment_initialization.obj
 0001:0003457c       ??$uninitialize_environment_internal@D@@YAXAEAPEAPEAD@Z 000000018003557c f   libucrt:environment_initialization.obj
 0001:00034598       ??$uninitialize_environment_internal@_W@@YAXAEAPEAPEA_W@Z 0000000180035598 f   libucrt:environment_initialization.obj
 0001:000347d8       ??R<lambda_4e60a939b0d047cfe11ddc22648dfba9>@@QEBAHXZ 00000001800357d8 f   libucrt:onexit.obj
 0001:00034a88       initialize_global_variables 0000000180035a88 f   libucrt:initialization.obj
 0001:00034a9c       initialize_c               0000000180035a9c f   libucrt:initialization.obj
 0001:00034ac0       uninitialize_environment   0000000180035ac0 f   libucrt:initialization.obj
 0001:00034ad0       initialize_pointers        0000000180035ad0 f   libucrt:initialization.obj
 0001:00034b24       uninitialize_vcruntime     0000000180035b24 f   libucrt:initialization.obj
 0001:00034b2c       uninitialize_allocated_memory 0000000180035b2c f   libucrt:initialization.obj
 0001:00034ef0       ??$common_xtox@K_W@@YAHKQEA_W_KI_N@Z 0000000180035ef0 f   libucrt:xtoa.obj
 0001:00034f9c       ??$common_xtox_s@K_W@@YAHKQEA_W_KI_N@Z 0000000180035f9c f   libucrt:xtoa.obj
 0001:00035260       ??$message_box_wait_thread@_W@@YAKQEAX@Z 0000000180036260 f   libucrt:crtmbox.obj
 0001:00035474       common_flush_all           0000000180036474 f   libucrt:fflush.obj
 0001:000355dc       ??R<lambda_b721fa326cdb32351d23dfa67958c160>@@QEBAHXZ 00000001800365dc f   libucrt:setvbuf.obj
 0001:00035bc8       ?construct_ptd_array@@YAXQEAU__acrt_ptd@@@Z 0000000180036bc8 f   libucrt:per_thread_data.obj
 0001:00035c98       ?destroy_fls@@YAXPEAX@Z    0000000180036c98 f   libucrt:per_thread_data.obj
 0001:00035cb8       ?destroy_ptd_array@@YAXQEAU__acrt_ptd@@@Z 0000000180036cb8 f   libucrt:per_thread_data.obj
 0001:00035db0       ?replace_current_thread_locale_nolock@@YAXQEAU__acrt_ptd@@QEAU__crt_locale_data@@@Z 0000000180036db0 f   libucrt:per_thread_data.obj
 0001:00036090       ?find_or_allocate_unused_stream_nolock@@YA?AV__crt_stdio_stream@@XZ 0000000180037090 f   libucrt:stream.obj
 0001:00036d38       ?internal_isupper_l@@YA_NHQEAU__crt_locale_pointers@@@Z 0000000180037d38 f   libucrt:tolower_toupper.obj
 0001:0003733c       ?fp_format_a@@YAHQEBNPEAD_KQEAD2H_NIQEAU__crt_locale_pointers@@@Z 000000018003833c f   libucrt:cvt.obj
 0001:0003769c       ?fp_format_e@@YAHQEBNQEAD_K12H_NIQEAU__crt_locale_pointers@@@Z 000000018003869c f   libucrt:cvt.obj
 0001:0003776c       ?fp_format_e_internal@@YAHQEAD_KH_NIQEAU_strflt@@2QEAU__crt_locale_pointers@@@Z 000000018003876c f   libucrt:cvt.obj
 0001:00037948       ?fp_format_f_internal@@YAHQEAD_KHQEAU_strflt@@_NQEAU__crt_locale_pointers@@@Z 0000000180038948 f   libucrt:cvt.obj
 0001:00037a90       ?fp_format_g@@YAHQEBNQEAD_K12H_NIQEAU__crt_locale_pointers@@@Z 0000000180038a90 f   libucrt:cvt.obj
 0001:00037bc8       ?fp_format_nan_or_infinity@@YAHW4__acrt_fp_class@@_NPEAD_K1@Z 0000000180038bc8 f   libucrt:cvt.obj
 0001:00038208       ?initialize_inherited_file_handles_nolock@@YAXXZ 0000000180039208 f   libucrt:ioinit.obj
 0001:000382f4       ?initialize_stdio_handles_nolock@@YAXXZ 00000001800392f4 f   libucrt:ioinit.obj
 0001:0003846c       ?try_get_function@@YAPEAXW4function_id@?A0x63058377@@QEBDQEBW4module_id@2@2@Z 000000018003946c f   libucrt:winapi_thunks.obj
 0001:00039014       ??$translate_text_mode_nolock@_W@@YAHHQEA_W_K@Z 000000018003a014 f   libucrt:read.obj
 0001:00039244       ?translate_ansi_or_utf8_nolock@@YAHHQEAD_KQEA_W1@Z 000000018003a244 f   libucrt:read.obj
 0001:00039ac4       ??$common_refill_and_read_nolock@D@@YAHV__crt_stdio_stream@@@Z 000000018003aac4 f   libucrt:_filbuf.obj
 0001:00039c74       ?<helper_func_cdecl>@<lambda_2feae5270eb4d0d5532525f423405775>@@CAHPEBX0@Z 000000018003ac74 f   libucrt:argv_wildcards.obj
 0001:00039c88       ??$common_expand_argv_wildcards@D@@YAHQEAPEADQEAPEAPEAD@Z 000000018003ac88 f   libucrt:argv_wildcards.obj
 0001:00039e94       ??$copy_and_add_argument_to_buffer@D@@YAHQEBD0_KAEAV?$argument_list@D@?A0xca0879c4@@@Z 000000018003ae94 f   libucrt:argv_wildcards.obj
 0001:00039fa4       ??$expand_argument_wildcards@D@@YAHQEAD0AEAV?$argument_list@D@?A0xca0879c4@@@Z 000000018003afa4 f   libucrt:argv_wildcards.obj
 0001:0003a258       ??R<lambda_ad1ced32f4ac17aa236e5ef05d6b3b7c>@@QEBAXXZ 000000018003b258 f   libucrt:mbctype.obj
 0001:0003a470       ?getSystemCP@@YAHH@Z       000000018003b470 f   libucrt:mbctype.obj
 0001:0003a4f0       ?setSBCS@@YAXPEAU__crt_multibyte_data@@@Z 000000018003b4f0 f   libucrt:mbctype.obj
 0001:0003a580       ?setSBUpLow@@YAXPEAU__crt_multibyte_data@@@Z 000000018003b580 f   libucrt:mbctype.obj
 0001:0003a764       ?setmbcp_internal@@YAHH_N@Z 000000018003b764 f   libucrt:mbctype.obj
 0001:0003acac       ?x_ismbbtype_l@@YAHPEAU__crt_locale_pointers@@IHH@Z 000000018003bcac f   libucrt:ismbbyte.obj
 0001:0003ad60       initialize_global_state_isolation 000000018003bd60 f   libucrt:initialization.obj
 0001:0003ad60       uninitialize_c             000000018003bd60 f   libucrt:initialization.obj
 0001:0003ad60       report_memory_leaks        000000018003bd60 f   libucrt:initialization.obj
 0001:0003ad60       initialize_environment     000000018003bd60 f   libucrt:initialization.obj
 0001:0003ad60       uninitialize_global_state_isolation 000000018003bd60 f   libucrt:initialization.obj
 0001:0003ae68       ??$common_set_variable_in_environment_nolock@D@@YAHQEADH@Z 000000018003be68 f   libucrt:setenv.obj
 0001:0003b158       ??$copy_environment@D@@YAPEAPEADQEAPEAD@Z 000000018003c158 f   libucrt:setenv.obj
 0001:0003b590       ?write_double_translated_ansi_nolock@@YA?AUwrite_result@?A0x9c548279@@HQEBDI@Z 000000018003c590 f   libucrt:write.obj
 0001:0003b798       ?write_text_ansi_nolock@@YA?AUwrite_result@?A0x9c548279@@HQEBDI@Z 000000018003c798 f   libucrt:write.obj
 0001:0003b8a0       ?write_text_utf16le_nolock@@YA?AUwrite_result@?A0x9c548279@@HQEBDI@Z 000000018003c8a0 f   libucrt:write.obj
 0001:0003b9bc       ?write_text_utf8_nolock@@YA?AUwrite_result@?A0x9c548279@@HQEBDI@Z 000000018003c9bc f   libucrt:write.obj
 0001:0003c480       ??$common_sopen_dispatch@D@@YAHQEBDHHHQEAHH@Z 000000018003d480 f   libucrt:open.obj
 0001:0003c560       ?configure_text_mode@@YAHHUfile_options@?A0x656cf9f4@@HAEAW4__crt_lowio_text_mode@@@Z 000000018003d560 f   libucrt:open.obj
 0001:0003c7f4       ?decode_options@@YA?AUfile_options@?A0x656cf9f4@@HHH@Z 000000018003d7f4 f   libucrt:open.obj
 0001:0003ca00       ?truncate_ctrl_z_if_present@@YAHH@Z 000000018003da00 f   libucrt:open.obj
 0001:0003d5fc       ?free_crt_array_internal@@YAXQEAPEBX_K@Z 000000018003e5fc f   libucrt:inittime.obj
 0001:0003d910       ?InternalCompareStringA@@YAHPEAU__crt_locale_pointers@@PEB_WKPEBDH2HH@Z 000000018003e910 f   libucrt:comparestringa.obj
 0001:0003dd30       ?__acrt_LCMapStringA_stat@@YAHPEAU__crt_locale_pointers@@PEB_WKPEBDHPEADHHH@Z 000000018003ed30 f   libucrt:lcmapstringa.obj
 0001:0003fa2c       memcpy_s                   0000000180040a2c f   libucrt:cfout.obj
 0001:0003fab4       ??$write_buffer_nolock@D@@YA_NDV__crt_stdio_stream@@@Z 0000000180040ab4 f   libucrt:_flsbuf.obj
 0001:0003fbb8       ??$write_buffer_nolock@_W@@YA_N_WV__crt_stdio_stream@@@Z 0000000180040bb8 f   libucrt:_flsbuf.obj
 0001:0003fef8       ?GetTableIndexFromLocaleName@@YAHPEB_W@Z 0000000180040ef8 f   libucrt:lcidtoname_downlevel.obj
 0001:0003fff4       ??$common_lseek@_J@@YA_JH_JH@Z 0000000180040ff4 f   libucrt:lseek.obj
 0001:000400e4       ??$common_lseek_nolock@_J@@YA_JH_JH@Z 00000001800410e4 f   libucrt:lseek.obj
 0001:00040200       ?shortsort@@YAXPEAD0_KP6AHPEBX2@Z@Z 0000000180041200 f   libucrt:qsort.obj
 0001:00040818       ?initialize_multibyte@@YAHXZ 0000000180041818 f   libucrt:multibyte_initializer.obj
 0001:00040df0       $$000000                   0000000180041df0     libucrt:log10.obj
 0001:00041528       common_control87           0000000180042528 f   libucrt:ieee.obj
 0001:000417c0       _call_matherr              00000001800427c0 f   libucrt:libm_error.obj
 0001:00041828       _exception_enabled         0000000180042828 f   libucrt:libm_error.obj
 0001:00041ac0       _log_special_common        0000000180042ac0 f   libucrt:log_special.obj
 0001:00041b60       $$000000                   0000000180042b60     libucrt:fpsr.obj
 0001:00042150       $$000000                   0000000180043150     LIBCMT:_chkstk_.obj
 0001:000421c0       $$000000                   00000001800431c0     libvcruntime:memcmp.obj
 0001:000423e0       $$000000                   00000001800433e0     LIBCMT:_guard_dispatch_.obj
 0001:00042400       ?fin$0@?0??dllmain_crt_process_attach@@YAHQEAUHINSTANCE__@@QEAX@Z@4HA 0000000180043400 f   LIBCMT:dll_dllmain.obj
 0001:00042417       ?fin$0@?0??dllmain_crt_process_detach@@YAH_N@Z@4HA 0000000180043417 f   LIBCMT:dll_dllmain.obj
 0001:00042433       ?filt$0@?0??dllmain_dispatch@@YAHQEAUHINSTANCE__@@KQEAX@Z@4HA 0000000180043433 f   LIBCMT:dll_dllmain.obj
 0001:00042469       __scrt_is_nonwritable_in_current_image$filt$0 0000000180043469 f   LIBCMT:utility.obj
 0001:00042481       ?fin$0@?0???$common_fsopen@D@@YAPEAU_iobuf@@QEBD0H@Z@4HA 0000000180043481 f   libucrt:fopen.obj
 0001:000424ac       fclose$fin$0               00000001800434ac f   libucrt:fclose.obj
 0001:000424ac       fflush$fin$0               00000001800434ac f   libucrt:fflush.obj
 0001:000424c4       ?fin$0@?0???$common_getenv@D@@YAPEADQEBD@Z@4HA 00000001800434c4 f   libucrt:getenv.obj
 0001:000424dd       ?fin$0@?0???$?RV<lambda_aa279a7bcb127014629d5b1d62c7325d>@@AEAV<lambda_0a64b6a4deda75c01876f29c44fc5eb3>@@V<lambda_3323e69fbefe9d1a11713e670d47cdfa>@@@?$__crt_seh_guarded_call@H@@QEAAH$$QEAV<lambda_aa279a7bcb127014629d5b1d62c7325d>@@AEAV<lambda_0a64b6a4deda75c01876f29c44fc5eb3>@@$$QEAV<lambda_3323e69fbefe9d1a11713e670d47cdfa>@@@Z@4HA 00000001800434dd f   libucrt:output.obj
 0001:000424dd       ?fin$0@?0???$?RV<lambda_7a5ef57ff966f610505f1d28a3d40618>@@AEAV<lambda_b721fa326cdb32351d23dfa67958c160>@@V<lambda_5e0fb27672408a07956fe59e48ccb2aa>@@@?$__crt_seh_guarded_call@H@@QEAAH$$QEAV<lambda_7a5ef57ff966f610505f1d28a3d40618>@@AEAV<lambda_b721fa326cdb32351d23dfa67958c160>@@$$QEAV<lambda_5e0fb27672408a07956fe59e48ccb2aa>@@@Z@4HA 00000001800434dd f   libucrt:setvbuf.obj
 0001:000424dd       ?fin$0@?0???$?RV<lambda_7b91131dde12e1c3dfc74ff76b3f2eac>@@AEAV<lambda_dd75445284c072d0bd3768540cc698fa>@@V<lambda_16bc4ecb55b4718497c16bceaea2ceaf>@@@?$__crt_seh_guarded_call@H@@QEAAH$$QEAV<lambda_7b91131dde12e1c3dfc74ff76b3f2eac>@@AEAV<lambda_dd75445284c072d0bd3768540cc698fa>@@$$QEAV<lambda_16bc4ecb55b4718497c16bceaea2ceaf>@@@Z@4HA 00000001800434dd f   libucrt:output.obj
 0001:000424f8       ?fin$0@?0???$common_fgets@D@@YAPEADQEADHV__crt_stdio_stream@@@Z@4HA 00000001800434f8 f   libucrt:fgets.obj
 0001:00042512       fread_s$fin$0              0000000180043512 f   libucrt:fread.obj
 0001:0004252a       _query_new_handler$fin$0   000000018004352a f   libucrt:new_handler.obj
 0001:00042540       ?filt$0@?0??common_exit@@YAXHW4_crt_exit_cleanup_mode@@W4_crt_exit_return_mode@@@Z@4HA 0000000180043540 f   libucrt:exit.obj
 0001:0004255b       ?fin$1@?0??common_exit@@YAXHW4_crt_exit_cleanup_mode@@W4_crt_exit_return_mode@@@Z@4HA 000000018004355b f   libucrt:exit.obj
 0001:00042574       ?fin$0@?0???$?RV<lambda_e24bbb7b643b32fcea6fa61b31d4c984>@@AEAV<lambda_275893d493268fdec8709772e3fcec0e>@@V<lambda_9d71df4d7cf3f480f8d633942495c3b0>@@@?$__crt_seh_guarded_call@H@@QEAAH$$QEAV<lambda_e24bbb7b643b32fcea6fa61b31d4c984>@@AEAV<lambda_275893d493268fdec8709772e3fcec0e>@@$$QEAV<lambda_9d71df4d7cf3f480f8d633942495c3b0>@@@Z@4HA 0000000180043574 f   libucrt:onexit.obj
 0001:00042591       common_flush_all$fin$0     0000000180043591 f   libucrt:fflush.obj
 0001:000425ab       common_flush_all$fin$1     00000001800435ab f   libucrt:fflush.obj
 0001:000425c4       raise$fin$0                00000001800435c4 f   libucrt:signal.obj
 0001:000425e8       ?fin$0@?0???$?RV<lambda_99476a1ad63dd22509b5d3e65b0ffc95>@@AEAV<lambda_ad1ced32f4ac17aa236e5ef05d6b3b7c>@@V<lambda_f7424dd8d45958661754dc4f2697e9c3>@@@?$__crt_seh_guarded_call@X@@QEAAX$$QEAV<lambda_99476a1ad63dd22509b5d3e65b0ffc95>@@AEAV<lambda_ad1ced32f4ac17aa236e5ef05d6b3b7c>@@$$QEAV<lambda_f7424dd8d45958661754dc4f2697e9c3>@@@Z@4HA 00000001800435e8 f   libucrt:mbctype.obj
 0001:000425e8       ?fin$0@?0???$?RV<lambda_c36588078e9f5dfd39652860aa6b3aaf>@@AEAV<lambda_ec61778202f4f5fc7e7711acc23c3bca>@@V<lambda_dc9d2797ccde5d239b4a0efae8ebd7db>@@@?$__crt_seh_guarded_call@P6AXH@Z@@QEAAP6AXH@Z$$QEAV<lambda_c36588078e9f5dfd39652860aa6b3aaf>@@AEAV<lambda_ec61778202f4f5fc7e7711acc23c3bca>@@$$QEAV<lambda_dc9d2797ccde5d239b4a0efae8ebd7db>@@@Z@4HA 00000001800435e8 f   libucrt:signal.obj
 0001:000425e8       ?fin$0@?0???$?RV<lambda_72d1df2b273a38828b1ce30cbf4cdab5>@@AEAV<lambda_876a65b173b8412d3a47c70a915b0cf4>@@V<lambda_41932305e351933ebe8f8be3ed8bb5dc>@@@?$__crt_seh_guarded_call@X@@QEAAX$$QEAV<lambda_72d1df2b273a38828b1ce30cbf4cdab5>@@AEAV<lambda_876a65b173b8412d3a47c70a915b0cf4>@@$$QEAV<lambda_41932305e351933ebe8f8be3ed8bb5dc>@@@Z@4HA 00000001800435e8 f   libucrt:per_thread_data.obj
 0001:000425e8       ?fin$0@?0???$?RV<lambda_b8c45f8f788dd370798f47cfe8ac3a86>@@AEAV<lambda_4e60a939b0d047cfe11ddc22648dfba9>@@V<lambda_332c3edc96d0294ec56c57d38c1cdfd5>@@@?$__crt_seh_guarded_call@H@@QEAAH$$QEAV<lambda_b8c45f8f788dd370798f47cfe8ac3a86>@@AEAV<lambda_4e60a939b0d047cfe11ddc22648dfba9>@@$$QEAV<lambda_332c3edc96d0294ec56c57d38c1cdfd5>@@@Z@4HA 00000001800435e8 f   libucrt:onexit.obj
 0001:000425e8       ?fin$0@?0???$?RV<lambda_5e887d1dcbef67a5eb4283622ba103bf>@@AEAV<lambda_4466841279450cc726390878d4a41900>@@V<lambda_341c25c0346d94847f1f3c463c57e077>@@@?$__crt_seh_guarded_call@X@@QEAAX$$QEAV<lambda_5e887d1dcbef67a5eb4283622ba103bf>@@AEAV<lambda_4466841279450cc726390878d4a41900>@@$$QEAV<lambda_341c25c0346d94847f1f3c463c57e077>@@@Z@4HA 00000001800435e8 f   libucrt:per_thread_data.obj
 0001:000425e8       ?fin$0@?0???$?RV<lambda_46352004c1216016012b18bd6f87e700>@@AEAV<lambda_3bd07e1a1191394380780325891bf33f>@@V<lambda_334532d3f185bcaa59b5be82d7d22bff>@@@?$__crt_seh_guarded_call@X@@QEAAX$$QEAV<lambda_46352004c1216016012b18bd6f87e700>@@AEAV<lambda_3bd07e1a1191394380780325891bf33f>@@$$QEAV<lambda_334532d3f185bcaa59b5be82d7d22bff>@@@Z@4HA 00000001800435e8 f   libucrt:per_thread_data.obj
 0001:000425e8       ?fin$0@?0???$?RV<lambda_fb3a7dec4e47f37f22dae91bb15c9095>@@AEAV<lambda_698284760c8add0bfb0756c19673e34b>@@V<lambda_dfb8eca1e75fef3034a8fb18dd509707>@@@?$__crt_seh_guarded_call@X@@QEAAX$$QEAV<lambda_fb3a7dec4e47f37f22dae91bb15c9095>@@AEAV<lambda_698284760c8add0bfb0756c19673e34b>@@$$QEAV<lambda_dfb8eca1e75fef3034a8fb18dd509707>@@@Z@4HA 00000001800435e8 f   libucrt:per_thread_data.obj
 0001:00042602       ?fin$0@?0???$?RV<lambda_bfedae4ebbf01fab1bb6dcc6a9e276e0>@@AEAV<lambda_2fe9b910cf3cbf4a0ab98a02ba45b3ec>@@V<lambda_237c231691f317818eb88cc1d5d642d6>@@@?$__crt_seh_guarded_call@H@@QEAAH$$QEAV<lambda_bfedae4ebbf01fab1bb6dcc6a9e276e0>@@AEAV<lambda_2fe9b910cf3cbf4a0ab98a02ba45b3ec>@@$$QEAV<lambda_237c231691f317818eb88cc1d5d642d6>@@@Z@4HA 0000000180043602 f   libucrt:close.obj
 0001:00042602       ?fin$0@?0???$?RV<lambda_b521505b218e5242e90febf6bfebc422>@@AEAV<lambda_6978c1fb23f02e42e1d9e99668cc68aa>@@V<lambda_314360699dd331753a4119843814e9a7>@@@?$__crt_seh_guarded_call@H@@QEAAH$$QEAV<lambda_b521505b218e5242e90febf6bfebc422>@@AEAV<lambda_6978c1fb23f02e42e1d9e99668cc68aa>@@$$QEAV<lambda_314360699dd331753a4119843814e9a7>@@@Z@4HA 0000000180043602 f   libucrt:commit.obj
 0001:0004261c       __acrt_update_thread_locale_data$fin$0 000000018004361c f   libucrt:locale_refcounting.obj
 0001:0004261c       __acrt_uninitialize_locale$fin$0 000000018004361c f   libucrt:wsetlocale.obj
 0001:00042635       _alloc_osfhnd$fin$0        0000000180043635 f   libucrt:osfinfo.obj
 0001:00042635       __acrt_initialize_lowio$fin$0 0000000180043635 f   libucrt:ioinit.obj
 0001:00042635       __acrt_lowio_ensure_fh_exists$fin$0 0000000180043635 f   libucrt:osfinfo.obj
 0001:0004264e       ?fin$0@?0??__acrt_stdio_allocate_stream@@YA?AV__crt_stdio_stream@@XZ@4HA 000000018004364e f   libucrt:stream.obj
 0001:0004264e       _fcloseall$fin$0           000000018004364e f   libucrt:closeall.obj
 0001:00042667       ?fin$0@?0???$common_lseek@_J@@YA_JH_JH@Z@4HA 0000000180043667 f   libucrt:lseek.obj
 0001:00042667       _write$fin$0               0000000180043667 f   libucrt:write.obj
 0001:00042667       _read$fin$0                0000000180043667 f   libucrt:read.obj
 0001:0004267e       __acrt_update_thread_multibyte_data$fin$0 000000018004367e f   libucrt:mbctype.obj
 0001:00042697       ?fin$0@?0???$common_sopen_dispatch@D@@YAHQEBDHHHQEAHH@Z@4HA 0000000180043697 f   libucrt:open.obj
 0001:000426ea       common_control87$filt$0    00000001800436ea f   libucrt:ieee.obj
 0001:000426ea       _ctrlfp$filt$0             00000001800436ea f   libucrt:fpctrl.obj
 0001:00042720       _IsNonwritableInCurrentImage$filt$0 0000000180043720 f   LIBCMT:pesect.obj
 0002:00000528       GS_ExceptionPointers       0000000180044528     LIBCMT:gs_report.obj
 0002:00000580       ?ExceptionTemplate@?1??_CxxThrowException@@9@4UEHExceptionRecord@@B 0000000180044580     libvcruntime:throw.obj
 0002:000005c0       ?module_names@?A0x679b24ab@@3QBQEB_WB 00000001800445c0     libvcruntime:winapi_downlevel.obj
 0002:00000690       ?candidate_modules@?1??try_get_FlsAlloc@@YAP6AKP6AXPEAX@Z@ZXZ@4QBW4module_id@?A0x679b24ab@@B 0000000180044690     libvcruntime:winapi_downlevel.obj
 0002:000006a8       ?candidate_modules@?1??try_get_FlsFree@@YAP6AHK@ZXZ@4QBW4module_id@?A0x679b24ab@@B 00000001800446a8     libvcruntime:winapi_downlevel.obj
 0002:000006b8       ?candidate_modules@?1??try_get_FlsGetValue@@YAP6APEAXK@ZXZ@4QBW4module_id@?A0x679b24ab@@B 00000001800446b8     libvcruntime:winapi_downlevel.obj
 0002:000006d0       ?candidate_modules@?1??try_get_FlsSetValue@@YAP6AHKPEAX@ZXZ@4QBW4module_id@?A0x679b24ab@@B 00000001800446d0     libvcruntime:winapi_downlevel.obj
 0002:000006e8       ?candidate_modules@?1??try_get_InitializeCriticalSectionEx@@YAP6AHPEAU_RTL_CRITICAL_SECTION@@KK@ZXZ@4QBW4module_id@?A0x679b24ab@@B 00000001800446e8     libvcruntime:winapi_downlevel.obj
 0002:00000710       ?tokenTable@@3QBQEBDB      0000000180044710     libvcruntime:undname.obj
 0002:00000780       ?nameTable@@3QBQEBDB       0000000180044780     libvcruntime:undname.obj
 0002:00000a08       ?rttiTable@@3QBQEBDB       0000000180044a08     libvcruntime:undname.obj
 0002:000014e0       __acrt_initializers        00000001800454e0     libucrt:initialization.obj
 0002:000015d0       errtable                   00000001800455d0     libucrt:errno.obj
 0002:00001e30       module_names               0000000180045e30     libucrt:winapi_thunks.obj
 0002:00002360       ?candidate_modules@?1??try_get_AreFileApisANSI@@YAP6AHXZXZ@4QBW4module_id@?A0x63058377@@B 0000000180046360     libucrt:winapi_thunks.obj
 0002:00002378       ?candidate_modules@?1??try_get_CompareStringEx@@YAP6AHPEB_WK0H0HPEAU_nlsversioninfo@@PEAX_J@ZXZ@4QBW4module_id@?A0x63058377@@B 0000000180046378     libucrt:winapi_thunks.obj
 0002:00002390       ?candidate_modules@?1??try_get_FlsAlloc@@YAP6AKP6AXPEAX@Z@ZXZ@4QBW4module_id@?A0x63058377@@B 0000000180046390     libucrt:winapi_thunks.obj
 0002:00002398       ?candidate_modules@?1??try_get_FlsFree@@YAP6AHK@ZXZ@4QBW4module_id@?A0x63058377@@B 0000000180046398     libucrt:winapi_thunks.obj
 0002:000023a0       ?candidate_modules@?1??try_get_FlsGetValue@@YAP6APEAXK@ZXZ@4QBW4module_id@?A0x63058377@@B 00000001800463a0     libucrt:winapi_thunks.obj
 0002:000023a8       ?candidate_modules@?1??try_get_FlsSetValue@@YAP6AHKPEAX@ZXZ@4QBW4module_id@?A0x63058377@@B 00000001800463a8     libucrt:winapi_thunks.obj
 0002:000023b0       ?candidate_modules@?1??try_get_GetActiveWindow@@YAP6APEAUHWND__@@XZXZ@4QBW4module_id@?A0x63058377@@B 00000001800463b0     libucrt:winapi_thunks.obj
 0002:000023c8       ?candidate_modules@?1??try_get_GetCurrentPackageId@@YAP6AJPEAIPEAE@ZXZ@4QBW4module_id@?A0x63058377@@B 00000001800463c8     libucrt:winapi_thunks.obj
 0002:000023e8       ?candidate_modules@?1??try_get_GetLastActivePopup@@YAP6APEAUHWND__@@PEAU2@@ZXZ@4QBW4module_id@?A0x63058377@@B 00000001800463e8     libucrt:winapi_thunks.obj
 0002:00002408       ?candidate_modules@?1??try_get_GetProcessWindowStation@@YAP6APEAUHWINSTA__@@XZXZ@4QBW4module_id@?A0x63058377@@B 0000000180046408     libucrt:winapi_thunks.obj
 0002:00002428       ?candidate_modules@?1??try_get_GetUserObjectInformationW@@YAP6AHPEAXH0KPEAK@ZXZ@4QBW4module_id@?A0x63058377@@B 0000000180046428     libucrt:winapi_thunks.obj
 0002:00002450       ?candidate_modules@?1??try_get_InitializeCriticalSectionEx@@YAP6AHPEAU_RTL_CRITICAL_SECTION@@KK@ZXZ@4QBW4module_id@?A0x63058377@@B 0000000180046450     libucrt:winapi_thunks.obj
 0002:00002458       ?candidate_modules@?1??try_get_LCMapStringEx@@YAP6AHPEB_WK0HPEA_WHPEAU_nlsversioninfo@@PEAX_J@ZXZ@4QBW4module_id@?A0x63058377@@B 0000000180046458     libucrt:winapi_thunks.obj
 0002:00002470       ?candidate_modules@?1??try_get_LocaleNameToLCID@@YAP6AKPEB_WK@ZXZ@4QBW4module_id@?A0x63058377@@B 0000000180046470     libucrt:winapi_thunks.obj
 0002:00002490       ?candidate_modules@?1??try_get_MessageBoxA@@YAP6AHPEAUHWND__@@PEBD1I@ZXZ@4QBW4module_id@?A0x63058377@@B 0000000180046490     libucrt:winapi_thunks.obj
 0002:000024a8       ?candidate_modules@?1??try_get_MessageBoxW@@YAP6AHPEAUHWND__@@PEB_W1I@ZXZ@4QBW4module_id@?A0x63058377@@B 00000001800464a8     libucrt:winapi_thunks.obj
 0002:00002cc8       _mb_locale_names           0000000180046cc8     libucrt:mbctype.obj
 0002:00003720       LcidToLocaleNameTable      0000000180047720     libucrt:lcidtoname_downlevel.obj
 0002:00005180       LocaleNameToIndexTable     0000000180049180     libucrt:lcidtoname_downlevel.obj
 0002:00006a20       __real_ninf                000000018004aa20     libucrt:log10.obj
 0002:00006a30       __real_inf                 000000018004aa30     libucrt:log10.obj
 0002:00006a40       __real_neg_qnan            000000018004aa40     libucrt:log10.obj
 0002:00006a50       __real_qnanbit             000000018004aa50     libucrt:log10.obj
 0002:00006a60       __int_1023                 000000018004aa60     libucrt:log10.obj
 0002:00006a70       __mask_001                 000000018004aa70     libucrt:log10.obj
 0002:00006a80       __mask_mant                000000018004aa80     libucrt:log10.obj
 0002:00006a90       __mask_mant_top8           000000018004aa90     libucrt:log10.obj
 0002:00006aa0       __mask_mant9               000000018004aaa0     libucrt:log10.obj
 0002:00006ab0       __real_log10_e             000000018004aab0     libucrt:log10.obj
 0002:00006ac0       __real_log10_e_lead        000000018004aac0     libucrt:log10.obj
 0002:00006ad0       __real_log10_e_tail        000000018004aad0     libucrt:log10.obj
 0002:00006ae0       __real_log10_2_lead        000000018004aae0     libucrt:log10.obj
 0002:00006af0       __real_log10_2_tail        000000018004aaf0     libucrt:log10.obj
 0002:00006b00       __real_two                 000000018004ab00     libucrt:log10.obj
 0002:00006b10       __real_one                 000000018004ab10     libucrt:log10.obj
 0002:00006b20       __real_half                000000018004ab20     libucrt:log10.obj
 0002:00006b30       __mask_100                 000000018004ab30     libucrt:log10.obj
 0002:00006b40       __real_1_over_512          000000018004ab40     libucrt:log10.obj
 0002:00006b50       __real_1_over_2            000000018004ab50     libucrt:log10.obj
 0002:00006b60       __real_1_over_3            000000018004ab60     libucrt:log10.obj
 0002:00006b70       __real_1_over_4            000000018004ab70     libucrt:log10.obj
 0002:00006b80       __real_1_over_5            000000018004ab80     libucrt:log10.obj
 0002:00006b90       __real_1_over_6            000000018004ab90     libucrt:log10.obj
 0002:00006ba0       __real_neg_1023            000000018004aba0     libucrt:log10.obj
 0002:00006bb0       __mask_2045                000000018004abb0     libucrt:log10.obj
 0002:00006bc0       __real_threshold           000000018004abc0     libucrt:log10.obj
 0002:00006bd0       __real_near_one_lt         000000018004abd0     libucrt:log10.obj
 0002:00006be0       __real_near_one_gt         000000018004abe0     libucrt:log10.obj
 0002:00006bf0       __real_min_norm            000000018004abf0     libucrt:log10.obj
 0002:00006c00       __real_notsign             000000018004ac00     libucrt:log10.obj
 0002:00006c10       __real_ca1                 000000018004ac10     libucrt:log10.obj
 0002:00006c20       __real_ca2                 000000018004ac20     libucrt:log10.obj
 0002:00006c30       __real_ca3                 000000018004ac30     libucrt:log10.obj
 0002:00006c40       __real_ca4                 000000018004ac40     libucrt:log10.obj
 0002:00006c50       __mask_lower               000000018004ac50     libucrt:log10.obj
 0002:00006c60       __flag_x_zero              000000018004ac60     libucrt:log10.obj
 0002:00006c64       __flag_x_neg               000000018004ac64     libucrt:log10.obj
 0002:00006c68       __flag_x_nan               000000018004ac68     libucrt:log10.obj
 0002:000084c0       __real@433fffffffffffff    000000018004c4c0     libucrt:fpsr.obj
 0002:000084c8       __real@c33fffffffffffff    000000018004c4c8     libucrt:fpsr.obj
 0002:00008dbc       ?W_VLINE@@3Uw_char@@B      000000018004cdbc     hunspell:suggestmgr.obj
 0002:00009ae8       $unwind$?FunctionCallbackWrapper@imp@Nan@@YAXAEBV?$FunctionCallbackInfo@VValue@v8@@@v8@@@Z 000000018004dae8     main.obj
 0002:00009af8       $unwind$?New@?$Factory@VFunctionTemplate@v8@@@imp@Nan@@SA?AV?$Local@VFunctionTemplate@v8@@@v8@@P6AXAEBV?$FunctionCallbackInfo@VValue@v8@@@3@@ZV?$Local@VValue@v8@@@5@V?$Local@VSignature@v8@@@5@@Z 000000018004daf8     main.obj
 0002:00009b08       $chain$0$?New@?$Factory@VFunctionTemplate@v8@@@imp@Nan@@SA?AV?$Local@VFunctionTemplate@v8@@@v8@@P6AXAEBV?$FunctionCallbackInfo@VValue@v8@@@3@@ZV?$Local@VValue@v8@@@5@V?$Local@VSignature@v8@@@5@@Z 000000018004db08     main.obj
 0002:00009b1c       $chain$1$?New@?$Factory@VFunctionTemplate@v8@@@imp@Nan@@SA?AV?$Local@VFunctionTemplate@v8@@@v8@@P6AXAEBV?$FunctionCallbackInfo@VValue@v8@@@3@@ZV?$Local@VValue@v8@@@5@V?$Local@VSignature@v8@@@5@@Z 000000018004db1c     main.obj
 0002:00009b30       $chain$2$?New@?$Factory@VFunctionTemplate@v8@@@imp@Nan@@SA?AV?$Local@VFunctionTemplate@v8@@@v8@@P6AXAEBV?$FunctionCallbackInfo@VValue@v8@@@3@@ZV?$Local@VValue@v8@@@5@V?$Local@VSignature@v8@@@5@@Z 000000018004db30     main.obj
 0002:00009b40       $chain$3$?New@?$Factory@VFunctionTemplate@v8@@@imp@Nan@@SA?AV?$Local@VFunctionTemplate@v8@@@v8@@P6AXAEBV?$FunctionCallbackInfo@VValue@v8@@@3@@ZV?$Local@VValue@v8@@@5@V?$Local@VSignature@v8@@@5@@Z 000000018004db40     main.obj
 0002:00009b50       $unwind$?ThrowError@Nan@@YAXPEBD@Z 000000018004db50     main.obj
 0002:00009b58       $unwind$??1ObjectWrap@Nan@@UEAA@XZ 000000018004db58     main.obj
 0002:00009b58       $unwind$__acrt_update_locale_info 000000018004db58     libucrt:locale_update.obj
 0002:00009b58       $unwind$__scrt_release_startup_lock 000000018004db58     LIBCMT:utility.obj
 0002:00009b58       $unwind$?Ref@ObjectWrap@Nan@@MEAAXXZ 000000018004db58     main.obj
 0002:00009b58       $unwind$__std_exception_destroy 000000018004db58     libvcruntime:std_exception.obj
 0002:00009b58       $unwind$??_Gtype_info@@UEAAPEAXI@Z 000000018004db58     LIBCMT:std_type_info_static.obj
 0002:00009b58       $unwind$_calloc_base       000000018004db58     libucrt:calloc_base.obj
 0002:00009b58       $unwind$?lookup@HashMgr@@QEBAPEAUhentry@@PEBD@Z 000000018004db58     hunspell:hashmgr.obj
 0002:00009b58       $unwind$?get_sfxcount@@YAHPEBD@Z 000000018004db58     hunspell:csutil.obj
 0002:00009b58       $unwind$__acrt_can_show_message_box 000000018004db58     libucrt:winapi_thunks.obj
 0002:00009b58       $unwind$_malloc_base       000000018004db58     libucrt:malloc_base.obj
 0002:00009b58       $unwind$_set_statfp        000000018004db58     libucrt:fpctrl.obj
 0002:00009b58       $unwind$__acrt_update_multibyte_info 000000018004db58     libucrt:locale_update.obj
 0002:00009b58       $unwind$_setfpstatusword   000000018004db58     libucrt:_fenvutils.obj
 0002:00009b58       $unwind$?getline@FileMgr@@QEAAPEADXZ 000000018004db58     hunspell:filemgr.obj
 0002:00009b58       $unwind$_clrfp             000000018004db58     libucrt:fpctrl.obj
 0002:00009b58       $unwind$__std_type_info_destroy_list 000000018004db58     libvcruntime:std_type_info.obj
 0002:00009b58       $unwind$fesetenv           000000018004db58     libucrt:fesetenv.obj
 0002:00009b58       $unwind$feholdexcept       000000018004db58     libucrt:feholdexcept.obj
 0002:00009b58       $unwind$fegetenv           000000018004db58     libucrt:fegetenv.obj
 0002:00009b58       $unwind$clock              000000018004db58     libucrt:clock.obj
 0002:00009b58       $unwind$?exit_or_terminate_process@@YAXI@Z 000000018004db58     libucrt:exit.obj
 0002:00009b58       $unwind$wcscpy_s           000000018004db58     libucrt:wcscpy_s.obj
 0002:00009b58       $unwind$wcscat_s           000000018004db58     libucrt:wcscat_s.obj
 0002:00009b58       $unwind$_fflush_nolock     000000018004db58     libucrt:fflush.obj
 0002:00009b58       $unwind$__raise_securityfailure 000000018004db58     LIBCMT:gs_report.obj
 0002:00009b58       $unwind$??0bad_alloc@std@@QEAA@AEBV01@@Z 000000018004db58     libcpmt:xthrow.obj
 0002:00009b58       $unwind$?mkinitcap2@Hunspell@@AEAAHPEADPEAUw_char@@H@Z 000000018004db58     hunspell:hunspell.obj
 0002:00009b58       $unwind$strcpy_s           000000018004db58     libucrt:strcpy_s.obj
 0002:00009b58       $unwind$__acrt_freeptd     000000018004db58     libucrt:per_thread_data.obj
 0002:00009b58       $unwind$__acrt_fp_strflt_to_string 000000018004db58     libucrt:_fptostr.obj
 0002:00009b58       $unwind$__acrt_AreFileApisANSI 000000018004db58     libucrt:winapi_thunks.obj
 0002:00009b58       $unwind$?CreateSpellchecker@SpellcheckerFactory@spellchecker@@SAPEAVSpellcheckerImplementation@2@XZ 000000018004db58     spellchecker_win.obj
 0002:00009b58       $unwind$__acrt_stdio_allocate_buffer_nolock 000000018004db58     libucrt:_getbuf.obj
 0002:00009b58       $unwind$__acrt_stdio_free_buffer_nolock 000000018004db58     libucrt:_freebuf.obj
 0002:00009b58       $unwind$__acrt_allocate_buffer_for_argv 000000018004db58     libucrt:argv_parsing.obj
 0002:00009b58       $unwind$??2@YAPEAX_K@Z     000000018004db58     LIBCMT:new_scalar.obj
 0002:00009b58       $unwind$??$message_box_wait_thread@_W@@YAKQEAX@Z 000000018004db58     libucrt:crtmbox.obj
 0002:00009b58       $unwind$?debugflag@AffixMgr@@AEAAXPEADG@Z 000000018004db58     hunspell:affixmgr.obj
 0002:00009b58       $unwind$__acrt_uninitialize_winapi_thunks 000000018004db58     libucrt:winapi_thunks.obj
 0002:00009b58       $unwind$__acrt_uninitialize_stdio 000000018004db58     libucrt:_file.obj
 0002:00009b58       $unwind$??1?$basic_string@DU?$char_traits@D@std@@V?$allocator@D@2@@std@@QEAA@XZ 000000018004db58     main.obj
 0002:00009b58       $unwind$??0out_of_range@std@@QEAA@AEBV01@@Z 000000018004db58     libcpmt:xthrow.obj
 0002:00009b58       $unwind$__acrt_initialize_locks 000000018004db58     libucrt:locks.obj
 0002:00009b58       $unwind$??0bad_array_new_length@std@@QEAA@AEBV01@@Z 000000018004db58     LIBCMT:throw_bad_alloc.obj
 0002:00009b58       $unwind$_clearfp           000000018004db58     libucrt:ieee.obj
 0002:00009b58       $unwind$__vcrt_initialize_locks 000000018004db58     libvcruntime:locks.obj
 0002:00009b58       $unwind$__vcrt_uninitialize_locks 000000018004db58     libvcruntime:locks.obj
 0002:00009b58       $unwind$??1?$basic_string@_WU?$char_traits@_W@std@@V?$allocator@_W@2@@std@@QEAA@XZ 000000018004db58     spellchecker_win.obj
 0002:00009b58       $unwind$__vcrt_freeptd     000000018004db58     libvcruntime:per_thread_data.obj
 0002:00009b58       $unwind$uninitialize_allocated_memory 000000018004db58     libucrt:initialization.obj
 0002:00009b58       $unwind$??0length_error@std@@QEAA@AEBV01@@Z 000000018004db58     libcpmt:xthrow.obj
 0002:00009b58       $unwind$initialize_pointers 000000018004db58     libucrt:initialization.obj
 0002:00009b58       $unwind$__scrt_uninitialize_crt 000000018004db58     LIBCMT:utility.obj
 0002:00009b58       $unwind$??0?$output_processor@DV?$stream_output_adapter@D@__crt_stdio_output@@V?$standard_base@DV?$stream_output_adapter@D@__crt_stdio_output@@@2@@__crt_stdio_output@@QEAA@AEBV?$stream_output_adapter@D@1@_KQEBDQEAU__crt_locale_pointers@@QEAD@Z 000000018004db58     libucrt:output.obj
 0002:00009b58       $unwind$?state_case_normal@?$output_processor@DV?$stream_output_adapter@D@__crt_stdio_output@@V?$standard_base@DV?$stream_output_adapter@D@__crt_stdio_output@@@2@@__crt_stdio_output@@AEAA_NXZ 000000018004db58     libucrt:output.obj
 0002:00009b58       $unwind$?state_case_normal_tchar@?$output_processor@DV?$stream_output_adapter@D@__crt_stdio_output@@V?$standard_base@DV?$stream_output_adapter@D@__crt_stdio_output@@@2@@__crt_stdio_output@@AEAA_ND@Z 000000018004db58     libucrt:output.obj
 0002:00009b58       $unwind$??_GSpellcheckerImplementation@spellchecker@@UEAAPEAXI@Z 000000018004db58     spellchecker_hunspell.obj
 0002:00009b58       $unwind$?type_case_integer@?$output_processor@DV?$stream_output_adapter@D@__crt_stdio_output@@V?$standard_base@DV?$stream_output_adapter@D@__crt_stdio_output@@@2@@__crt_stdio_output@@AEAA_NI_N@Z 000000018004db58     libucrt:output.obj
 0002:00009b58       $unwind$??0?$output_processor@_WV?$stream_output_adapter@_W@__crt_stdio_output@@V?$standard_base@_WV?$stream_output_adapter@_W@__crt_stdio_output@@@2@@__crt_stdio_output@@QEAA@AEBV?$stream_output_adapter@_W@1@_KQEB_WQEAU__crt_locale_pointers@@QEAD@Z 000000018004db58     libucrt:output.obj
 0002:00009b58       $unwind$?type_case_integer@?$output_processor@_WV?$stream_output_adapter@_W@__crt_stdio_output@@V?$standard_base@_WV?$stream_output_adapter@_W@__crt_stdio_output@@@2@@__crt_stdio_output@@AEAA_NI_N@Z 000000018004db58     libucrt:output.obj
 0002:00009b58       $unwind$??0?$output_processor@DV?$string_output_adapter@D@__crt_stdio_output@@V?$standard_base@DV?$string_output_adapter@D@__crt_stdio_output@@@2@@__crt_stdio_output@@QEAA@AEBV?$string_output_adapter@D@1@_KQEBDQEAU__crt_locale_pointers@@QEAD@Z 000000018004db58     libucrt:output.obj
 0002:00009b58       $unwind$?state_case_normal@?$output_processor@DV?$string_output_adapter@D@__crt_stdio_output@@V?$standard_base@DV?$string_output_adapter@D@__crt_stdio_output@@@2@@__crt_stdio_output@@AEAA_NXZ 000000018004db58     libucrt:output.obj
 0002:00009b58       $unwind$??0logic_error@std@@QEAA@AEBV01@@Z 000000018004db58     libcpmt:xthrow.obj
 0002:00009b58       $unwind$?type_case_integer@?$output_processor@DV?$string_output_adapter@D@__crt_stdio_output@@V?$standard_base@DV?$string_output_adapter@D@__crt_stdio_output@@@2@@__crt_stdio_output@@AEAA_NI_N@Z 000000018004db58     libucrt:output.obj
 0002:00009b58       $unwind$?decode_flag@HashMgr@@QEAAGPEBD@Z 000000018004db58     hunspell:hashmgr.obj
 0002:00009b58       $unwind$??0?$output_processor@_WV?$string_output_adapter@_W@__crt_stdio_output@@V?$standard_base@_WV?$string_output_adapter@_W@__crt_stdio_output@@@2@@__crt_stdio_output@@QEAA@AEBV?$string_output_adapter@_W@1@_KQEB_WQEAU__crt_locale_pointers@@QEAD@Z 000000018004db58     libucrt:output.obj
 0002:00009b58       $unwind$_onexit            000000018004db58     LIBCMT:utility.obj
 0002:00009b58       $unwind$?WeakCallback@ObjectWrap@Nan@@CAXAEBV?$WeakCallbackInfo@VObjectWrap@Nan@@@v8@@@Z 000000018004db58     main.obj
 0002:00009b58       $unwind$__scrt_initialize_crt 000000018004db58     LIBCMT:utility.obj
 0002:00009b58       $unwind$??0exception@std@@QEAA@AEBV01@@Z 000000018004db58     libcpmt:xthrow.obj
 0002:00009b58       $unwind$??$common_get_or_create_environment_nolock@D@@YAPEAPEADXZ 000000018004db58     libucrt:environment_initialization.obj
 0002:00009b58       $unwind$?type_case_integer@?$output_processor@_WV?$string_output_adapter@_W@__crt_stdio_output@@V?$standard_base@_WV?$string_output_adapter@_W@__crt_stdio_output@@@2@@__crt_stdio_output@@AEAA_NI_N@Z 000000018004db58     libucrt:output.obj
 0002:00009b58       $unwind$?Unref@ObjectWrap@Nan@@MEAAXXZ 000000018004db58     main.obj
 0002:00009b58       $unwind$__acrt_uninitialize_locks 000000018004db58     libucrt:locks.obj
 0002:00009b58       $unwind$_purecall          000000018004db58     libvcruntime:purevirt.obj
 0002:00009b58       $unwind$?get_aliasf@HashMgr@@QEAAHHPEAPEAGPEAVFileMgr@@@Z 000000018004db58     hunspell:hashmgr.obj
 0002:00009b60       $unwind$??$free_environment@D@@YAXQEAPEAD@Z 000000018004db60     libucrt:environment_initialization.obj
 0002:00009b60       $unwind$?Wrap@ObjectWrap@Nan@@IEAAXV?$Local@VObject@v8@@@v8@@@Z 000000018004db60     main.obj
 0002:00009b60       $unwind$??$free_environment@_W@@YAXQEAPEA_W@Z 000000018004db60     libucrt:environment_initialization.obj
 0002:00009b6c       $unwind$?encodeit@AffixMgr@@AEAAHAEAUaffentry@@PEAD@Z 000000018004db6c     hunspell:affixmgr.obj
 0002:00009b6c       $unwind$?process_sfx_in_order@AffixMgr@@AEAAPEAVSfxEntry@@PEAV2@0@Z 000000018004db6c     hunspell:affixmgr.obj
 0002:00009b6c       $unwind$?process_pfx_in_order@AffixMgr@@AEAAPEAVPfxEntry@@PEAV2@0@Z 000000018004db6c     hunspell:affixmgr.obj
 0002:00009b6c       $unwind$__acrt_stdio_begin_temporary_buffering_nolock 000000018004db6c     libucrt:_sftbuf.obj
 0002:00009b6c       $unwind$strncpy_s          000000018004db6c     libucrt:strncpy_s.obj
 0002:00009b6c       $unwind$wcsncat_s          000000018004db6c     libucrt:wcsncat_s.obj
 0002:00009b6c       $unwind$_fclose_nolock     000000018004db6c     libucrt:fclose.obj
 0002:00009b6c       $unwind$??0AffixMgr@@QEAA@PEBDPEAPEAVHashMgr@@PEAH0@Z 000000018004db6c     hunspell:affixmgr.obj
 0002:00009b6c       $unwind$??_GSuggestMgr@@QEAAPEAXI@Z 000000018004db6c     hunspell:hunspell.obj
 0002:00009b6c       $unwind$??0SfxEntry@@QEAA@PEAVAffixMgr@@PEAUaffentry@@@Z 000000018004db6c     hunspell:affentry.obj
 0002:00009b6c       $unwind$__acrt_uninitialize_lowio 000000018004db6c     libucrt:ioinit.obj
 0002:00009b6c       $unwind$__acrt_invoke_user_matherr 000000018004db6c     libucrt:matherr.obj
 0002:00009b6c       $unwind$?force_decimal_point@__crt_stdio_output@@YAXPEADQEAU__crt_locale_pointers@@@Z 000000018004db6c     libucrt:output.obj
 0002:00009b6c       $unwind$?type_case_c_tchar@?$output_processor@DV?$stream_output_adapter@D@__crt_stdio_output@@V?$standard_base@DV?$stream_output_adapter@D@__crt_stdio_output@@@2@@__crt_stdio_output@@AEAA_ND@Z 000000018004db6c     libucrt:output.obj
 0002:00009b6c       $unwind$?type_case_c_tchar@?$output_processor@DV?$string_output_adapter@D@__crt_stdio_output@@V?$standard_base@DV?$string_output_adapter@D@__crt_stdio_output@@@2@@__crt_stdio_output@@AEAA_ND@Z 000000018004db6c     libucrt:output.obj
 0002:00009b6c       $unwind$_close_nolock      000000018004db6c     libucrt:close.obj
 0002:00009b6c       $unwind$_updatetlocinfoEx_nolock 000000018004db6c     libucrt:locale_refcounting.obj
 0002:00009b6c       $unwind$__acrt_FlsAlloc    000000018004db6c     libucrt:winapi_thunks.obj
 0002:00009b6c       $unwind$?try_cor_exit_process@@YAXI@Z 000000018004db6c     libucrt:exit.obj
 0002:00009b6c       $unwind$__acrt_FlsFree     000000018004db6c     libucrt:winapi_thunks.obj
 0002:00009b6c       $unwind$__acrt_FlsGetValue 000000018004db6c     libucrt:winapi_thunks.obj
 0002:00009b6c       $unwind$??_GWindowsSpellchecker@spellchecker@@UEAAPEAXI@Z 000000018004db6c     spellchecker_win.obj
 0002:00009b6c       $unwind$__acrt_get_parent_window 000000018004db6c     libucrt:winapi_thunks.obj
 0002:00009b6c       $unwind$?erase@?$basic_string@_WU?$char_traits@_W@std@@V?$allocator@_W@2@@std@@QEAAAEAV12@_K0@Z 000000018004db6c     spellchecker_win.obj
 0002:00009b6c       $unwind$__acrt_getptd      000000018004db6c     libucrt:per_thread_data.obj
 0002:00009b6c       $unwind$?replace_current_thread_locale_nolock@@YAXQEAU__acrt_ptd@@QEAU__crt_locale_data@@@Z 000000018004db6c     libucrt:per_thread_data.obj
 0002:00009b6c       $unwind$?_Assign_rv@?$basic_string@DU?$char_traits@D@std@@V?$allocator@D@2@@std@@QEAAX$$QEAV12@@Z 000000018004db6c     spellchecker_hunspell.obj
 0002:00009b6c       $unwind$??_Gexception@std@@UEAAPEAXI@Z 000000018004db6c     libcpmt:xthrow.obj
 0002:00009b6c       $unwind$??$common_initialize_environment_nolock@D@@YAHXZ 000000018004db6c     libucrt:environment_initialization.obj
 0002:00009b6c       $unwind$??0Hunzip@@QEAA@PEBD0@Z 000000018004db6c     hunspell:hunzip.obj
 0002:00009b6c       $unwind$??_GObjectWrap@Nan@@UEAAPEAXI@Z 000000018004db6c     main.obj
 0002:00009b6c       $unwind$??_Glogic_error@std@@UEAAPEAXI@Z 000000018004db6c     libcpmt:xthrow.obj
 0002:00009b6c       $unwind$??_Glength_error@std@@UEAAPEAXI@Z 000000018004db6c     libcpmt:xthrow.obj
 0002:00009b6c       $unwind$??_Gout_of_range@std@@UEAAPEAXI@Z 000000018004db6c     libcpmt:xthrow.obj
 0002:00009b6c       $unwind$_realloc_base      000000018004db6c     libucrt:realloc_base.obj
 0002:00009b6c       $unwind$_callnewh          000000018004db6c     libucrt:new_handler.obj
 0002:00009b6c       $unwind$??0_LocaleUpdate@@QEAA@QEAU__crt_locale_pointers@@@Z 000000018004db6c     libucrt:_wctype.obj
 0002:00009b6c       $unwind$??_Gbad_array_new_length@std@@UEAAPEAXI@Z 000000018004db6c     LIBCMT:throw_bad_alloc.obj
 0002:00009b6c       $unwind$??_GSpellchecker@?A0x29701496@@EEAAPEAXI@Z 000000018004db6c     main.obj
 0002:00009b6c       $unwind$??$common_xtox@K_W@@YAHKQEA_W_KI_N@Z 000000018004db6c     libucrt:xtoa.obj
 0002:00009b6c       $unwind$?erase@?$basic_string@DU?$char_traits@D@std@@V?$allocator@D@2@@std@@QEAAAEAV12@_K0@Z 000000018004db6c     main.obj
 0002:00009b6c       $unwind$?internal_isupper_l@@YA_NHQEAU__crt_locale_pointers@@@Z 000000018004db6c     libucrt:tolower_toupper.obj
 0002:00009b6c       $unwind$__vcrt_FlsGetValue 000000018004db6c     libvcruntime:winapi_downlevel.obj
 0002:00009b6c       $unwind$??_GFileMgr@@QEAAPEAXI@Z 000000018004db6c     hunspell:hashmgr.obj
 0002:00009b6c       $unwind$__acrt_errno_map_os_error 000000018004db6c     libucrt:errno.obj
 0002:00009b6c       $unwind$__vcrt_FlsFree     000000018004db6c     libvcruntime:winapi_downlevel.obj
 0002:00009b6c       $unwind$__vcrt_FlsAlloc    000000018004db6c     libvcruntime:winapi_downlevel.obj
 0002:00009b6c       $unwind$??_Gbad_alloc@std@@UEAAPEAXI@Z 000000018004db6c     libcpmt:xthrow.obj
 0002:00009b78       $unwind$_mbsdec_l          000000018004db78     libucrt:mbsdec.obj
 0002:00009b78       $unwind$?New@Spellchecker@?A0x29701496@@CAXAEBV?$FunctionCallbackInfo@VValue@v8@@@Nan@@@Z 000000018004db78     main.obj
 0002:00009b84       $unwind$?SetDictionary@Spellchecker@?A0x29701496@@CAXAEBV?$FunctionCallbackInfo@VValue@v8@@@Nan@@@Z 000000018004db84     main.obj
 0002:00009b9c       $chain$2$?SetDictionary@Spellchecker@?A0x29701496@@CAXAEBV?$FunctionCallbackInfo@VValue@v8@@@Nan@@@Z 000000018004db9c     main.obj
 0002:00009bb8       $chain$3$?SetDictionary@Spellchecker@?A0x29701496@@CAXAEBV?$FunctionCallbackInfo@VValue@v8@@@Nan@@@Z 000000018004dbb8     main.obj
 0002:00009bb8       $chain$5$?SetDictionary@Spellchecker@?A0x29701496@@CAXAEBV?$FunctionCallbackInfo@VValue@v8@@@Nan@@@Z 000000018004dbb8     main.obj
 0002:00009bcc       $chain$4$?SetDictionary@Spellchecker@?A0x29701496@@CAXAEBV?$FunctionCallbackInfo@VValue@v8@@@Nan@@@Z 000000018004dbcc     main.obj
 0002:00009bdc       $unwind$?IsMisspelled@Spellchecker@?A0x29701496@@CAXAEBV?$FunctionCallbackInfo@VValue@v8@@@Nan@@@Z 000000018004dbdc     main.obj
 0002:00009bec       $chain$0$?IsMisspelled@Spellchecker@?A0x29701496@@CAXAEBV?$FunctionCallbackInfo@VValue@v8@@@Nan@@@Z 000000018004dbec     main.obj
 0002:00009c00       $chain$1$?IsMisspelled@Spellchecker@?A0x29701496@@CAXAEBV?$FunctionCallbackInfo@VValue@v8@@@Nan@@@Z 000000018004dc00     main.obj
 0002:00009c10       $unwind$?CheckSpelling@Spellchecker@?A0x29701496@@CAXAEBV?$FunctionCallbackInfo@VValue@v8@@@Nan@@@Z 000000018004dc10     main.obj
 0002:00009c20       $chain$3$?CheckSpelling@Spellchecker@?A0x29701496@@CAXAEBV?$FunctionCallbackInfo@VValue@v8@@@Nan@@@Z 000000018004dc20     main.obj
 0002:00009c40       $chain$4$?CheckSpelling@Spellchecker@?A0x29701496@@CAXAEBV?$FunctionCallbackInfo@VValue@v8@@@Nan@@@Z 000000018004dc40     main.obj
 0002:00009c50       $chain$5$?CheckSpelling@Spellchecker@?A0x29701496@@CAXAEBV?$FunctionCallbackInfo@VValue@v8@@@Nan@@@Z 000000018004dc50     main.obj
 0002:00009c70       $unwind$?Add@Spellchecker@?A0x29701496@@CAXAEBV?$FunctionCallbackInfo@VValue@v8@@@Nan@@@Z 000000018004dc70     main.obj
 0002:00009c80       $chain$0$?Add@Spellchecker@?A0x29701496@@CAXAEBV?$FunctionCallbackInfo@VValue@v8@@@Nan@@@Z 000000018004dc80     main.obj
 0002:00009c94       $chain$1$?Add@Spellchecker@?A0x29701496@@CAXAEBV?$FunctionCallbackInfo@VValue@v8@@@Nan@@@Z 000000018004dc94     main.obj
 0002:00009ca4       $unwind$?GetAvailableDictionaries@Spellchecker@?A0x29701496@@CAXAEBV?$FunctionCallbackInfo@VValue@v8@@@Nan@@@Z 000000018004dca4     main.obj
 0002:00009cc0       $chain$0$?GetAvailableDictionaries@Spellchecker@?A0x29701496@@CAXAEBV?$FunctionCallbackInfo@VValue@v8@@@Nan@@@Z 000000018004dcc0     main.obj
 0002:00009cd4       $chain$2$?GetAvailableDictionaries@Spellchecker@?A0x29701496@@CAXAEBV?$FunctionCallbackInfo@VValue@v8@@@Nan@@@Z 000000018004dcd4     main.obj
 0002:00009cec       $chain$3$?GetAvailableDictionaries@Spellchecker@?A0x29701496@@CAXAEBV?$FunctionCallbackInfo@VValue@v8@@@Nan@@@Z 000000018004dcec     main.obj
 0002:00009cfc       $chain$4$?GetAvailableDictionaries@Spellchecker@?A0x29701496@@CAXAEBV?$FunctionCallbackInfo@VValue@v8@@@Nan@@@Z 000000018004dcfc     main.obj
 0002:00009d0c       $unwind$?GetCorrectionsForMisspelling@Spellchecker@?A0x29701496@@CAXAEBV?$FunctionCallbackInfo@VValue@v8@@@Nan@@@Z 000000018004dd0c     main.obj
 0002:00009d20       $chain$1$?GetCorrectionsForMisspelling@Spellchecker@?A0x29701496@@CAXAEBV?$FunctionCallbackInfo@VValue@v8@@@Nan@@@Z 000000018004dd20     main.obj
 0002:00009d38       $chain$3$?GetCorrectionsForMisspelling@Spellchecker@?A0x29701496@@CAXAEBV?$FunctionCallbackInfo@VValue@v8@@@Nan@@@Z 000000018004dd38     main.obj
 0002:00009d50       $chain$4$?GetCorrectionsForMisspelling@Spellchecker@?A0x29701496@@CAXAEBV?$FunctionCallbackInfo@VValue@v8@@@Nan@@@Z 000000018004dd50     main.obj
 0002:00009d60       $chain$5$?GetCorrectionsForMisspelling@Spellchecker@?A0x29701496@@CAXAEBV?$FunctionCallbackInfo@VValue@v8@@@Nan@@@Z 000000018004dd60     main.obj
 0002:00009d70       $unwind$?Init@Spellchecker@?A0x29701496@@SAXV?$Local@VObject@v8@@@v8@@@Z 000000018004dd70     main.obj
 0002:00009d7c       $unwind$?deallocate@?$_Wrap_alloc@V?$allocator@Uaffentry@@@std@@@std@@QEAAXPEAUaffentry@@_K@Z 000000018004dd7c     hunspell:affixmgr.obj
 0002:00009d7c       $unwind$_isatty            000000018004dd7c     libucrt:isatty.obj
 0002:00009d7c       $unwind$?initialize_utf_tbl@@YAHXZ 000000018004dd7c     hunspell:csutil.obj
 0002:00009d7c       $unwind$?dllmain_crt_dispatch@@YAHQEAUHINSTANCE__@@KQEAX@Z 000000018004dd7c     LIBCMT:dll_dllmain.obj
 0002:00009d7c       $unwind$tolower            000000018004dd7c     libucrt:tolower_toupper.obj
 0002:00009d7c       $unwind$?state_case_size@?$output_processor@_WV?$string_output_adapter@_W@__crt_stdio_output@@V?$standard_base@_WV?$string_output_adapter@_W@__crt_stdio_output@@@2@@__crt_stdio_output@@AEAA_NXZ 000000018004dd7c     libucrt:output.obj
 0002:00009d7c       $unwind$_set_errno_from_matherr 000000018004dd7c     libucrt:fpexcept.obj
 0002:00009d7c       $unwind$_fileno            000000018004dd7c     libucrt:fileno.obj
 0002:00009d7c       $unwind$_getfpstatusword   000000018004dd7c     libucrt:_fenvutils.obj
 0002:00009d7c       $unwind$__dcrt_terminate_console_output 000000018004dd7c     libucrt:initcon.obj
 0002:00009d7c       $unwind$abort              000000018004dd7c     libucrt:abort.obj
 0002:00009d7c       $unwind$??$uninitialize_environment_internal@_W@@YAXAEAPEAPEA_W@Z 000000018004dd7c     libucrt:environment_initialization.obj
 0002:00009d7c       $unwind$__scrt_dllmain_crt_thread_detach 000000018004dd7c     LIBCMT:utility.obj
 0002:00009d7c       $unwind$atexit             000000018004dd7c     LIBCMT:utility.obj
 0002:00009d7c       $unwind$?IsMisspelled@HunspellSpellchecker@spellchecker@@UEAA_NAEBV?$basic_string@DU?$char_traits@D@std@@V?$allocator@D@2@@std@@@Z 000000018004dd7c     spellchecker_hunspell.obj
 0002:00009d7c       $unwind$_getfpcontrolword  000000018004dd7c     libucrt:_fenvutils.obj
 0002:00009d7c       $unwind$__vcrt_uninitialize_ptd 000000018004dd7c     libvcruntime:per_thread_data.obj
 0002:00009d7c       $unwind$__vcrt_thread_detach 000000018004dd7c     libvcruntime:initialization.obj
 0002:00009d7c       $unwind$__scrt_acquire_startup_lock 000000018004dd7c     LIBCMT:utility.obj
 0002:00009d7c       $unwind$__scrt_initialize_default_local_stdio_options 000000018004dd7c     LIBCMT:default_local_stdio_options.obj
 0002:00009d7c       $unwind$_set_error_mode    000000018004dd7c     libucrt:set_error_mode.obj
 0002:00009d7c       $unwind$_statfp            000000018004dd7c     libucrt:fpctrl.obj
 0002:00009d7c       $unwind$?Init@?A0x29701496@@YAXV?$Local@VObject@v8@@@v8@@0@Z 000000018004dd7c     main.obj
 0002:00009d7c       $unwind$__scrt_dllmain_before_initialize_c 000000018004dd7c     LIBCMT:utility.obj
 0002:00009d7c       $unwind$__acrt_initialize_heap 000000018004dd7c     libucrt:heap_handle.obj
 0002:00009d7c       $unwind$__report_rangecheckfailure 000000018004dd7c     LIBCMT:gs_report.obj
 0002:00009d7c       $unwind$__vcrt_initialize_ptd 000000018004dd7c     libvcruntime:per_thread_data.obj
 0002:00009d7c       $unwind$_invoke_watson     000000018004dd7c     libucrt:invalid_parameter.obj
 0002:00009d7c       $unwind$_msize             000000018004dd7c     libucrt:msize.obj
 0002:00009d7c       $unwind$__acrt_initialize_clock 000000018004dd7c     libucrt:clock.obj
 0002:00009d7c       $unwind$__vcrt_thread_attach 000000018004dd7c     libvcruntime:initialization.obj
 0002:00009d7c       $unwind$__GSHandlerCheck   000000018004dd7c     LIBCMT:_gshandler_.obj
 0002:00009d7c       $unwind$__scrt_dllmain_after_initialize_c 000000018004dd7c     LIBCMT:utility.obj
 0002:00009d7c       $unwind$__scrt_dllmain_uninitialize_c 000000018004dd7c     LIBCMT:utility.obj
 0002:00009d7c       $unwind$_strnicmp          000000018004dd7c     libucrt:strnicmp.obj
 0002:00009d7c       $unwind$__scrt_dllmain_uninitialize_critical 000000018004dd7c     LIBCMT:utility.obj
 0002:00009d7c       $unwind$_get_osfhandle     000000018004dd7c     libucrt:osfinfo.obj
 0002:00009d7c       $unwind$__scrt_dllmain_crt_thread_attach 000000018004dd7c     LIBCMT:utility.obj
 0002:00009d7c       $unwind$__doserrno         000000018004dd7c     libucrt:errno.obj
 0002:00009d7c       $unwind$_errno             000000018004dd7c     libucrt:errno.obj
 0002:00009d7c       $unwind$__vcrt_freefls     000000018004dd7c     libvcruntime:per_thread_data.obj
 0002:00009d7c       $unwind$?initialize_multibyte@@YAHXZ 000000018004dd7c     libucrt:multibyte_initializer.obj
 0002:00009d7c       $unwind$__acrt_initialize_ptd 000000018004dd7c     libucrt:per_thread_data.obj
 0002:00009d7c       $unwind$__vcrt_uninitialize_critical 000000018004dd7c     libvcruntime:initialization.obj
 0002:00009d7c       $unwind$__vcrt_uninitialize 000000018004dd7c     libvcruntime:initialization.obj
 0002:00009d7c       $unwind$__acrt_release_locale_ref 000000018004dd7c     libucrt:locale_refcounting.obj
 0002:00009d7c       $unwind$__vcrt_initialize  000000018004dd7c     libvcruntime:initialization.obj
 0002:00009d7c       $unwind$uninitialize_environment 000000018004dd7c     libucrt:initialization.obj
 0002:00009d7c       $unwind$__acrt_DownlevelLocaleNameToLCID 000000018004dd7c     libucrt:lcidtoname_downlevel.obj
 0002:00009d7c       $unwind$?_Reserve@?$vector@V?$basic_string@DU?$char_traits@D@std@@V?$allocator@D@2@@std@@V?$allocator@V?$basic_string@DU?$char_traits@D@std@@V?$allocator@D@2@@std@@@2@@std@@IEAAX_K@Z 000000018004dd7c     spellchecker_hunspell.obj
 0002:00009d7c       $unwind$initialize_c       000000018004dd7c     libucrt:initialization.obj
 0002:00009d7c       $unwind$__acrt_initialize_multibyte 000000018004dd7c     libucrt:mbctype.obj
 0002:00009d7c       $unwind$__acrt_initialize_command_line 000000018004dd7c     libucrt:argv_data.obj
 0002:00009d7c       $unwind$__acrt_thread_detach 000000018004dd7c     libucrt:initialization.obj
 0002:00009d7c       $unwind$__acrt_thread_attach 000000018004dd7c     libucrt:initialization.obj
 0002:00009d7c       $unwind$__acrt_uninitialize_critical 000000018004dd7c     libucrt:initialization.obj
 0002:00009d7c       $unwind$__acrt_uninitialize_ptd 000000018004dd7c     libucrt:per_thread_data.obj
 0002:00009d7c       $unwind$__dcrt_uninitialize_environments_nolock 000000018004dd7c     libucrt:environment_initialization.obj
 0002:00009d7c       $unwind$?state_case_size@?$output_processor@DV?$string_output_adapter@D@__crt_stdio_output@@V?$standard_base@DV?$string_output_adapter@D@__crt_stdio_output@@@2@@__crt_stdio_output@@AEAA_NXZ 000000018004dd7c     libucrt:output.obj
 0002:00009d7c       $unwind$?state_case_normal_tchar@?$output_processor@DV?$string_output_adapter@D@__crt_stdio_output@@V?$standard_base@DV?$string_output_adapter@D@__crt_stdio_output@@@2@@__crt_stdio_output@@AEAA_ND@Z 000000018004dd7c     libucrt:output.obj
 0002:00009d7c       $unwind$_fgetc_nolock      000000018004dd7c     libucrt:fgetc.obj
 0002:00009d7c       $unwind$??$uninitialize_environment_internal@D@@YAXAEAPEAPEAD@Z 000000018004dd7c     libucrt:environment_initialization.obj
 0002:00009d7c       $unwind$_get_fmode         000000018004dd7c     libucrt:setmode.obj
 0002:00009d7c       $unwind$?validate_stream_is_ansi_if_required@?$__acrt_stdio_char_traits@D@@SA_NQEAU_iobuf@@@Z 000000018004dd7c     libucrt:output.obj
 0002:00009d7c       $unwind$?state_case_size@?$output_processor@DV?$stream_output_adapter@D@__crt_stdio_output@@V?$standard_base@DV?$stream_output_adapter@D@__crt_stdio_output@@@2@@__crt_stdio_output@@AEAA_NXZ 000000018004dd7c     libucrt:output.obj
 0002:00009d7c       $unwind$?state_case_size@?$output_processor@_WV?$stream_output_adapter@_W@__crt_stdio_output@@V?$standard_base@_WV?$stream_output_adapter@_W@__crt_stdio_output@@@2@@__crt_stdio_output@@AEAA_NXZ 000000018004dd7c     libucrt:output.obj
 0002:00009d7c       $unwind$__pctype_func      000000018004dd7c     libucrt:ctype.obj
 0002:00009d84       $unwind$?type_case_n@?$output_processor@DV?$stream_output_adapter@D@__crt_stdio_output@@V?$standard_base@DV?$stream_output_adapter@D@__crt_stdio_output@@@2@@__crt_stdio_output@@AEAA_NXZ 000000018004dd84     libucrt:output.obj
 0002:00009d84       $unwind$?type_case_s@?$output_processor@DV?$stream_output_adapter@D@__crt_stdio_output@@V?$standard_base@DV?$stream_output_adapter@D@__crt_stdio_output@@@2@@__crt_stdio_output@@AEAA_NXZ 000000018004dd84     libucrt:output.obj
 0002:00009d84       $unwind$?type_case_Z@?$output_processor@DV?$stream_output_adapter@D@__crt_stdio_output@@V?$standard_base@DV?$stream_output_adapter@D@__crt_stdio_output@@@2@@__crt_stdio_output@@AEAA_NXZ 000000018004dd84     libucrt:output.obj
 0002:00009d84       $unwind$?type_case_s@?$output_processor@_WV?$stream_output_adapter@_W@__crt_stdio_output@@V?$standard_base@_WV?$stream_output_adapter@_W@__crt_stdio_output@@@2@@__crt_stdio_output@@AEAA_NXZ 000000018004dd84     libucrt:output.obj
 0002:00009d84       $unwind$?type_case_n@?$output_processor@_WV?$string_output_adapter@_W@__crt_stdio_output@@V?$standard_base@_WV?$string_output_adapter@_W@__crt_stdio_output@@@2@@__crt_stdio_output@@AEAA_NXZ 000000018004dd84     libucrt:output.obj
 0002:00009d84       $unwind$?type_case_n@?$output_processor@_WV?$stream_output_adapter@_W@__crt_stdio_output@@V?$standard_base@_WV?$stream_output_adapter@_W@__crt_stdio_output@@@2@@__crt_stdio_output@@AEAA_NXZ 000000018004dd84     libucrt:output.obj
 0002:00009d84       $unwind$__acrt_stdio_flush_and_write_wide_nolock 000000018004dd84     libucrt:_flsbuf.obj
 0002:00009d84       $unwind$__acrt_getptd_noexit 000000018004dd84     libucrt:per_thread_data.obj
 0002:00009d84       $unwind$__acrt_stdio_flush_and_write_narrow_nolock 000000018004dd84     libucrt:_flsbuf.obj
 0002:00009d84       $unwind$?process_pfx_tree_to_list@AffixMgr@@AEAAHXZ 000000018004dd84     hunspell:affixmgr.obj
 0002:00009d84       $unwind$?type_case_Z@?$output_processor@DV?$string_output_adapter@D@__crt_stdio_output@@V?$standard_base@DV?$string_output_adapter@D@__crt_stdio_output@@@2@@__crt_stdio_output@@AEAA_NXZ 000000018004dd84     libucrt:output.obj
 0002:00009d84       $unwind$?type_case_s@?$output_processor@DV?$string_output_adapter@D@__crt_stdio_output@@V?$standard_base@DV?$string_output_adapter@D@__crt_stdio_output@@@2@@__crt_stdio_output@@AEAA_NXZ 000000018004dd84     libucrt:output.obj
 0002:00009d84       $unwind$??0HashMgr@@QEAA@PEBD00@Z 000000018004dd84     hunspell:hashmgr.obj
 0002:00009d84       $unwind$_initterm_e        000000018004dd84     libucrt:initterm.obj
 0002:00009d84       $unwind$??$common_getenv_nolock@D@@YAPEADQEBD@Z 000000018004dd84     libucrt:getenv.obj
 0002:00009d84       $unwind$_RTC_Initialize    000000018004dd84     LIBCMT:_initsect_.obj
 0002:00009d84       $unwind$_RTC_Terminate     000000018004dd84     LIBCMT:_initsect_.obj
 0002:00009d84       $unwind$__acrt_stdio_flush_nolock 000000018004dd84     libucrt:fflush.obj
 0002:00009d84       $unwind$_exception_enabled 000000018004dd84     libucrt:libm_error.obj
 0002:00009d84       $unwind$?assign@?$basic_string@DU?$char_traits@D@std@@V?$allocator@D@2@@std@@QEAAAEAV12@PEBD_K@Z 000000018004dd84     main.obj
 0002:00009d84       $unwind$?type_case_n@?$output_processor@DV?$string_output_adapter@D@__crt_stdio_output@@V?$standard_base@DV?$string_output_adapter@D@__crt_stdio_output@@@2@@__crt_stdio_output@@AEAA_NXZ 000000018004dd84     libucrt:output.obj
 0002:00009d84       $unwind$??R<lambda_ad1ced32f4ac17aa236e5ef05d6b3b7c>@@QEBAXXZ 000000018004dd84     libucrt:mbctype.obj
 0002:00009d84       $unwind$??_GHunspellSpellchecker@spellchecker@@UEAAPEAXI@Z 000000018004dd84     spellchecker_hunspell.obj
 0002:00009d84       $unwind$__acrt_execute_uninitializers 000000018004dd84     libucrt:shared_initialization.obj
 0002:00009d84       $unwind$??$common_lseek_nolock@_J@@YA_JH_JH@Z 000000018004dd84     libucrt:lseek.obj
 0002:00009d84       $unwind$?assign@?$basic_string@_WU?$char_traits@_W@std@@V?$allocator@_W@2@@std@@QEAAAEAV12@PEB_W_K@Z 000000018004dd84     spellchecker_win.obj
 0002:00009d84       $unwind$?resize@?$vector@Uaffentry@@V?$allocator@Uaffentry@@@std@@@std@@QEAAX_K@Z 000000018004dd84     hunspell:affixmgr.obj
 0002:00009d84       $unwind$__acrt_LocaleNameToLCID 000000018004dd84     libucrt:winapi_thunks.obj
 0002:00009d84       $unwind$_DllMainCRTStartup 000000018004dd84     LIBCMT:dll_dllmain.obj
 0002:00009d84       $unwind$__vcrt_FlsSetValue 000000018004dd84     libvcruntime:winapi_downlevel.obj
 0002:00009d84       $unwind$?type_case_Z@?$output_processor@_WV?$string_output_adapter@_W@__crt_stdio_output@@V?$standard_base@_WV?$string_output_adapter@_W@__crt_stdio_output@@@2@@__crt_stdio_output@@AEAA_NXZ 000000018004dd84     libucrt:output.obj
 0002:00009d84       $unwind$?remove_ignored_chars@@YAXPEAD0@Z 000000018004dd84     hunspell:csutil.obj
 0002:00009d84       $unwind$__vcrt_getptd_noexit 000000018004dd84     libvcruntime:per_thread_data.obj
 0002:00009d84       $unwind$?insert_sug@Hunspell@@AEAAHPEAPEAPEADPEADH@Z 000000018004dd84     hunspell:hunspell.obj
 0002:00009d84       $unwind$memcpy_s           000000018004dd84     libucrt:cfout.obj
 0002:00009d84       $unwind$?type_case_s@?$output_processor@_WV?$string_output_adapter@_W@__crt_stdio_output@@V?$standard_base@_WV?$string_output_adapter@_W@__crt_stdio_output@@@2@@__crt_stdio_output@@AEAA_NXZ 000000018004dd84     libucrt:output.obj
 0002:00009d84       $unwind$__acrt_FlsSetValue 000000018004dd84     libucrt:winapi_thunks.obj
 0002:00009d84       $unwind$?free_crt_array_internal@@YAXQEAPEBX_K@Z 000000018004dd84     libucrt:inittime.obj
 0002:00009d84       $unwind$?type_case_Z@?$output_processor@_WV?$stream_output_adapter@_W@__crt_stdio_output@@V?$standard_base@_WV?$stream_output_adapter@_W@__crt_stdio_output@@@2@@__crt_stdio_output@@AEAA_NXZ 000000018004dd84     libucrt:output.obj
 0002:00009d94       $unwind$_free_osfhnd       000000018004dd94     libucrt:osfinfo.obj
 0002:00009d94       $unwind$__std_exception_copy 000000018004dd94     libvcruntime:std_exception.obj
 0002:00009d94       $unwind$?assign@?$basic_string@DU?$char_traits@D@std@@V?$allocator@D@2@@std@@QEAAAEAV12@AEBV12@_K1@Z 000000018004dd94     main.obj
 0002:00009d94       $unwind$?initialize_stdio_handles_nolock@@YAXXZ 000000018004dd94     libucrt:ioinit.obj
 0002:00009d94       $unwind$?assign@?$basic_string@_WU?$char_traits@_W@std@@V?$allocator@_W@2@@std@@QEAAAEAV12@AEBV12@_K1@Z 000000018004dd94     spellchecker_win.obj
 0002:00009da8       $unwind$?_Copy@?$basic_string@DU?$char_traits@D@std@@V?$allocator@D@2@@std@@QEAAX_K0@Z 000000018004dda8     main.obj
 0002:00009dbc       $unwind$??$Unwrap@VSpellchecker@?A0x29701496@@@ObjectWrap@Nan@@SAPEAVSpellchecker@?A0x29701496@@V?$Local@VObject@v8@@@v8@@@Z 000000018004ddbc     main.obj
 0002:00009dc4       $unwind$??$_Destroy_range1@V?$allocator@V?$basic_string@DU?$char_traits@D@std@@V?$allocator@D@2@@std@@@std@@PEAV?$basic_string@DU?$char_traits@D@std@@V?$allocator@D@2@@2@@std@@YAXPEAV?$basic_string@DU?$char_traits@D@std@@V?$allocator@D@2@@0@0AEAU?$_Wrap_alloc@V?$allocator@V?$basic_string@DU?$char_traits@D@std@@V?$allocator@D@2@@std@@@std@@@0@U?$integral_constant@_N$0A@@0@@Z 000000018004ddc4     main.obj
 0002:00009dcc       $chain$1$??$_Destroy_range1@V?$allocator@V?$basic_string@DU?$char_traits@D@std@@V?$allocator@D@2@@std@@@std@@PEAV?$basic_string@DU?$char_traits@D@std@@V?$allocator@D@2@@2@@std@@YAXPEAV?$basic_string@DU?$char_traits@D@std@@V?$allocator@D@2@@0@0AEAU?$_Wrap_alloc@V?$allocator@V?$basic_string@DU?$char_traits@D@std@@V?$allocator@D@2@@std@@@std@@@0@U?$integral_constant@_N$0A@@0@@Z 000000018004ddcc     main.obj
 0002:00009de4       $chain$2$??$_Destroy_range1@V?$allocator@V?$basic_string@DU?$char_traits@D@std@@V?$allocator@D@2@@std@@@std@@PEAV?$basic_string@DU?$char_traits@D@std@@V?$allocator@D@2@@2@@std@@YAXPEAV?$basic_string@DU?$char_traits@D@std@@V?$allocator@D@2@@0@0AEAU?$_Wrap_alloc@V?$allocator@V?$basic_string@DU?$char_traits@D@std@@V?$allocator@D@2@@std@@@std@@@0@U?$integral_constant@_N$0A@@0@@Z 000000018004dde4     main.obj
 0002:00009df4       $chain$3$??$_Destroy_range1@V?$allocator@V?$basic_string@DU?$char_traits@D@std@@V?$allocator@D@2@@std@@@std@@PEAV?$basic_string@DU?$char_traits@D@std@@V?$allocator@D@2@@2@@std@@YAXPEAV?$basic_string@DU?$char_traits@D@std@@V?$allocator@D@2@@0@0AEAU?$_Wrap_alloc@V?$allocator@V?$basic_string@DU?$char_traits@D@std@@V?$allocator@D@2@@std@@@std@@@0@U?$integral_constant@_N$0A@@0@@Z 000000018004ddf4     main.obj
 0002:00009e0c       $unwind$?SetDictionary@HunspellSpellchecker@spellchecker@@UEAA_NAEBV?$basic_string@DU?$char_traits@D@std@@V?$allocator@D@2@@std@@0@Z 000000018004de0c     spellchecker_hunspell.obj
 0002:00009e2c       $unwind$?CheckSpelling@HunspellSpellchecker@spellchecker@@UEAA?AV?$vector@UMisspelledRange@spellchecker@@V?$allocator@UMisspelledRange@spellchecker@@@std@@@std@@PEBG_K@Z 000000018004de2c     spellchecker_hunspell.obj
 0002:00009e44       $chain$3$?CheckSpelling@HunspellSpellchecker@spellchecker@@UEAA?AV?$vector@UMisspelledRange@spellchecker@@V?$allocator@UMisspelledRange@spellchecker@@@std@@@std@@PEBG_K@Z 000000018004de44     spellchecker_hunspell.obj
 0002:00009e64       $chain$4$?CheckSpelling@HunspellSpellchecker@spellchecker@@UEAA?AV?$vector@UMisspelledRange@spellchecker@@V?$allocator@UMisspelledRange@spellchecker@@@std@@@std@@PEBG_K@Z 000000018004de64     spellchecker_hunspell.obj
 0002:00009e74       $chain$5$?CheckSpelling@HunspellSpellchecker@spellchecker@@UEAA?AV?$vector@UMisspelledRange@spellchecker@@V?$allocator@UMisspelledRange@spellchecker@@@std@@@std@@PEBG_K@Z 000000018004de74     spellchecker_hunspell.obj
 0002:00009e94       $unwind$?GetCorrectionsForMisspelling@HunspellSpellchecker@spellchecker@@UEAA?AV?$vector@V?$basic_string@DU?$char_traits@D@std@@V?$allocator@D@2@@std@@V?$allocator@V?$basic_string@DU?$char_traits@D@std@@V?$allocator@D@2@@std@@@2@@std@@AEBV?$basic_string@DU?$char_traits@D@std@@V?$allocator@D@2@@4@@Z 000000018004de94     spellchecker_hunspell.obj
 0002:00009eb4       $unwind$?_Reallocate@?$vector@V?$basic_string@DU?$char_traits@D@std@@V?$allocator@D@2@@std@@V?$allocator@V?$basic_string@DU?$char_traits@D@std@@V?$allocator@D@2@@std@@@2@@std@@IEAAX_K@Z 000000018004deb4     spellchecker_hunspell.obj
 0002:00009ec4       $chain$0$?_Reallocate@?$vector@V?$basic_string@DU?$char_traits@D@std@@V?$allocator@D@2@@std@@V?$allocator@V?$basic_string@DU?$char_traits@D@std@@V?$allocator@D@2@@std@@@2@@std@@IEAAX_K@Z 000000018004dec4     spellchecker_hunspell.obj
 0002:00009ed8       $chain$2$?_Reallocate@?$vector@V?$basic_string@DU?$char_traits@D@std@@V?$allocator@D@2@@std@@V?$allocator@V?$basic_string@DU?$char_traits@D@std@@V?$allocator@D@2@@std@@@2@@std@@IEAAX_K@Z 000000018004ded8     spellchecker_hunspell.obj
 0002:00009ef0       $chain$3$?_Reallocate@?$vector@V?$basic_string@DU?$char_traits@D@std@@V?$allocator@D@2@@std@@V?$allocator@V?$basic_string@DU?$char_traits@D@std@@V?$allocator@D@2@@std@@@2@@std@@IEAAX_K@Z 000000018004def0     spellchecker_hunspell.obj
 0002:00009f00       $chain$4$?_Reallocate@?$vector@V?$basic_string@DU?$char_traits@D@std@@V?$allocator@D@2@@std@@V?$allocator@V?$basic_string@DU?$char_traits@D@std@@V?$allocator@D@2@@std@@@2@@std@@IEAAX_K@Z 000000018004df00     spellchecker_hunspell.obj
 0002:00009f10       $chain$5$?_Reallocate@?$vector@V?$basic_string@DU?$char_traits@D@std@@V?$allocator@D@2@@std@@V?$allocator@V?$basic_string@DU?$char_traits@D@std@@V?$allocator@D@2@@std@@@2@@std@@IEAAX_K@Z 000000018004df10     spellchecker_hunspell.obj
 0002:00009f24       $unwind$?add@RepList@@QEAAHPEAD0@Z 000000018004df24     hunspell:replist.obj
 0002:00009f24       $unwind$?append@?$basic_string@DU?$char_traits@D@std@@V?$allocator@D@2@@std@@QEAAAEAV12@PEBD_K@Z 000000018004df24     spellchecker_hunspell.obj
 0002:00009f34       $chain$0$?append@?$basic_string@DU?$char_traits@D@std@@V?$allocator@D@2@@std@@QEAAAEAV12@PEBD_K@Z 000000018004df34     spellchecker_hunspell.obj
 0002:00009f48       $chain$1$?append@?$basic_string@DU?$char_traits@D@std@@V?$allocator@D@2@@std@@QEAAAEAV12@PEBD_K@Z 000000018004df48     spellchecker_hunspell.obj
 0002:00009f58       $chain$2$?append@?$basic_string@DU?$char_traits@D@std@@V?$allocator@D@2@@std@@QEAAAEAV12@PEBD_K@Z 000000018004df58     spellchecker_hunspell.obj
 0002:00009f6c       $unwind$?append@?$basic_string@DU?$char_traits@D@std@@V?$allocator@D@2@@std@@QEAAAEAV12@AEBV12@_K1@Z 000000018004df6c     spellchecker_hunspell.obj
 0002:00009f80       $chain$0$?append@?$basic_string@DU?$char_traits@D@std@@V?$allocator@D@2@@std@@QEAAAEAV12@AEBV12@_K1@Z 000000018004df80     spellchecker_hunspell.obj
 0002:00009f94       $chain$1$?append@?$basic_string@DU?$char_traits@D@std@@V?$allocator@D@2@@std@@QEAAAEAV12@AEBV12@_K1@Z 000000018004df94     spellchecker_hunspell.obj
 0002:00009fa4       $chain$2$?append@?$basic_string@DU?$char_traits@D@std@@V?$allocator@D@2@@std@@QEAAAEAV12@AEBV12@_K1@Z 000000018004dfa4     spellchecker_hunspell.obj
 0002:00009fb8       $unwind$?_Reallocate@?$vector@UMisspelledRange@spellchecker@@V?$allocator@UMisspelledRange@spellchecker@@@std@@@std@@IEAAX_K@Z 000000018004dfb8     spellchecker_hunspell.obj
 0002:00009fcc       $chain$0$?_Reallocate@?$vector@UMisspelledRange@spellchecker@@V?$allocator@UMisspelledRange@spellchecker@@@std@@@std@@IEAAX_K@Z 000000018004dfcc     spellchecker_hunspell.obj
 0002:00009fe0       $chain$1$?_Reallocate@?$vector@UMisspelledRange@spellchecker@@V?$allocator@UMisspelledRange@spellchecker@@@std@@@std@@IEAAX_K@Z 000000018004dfe0     spellchecker_hunspell.obj
 0002:00009ff0       $chain$2$?_Reallocate@?$vector@UMisspelledRange@spellchecker@@V?$allocator@UMisspelledRange@spellchecker@@@std@@@std@@IEAAX_K@Z 000000018004dff0     spellchecker_hunspell.obj
 0002:0000a004       $unwind$?ToUTF8@spellchecker@@YA?AV?$basic_string@DU?$char_traits@D@std@@V?$allocator@D@2@@std@@AEBV?$basic_string@_WU?$char_traits@_W@std@@V?$allocator@_W@2@@3@@Z 000000018004e004     spellchecker_win.obj
 0002:0000a018       $chain$0$?ToUTF8@spellchecker@@YA?AV?$basic_string@DU?$char_traits@D@std@@V?$allocator@D@2@@std@@AEBV?$basic_string@_WU?$char_traits@_W@std@@V?$allocator@_W@2@@3@@Z 000000018004e018     spellchecker_win.obj
 0002:0000a02c       $chain$1$?ToUTF8@spellchecker@@YA?AV?$basic_string@DU?$char_traits@D@std@@V?$allocator@D@2@@std@@AEBV?$basic_string@_WU?$char_traits@_W@std@@V?$allocator@_W@2@@3@@Z 000000018004e02c     spellchecker_win.obj
 0002:0000a040       $chain$2$?ToUTF8@spellchecker@@YA?AV?$basic_string@DU?$char_traits@D@std@@V?$allocator@D@2@@std@@AEBV?$basic_string@_WU?$char_traits@_W@std@@V?$allocator@_W@2@@3@@Z 000000018004e040     spellchecker_win.obj
 0002:0000a050       $chain$3$?ToUTF8@spellchecker@@YA?AV?$basic_string@DU?$char_traits@D@std@@V?$allocator@D@2@@std@@AEBV?$basic_string@_WU?$char_traits@_W@std@@V?$allocator@_W@2@@3@@Z 000000018004e050     spellchecker_win.obj
 0002:0000a060       $unwind$?ToWString@spellchecker@@YA?AV?$basic_string@_WU?$char_traits@_W@std@@V?$allocator@_W@2@@std@@AEBV?$basic_string@DU?$char_traits@D@std@@V?$allocator@D@2@@3@@Z 000000018004e060     spellchecker_win.obj
 0002:0000a074       $chain$0$?ToWString@spellchecker@@YA?AV?$basic_string@_WU?$char_traits@_W@std@@V?$allocator@_W@2@@std@@AEBV?$basic_string@DU?$char_traits@D@std@@V?$allocator@D@2@@3@@Z 000000018004e074     spellchecker_win.obj
 0002:0000a088       $chain$2$?ToWString@spellchecker@@YA?AV?$basic_string@_WU?$char_traits@_W@std@@V?$allocator@_W@2@@std@@AEBV?$basic_string@DU?$char_traits@D@std@@V?$allocator@D@2@@3@@Z 000000018004e088     spellchecker_win.obj
 0002:0000a0a0       $chain$3$?ToWString@spellchecker@@YA?AV?$basic_string@_WU?$char_traits@_W@std@@V?$allocator@_W@2@@std@@AEBV?$basic_string@DU?$char_traits@D@std@@V?$allocator@D@2@@3@@Z 000000018004e0a0     spellchecker_win.obj
 0002:0000a0b4       $chain$4$?ToWString@spellchecker@@YA?AV?$basic_string@_WU?$char_traits@_W@std@@V?$allocator@_W@2@@std@@AEBV?$basic_string@DU?$char_traits@D@std@@V?$allocator@D@2@@3@@Z 000000018004e0b4     spellchecker_win.obj
 0002:0000a0c4       $unwind$??$__acrt_stdio_parse_mode@D@@YA?AU__acrt_stdio_stream_mode@@QEBD@Z 000000018004e0c4     libucrt:openfile.obj
 0002:0000a0c4       $unwind$??0WindowsSpellchecker@spellchecker@@QEAA@XZ 000000018004e0c4     spellchecker_win.obj
 0002:0000a0d0       $unwind$?SetDictionary@WindowsSpellchecker@spellchecker@@UEAA_NAEBV?$basic_string@DU?$char_traits@D@std@@V?$allocator@D@2@@std@@0@Z 000000018004e0d0     spellchecker_win.obj
 0002:0000a0e4       $chain$1$?SetDictionary@WindowsSpellchecker@spellchecker@@UEAA_NAEBV?$basic_string@DU?$char_traits@D@std@@V?$allocator@D@2@@std@@0@Z 000000018004e0e4     spellchecker_win.obj
 0002:0000a0fc       $chain$4$?SetDictionary@WindowsSpellchecker@spellchecker@@UEAA_NAEBV?$basic_string@DU?$char_traits@D@std@@V?$allocator@D@2@@std@@0@Z 000000018004e0fc     spellchecker_win.obj
 0002:0000a0fc       $chain$2$?SetDictionary@WindowsSpellchecker@spellchecker@@UEAA_NAEBV?$basic_string@DU?$char_traits@D@std@@V?$allocator@D@2@@std@@0@Z 000000018004e0fc     spellchecker_win.obj
 0002:0000a110       $chain$3$?SetDictionary@WindowsSpellchecker@spellchecker@@UEAA_NAEBV?$basic_string@DU?$char_traits@D@std@@V?$allocator@D@2@@std@@0@Z 000000018004e110     spellchecker_win.obj
 0002:0000a120       $unwind$?GetAvailableDictionaries@WindowsSpellchecker@spellchecker@@UEAA?AV?$vector@V?$basic_string@DU?$char_traits@D@std@@V?$allocator@D@2@@std@@V?$allocator@V?$basic_string@DU?$char_traits@D@std@@V?$allocator@D@2@@std@@@2@@std@@AEBV?$basic_string@DU?$char_traits@D@std@@V?$allocator@D@2@@4@@Z 000000018004e120     spellchecker_win.obj
 0002:0000a138       $chain$4$?GetAvailableDictionaries@WindowsSpellchecker@spellchecker@@UEAA?AV?$vector@V?$basic_string@DU?$char_traits@D@std@@V?$allocator@D@2@@std@@V?$allocator@V?$basic_string@DU?$char_traits@D@std@@V?$allocator@D@2@@std@@@2@@std@@AEBV?$basic_string@DU?$char_traits@D@std@@V?$allocator@D@2@@4@@Z 000000018004e138     spellchecker_win.obj
 0002:0000a15c       $chain$5$?GetAvailableDictionaries@WindowsSpellchecker@spellchecker@@UEAA?AV?$vector@V?$basic_string@DU?$char_traits@D@std@@V?$allocator@D@2@@std@@V?$allocator@V?$basic_string@DU?$char_traits@D@std@@V?$allocator@D@2@@std@@@2@@std@@AEBV?$basic_string@DU?$char_traits@D@std@@V?$allocator@D@2@@4@@Z 000000018004e15c     spellchecker_win.obj
 0002:0000a16c       $chain$6$?GetAvailableDictionaries@WindowsSpellchecker@spellchecker@@UEAA?AV?$vector@V?$basic_string@DU?$char_traits@D@std@@V?$allocator@D@2@@std@@V?$allocator@V?$basic_string@DU?$char_traits@D@std@@V?$allocator@D@2@@std@@@2@@std@@AEBV?$basic_string@DU?$char_traits@D@std@@V?$allocator@D@2@@4@@Z 000000018004e16c     spellchecker_win.obj
 0002:0000a190       $unwind$?IsMisspelled@WindowsSpellchecker@spellchecker@@UEAA_NAEBV?$basic_string@DU?$char_traits@D@std@@V?$allocator@D@2@@std@@@Z 000000018004e190     spellchecker_win.obj
 0002:0000a1a0       $unwind$?CheckSpelling@WindowsSpellchecker@spellchecker@@UEAA?AV?$vector@UMisspelledRange@spellchecker@@V?$allocator@UMisspelledRange@spellchecker@@@std@@@std@@PEBG_K@Z 000000018004e1a0     spellchecker_win.obj
 0002:0000a1bc       $chain$2$?CheckSpelling@WindowsSpellchecker@spellchecker@@UEAA?AV?$vector@UMisspelledRange@spellchecker@@V?$allocator@UMisspelledRange@spellchecker@@@std@@@std@@PEBG_K@Z 000000018004e1bc     spellchecker_win.obj
 0002:0000a1d8       $chain$3$?CheckSpelling@WindowsSpellchecker@spellchecker@@UEAA?AV?$vector@UMisspelledRange@spellchecker@@V?$allocator@UMisspelledRange@spellchecker@@@std@@@std@@PEBG_K@Z 000000018004e1d8     spellchecker_win.obj
 0002:0000a1e8       $chain$4$?CheckSpelling@WindowsSpellchecker@spellchecker@@UEAA?AV?$vector@UMisspelledRange@spellchecker@@V?$allocator@UMisspelledRange@spellchecker@@@std@@@std@@PEBG_K@Z 000000018004e1e8     spellchecker_win.obj
 0002:0000a204       $unwind$?Add@WindowsSpellchecker@spellchecker@@UEAAXAEBV?$basic_string@DU?$char_traits@D@std@@V?$allocator@D@2@@std@@@Z 000000018004e204     spellchecker_win.obj
 0002:0000a214       $unwind$?GetCorrectionsForMisspelling@WindowsSpellchecker@spellchecker@@UEAA?AV?$vector@V?$basic_string@DU?$char_traits@D@std@@V?$allocator@D@2@@std@@V?$allocator@V?$basic_string@DU?$char_traits@D@std@@V?$allocator@D@2@@std@@@2@@std@@AEBV?$basic_string@DU?$char_traits@D@std@@V?$allocator@D@2@@4@@Z 000000018004e214     spellchecker_win.obj
 0002:0000a22c       $chain$3$?GetCorrectionsForMisspelling@WindowsSpellchecker@spellchecker@@UEAA?AV?$vector@V?$basic_string@DU?$char_traits@D@std@@V?$allocator@D@2@@std@@V?$allocator@V?$basic_string@DU?$char_traits@D@std@@V?$allocator@D@2@@std@@@2@@std@@AEBV?$basic_string@DU?$char_traits@D@std@@V?$allocator@D@2@@4@@Z 000000018004e22c     spellchecker_win.obj
 0002:0000a24c       $chain$4$?GetCorrectionsForMisspelling@WindowsSpellchecker@spellchecker@@UEAA?AV?$vector@V?$basic_string@DU?$char_traits@D@std@@V?$allocator@D@2@@std@@V?$allocator@V?$basic_string@DU?$char_traits@D@std@@V?$allocator@D@2@@std@@@2@@std@@AEBV?$basic_string@DU?$char_traits@D@std@@V?$allocator@D@2@@4@@Z 000000018004e24c     spellchecker_win.obj
 0002:0000a25c       $chain$5$?GetCorrectionsForMisspelling@WindowsSpellchecker@spellchecker@@UEAA?AV?$vector@V?$basic_string@DU?$char_traits@D@std@@V?$allocator@D@2@@std@@V?$allocator@V?$basic_string@DU?$char_traits@D@std@@V?$allocator@D@2@@std@@@2@@std@@AEBV?$basic_string@DU?$char_traits@D@std@@V?$allocator@D@2@@4@@Z 000000018004e25c     spellchecker_win.obj
 0002:0000a27c       $unwind$?_Copy@?$basic_string@_WU?$char_traits@_W@std@@V?$allocator@_W@2@@std@@QEAAX_K0@Z 000000018004e27c     spellchecker_win.obj
 0002:0000a294       $unwind$fwprintf           000000018004e294     libucrt:assert.obj
 0002:0000a294       $unwind$fprintf            000000018004e294     hunspell:filemgr.obj
 0002:0000a294       $unwind$sprintf            000000018004e294     hunspell:hunspell.obj
 0002:0000a2a0       $unwind$??0Hunspell@@QEAA@PEBD00@Z 000000018004e2a0     hunspell:hunspell.obj
 0002:0000a2b8       $unwind$??1Hunspell@@QEAA@XZ 000000018004e2b8     hunspell:hunspell.obj
 0002:0000a2c4       $chain$0$??1Hunspell@@QEAA@XZ 000000018004e2c4     hunspell:hunspell.obj
 0002:0000a2d8       $chain$2$??1Hunspell@@QEAA@XZ 000000018004e2d8     hunspell:hunspell.obj
 0002:0000a2f0       $chain$3$??1Hunspell@@QEAA@XZ 000000018004e2f0     hunspell:hunspell.obj
 0002:0000a300       $chain$4$??1Hunspell@@QEAA@XZ 000000018004e300     hunspell:hunspell.obj
 0002:0000a310       $unwind$?cleanword@Hunspell@@AEAAHPEADPEBDPEAH2@Z 000000018004e310     hunspell:hunspell.obj
 0002:0000a32c       $chain$2$?cleanword@Hunspell@@AEAAHPEADPEBDPEAH2@Z 000000018004e32c     hunspell:hunspell.obj
 0002:0000a348       $chain$3$?cleanword@Hunspell@@AEAAHPEADPEBDPEAH2@Z 000000018004e348     hunspell:hunspell.obj
 0002:0000a358       $unwind$?mkallcap@Hunspell@@AEAAXPEAD@Z 000000018004e358     hunspell:hunspell.obj
 0002:0000a370       $chain$0$?mkallcap@Hunspell@@AEAAXPEAD@Z 000000018004e370     hunspell:hunspell.obj
 0002:0000a384       $chain$1$?mkallcap@Hunspell@@AEAAXPEAD@Z 000000018004e384     hunspell:hunspell.obj
 0002:0000a394       $unwind$?remove_forbidden_flag@HashMgr@@AEAAHPEBD@Z 000000018004e394     hunspell:hashmgr.obj
 0002:0000a394       $unwind$?mkallsmall2@Hunspell@@AEAAHPEADPEAUw_char@@H@Z 000000018004e394     hunspell:hunspell.obj
 0002:0000a3a4       $chain$0$?mkallsmall2@Hunspell@@AEAAHPEADPEAUw_char@@H@Z 000000018004e3a4     hunspell:hunspell.obj
 0002:0000a3b8       $chain$1$?mkallsmall2@Hunspell@@AEAAHPEADPEAUw_char@@H@Z 000000018004e3b8     hunspell:hunspell.obj
 0002:0000a3cc       $chain$2$?mkallsmall2@Hunspell@@AEAAHPEADPEAUw_char@@H@Z 000000018004e3cc     hunspell:hunspell.obj
 0002:0000a3dc       $chain$3$?mkallsmall2@Hunspell@@AEAAHPEADPEAUw_char@@H@Z 000000018004e3dc     hunspell:hunspell.obj
 0002:0000a3ec       $unwind$?spellsharps@Hunspell@@AEAAPEAUhentry@@PEAD0HH0PEAHPEAPEAD@Z 000000018004e3ec     hunspell:hunspell.obj
 0002:0000a3ec       $unwind$_strnicmp_l        000000018004e3ec     libucrt:strnicmp.obj
 0002:0000a400       $unwind$?spell@Hunspell@@QEAAHPEBDPEAHPEAPEAD@Z 000000018004e400     hunspell:hunspell.obj
 0002:0000a41c       $unwind$?checkword@Hunspell@@AEAAPEAUhentry@@PEBDPEAHPEAPEAD@Z 000000018004e41c     hunspell:hunspell.obj
 0002:0000a43c       $unwind$?suggest@Hunspell@@QEAAHPEAPEAPEADPEBD@Z 000000018004e43c     hunspell:hunspell.obj
 0002:0000a458       $unwind$?stem@Hunspell@@QEAAHPEAPEAPEADPEAPEADH@Z 000000018004e458     hunspell:hunspell.obj
 0002:0000a470       $chain$0$?stem@Hunspell@@QEAAHPEAPEAPEADPEAPEADH@Z 000000018004e470     hunspell:hunspell.obj
 0002:0000a484       $chain$4$?stem@Hunspell@@QEAAHPEAPEAPEADPEAPEADH@Z 000000018004e484     hunspell:hunspell.obj
 0002:0000a4a4       $chain$5$?stem@Hunspell@@QEAAHPEAPEAPEADPEAPEADH@Z 000000018004e4a4     hunspell:hunspell.obj
 0002:0000a4b4       $chain$6$?stem@Hunspell@@QEAAHPEAPEAPEADPEAPEADH@Z 000000018004e4b4     hunspell:hunspell.obj
 0002:0000a4c4       $unwind$?stem@Hunspell@@QEAAHPEAPEAPEADPEBD@Z 000000018004e4c4     hunspell:hunspell.obj
 0002:0000a4d8       $unwind$?mkinitcap@Hunspell@@AEAAXPEAD@Z 000000018004e4d8     hunspell:hunspell.obj
 0002:0000a4f0       $unwind$?analyze@Hunspell@@QEAAHPEAPEAPEADPEBD@Z 000000018004e4f0     hunspell:hunspell.obj
 0002:0000a508       $chain$1$?analyze@Hunspell@@QEAAHPEAPEAPEADPEBD@Z 000000018004e508     hunspell:hunspell.obj
 0002:0000a520       $chain$3$?analyze@Hunspell@@QEAAHPEAPEAPEADPEBD@Z 000000018004e520     hunspell:hunspell.obj
 0002:0000a538       $chain$4$?analyze@Hunspell@@QEAAHPEAPEAPEADPEBD@Z 000000018004e538     hunspell:hunspell.obj
 0002:0000a548       $chain$7$?analyze@Hunspell@@QEAAHPEAPEAPEADPEBD@Z 000000018004e548     hunspell:hunspell.obj
 0002:0000a548       $chain$5$?analyze@Hunspell@@QEAAHPEAPEAPEADPEBD@Z 000000018004e548     hunspell:hunspell.obj
 0002:0000a558       $chain$8$?analyze@Hunspell@@QEAAHPEAPEAPEADPEBD@Z 000000018004e558     hunspell:hunspell.obj
 0002:0000a558       $chain$6$?analyze@Hunspell@@QEAAHPEAPEAPEADPEBD@Z 000000018004e558     hunspell:hunspell.obj
 0002:0000a578       $unwind$?generate@Hunspell@@QEAAHPEAPEAPEADPEBDPEAPEADH@Z 000000018004e578     hunspell:hunspell.obj
 0002:0000a594       $chain$1$?generate@Hunspell@@QEAAHPEAPEAPEADPEBDPEAPEADH@Z 000000018004e594     hunspell:hunspell.obj
 0002:0000a5ac       $chain$4$?generate@Hunspell@@QEAAHPEAPEAPEADPEBDPEAPEADH@Z 000000018004e5ac     hunspell:hunspell.obj
 0002:0000a5ac       $chain$2$?generate@Hunspell@@QEAAHPEAPEAPEADPEBDPEAPEADH@Z 000000018004e5ac     hunspell:hunspell.obj
 0002:0000a5bc       $chain$3$?generate@Hunspell@@QEAAHPEAPEAPEADPEBDPEAPEADH@Z 000000018004e5bc     hunspell:hunspell.obj
 0002:0000a5d4       $unwind$??0FileMgr@@QEAA@PEBD0@Z 000000018004e5d4     hunspell:filemgr.obj
 0002:0000a5d4       $unwind$iswctype           000000018004e5d4     libucrt:iswctype.obj
 0002:0000a5d4       $unwind$__acrt_is_packaged_app 000000018004e5d4     libucrt:winapi_thunks.obj
 0002:0000a5d4       $unwind$?get_xml_par@Hunspell@@AEAAHPEADPEBDH@Z 000000018004e5d4     hunspell:hunspell.obj
 0002:0000a5e0       $chain$0$?get_xml_par@Hunspell@@AEAAHPEADPEBDH@Z 000000018004e5e0     hunspell:hunspell.obj
 0002:0000a5f4       $chain$1$?get_xml_par@Hunspell@@AEAAHPEADPEBDH@Z 000000018004e5f4     hunspell:hunspell.obj
 0002:0000a604       $unwind$?check_xml_par@Hunspell@@AEAAHPEBD00@Z 000000018004e604     hunspell:hunspell.obj
 0002:0000a620       $unwind$?get_xml_list@Hunspell@@AEAAHPEAPEAPEADPEADPEBD@Z 000000018004e620     hunspell:hunspell.obj
 0002:0000a634       $chain$0$?get_xml_list@Hunspell@@AEAAHPEAPEAPEADPEADPEBD@Z 000000018004e634     hunspell:hunspell.obj
 0002:0000a648       $chain$1$?get_xml_list@Hunspell@@AEAAHPEAPEAPEADPEADPEBD@Z 000000018004e648     hunspell:hunspell.obj
 0002:0000a658       $unwind$?spellml@Hunspell@@AEAAHPEAPEAPEADPEBD@Z 000000018004e658     hunspell:hunspell.obj
 0002:0000a670       $chain$0$?spellml@Hunspell@@AEAAHPEAPEAPEADPEBD@Z 000000018004e670     hunspell:hunspell.obj
 0002:0000a684       $chain$1$?spellml@Hunspell@@AEAAHPEAPEAPEADPEBD@Z 000000018004e684     hunspell:hunspell.obj
 0002:0000a698       $chain$2$?spellml@Hunspell@@AEAAHPEAPEAPEADPEBD@Z 000000018004e698     hunspell:hunspell.obj
 0002:0000a6a8       $chain$3$?spellml@Hunspell@@AEAAHPEAPEAPEADPEBD@Z 000000018004e6a8     hunspell:hunspell.obj
 0002:0000a6b8       $unwind$??1AffixMgr@@QEAA@XZ 000000018004e6b8     hunspell:affixmgr.obj
 0002:0000a6b8       $unwind$?u8_u16@@YAHPEAUw_char@@HPEBD@Z 000000018004e6b8     hunspell:csutil.obj
 0002:0000a6d4       $unwind$?flag_qsort@@YAXQEAGHH@Z 000000018004e6d4     hunspell:csutil.obj
 0002:0000a6e0       $chain$1$?flag_qsort@@YAXQEAGHH@Z 000000018004e6e0     hunspell:csutil.obj
 0002:0000a6f8       $chain$2$?flag_qsort@@YAXQEAGHH@Z 000000018004e6f8     hunspell:csutil.obj
 0002:0000a708       $unwind$?get_key_string@AffixMgr@@QEAAPEADXZ 000000018004e708     hunspell:affixmgr.obj
 0002:0000a708       $unwind$?cpdcase_check@AffixMgr@@QEAAHPEBDH@Z 000000018004e708     hunspell:affixmgr.obj
 0002:0000a708       $unwind$?get_encoding@AffixMgr@@QEAAPEADXZ 000000018004e708     hunspell:affixmgr.obj
 0002:0000a708       $unwind$?mystrdup@@YAPEADPEBD@Z 000000018004e708     hunspell:csutil.obj
 0002:0000a708       $unwind$?_Reserve@?$vector@Uaffentry@@V?$allocator@Uaffentry@@@std@@@std@@IEAAX_K@Z 000000018004e708     hunspell:affixmgr.obj
 0002:0000a708       $unwind$?myrevstrdup@@YAPEADPEBD@Z 000000018004e708     hunspell:csutil.obj
 0002:0000a710       $chain$1$?mystrdup@@YAPEADPEBD@Z 000000018004e710     hunspell:csutil.obj
 0002:0000a728       $chain$3$?mystrdup@@YAPEADPEBD@Z 000000018004e728     hunspell:csutil.obj
 0002:0000a740       $chain$4$?mystrdup@@YAPEADPEBD@Z 000000018004e740     hunspell:csutil.obj
 0002:0000a750       $chain$1$?myrevstrdup@@YAPEADPEBD@Z 000000018004e750     hunspell:csutil.obj
 0002:0000a768       $chain$3$?myrevstrdup@@YAPEADPEBD@Z 000000018004e768     hunspell:csutil.obj
 0002:0000a780       $chain$4$?myrevstrdup@@YAPEADPEBD@Z 000000018004e780     hunspell:csutil.obj
 0002:0000a790       $unwind$?line_tok@@YAHPEBDPEAPEAPEADD@Z 000000018004e790     hunspell:csutil.obj
 0002:0000a7a0       $chain$2$?line_tok@@YAHPEBDPEAPEAPEADD@Z 000000018004e7a0     hunspell:csutil.obj
 0002:0000a7bc       $chain$4$?line_tok@@YAHPEBDPEAPEAPEADD@Z 000000018004e7bc     hunspell:csutil.obj
 0002:0000a7d8       $unwind$?line_uniq@@YAPEADPEADD@Z 000000018004e7d8     hunspell:csutil.obj
 0002:0000a7d8       $unwind$?write_string@?$stream_output_adapter@_W@__crt_stdio_output@@QEBAXQEB_WHQEAH1@Z 000000018004e7d8     libucrt:output.obj
 0002:0000a7f0       $unwind$?line_uniq_app@@YAPEADPEAPEADD@Z 000000018004e7f0     hunspell:csutil.obj
 0002:0000a7f8       $chain$2$?line_uniq_app@@YAPEADPEAPEADD@Z 000000018004e7f8     hunspell:csutil.obj
 0002:0000a814       $chain$6$?line_uniq_app@@YAPEADPEAPEADD@Z 000000018004e814     hunspell:csutil.obj
 0002:0000a834       $chain$7$?line_uniq_app@@YAPEADPEAPEADD@Z 000000018004e834     hunspell:csutil.obj
 0002:0000a84c       $chain$8$?line_uniq_app@@YAPEADPEAPEADD@Z 000000018004e84c     hunspell:csutil.obj
 0002:0000a85c       $unwind$?morphcmp@@YAHPEBD0@Z 000000018004e85c     hunspell:csutil.obj
 0002:0000a86c       $chain$3$?morphcmp@@YAHPEBD0@Z 000000018004e86c     hunspell:csutil.obj
 0002:0000a88c       $chain$5$?morphcmp@@YAHPEBD0@Z 000000018004e88c     hunspell:csutil.obj
 0002:0000a8ac       $chain$6$?morphcmp@@YAHPEBD0@Z 000000018004e8ac     hunspell:csutil.obj
 0002:0000a8bc       $chain$0$?get_sfxcount@@YAHPEBD@Z 000000018004e8bc     hunspell:csutil.obj
 0002:0000a8d0       $chain$1$?get_sfxcount@@YAHPEBD@Z 000000018004e8d0     hunspell:csutil.obj
 0002:0000a8e0       $unwind$?mystrrep@@YAPEADPEADPEBD1@Z 000000018004e8e0     hunspell:csutil.obj
 0002:0000a8ec       $chain$3$?mystrrep@@YAPEADPEADPEBD1@Z 000000018004e8ec     hunspell:csutil.obj
 0002:0000a90c       $chain$4$?mystrrep@@YAPEADPEADPEBD1@Z 000000018004e90c     hunspell:csutil.obj
 0002:0000a91c       $unwind$?reverseword_utf@@YAHPEAD@Z 000000018004e91c     hunspell:csutil.obj
 0002:0000a930       $unwind$?uniqlist@@YAHPEAPEADH@Z 000000018004e930     hunspell:csutil.obj
 0002:0000a93c       $chain$2$?uniqlist@@YAHPEAPEADH@Z 000000018004e93c     hunspell:csutil.obj
 0002:0000a958       $chain$3$?uniqlist@@YAHPEAPEADH@Z 000000018004e958     hunspell:csutil.obj
 0002:0000a96c       $chain$4$?uniqlist@@YAHPEAPEADH@Z 000000018004e96c     hunspell:csutil.obj
 0002:0000a97c       $chain$5$?uniqlist@@YAHPEAPEADH@Z 000000018004e97c     hunspell:csutil.obj
 0002:0000a98c       $unwind$?mkallsmall_utf@@YAXPEAUw_char@@HH@Z 000000018004e98c     hunspell:csutil.obj
 0002:0000a98c       $unwind$__GSHandlerCheckCommon 000000018004e98c     LIBCMT:_gshandler_.obj
 0002:0000a98c       $unwind$?mkallcap_utf@@YAXPEAUw_char@@HH@Z 000000018004e98c     hunspell:csutil.obj
 0002:0000a994       $chain$1$?mkallsmall_utf@@YAXPEAUw_char@@HH@Z 000000018004e994     hunspell:csutil.obj
 0002:0000a9ac       $chain$2$?mkallsmall_utf@@YAXPEAUw_char@@HH@Z 000000018004e9ac     hunspell:csutil.obj
 0002:0000a9bc       $chain$1$?mkallcap_utf@@YAXPEAUw_char@@HH@Z 000000018004e9bc     hunspell:csutil.obj
 0002:0000a9d4       $chain$2$?mkallcap_utf@@YAXPEAUw_char@@HH@Z 000000018004e9d4     hunspell:csutil.obj
 0002:0000a9e4       $unwind$?find_or_allocate_unused_stream_nolock@@YA?AV__crt_stdio_stream@@XZ 000000018004e9e4     libucrt:stream.obj
 0002:0000a9e4       $unwind$__vcrt_InitializeCriticalSectionEx 000000018004e9e4     libvcruntime:winapi_downlevel.obj
 0002:0000a9e4       $unwind$??$ensure_buffer_is_big_enough@D@formatting_buffer@__crt_stdio_output@@QEAA_N_K@Z 000000018004e9e4     libucrt:output.obj
 0002:0000a9e4       $unwind$?get_current_cs@@YAPEAUcs_info@@PEBD@Z 000000018004e9e4     hunspell:csutil.obj
 0002:0000a9e4       $unwind$__acrt_lowio_create_handle_array 000000018004e9e4     libucrt:osfinfo.obj
 0002:0000a9e4       $unwind$__acrt_free_locale 000000018004e9e4     libucrt:locale_refcounting.obj
 0002:0000a9e4       $unwind$_seh_filter_exe    000000018004e9e4     libucrt:exception_filter.obj
 0002:0000a9e4       $unwind$__acrt_InitializeCriticalSectionEx 000000018004e9e4     libucrt:winapi_thunks.obj
 0002:0000a9e4       $unwind$?expand_if_necessary@?$argument_list@D@?A0xca0879c4@@AEAAHXZ 000000018004e9e4     libucrt:argv_wildcards.obj
 0002:0000a9e4       $unwind$__scrt_dllmain_exception_filter 000000018004e9e4     LIBCMT:utility.obj
 0002:0000a9e4       $unwind$?setSBCS@@YAXPEAU__crt_multibyte_data@@@Z 000000018004e9e4     libucrt:mbctype.obj
 0002:0000a9e4       $unwind$__acrt_execute_initializers 000000018004e9e4     libucrt:shared_initialization.obj
 0002:0000a9e4       $unwind$?process_sfx_tree_to_list@AffixMgr@@AEAAHXZ 000000018004e9e4     hunspell:affixmgr.obj
 0002:0000a9e4       $unwind$_wassert           000000018004e9e4     libucrt:assert.obj
 0002:0000a9e4       $unwind$?dllmain_raw@@YAHQEAUHINSTANCE__@@KQEAX@Z 000000018004e9e4     LIBCMT:dll_dllmain.obj
 0002:0000a9e4       $unwind$_recalloc_base     000000018004e9e4     libucrt:recalloc.obj
 0002:0000a9f8       $unwind$?get_lang_num@@YAHPEBD@Z 000000018004e9f8     hunspell:csutil.obj
 0002:0000aa04       $unwind$?get_captype@@YAHPEADHPEAUcs_info@@@Z 000000018004ea04     hunspell:csutil.obj
 0002:0000aa0c       $chain$0$?get_captype@@YAHPEADHPEAUcs_info@@@Z 000000018004ea0c     hunspell:csutil.obj
 0002:0000aa20       $chain$1$?get_captype@@YAHPEADHPEAUcs_info@@@Z 000000018004ea20     hunspell:csutil.obj
 0002:0000aa34       $chain$2$?get_captype@@YAHPEADHPEAUcs_info@@@Z 000000018004ea34     hunspell:csutil.obj
 0002:0000aa44       $chain$8$?get_captype@@YAHPEADHPEAUcs_info@@@Z 000000018004ea44     hunspell:csutil.obj
 0002:0000aa44       $chain$4$?get_captype@@YAHPEADHPEAUcs_info@@@Z 000000018004ea44     hunspell:csutil.obj
 0002:0000aa44       $chain$6$?get_captype@@YAHPEADHPEAUcs_info@@@Z 000000018004ea44     hunspell:csutil.obj
 0002:0000aa44       $chain$10$?get_captype@@YAHPEADHPEAUcs_info@@@Z 000000018004ea44     hunspell:csutil.obj
 0002:0000aa58       $unwind$?get_captype_utf8@@YAHPEAUw_char@@HH@Z 000000018004ea58     hunspell:csutil.obj
 0002:0000aa70       $chain$2$?get_captype_utf8@@YAHPEAUw_char@@HH@Z 000000018004ea70     hunspell:csutil.obj
 0002:0000aa84       $chain$3$?get_captype_utf8@@YAHPEAUw_char@@HH@Z 000000018004ea84     hunspell:csutil.obj
 0002:0000aa84       $chain$5$?get_captype_utf8@@YAHPEAUw_char@@HH@Z 000000018004ea84     hunspell:csutil.obj
 0002:0000aa94       $chain$4$?get_captype_utf8@@YAHPEAUw_char@@HH@Z 000000018004ea94     hunspell:csutil.obj
 0002:0000aaa8       $unwind$?remove_ignored_chars_utf@@YAXPEADQEAGH@Z 000000018004eaa8     hunspell:csutil.obj
 0002:0000aac8       $chain$0$?remove_ignored_chars_utf@@YAXPEADQEAGH@Z 000000018004eac8     hunspell:csutil.obj
 0002:0000aadc       $chain$1$?remove_ignored_chars_utf@@YAXPEADQEAGH@Z 000000018004eadc     hunspell:csutil.obj
 0002:0000aaec       $unwind$?parse_string@@YAHPEADPEAPEADH@Z 000000018004eaec     hunspell:csutil.obj
 0002:0000ab00       $unwind$?parse_array@@YAHPEADPEAPEADPEAPEAGPEAHHH@Z 000000018004eb00     hunspell:csutil.obj
 0002:0000ab18       $chain$0$?parse_array@@YAHPEADPEAPEADPEAPEAGPEAHHH@Z 000000018004eb18     hunspell:csutil.obj
 0002:0000ab2c       $chain$1$?parse_array@@YAHPEADPEAPEADPEAPEAGPEAHHH@Z 000000018004eb2c     hunspell:csutil.obj
 0002:0000ab3c       $unwind$??1HashMgr@@QEAA@XZ 000000018004eb3c     hunspell:hashmgr.obj
 0002:0000ab44       $chain$3$??1HashMgr@@QEAA@XZ 000000018004eb44     hunspell:hashmgr.obj
 0002:0000ab64       $chain$4$??1HashMgr@@QEAA@XZ 000000018004eb64     hunspell:hashmgr.obj
 0002:0000ab78       $chain$6$??1HashMgr@@QEAA@XZ 000000018004eb78     hunspell:hashmgr.obj
 0002:0000ab90       $chain$7$??1HashMgr@@QEAA@XZ 000000018004eb90     hunspell:hashmgr.obj
 0002:0000aba0       $chain$8$??1HashMgr@@QEAA@XZ 000000018004eba0     hunspell:hashmgr.obj
 0002:0000abb0       $chain$9$??1HashMgr@@QEAA@XZ 000000018004ebb0     hunspell:hashmgr.obj
 0002:0000abc8       $chain$10$??1HashMgr@@QEAA@XZ 000000018004ebc8     hunspell:hashmgr.obj
 0002:0000abdc       $chain$11$??1HashMgr@@QEAA@XZ 000000018004ebdc     hunspell:hashmgr.obj
 0002:0000abec       $unwind$?add_word@HashMgr@@AEAAHPEBDHHPEAGH0_N@Z 000000018004ebec     hunspell:hashmgr.obj
 0002:0000ac04       $unwind$?add_hidden_capitalized_word@HashMgr@@AEAAHPEADHHPEAGH0H@Z 000000018004ec04     hunspell:hashmgr.obj
 0002:0000ac20       $chain$1$?add_hidden_capitalized_word@HashMgr@@AEAAHPEADHHPEAGH0H@Z 000000018004ec20     hunspell:hashmgr.obj
 0002:0000ac38       $chain$2$?add_hidden_capitalized_word@HashMgr@@AEAAHPEADHHPEAGH0H@Z 000000018004ec38     hunspell:hashmgr.obj
 0002:0000ac48       $unwind$?get_clen_and_captype@HashMgr@@AEAAHPEBDHPEAH@Z 000000018004ec48     hunspell:hashmgr.obj
 0002:0000ac60       $chain$1$?remove_forbidden_flag@HashMgr@@AEAAHPEBD@Z 000000018004ec60     hunspell:hashmgr.obj
 0002:0000ac78       $chain$3$?remove_forbidden_flag@HashMgr@@AEAAHPEBD@Z 000000018004ec78     hunspell:hashmgr.obj
 0002:0000ac90       $unwind$?add@HashMgr@@QEAAHPEBD@Z 000000018004ec90     hunspell:hashmgr.obj
 0002:0000ac9c       $chain$2$?add@HashMgr@@QEAAHPEBD@Z 000000018004ec9c     hunspell:hashmgr.obj
 0002:0000acb8       $chain$3$?add@HashMgr@@QEAAHPEBD@Z 000000018004ecb8     hunspell:hashmgr.obj
 0002:0000acc8       $unwind$?load_tables@HashMgr@@AEAAHPEBD0@Z 000000018004ecc8     hunspell:hashmgr.obj
 0002:0000acd4       $chain$4$?load_tables@HashMgr@@AEAAHPEBD0@Z 000000018004ecd4     hunspell:hashmgr.obj
 0002:0000acf8       $unwind$?decode_flags@HashMgr@@QEAAHPEAPEAGPEADPEAVFileMgr@@@Z 000000018004ecf8     hunspell:hashmgr.obj
 0002:0000ad0c       $chain$2$?decode_flags@HashMgr@@QEAAHPEAPEAGPEADPEAVFileMgr@@@Z 000000018004ed0c     hunspell:hashmgr.obj
 0002:0000ad28       $chain$3$?decode_flags@HashMgr@@QEAAHPEAPEAGPEADPEAVFileMgr@@@Z 000000018004ed28     hunspell:hashmgr.obj
 0002:0000ad38       $unwind$?encode_flag@HashMgr@@QEAAPEADG@Z 000000018004ed38     hunspell:hashmgr.obj
 0002:0000ad4c       $unwind$?load_config@HashMgr@@AEAAHPEBD0@Z 000000018004ed4c     hunspell:hashmgr.obj
 0002:0000ad6c       $unwind$?parse_aliasf@HashMgr@@AEAAHPEADPEAVFileMgr@@@Z 000000018004ed6c     hunspell:hashmgr.obj
 0002:0000ad6c       $unwind$?parse_aliasm@HashMgr@@AEAAHPEADPEAVFileMgr@@@Z 000000018004ed6c     hunspell:hashmgr.obj
 0002:0000ad78       $chain$3$?parse_aliasf@HashMgr@@AEAAHPEADPEAVFileMgr@@@Z 000000018004ed78     hunspell:hashmgr.obj
 0002:0000ad98       $chain$5$?parse_aliasf@HashMgr@@AEAAHPEADPEAVFileMgr@@@Z 000000018004ed98     hunspell:hashmgr.obj
 0002:0000adb0       $chain$6$?parse_aliasf@HashMgr@@AEAAHPEADPEAVFileMgr@@@Z 000000018004edb0     hunspell:hashmgr.obj
 0002:0000adc0       $chain$8$?parse_aliasf@HashMgr@@AEAAHPEADPEAVFileMgr@@@Z 000000018004edc0     hunspell:hashmgr.obj
 0002:0000ade8       $chain$9$?parse_aliasf@HashMgr@@AEAAHPEADPEAVFileMgr@@@Z 000000018004ede8     hunspell:hashmgr.obj
 0002:0000ae08       $chain$3$?parse_aliasm@HashMgr@@AEAAHPEADPEAVFileMgr@@@Z 000000018004ee08     hunspell:hashmgr.obj
 0002:0000ae28       $chain$5$?parse_aliasm@HashMgr@@AEAAHPEADPEAVFileMgr@@@Z 000000018004ee28     hunspell:hashmgr.obj
 0002:0000ae40       $chain$6$?parse_aliasm@HashMgr@@AEAAHPEADPEAVFileMgr@@@Z 000000018004ee40     hunspell:hashmgr.obj
 0002:0000ae50       $chain$8$?parse_aliasm@HashMgr@@AEAAHPEADPEAVFileMgr@@@Z 000000018004ee50     hunspell:hashmgr.obj
 0002:0000ae78       $chain$9$?parse_aliasm@HashMgr@@AEAAHPEADPEAVFileMgr@@@Z 000000018004ee78     hunspell:hashmgr.obj
 0002:0000ae98       $chain$0$?add@RepList@@QEAAHPEAD0@Z 000000018004ee98     hunspell:replist.obj
 0002:0000aeac       $chain$2$?add@RepList@@QEAAHPEAD0@Z 000000018004eeac     hunspell:replist.obj
 0002:0000aec0       $chain$3$?add@RepList@@QEAAHPEAD0@Z 000000018004eec0     hunspell:replist.obj
 0002:0000aed0       $unwind$?conv@RepList@@QEAAHPEBDPEAD@Z 000000018004eed0     hunspell:replist.obj
 0002:0000aee4       $chain$1$?conv@RepList@@QEAAHPEBDPEAD@Z 000000018004eee4     hunspell:replist.obj
 0002:0000aefc       $chain$2$?conv@RepList@@QEAAHPEBDPEAD@Z 000000018004eefc     hunspell:replist.obj
 0002:0000af0c       $unwind$??0SuggestMgr@@QEAA@PEBDHPEAVAffixMgr@@@Z 000000018004ef0c     hunspell:suggestmgr.obj
 0002:0000af28       $chain$0$??0SuggestMgr@@QEAA@PEBDHPEAVAffixMgr@@@Z 000000018004ef28     hunspell:suggestmgr.obj
 0002:0000af3c       $chain$1$??0SuggestMgr@@QEAA@PEBDHPEAVAffixMgr@@@Z 000000018004ef3c     hunspell:suggestmgr.obj
 0002:0000af4c       $unwind$?testsug@SuggestMgr@@AEAAHPEAPEADPEBDHHHPEAHPEAJ@Z 000000018004ef4c     hunspell:suggestmgr.obj
 0002:0000af68       $unwind$?suggest@SuggestMgr@@QEAAHPEAPEAPEADPEBDHPEAH@Z 000000018004ef68     hunspell:suggestmgr.obj
 0002:0000af88       $unwind$?capchars_utf@SuggestMgr@@AEAAHPEAPEADPEBUw_char@@HHH@Z 000000018004ef88     hunspell:suggestmgr.obj
 0002:0000afa0       $unwind$?capchars@SuggestMgr@@AEAAHPEAPEADPEBDHH@Z 000000018004efa0     hunspell:suggestmgr.obj
 0002:0000afb0       $unwind$?mapchars@SuggestMgr@@AEAAHPEAPEADPEBDHH@Z 000000018004efb0     hunspell:suggestmgr.obj
 0002:0000afc8       $chain$1$?mapchars@SuggestMgr@@AEAAHPEAPEADPEBDHH@Z 000000018004efc8     hunspell:suggestmgr.obj
 0002:0000afe0       $chain$2$?mapchars@SuggestMgr@@AEAAHPEAPEADPEBDHH@Z 000000018004efe0     hunspell:suggestmgr.obj
 0002:0000afe0       $chain$4$?mapchars@SuggestMgr@@AEAAHPEAPEADPEBDHH@Z 000000018004efe0     hunspell:suggestmgr.obj
 0002:0000aff0       $chain$3$?mapchars@SuggestMgr@@AEAAHPEAPEADPEBDHH@Z 000000018004eff0     hunspell:suggestmgr.obj
 0002:0000b008       $unwind$?map_related@SuggestMgr@@AEAAHPEBDPEADHHPEAPEADHHPEBUmapentry@@HPEAHPEAJ@Z 000000018004f008     hunspell:suggestmgr.obj
 0002:0000b01c       $unwind$?replchars@SuggestMgr@@AEAAHPEAPEADPEBDHH@Z 000000018004f01c     hunspell:suggestmgr.obj
 0002:0000b034       $chain$3$?replchars@SuggestMgr@@AEAAHPEAPEADPEBDHH@Z 000000018004f034     hunspell:suggestmgr.obj
 0002:0000b054       $chain$4$?replchars@SuggestMgr@@AEAAHPEAPEADPEBDHH@Z 000000018004f054     hunspell:suggestmgr.obj
 0002:0000b054       $chain$6$?replchars@SuggestMgr@@AEAAHPEAPEADPEBDHH@Z 000000018004f054     hunspell:suggestmgr.obj
 0002:0000b064       $chain$5$?replchars@SuggestMgr@@AEAAHPEAPEADPEBDHH@Z 000000018004f064     hunspell:suggestmgr.obj
 0002:0000b084       $unwind$?doubletwochars@SuggestMgr@@AEAAHPEAPEADPEBDHH@Z 000000018004f084     hunspell:suggestmgr.obj
 0002:0000b09c       $chain$3$?doubletwochars@SuggestMgr@@AEAAHPEAPEADPEBDHH@Z 000000018004f09c     hunspell:suggestmgr.obj
 0002:0000b0bc       $chain$4$?doubletwochars@SuggestMgr@@AEAAHPEAPEADPEBDHH@Z 000000018004f0bc     hunspell:suggestmgr.obj
 0002:0000b0bc       $chain$6$?doubletwochars@SuggestMgr@@AEAAHPEAPEADPEBDHH@Z 000000018004f0bc     hunspell:suggestmgr.obj
 0002:0000b0cc       $chain$5$?doubletwochars@SuggestMgr@@AEAAHPEAPEADPEBDHH@Z 000000018004f0cc     hunspell:suggestmgr.obj
 0002:0000b0ec       $unwind$?doubletwochars_utf@SuggestMgr@@AEAAHPEAPEADPEBUw_char@@HHH@Z 000000018004f0ec     hunspell:suggestmgr.obj
 0002:0000b100       $chain$5$?doubletwochars_utf@SuggestMgr@@AEAAHPEAPEADPEBUw_char@@HHH@Z 000000018004f100     hunspell:suggestmgr.obj
 0002:0000b128       $chain$6$?doubletwochars_utf@SuggestMgr@@AEAAHPEAPEADPEBUw_char@@HHH@Z 000000018004f128     hunspell:suggestmgr.obj
 0002:0000b138       $chain$7$?doubletwochars_utf@SuggestMgr@@AEAAHPEAPEADPEBUw_char@@HHH@Z 000000018004f138     hunspell:suggestmgr.obj
 0002:0000b160       $unwind$?badcharkey@SuggestMgr@@AEAAHPEAPEADPEBDHH@Z 000000018004f160     hunspell:suggestmgr.obj
 0002:0000b184       $unwind$?badcharkey_utf@SuggestMgr@@AEAAHPEAPEADPEBUw_char@@HHH@Z 000000018004f184     hunspell:suggestmgr.obj
 0002:0000b1a4       $unwind$?badchar@SuggestMgr@@AEAAHPEAPEADPEBDHH@Z 000000018004f1a4     hunspell:suggestmgr.obj
 0002:0000b1cc       $unwind$?badchar_utf@SuggestMgr@@AEAAHPEAPEADPEBUw_char@@HHH@Z 000000018004f1cc     hunspell:suggestmgr.obj
 0002:0000b1cc       $unwind$?longswapchar_utf@SuggestMgr@@AEAAHPEAPEADPEBUw_char@@HHH@Z 000000018004f1cc     hunspell:suggestmgr.obj
 0002:0000b1ec       $unwind$?extrachar_utf@SuggestMgr@@AEAAHPEAPEADPEBUw_char@@HHH@Z 000000018004f1ec     hunspell:suggestmgr.obj
 0002:0000b204       $chain$3$?extrachar_utf@SuggestMgr@@AEAAHPEAPEADPEBUw_char@@HHH@Z 000000018004f204     hunspell:suggestmgr.obj
 0002:0000b224       $chain$4$?extrachar_utf@SuggestMgr@@AEAAHPEAPEADPEBUw_char@@HHH@Z 000000018004f224     hunspell:suggestmgr.obj
 0002:0000b234       $unwind$?extrachar@SuggestMgr@@AEAAHPEAPEADPEBDHH@Z 000000018004f234     hunspell:suggestmgr.obj
 0002:0000b24c       $chain$4$?extrachar@SuggestMgr@@AEAAHPEAPEADPEBDHH@Z 000000018004f24c     hunspell:suggestmgr.obj
 0002:0000b270       $chain$5$?extrachar@SuggestMgr@@AEAAHPEAPEADPEBDHH@Z 000000018004f270     hunspell:suggestmgr.obj
 0002:0000b280       $chain$6$?extrachar@SuggestMgr@@AEAAHPEAPEADPEBDHH@Z 000000018004f280     hunspell:suggestmgr.obj
 0002:0000b2a4       $unwind$?forgotchar@SuggestMgr@@AEAAHPEAPEADPEBDHH@Z 000000018004f2a4     hunspell:suggestmgr.obj
 0002:0000b2cc       $unwind$?movechar_utf@SuggestMgr@@AEAAHPEAPEADPEBUw_char@@HHH@Z 000000018004f2cc     hunspell:suggestmgr.obj
 0002:0000b2cc       $unwind$?forgotchar_utf@SuggestMgr@@AEAAHPEAPEADPEBUw_char@@HHH@Z 000000018004f2cc     hunspell:suggestmgr.obj
 0002:0000b2ec       $unwind$?twowords@SuggestMgr@@AEAAHPEAPEADPEBDHH@Z 000000018004f2ec     hunspell:suggestmgr.obj
 0002:0000b304       $chain$3$?twowords@SuggestMgr@@AEAAHPEAPEADPEBDHH@Z 000000018004f304     hunspell:suggestmgr.obj
 0002:0000b324       $chain$4$?twowords@SuggestMgr@@AEAAHPEAPEADPEBDHH@Z 000000018004f324     hunspell:suggestmgr.obj
 0002:0000b334       $chain$5$?twowords@SuggestMgr@@AEAAHPEAPEADPEBDHH@Z 000000018004f334     hunspell:suggestmgr.obj
 0002:0000b354       $unwind$?swapchar@SuggestMgr@@AEAAHPEAPEADPEBDHH@Z 000000018004f354     hunspell:suggestmgr.obj
 0002:0000b37c       $unwind$?swapchar_utf@SuggestMgr@@AEAAHPEAPEADPEBUw_char@@HHH@Z 000000018004f37c     hunspell:suggestmgr.obj
 0002:0000b39c       $unwind$?longswapchar@SuggestMgr@@AEAAHPEAPEADPEBDHH@Z 000000018004f39c     hunspell:suggestmgr.obj
 0002:0000b3c4       $unwind$?movechar@SuggestMgr@@AEAAHPEAPEADPEBDHH@Z 000000018004f3c4     hunspell:suggestmgr.obj
 0002:0000b3ec       $unwind$?ngsuggest@SuggestMgr@@QEAAHPEAPEADPEADHPEAPEAVHashMgr@@H@Z 000000018004f3ec     hunspell:suggestmgr.obj
 0002:0000b40c       $chain$0$?ngsuggest@SuggestMgr@@QEAAHPEAPEADPEADHPEAPEAVHashMgr@@H@Z 000000018004f40c     hunspell:suggestmgr.obj
 0002:0000b420       $chain$1$?ngsuggest@SuggestMgr@@QEAAHPEAPEADPEADHPEAPEAVHashMgr@@H@Z 000000018004f420     hunspell:suggestmgr.obj
 0002:0000b434       $chain$2$?ngsuggest@SuggestMgr@@QEAAHPEAPEADPEADHPEAPEAVHashMgr@@H@Z 000000018004f434     hunspell:suggestmgr.obj
 0002:0000b444       $unwind$?checkword@SuggestMgr@@AEAAHPEBDHHPEAHPEAJ@Z 000000018004f444     hunspell:suggestmgr.obj
 0002:0000b45c       $chain$0$?checkword@SuggestMgr@@AEAAHPEBDHHPEAHPEAJ@Z 000000018004f45c     hunspell:suggestmgr.obj
 0002:0000b470       $chain$1$?checkword@SuggestMgr@@AEAAHPEBDHHPEAHPEAJ@Z 000000018004f470     hunspell:suggestmgr.obj
 0002:0000b480       $unwind$?check_forbidden@SuggestMgr@@AEAAHPEBDH@Z 000000018004f480     hunspell:suggestmgr.obj
 0002:0000b498       $chain$0$?check_forbidden@SuggestMgr@@AEAAHPEBDH@Z 000000018004f498     hunspell:suggestmgr.obj
 0002:0000b4ac       $chain$1$?check_forbidden@SuggestMgr@@AEAAHPEBDH@Z 000000018004f4ac     hunspell:suggestmgr.obj
 0002:0000b4bc       $unwind$?suggest_morph@SuggestMgr@@QEAAPEADPEBD@Z 000000018004f4bc     hunspell:suggestmgr.obj
 0002:0000b4d4       $chain$2$?suggest_morph@SuggestMgr@@QEAAPEADPEBD@Z 000000018004f4d4     hunspell:suggestmgr.obj
 0002:0000b4f0       $chain$4$?suggest_morph@SuggestMgr@@QEAAPEADPEBD@Z 000000018004f4f0     hunspell:suggestmgr.obj
 0002:0000b508       $chain$5$?suggest_morph@SuggestMgr@@QEAAPEADPEBD@Z 000000018004f508     hunspell:suggestmgr.obj
 0002:0000b518       $chain$6$?suggest_morph@SuggestMgr@@QEAAPEADPEBD@Z 000000018004f518     hunspell:suggestmgr.obj
 0002:0000b530       $chain$7$?suggest_morph@SuggestMgr@@QEAAPEADPEBD@Z 000000018004f530     hunspell:suggestmgr.obj
 0002:0000b540       $unwind$?suggest_hentry_gen@SuggestMgr@@AEAAPEADPEAUhentry@@PEAD@Z 000000018004f540     hunspell:suggestmgr.obj
 0002:0000b55c       $chain$0$?suggest_hentry_gen@SuggestMgr@@AEAAPEADPEAUhentry@@PEAD@Z 000000018004f55c     hunspell:suggestmgr.obj
 0002:0000b570       $chain$2$?suggest_hentry_gen@SuggestMgr@@AEAAPEADPEAUhentry@@PEAD@Z 000000018004f570     hunspell:suggestmgr.obj
 0002:0000b588       $chain$3$?suggest_hentry_gen@SuggestMgr@@AEAAPEADPEAUhentry@@PEAD@Z 000000018004f588     hunspell:suggestmgr.obj
 0002:0000b598       $chain$4$?suggest_hentry_gen@SuggestMgr@@AEAAPEADPEAUhentry@@PEAD@Z 000000018004f598     hunspell:suggestmgr.obj
 0002:0000b5b4       $unwind$?suggest_gen@SuggestMgr@@QEAAPEADPEAPEADHPEAD@Z 000000018004f5b4     hunspell:suggestmgr.obj
 0002:0000b5c8       $chain$5$?suggest_gen@SuggestMgr@@QEAAPEADPEAPEADHPEAD@Z 000000018004f5c8     hunspell:suggestmgr.obj
 0002:0000b5f0       $chain$6$?suggest_gen@SuggestMgr@@QEAAPEADPEAPEADHPEAD@Z 000000018004f5f0     hunspell:suggestmgr.obj
 0002:0000b600       $unwind$?ngram@SuggestMgr@@AEAAHHPEADPEBDH@Z 000000018004f600     hunspell:suggestmgr.obj
 0002:0000b624       $unwind$?leftcommonsubstring@SuggestMgr@@AEAAHPEADPEBD@Z 000000018004f624     hunspell:suggestmgr.obj
 0002:0000b640       $unwind$?commoncharacterpositions@SuggestMgr@@AEAAHPEADPEBDPEAH@Z 000000018004f640     hunspell:suggestmgr.obj
 0002:0000b660       $unwind$?lcs@SuggestMgr@@AEAAXPEBD0PEAH1PEAPEAD@Z 000000018004f660     hunspell:suggestmgr.obj
 0002:0000b680       $chain$0$?lcs@SuggestMgr@@AEAAXPEBD0PEAH1PEAPEAD@Z 000000018004f680     hunspell:suggestmgr.obj
 0002:0000b694       $chain$1$?lcs@SuggestMgr@@AEAAXPEBD0PEAH1PEAPEAD@Z 000000018004f694     hunspell:suggestmgr.obj
 0002:0000b6a4       $unwind$??_GRepList@@QEAAPEAXI@Z 000000018004f6a4     hunspell:affixmgr.obj
 0002:0000b6b0       $chain$0$??_GRepList@@QEAAPEAXI@Z 000000018004f6b0     hunspell:affixmgr.obj
 0002:0000b6c4       $chain$1$??_GRepList@@QEAAPEAXI@Z 000000018004f6c4     hunspell:affixmgr.obj
 0002:0000b6d4       $unwind$?parse_file@AffixMgr@@AEAAHPEBD0@Z 000000018004f6d4     hunspell:affixmgr.obj
 0002:0000b6f0       $chain$2$?parse_file@AffixMgr@@AEAAHPEBD0@Z 000000018004f6f0     hunspell:affixmgr.obj
 0002:0000b70c       $chain$3$?parse_file@AffixMgr@@AEAAHPEBD0@Z 000000018004f70c     hunspell:affixmgr.obj
 0002:0000b71c       $unwind$?build_sfxtree@AffixMgr@@AEAAHPEAVSfxEntry@@@Z 000000018004f71c     hunspell:affixmgr.obj
 0002:0000b71c       $unwind$?build_pfxtree@AffixMgr@@AEAAHPEAVPfxEntry@@@Z 000000018004f71c     hunspell:affixmgr.obj
 0002:0000b724       $chain$0$?build_pfxtree@AffixMgr@@AEAAHPEAVPfxEntry@@@Z 000000018004f724     hunspell:affixmgr.obj
 0002:0000b738       $chain$2$?build_pfxtree@AffixMgr@@AEAAHPEAVPfxEntry@@@Z 000000018004f738     hunspell:affixmgr.obj
 0002:0000b74c       $chain$0$?build_sfxtree@AffixMgr@@AEAAHPEAVSfxEntry@@@Z 000000018004f74c     hunspell:affixmgr.obj
 0002:0000b760       $chain$2$?build_sfxtree@AffixMgr@@AEAAHPEAVSfxEntry@@@Z 000000018004f760     hunspell:affixmgr.obj
 0002:0000b774       $unwind$?process_sfx_order@AffixMgr@@AEAAHXZ 000000018004f774     hunspell:affixmgr.obj
 0002:0000b774       $unwind$?process_pfx_order@AffixMgr@@AEAAHXZ 000000018004f774     hunspell:affixmgr.obj
 0002:0000b784       $unwind$??$create_environment@D@@YAQEAPEADQEAD@Z 000000018004f784     libucrt:environment_initialization.obj
 0002:0000b784       $unwind$?prefix_check@AffixMgr@@QEAAPEAUhentry@@PEBDHDG@Z 000000018004f784     hunspell:affixmgr.obj
 0002:0000b784       $unwind$?prefix_check_twosfx@AffixMgr@@QEAAPEAUhentry@@PEBDHDG@Z 000000018004f784     hunspell:affixmgr.obj
 0002:0000b784       $unwind$__acrt_copy_path_to_wide_string 000000018004f784     libucrt:string_utilities.obj
 0002:0000b79c       $unwind$?prefix_check_morph@AffixMgr@@QEAAPEADPEBDHDG@Z 000000018004f79c     hunspell:affixmgr.obj
 0002:0000b7b0       $chain$2$?prefix_check_morph@AffixMgr@@QEAAPEADPEBDHDG@Z 000000018004f7b0     hunspell:affixmgr.obj
 0002:0000b7cc       $chain$3$?prefix_check_morph@AffixMgr@@QEAAPEADPEBDHDG@Z 000000018004f7cc     hunspell:affixmgr.obj
 0002:0000b7e0       $chain$4$?prefix_check_morph@AffixMgr@@QEAAPEADPEBDHDG@Z 000000018004f7e0     hunspell:affixmgr.obj
 0002:0000b7f0       $chain$5$?prefix_check_morph@AffixMgr@@QEAAPEADPEBDHDG@Z 000000018004f7f0     hunspell:affixmgr.obj
 0002:0000b800       $unwind$?prefix_check_twosfx_morph@AffixMgr@@QEAAPEADPEBDHDG@Z 000000018004f800     hunspell:affixmgr.obj
 0002:0000b820       $unwind$?cpdrep_check@AffixMgr@@QEAAHPEBDH@Z 000000018004f820     hunspell:affixmgr.obj
 0002:0000b834       $chain$5$?cpdrep_check@AffixMgr@@QEAAHPEBDH@Z 000000018004f834     hunspell:affixmgr.obj
 0002:0000b85c       $chain$6$?cpdrep_check@AffixMgr@@QEAAHPEBDH@Z 000000018004f85c     hunspell:affixmgr.obj
 0002:0000b85c       $chain$8$?cpdrep_check@AffixMgr@@QEAAHPEBDH@Z 000000018004f85c     hunspell:affixmgr.obj
 0002:0000b86c       $chain$7$?cpdrep_check@AffixMgr@@QEAAHPEBDH@Z 000000018004f86c     hunspell:affixmgr.obj
 0002:0000b894       $unwind$?cpdpat_check@AffixMgr@@QEAAHPEBDHPEAUhentry@@1D@Z 000000018004f894     hunspell:affixmgr.obj
 0002:0000b8b0       $chain$0$?cpdcase_check@AffixMgr@@QEAAHPEBDH@Z 000000018004f8b0     hunspell:affixmgr.obj
 0002:0000b8c4       $chain$1$?cpdcase_check@AffixMgr@@QEAAHPEBDH@Z 000000018004f8c4     hunspell:affixmgr.obj
 0002:0000b8d4       $unwind$?defcpd_check@AffixMgr@@QEAAHPEAPEAPEAUhentry@@FPEAU2@PEAPEAU2@D@Z 000000018004f8d4     hunspell:affixmgr.obj
 0002:0000b8e8       $chain$0$?defcpd_check@AffixMgr@@QEAAHPEAPEAPEAUhentry@@FPEAU2@PEAPEAU2@D@Z 000000018004f8e8     hunspell:affixmgr.obj
 0002:0000b8fc       $chain$6$?defcpd_check@AffixMgr@@QEAAHPEAPEAPEAUhentry@@FPEAU2@PEAPEAU2@D@Z 000000018004f8fc     hunspell:affixmgr.obj
 0002:0000b924       $chain$7$?defcpd_check@AffixMgr@@QEAAHPEAPEAPEAUhentry@@FPEAU2@PEAPEAU2@D@Z 000000018004f924     hunspell:affixmgr.obj
 0002:0000b934       $chain$8$?defcpd_check@AffixMgr@@QEAAHPEAPEAPEAUhentry@@FPEAU2@PEAPEAU2@D@Z 000000018004f934     hunspell:affixmgr.obj
 0002:0000b944       $unwind$?get_syllable@AffixMgr@@QEAAFPEBDH@Z 000000018004f944     hunspell:affixmgr.obj
 0002:0000b95c       $chain$1$?get_syllable@AffixMgr@@QEAAFPEBDH@Z 000000018004f95c     hunspell:affixmgr.obj
 0002:0000b974       $chain$2$?get_syllable@AffixMgr@@QEAAFPEBDH@Z 000000018004f974     hunspell:affixmgr.obj
 0002:0000b984       $chain$3$?get_syllable@AffixMgr@@QEAAFPEBDH@Z 000000018004f984     hunspell:affixmgr.obj
 0002:0000b99c       $unwind$?compound_check@AffixMgr@@QEAAPEAUhentry@@PEBDHFFFFPEAPEAU2@DDPEAH@Z 000000018004f99c     hunspell:affixmgr.obj
 0002:0000b9b4       $unwind$?compound_check_morph@AffixMgr@@QEAAHPEBDHFFFFPEAPEAUhentry@@DPEAPEADPEAD@Z 000000018004f9b4     hunspell:affixmgr.obj
 0002:0000b9d0       $unwind$?suffix_check@AffixMgr@@QEAAPEAUhentry@@PEBDHHPEAVPfxEntry@@PEAPEADHPEAHGGD@Z 000000018004f9d0     hunspell:affixmgr.obj
 0002:0000b9e8       $unwind$?suffix_check_twosfx@AffixMgr@@QEAAPEAUhentry@@PEBDHHPEAVPfxEntry@@G@Z 000000018004f9e8     hunspell:affixmgr.obj
 0002:0000ba00       $chain$0$?suffix_check_twosfx@AffixMgr@@QEAAPEAUhentry@@PEBDHHPEAVPfxEntry@@G@Z 000000018004fa00     hunspell:affixmgr.obj
 0002:0000ba14       $chain$1$?suffix_check_twosfx@AffixMgr@@QEAAPEAUhentry@@PEBDHHPEAVPfxEntry@@G@Z 000000018004fa14     hunspell:affixmgr.obj
 0002:0000ba24       $chain$2$?suffix_check_twosfx@AffixMgr@@QEAAPEAUhentry@@PEBDHHPEAVPfxEntry@@G@Z 000000018004fa24     hunspell:affixmgr.obj
 0002:0000ba38       $unwind$?suffix_check_twosfx_morph@AffixMgr@@QEAAPEADPEBDHHPEAVPfxEntry@@G@Z 000000018004fa38     hunspell:affixmgr.obj
 0002:0000ba58       $chain$0$?suffix_check_twosfx_morph@AffixMgr@@QEAAPEADPEBDHHPEAVPfxEntry@@G@Z 000000018004fa58     hunspell:affixmgr.obj
 0002:0000ba6c       $chain$1$?suffix_check_twosfx_morph@AffixMgr@@QEAAPEADPEBDHHPEAVPfxEntry@@G@Z 000000018004fa6c     hunspell:affixmgr.obj
 0002:0000ba7c       $unwind$?suffix_check_morph@AffixMgr@@QEAAPEADPEBDHHPEAVPfxEntry@@GGD@Z 000000018004fa7c     hunspell:affixmgr.obj
 0002:0000ba9c       $unwind$?affix_check@AffixMgr@@QEAAPEAUhentry@@PEBDHGD@Z 000000018004fa9c     hunspell:affixmgr.obj
 0002:0000bab0       $chain$0$?affix_check@AffixMgr@@QEAAPEAUhentry@@PEBDHGD@Z 000000018004fab0     hunspell:affixmgr.obj
 0002:0000bac4       $chain$1$?affix_check@AffixMgr@@QEAAPEAUhentry@@PEBDHGD@Z 000000018004fac4     hunspell:affixmgr.obj
 0002:0000bad4       $unwind$?affix_check_morph@AffixMgr@@QEAAPEADPEBDHGD@Z 000000018004fad4     hunspell:affixmgr.obj
 0002:0000baf0       $unwind$?morphgen@AffixMgr@@QEAAPEADPEADHPEBGG00H@Z 000000018004faf0     hunspell:affixmgr.obj
 0002:0000bb08       $chain$0$?morphgen@AffixMgr@@QEAAPEADPEADHPEBGG00H@Z 000000018004fb08     hunspell:affixmgr.obj
 0002:0000bb1c       $chain$1$?morphgen@AffixMgr@@QEAAPEADPEADHPEBGG00H@Z 000000018004fb1c     hunspell:affixmgr.obj
 0002:0000bb2c       $chain$2$?morphgen@AffixMgr@@QEAAPEADPEADHPEBGG00H@Z 000000018004fb2c     hunspell:affixmgr.obj
 0002:0000bb40       $unwind$?expand_rootword@AffixMgr@@QEAAHPEAUguessword@@HPEBDHPEBGGPEADH3@Z 000000018004fb40     hunspell:affixmgr.obj
 0002:0000bb60       $chain$0$?expand_rootword@AffixMgr@@QEAAHPEAUguessword@@HPEBDHPEBGGPEADH3@Z 000000018004fb60     hunspell:affixmgr.obj
 0002:0000bb74       $chain$1$?expand_rootword@AffixMgr@@QEAAHPEAUguessword@@HPEBDHPEBGGPEADH3@Z 000000018004fb74     hunspell:affixmgr.obj
 0002:0000bb84       $chain$0$?get_encoding@AffixMgr@@QEAAPEADXZ 000000018004fb84     hunspell:affixmgr.obj
 0002:0000bb98       $chain$1$?get_encoding@AffixMgr@@QEAAPEADXZ 000000018004fb98     hunspell:affixmgr.obj
 0002:0000bba8       $chain$0$?get_key_string@AffixMgr@@QEAAPEADXZ 000000018004fba8     hunspell:affixmgr.obj
 0002:0000bbbc       $chain$1$?get_key_string@AffixMgr@@QEAAPEADXZ 000000018004fbbc     hunspell:affixmgr.obj
 0002:0000bbcc       $unwind$?lookup@AffixMgr@@QEAAPEAUhentry@@PEBD@Z 000000018004fbcc     hunspell:affixmgr.obj
 0002:0000bbd8       $chain$1$?lookup@AffixMgr@@QEAAPEAUhentry@@PEBD@Z 000000018004fbd8     hunspell:affixmgr.obj
 0002:0000bbf0       $chain$2$?lookup@AffixMgr@@QEAAPEAUhentry@@PEBD@Z 000000018004fbf0     hunspell:affixmgr.obj
 0002:0000bc00       $unwind$?parse_flag@AffixMgr@@AEAAHPEADPEAGPEAVFileMgr@@@Z 000000018004fc00     hunspell:affixmgr.obj
 0002:0000bc0c       $unwind$?parse_cpdsyllable@AffixMgr@@AEAAHPEADPEAVFileMgr@@@Z 000000018004fc0c     hunspell:affixmgr.obj
 0002:0000bc2c       $unwind$?parse_reptable@AffixMgr@@AEAAHPEADPEAVFileMgr@@@Z 000000018004fc2c     hunspell:affixmgr.obj
 0002:0000bc2c       $unwind$?parse_checkcpdtable@AffixMgr@@AEAAHPEADPEAVFileMgr@@@Z 000000018004fc2c     hunspell:affixmgr.obj
 0002:0000bc38       $chain$3$?parse_reptable@AffixMgr@@AEAAHPEADPEAVFileMgr@@@Z 000000018004fc38     hunspell:affixmgr.obj
 0002:0000bc58       $chain$4$?parse_reptable@AffixMgr@@AEAAHPEADPEAVFileMgr@@@Z 000000018004fc58     hunspell:affixmgr.obj
 0002:0000bc6c       $chain$5$?parse_reptable@AffixMgr@@AEAAHPEADPEAVFileMgr@@@Z 000000018004fc6c     hunspell:affixmgr.obj
 0002:0000bc7c       $chain$7$?parse_reptable@AffixMgr@@AEAAHPEADPEAVFileMgr@@@Z 000000018004fc7c     hunspell:affixmgr.obj
 0002:0000bca0       $chain$8$?parse_reptable@AffixMgr@@AEAAHPEADPEAVFileMgr@@@Z 000000018004fca0     hunspell:affixmgr.obj
 0002:0000bcc0       $unwind$?parse_convtable@AffixMgr@@AEAAHPEADPEAVFileMgr@@PEAPEAVRepList@@PEBD@Z 000000018004fcc0     hunspell:affixmgr.obj
 0002:0000bcc8       $chain$5$?parse_convtable@AffixMgr@@AEAAHPEADPEAVFileMgr@@PEAPEAVRepList@@PEBD@Z 000000018004fcc8     hunspell:affixmgr.obj
 0002:0000bcf0       $chain$6$?parse_convtable@AffixMgr@@AEAAHPEADPEAVFileMgr@@PEAPEAVRepList@@PEBD@Z 000000018004fcf0     hunspell:affixmgr.obj
 0002:0000bd04       $chain$7$?parse_convtable@AffixMgr@@AEAAHPEADPEAVFileMgr@@PEAPEAVRepList@@PEBD@Z 000000018004fd04     hunspell:affixmgr.obj
 0002:0000bd14       $chain$9$?parse_convtable@AffixMgr@@AEAAHPEADPEAVFileMgr@@PEAPEAVRepList@@PEBD@Z 000000018004fd14     hunspell:affixmgr.obj
 0002:0000bd40       $chain$10$?parse_convtable@AffixMgr@@AEAAHPEADPEAVFileMgr@@PEAPEAVRepList@@PEBD@Z 000000018004fd40     hunspell:affixmgr.obj
 0002:0000bd68       $unwind$?parse_phonetable@AffixMgr@@AEAAHPEADPEAVFileMgr@@@Z 000000018004fd68     hunspell:affixmgr.obj
 0002:0000bd84       $chain$3$?parse_checkcpdtable@AffixMgr@@AEAAHPEADPEAVFileMgr@@@Z 000000018004fd84     hunspell:affixmgr.obj
 0002:0000bda4       $chain$4$?parse_checkcpdtable@AffixMgr@@AEAAHPEADPEAVFileMgr@@@Z 000000018004fda4     hunspell:affixmgr.obj
 0002:0000bdb8       $chain$5$?parse_checkcpdtable@AffixMgr@@AEAAHPEADPEAVFileMgr@@@Z 000000018004fdb8     hunspell:affixmgr.obj
 0002:0000bdc8       $chain$7$?parse_checkcpdtable@AffixMgr@@AEAAHPEADPEAVFileMgr@@@Z 000000018004fdc8     hunspell:affixmgr.obj
 0002:0000bdec       $chain$8$?parse_checkcpdtable@AffixMgr@@AEAAHPEADPEAVFileMgr@@@Z 000000018004fdec     hunspell:affixmgr.obj
 0002:0000be0c       $unwind$?parse_defcpdtable@AffixMgr@@AEAAHPEADPEAVFileMgr@@@Z 000000018004fe0c     hunspell:affixmgr.obj
 0002:0000be18       $chain$2$?parse_defcpdtable@AffixMgr@@AEAAHPEADPEAVFileMgr@@@Z 000000018004fe18     hunspell:affixmgr.obj
 0002:0000be34       $chain$5$?parse_defcpdtable@AffixMgr@@AEAAHPEADPEAVFileMgr@@@Z 000000018004fe34     hunspell:affixmgr.obj
 0002:0000be50       $chain$6$?parse_defcpdtable@AffixMgr@@AEAAHPEADPEAVFileMgr@@@Z 000000018004fe50     hunspell:affixmgr.obj
 0002:0000be60       $chain$8$?parse_defcpdtable@AffixMgr@@AEAAHPEADPEAVFileMgr@@@Z 000000018004fe60     hunspell:affixmgr.obj
 0002:0000be88       $chain$9$?parse_defcpdtable@AffixMgr@@AEAAHPEADPEAVFileMgr@@@Z 000000018004fe88     hunspell:affixmgr.obj
 0002:0000bea4       $unwind$?parse_maptable@AffixMgr@@AEAAHPEADPEAVFileMgr@@@Z 000000018004fea4     hunspell:affixmgr.obj
 0002:0000beb0       $chain$2$?parse_maptable@AffixMgr@@AEAAHPEADPEAVFileMgr@@@Z 000000018004feb0     hunspell:affixmgr.obj
 0002:0000becc       $chain$5$?parse_maptable@AffixMgr@@AEAAHPEADPEAVFileMgr@@@Z 000000018004fecc     hunspell:affixmgr.obj
 0002:0000bee8       $chain$6$?parse_maptable@AffixMgr@@AEAAHPEADPEAVFileMgr@@@Z 000000018004fee8     hunspell:affixmgr.obj
 0002:0000bef8       $chain$8$?parse_maptable@AffixMgr@@AEAAHPEADPEAVFileMgr@@@Z 000000018004fef8     hunspell:affixmgr.obj
 0002:0000bf20       $chain$9$?parse_maptable@AffixMgr@@AEAAHPEADPEAVFileMgr@@@Z 000000018004ff20     hunspell:affixmgr.obj
 0002:0000bf3c       $unwind$?parse_breaktable@AffixMgr@@AEAAHPEADPEAVFileMgr@@@Z 000000018004ff3c     hunspell:affixmgr.obj
 0002:0000bf48       $chain$2$?parse_breaktable@AffixMgr@@AEAAHPEADPEAVFileMgr@@@Z 000000018004ff48     hunspell:affixmgr.obj
 0002:0000bf64       $chain$3$?parse_breaktable@AffixMgr@@AEAAHPEADPEAVFileMgr@@@Z 000000018004ff64     hunspell:affixmgr.obj
 0002:0000bf78       $chain$4$?parse_breaktable@AffixMgr@@AEAAHPEADPEAVFileMgr@@@Z 000000018004ff78     hunspell:affixmgr.obj
 0002:0000bf88       $chain$6$?parse_breaktable@AffixMgr@@AEAAHPEADPEAVFileMgr@@@Z 000000018004ff88     hunspell:affixmgr.obj
 0002:0000bfa8       $chain$7$?parse_breaktable@AffixMgr@@AEAAHPEADPEAVFileMgr@@@Z 000000018004ffa8     hunspell:affixmgr.obj
 0002:0000bfc4       $unwind$?parse_affix@AffixMgr@@AEAAHPEADDPEAVFileMgr@@0@Z 000000018004ffc4     hunspell:affixmgr.obj
 0002:0000bfd0       $chain$5$?parse_affix@AffixMgr@@AEAAHPEADDPEAVFileMgr@@0@Z 000000018004ffd0     hunspell:affixmgr.obj
 0002:0000bff8       $chain$6$?parse_affix@AffixMgr@@AEAAHPEADDPEAVFileMgr@@0@Z 000000018004fff8     hunspell:affixmgr.obj
 0002:0000c008       $unwind$?redundant_condition@AffixMgr@@AEAAHDPEADHPEBDH@Z 0000000180050008     hunspell:affixmgr.obj
 0002:0000c024       $unwind$?type_case_c_tchar@?$output_processor@_WV?$stream_output_adapter@_W@__crt_stdio_output@@V?$standard_base@_WV?$stream_output_adapter@_W@__crt_stdio_output@@@2@@__crt_stdio_output@@AEAA_N_W@Z 0000000180050024     libucrt:output.obj
 0002:0000c024       $unwind$?type_case_c_tchar@?$output_processor@_WV?$string_output_adapter@_W@__crt_stdio_output@@V?$standard_base@_WV?$string_output_adapter@_W@__crt_stdio_output@@@2@@__crt_stdio_output@@AEAA_N_W@Z 0000000180050024     libucrt:output.obj
 0002:0000c024       $unwind$??R<lambda_b721fa326cdb32351d23dfa67958c160>@@QEBAHXZ 0000000180050024     libucrt:setvbuf.obj
 0002:0000c024       $unwind$?_Reallocate@?$vector@Uaffentry@@V?$allocator@Uaffentry@@@std@@@std@@IEAAX_K@Z 0000000180050024     hunspell:affixmgr.obj
 0002:0000c024       $unwind$?truncate_ctrl_z_if_present@@YAHH@Z 0000000180050024     libucrt:open.obj
 0002:0000c034       $chain$0$?_Reallocate@?$vector@Uaffentry@@V?$allocator@Uaffentry@@@std@@@std@@IEAAX_K@Z 0000000180050034     hunspell:affixmgr.obj
 0002:0000c048       $chain$1$?_Reallocate@?$vector@Uaffentry@@V?$allocator@Uaffentry@@@std@@@std@@IEAAX_K@Z 0000000180050048     hunspell:affixmgr.obj
 0002:0000c058       $chain$0$??0FileMgr@@QEAA@PEBD0@Z 0000000180050058     hunspell:filemgr.obj
 0002:0000c06c       $chain$1$??0FileMgr@@QEAA@PEBD0@Z 000000018005006c     hunspell:filemgr.obj
 0002:0000c07c       $unwind$?phonet@@YAHPEBDPEADHAEAUphonetable@@@Z 000000018005007c     hunspell:phonet.obj
 0002:0000c094       $chain$2$?phonet@@YAHPEBDPEADHAEAUphonetable@@@Z 0000000180050094     hunspell:phonet.obj
 0002:0000c0b0       $chain$4$?phonet@@YAHPEBDPEADHAEAUphonetable@@@Z 00000001800500b0     hunspell:phonet.obj
 0002:0000c0c8       $chain$5$?phonet@@YAHPEBDPEADHAEAUphonetable@@@Z 00000001800500c8     hunspell:phonet.obj
 0002:0000c0d8       $chain$6$?phonet@@YAHPEBDPEADHAEAUphonetable@@@Z 00000001800500d8     hunspell:phonet.obj
 0002:0000c0e8       $chain$7$?phonet@@YAHPEBDPEADHAEAUphonetable@@@Z 00000001800500e8     hunspell:phonet.obj
 0002:0000c10c       $unwind$?add@PfxEntry@@QEAAPEADPEBDH@Z 000000018005010c     hunspell:affentry.obj
 0002:0000c128       $unwind$?test_condition@PfxEntry@@QEAAHPEBD@Z 0000000180050128     hunspell:affentry.obj
 0002:0000c134       $unwind$?checkword@PfxEntry@@QEAAPEAUhentry@@PEBDHDG@Z 0000000180050134     hunspell:affentry.obj
 0002:0000c158       $unwind$?check_twosfx_morph@PfxEntry@@QEAAPEADPEBDHDG@Z 0000000180050158     hunspell:affentry.obj
 0002:0000c158       $unwind$?check_twosfx@PfxEntry@@QEAAPEAUhentry@@PEBDHDG@Z 0000000180050158     hunspell:affentry.obj
 0002:0000c174       $unwind$?check_morph@PfxEntry@@QEAAPEADPEBDHDG@Z 0000000180050174     hunspell:affentry.obj
 0002:0000c190       $chain$2$?check_morph@PfxEntry@@QEAAPEADPEBDHDG@Z 0000000180050190     hunspell:affentry.obj
 0002:0000c1ac       $chain$3$?check_morph@PfxEntry@@QEAAPEADPEBDHDG@Z 00000001800501ac     hunspell:affentry.obj
 0002:0000c1bc       $unwind$?add@SfxEntry@@QEAAPEADPEBDH@Z 00000001800501bc     hunspell:affentry.obj
 0002:0000c1d8       $unwind$?test_condition@SfxEntry@@QEAAHPEBD0@Z 00000001800501d8     hunspell:affentry.obj
 0002:0000c1ec       $unwind$?checkword@SfxEntry@@QEAAPEAUhentry@@PEBDHHPEAVPfxEntry@@PEAPEADHPEAHGGG@Z 00000001800501ec     hunspell:affentry.obj
 0002:0000c200       $chain$5$?checkword@SfxEntry@@QEAAPEAUhentry@@PEBDHHPEAVPfxEntry@@PEAPEADHPEAHGGG@Z 0000000180050200     hunspell:affentry.obj
 0002:0000c228       $chain$6$?checkword@SfxEntry@@QEAAPEAUhentry@@PEBDHHPEAVPfxEntry@@PEAPEADHPEAHGGG@Z 0000000180050228     hunspell:affentry.obj
 0002:0000c238       $chain$7$?checkword@SfxEntry@@QEAAPEAUhentry@@PEBDHHPEAVPfxEntry@@PEAPEADHPEAHGGG@Z 0000000180050238     hunspell:affentry.obj
 0002:0000c260       $unwind$?check_twosfx@SfxEntry@@QEAAPEAUhentry@@PEBDHHPEAVPfxEntry@@G@Z 0000000180050260     hunspell:affentry.obj
 0002:0000c27c       $unwind$?check_twosfx_morph@SfxEntry@@QEAAPEADPEBDHHPEAVPfxEntry@@G@Z 000000018005027c     hunspell:affentry.obj
 0002:0000c29c       $unwind$?get_next_homonym@SfxEntry@@QEAAPEAUhentry@@PEAU2@HPEAVPfxEntry@@GG@Z 000000018005029c     hunspell:affentry.obj
 0002:0000c2bc       $unwind$?getcode@Hunzip@@IEAAHPEBD@Z 00000001800502bc     hunspell:hunzip.obj
 0002:0000c2c8       $chain$0$?getcode@Hunzip@@IEAAHPEBD@Z 00000001800502c8     hunspell:hunzip.obj
 0002:0000c2dc       $chain$3$?getcode@Hunzip@@IEAAHPEBD@Z 00000001800502dc     hunspell:hunzip.obj
 0002:0000c2f4       $chain$9$?getcode@Hunzip@@IEAAHPEBD@Z 00000001800502f4     hunspell:hunzip.obj
 0002:0000c31c       $chain$11$?getcode@Hunzip@@IEAAHPEBD@Z 000000018005031c     hunspell:hunzip.obj
 0002:0000c344       $chain$12$?getcode@Hunzip@@IEAAHPEBD@Z 0000000180050344     hunspell:hunzip.obj
 0002:0000c358       $unwind$?getbuf@Hunzip@@IEAAHXZ 0000000180050358     hunspell:hunzip.obj
 0002:0000c370       $unwind$?getline@Hunzip@@QEAAPEBDXZ 0000000180050370     hunspell:hunzip.obj
 0002:0000c390       $chain$0$?getline@Hunzip@@QEAAPEBDXZ 0000000180050390     hunspell:hunzip.obj
 0002:0000c3a4       $chain$1$?getline@Hunzip@@QEAAPEBDXZ 00000001800503a4     hunspell:hunzip.obj
 0002:0000c3b8       $chain$2$?getline@Hunzip@@QEAAPEBDXZ 00000001800503b8     hunspell:hunzip.obj
 0002:0000c3c8       $chain$3$?getline@Hunzip@@QEAAPEBDXZ 00000001800503c8     hunspell:hunzip.obj
 0002:0000c3d8       $chain$4$?getline@Hunzip@@QEAAPEBDXZ 00000001800503d8     hunspell:hunzip.obj
 0002:0000c3ec       $unwind$?_Xbad_alloc@std@@YAXXZ 00000001800503ec     libcpmt:xthrow.obj
 0002:0000c3ec       $unwind$?_Xlength_error@std@@YAXPEBD@Z 00000001800503ec     libcpmt:xthrow.obj
 0002:0000c3ec       $unwind$__dcrt_lowio_initialize_console_output 00000001800503ec     libucrt:initcon.obj
 0002:0000c3ec       $unwind$?__scrt_throw_std_bad_array_new_length@@YAXXZ 00000001800503ec     LIBCMT:throw_bad_alloc.obj
 0002:0000c3ec       $unwind$_raise_exc         00000001800503ec     libucrt:fpexcept.obj
 0002:0000c3ec       $unwind$?__scrt_throw_std_bad_alloc@@YAXXZ 00000001800503ec     LIBCMT:throw_bad_alloc.obj
 0002:0000c3ec       $unwind$?_Xout_of_range@std@@YAXPEBD@Z 00000001800503ec     libcpmt:xthrow.obj
 0002:0000c3f4       $unwind$??$common_xtox_s@K_W@@YAHKQEA_W_KI_N@Z 00000001800503f4     libucrt:xtoa.obj
 0002:0000c3f4       $unwind$??0out_of_range@std@@QEAA@PEBD@Z 00000001800503f4     libcpmt:xthrow.obj
 0002:0000c3f4       $unwind$wcstol             00000001800503f4     libucrt:strtox.obj
 0002:0000c3f4       $unwind$strtol             00000001800503f4     libucrt:strtox.obj
 0002:0000c3f4       $unwind$??0length_error@std@@QEAA@PEBD@Z 00000001800503f4     libcpmt:xthrow.obj
 0002:0000c400       $xdatasym                  0000000180050400     LIBCMT:_amdsecgs_.obj
 0002:0000c404       $unwind$?dllmain_crt_process_attach@@YAHQEAUHINSTANCE__@@QEAX@Z 0000000180050404     LIBCMT:dll_dllmain.obj
 0002:0000c430       $unwind$?dllmain_crt_process_detach@@YAH_N@Z 0000000180050430     LIBCMT:dll_dllmain.obj
 0002:0000c458       $unwind$?dllmain_dispatch@@YAHQEAUHINSTANCE__@@KQEAX@Z 0000000180050458     LIBCMT:dll_dllmain.obj
 0002:0000c480       $unwind$fread_s$fin$0      0000000180050480     libucrt:fread.obj
 0002:0000c480       $unwind$?filt$0@?0??dllmain_dispatch@@YAHQEAUHINSTANCE__@@KQEAX@Z@4HA 0000000180050480     LIBCMT:dll_dllmain.obj
 0002:0000c488       $unwind$__report_securityfailure 0000000180050488     LIBCMT:gs_report.obj
 0002:0000c490       $unwind$capture_current_context 0000000180050490     LIBCMT:gs_report.obj
 0002:0000c49c       $unwind$capture_previous_context 000000018005049c     LIBCMT:gs_report.obj
 0002:0000c4a8       $unwind$__scrt_is_nonwritable_in_current_image 00000001800504a8     LIBCMT:utility.obj
 0002:0000c4c8       $unwind$__scrt_is_nonwritable_in_current_image$filt$0 00000001800504c8     LIBCMT:utility.obj
 0002:0000c4d0       $unwind$__scrt_initialize_onexit_tables 00000001800504d0     LIBCMT:utility.obj
 0002:0000c4dc       $unwind$__security_init_cookie 00000001800504dc     LIBCMT:gs_support.obj
 0002:0000c4e8       $unwind$__scrt_fastfail    00000001800504e8     LIBCMT:utility_desktop.obj
 0002:0000c4f8       $unwind$__isa_available_init 00000001800504f8     LIBCMT:_cpu_disp_.obj
 0002:0000c508       $xdatasym                  0000000180050508     LIBCMT:_guard_dispatch_.obj
 0002:0000c510       $xdatasym                  0000000180050510     libvcruntime:memcpy.obj
 0002:0000c514       $unwind$strstr             0000000180050514     libvcruntime:strstr.obj
 0002:0000c524       $unwind$_CxxThrowException 0000000180050524     libvcruntime:throw.obj
 0002:0000c538       $unwind$__C_specific_handler 0000000180050538     libvcruntime:_chandler_.obj
 0002:0000c558       $xdatasym                  0000000180050558     libvcruntime:memset.obj
 0002:0000c560       $xdatasym                  0000000180050560     libvcruntime:_jmpuwind_.obj
 0002:0000c574       $unwind$swprintf           0000000180050574     libucrt:assert.obj
 0002:0000c584       $unwind$??$common_assert_to_stderr@_W@@YAXQEB_W0I@Z 0000000180050584     libucrt:assert.obj
 0002:0000c5a0       $unwind$??$common_assert_to_message_box@_W@@YAXQEB_W0IQEAX@Z 00000001800505a0     libucrt:assert.obj
 0002:0000c5bc       $unwind$??$common_assert_to_message_box_build_string@_W@@YAXQEA_W_KQEB_W2IQEAX@Z 00000001800505bc     libucrt:assert.obj
 0002:0000c5dc       $unwind$__acrt_call_reportfault 00000001800505dc     libucrt:invalid_parameter.obj
 0002:0000c5fc       $unwind$_invalid_parameter 00000001800505fc     libucrt:invalid_parameter.obj
 0002:0000c614       $unwind$??$common_fsopen@D@@YAPEAU_iobuf@@QEBD0H@Z 0000000180050614     libucrt:fopen.obj
 0002:0000c63c       $unwind$common_flush_all$fin$1 000000018005063c     libucrt:fflush.obj
 0002:0000c63c       $unwind$common_flush_all$fin$0 000000018005063c     libucrt:fflush.obj
 0002:0000c63c       $unwind$?fin$0@?0???$common_fsopen@D@@YAPEAU_iobuf@@QEBD0H@Z@4HA 000000018005063c     libucrt:fopen.obj
 0002:0000c63c       $unwind$common_control87$filt$0 000000018005063c     libucrt:ieee.obj
 0002:0000c63c       $unwind$?fin$0@?0???$?RV<lambda_bfedae4ebbf01fab1bb6dcc6a9e276e0>@@AEAV<lambda_2fe9b910cf3cbf4a0ab98a02ba45b3ec>@@V<lambda_237c231691f317818eb88cc1d5d642d6>@@@?$__crt_seh_guarded_call@H@@QEAAH$$QEAV<lambda_bfedae4ebbf01fab1bb6dcc6a9e276e0>@@AEAV<lambda_2fe9b910cf3cbf4a0ab98a02ba45b3ec>@@$$QEAV<lambda_237c231691f317818eb88cc1d5d642d6>@@@Z@4HA 000000018005063c     libucrt:close.obj
 0002:0000c63c       $unwind$_IsNonwritableInCurrentImage$filt$0 000000018005063c     LIBCMT:pesect.obj
 0002:0000c63c       $unwind$_ctrlfp$filt$0     000000018005063c     libucrt:fpctrl.obj
 0002:0000c63c       $unwind$_alloc_osfhnd$fin$0 000000018005063c     libucrt:osfinfo.obj
 0002:0000c63c       $unwind$raise$fin$0        000000018005063c     libucrt:signal.obj
 0002:0000c63c       $unwind$__acrt_uninitialize_locale$fin$0 000000018005063c     libucrt:wsetlocale.obj
 0002:0000c63c       $unwind$_query_new_handler$fin$0 000000018005063c     libucrt:new_handler.obj
 0002:0000c63c       $unwind$__acrt_update_thread_locale_data$fin$0 000000018005063c     libucrt:locale_refcounting.obj
 0002:0000c63c       $unwind$?fin$0@?0???$common_lseek@_J@@YA_JH_JH@Z@4HA 000000018005063c     libucrt:lseek.obj
 0002:0000c63c       $unwind$?fin$0@?0???$common_getenv@D@@YAPEADQEBD@Z@4HA 000000018005063c     libucrt:getenv.obj
 0002:0000c63c       $unwind$?fin$0@?0???$common_fgets@D@@YAPEADQEADHV__crt_stdio_stream@@@Z@4HA 000000018005063c     libucrt:fgets.obj
 0002:0000c63c       $unwind$_read$fin$0        000000018005063c     libucrt:read.obj
 0002:0000c63c       $unwind$_fcloseall$fin$0   000000018005063c     libucrt:closeall.obj
 0002:0000c63c       $unwind$?fin$0@?0???$?RV<lambda_99476a1ad63dd22509b5d3e65b0ffc95>@@AEAV<lambda_ad1ced32f4ac17aa236e5ef05d6b3b7c>@@V<lambda_f7424dd8d45958661754dc4f2697e9c3>@@@?$__crt_seh_guarded_call@X@@QEAAX$$QEAV<lambda_99476a1ad63dd22509b5d3e65b0ffc95>@@AEAV<lambda_ad1ced32f4ac17aa236e5ef05d6b3b7c>@@$$QEAV<lambda_f7424dd8d45958661754dc4f2697e9c3>@@@Z@4HA 000000018005063c     libucrt:mbctype.obj
 0002:0000c63c       $unwind$_write$fin$0       000000018005063c     libucrt:write.obj
 0002:0000c63c       $unwind$__acrt_lowio_ensure_fh_exists$fin$0 000000018005063c     libucrt:osfinfo.obj
 0002:0000c63c       $unwind$fflush$fin$0       000000018005063c     libucrt:fflush.obj
 0002:0000c63c       $unwind$?fin$0@?0???$?RV<lambda_c36588078e9f5dfd39652860aa6b3aaf>@@AEAV<lambda_ec61778202f4f5fc7e7711acc23c3bca>@@V<lambda_dc9d2797ccde5d239b4a0efae8ebd7db>@@@?$__crt_seh_guarded_call@P6AXH@Z@@QEAAP6AXH@Z$$QEAV<lambda_c36588078e9f5dfd39652860aa6b3aaf>@@AEAV<lambda_ec61778202f4f5fc7e7711acc23c3bca>@@$$QEAV<lambda_dc9d2797ccde5d239b4a0efae8ebd7db>@@@Z@4HA 000000018005063c     libucrt:signal.obj
 0002:0000c63c       $unwind$?fin$0@?0???$?RV<lambda_b521505b218e5242e90febf6bfebc422>@@AEAV<lambda_6978c1fb23f02e42e1d9e99668cc68aa>@@V<lambda_314360699dd331753a4119843814e9a7>@@@?$__crt_seh_guarded_call@H@@QEAAH$$QEAV<lambda_b521505b218e5242e90febf6bfebc422>@@AEAV<lambda_6978c1fb23f02e42e1d9e99668cc68aa>@@$$QEAV<lambda_314360699dd331753a4119843814e9a7>@@@Z@4HA 000000018005063c     libucrt:commit.obj
 0002:0000c63c       $unwind$?fin$1@?0??common_exit@@YAXHW4_crt_exit_cleanup_mode@@W4_crt_exit_return_mode@@@Z@4HA 000000018005063c     libucrt:exit.obj
 0002:0000c63c       $unwind$?filt$0@?0??common_exit@@YAXHW4_crt_exit_cleanup_mode@@W4_crt_exit_return_mode@@@Z@4HA 000000018005063c     libucrt:exit.obj
 0002:0000c63c       $unwind$?fin$0@?0???$?RV<lambda_fb3a7dec4e47f37f22dae91bb15c9095>@@AEAV<lambda_698284760c8add0bfb0756c19673e34b>@@V<lambda_dfb8eca1e75fef3034a8fb18dd509707>@@@?$__crt_seh_guarded_call@X@@QEAAX$$QEAV<lambda_fb3a7dec4e47f37f22dae91bb15c9095>@@AEAV<lambda_698284760c8add0bfb0756c19673e34b>@@$$QEAV<lambda_dfb8eca1e75fef3034a8fb18dd509707>@@@Z@4HA 000000018005063c     libucrt:per_thread_data.obj
 0002:0000c63c       $unwind$?fin$0@?0???$?RV<lambda_46352004c1216016012b18bd6f87e700>@@AEAV<lambda_3bd07e1a1191394380780325891bf33f>@@V<lambda_334532d3f185bcaa59b5be82d7d22bff>@@@?$__crt_seh_guarded_call@X@@QEAAX$$QEAV<lambda_46352004c1216016012b18bd6f87e700>@@AEAV<lambda_3bd07e1a1191394380780325891bf33f>@@$$QEAV<lambda_334532d3f185bcaa59b5be82d7d22bff>@@@Z@4HA 000000018005063c     libucrt:per_thread_data.obj
 0002:0000c63c       $unwind$?fin$0@?0??dllmain_crt_process_attach@@YAHQEAUHINSTANCE__@@QEAX@Z@4HA 000000018005063c     LIBCMT:dll_dllmain.obj
 0002:0000c63c       $unwind$?fin$0@?0???$?RV<lambda_5e887d1dcbef67a5eb4283622ba103bf>@@AEAV<lambda_4466841279450cc726390878d4a41900>@@V<lambda_341c25c0346d94847f1f3c463c57e077>@@@?$__crt_seh_guarded_call@X@@QEAAX$$QEAV<lambda_5e887d1dcbef67a5eb4283622ba103bf>@@AEAV<lambda_4466841279450cc726390878d4a41900>@@$$QEAV<lambda_341c25c0346d94847f1f3c463c57e077>@@@Z@4HA 000000018005063c     libucrt:per_thread_data.obj
 0002:0000c63c       $unwind$?fin$0@?0???$?RV<lambda_72d1df2b273a38828b1ce30cbf4cdab5>@@AEAV<lambda_876a65b173b8412d3a47c70a915b0cf4>@@V<lambda_41932305e351933ebe8f8be3ed8bb5dc>@@@?$__crt_seh_guarded_call@X@@QEAAX$$QEAV<lambda_72d1df2b273a38828b1ce30cbf4cdab5>@@AEAV<lambda_876a65b173b8412d3a47c70a915b0cf4>@@$$QEAV<lambda_41932305e351933ebe8f8be3ed8bb5dc>@@@Z@4HA 000000018005063c     libucrt:per_thread_data.obj
 0002:0000c63c       $unwind$__acrt_initialize_lowio$fin$0 000000018005063c     libucrt:ioinit.obj
 0002:0000c63c       $unwind$?fin$0@?0???$?RV<lambda_7a5ef57ff966f610505f1d28a3d40618>@@AEAV<lambda_b721fa326cdb32351d23dfa67958c160>@@V<lambda_5e0fb27672408a07956fe59e48ccb2aa>@@@?$__crt_seh_guarded_call@H@@QEAAH$$QEAV<lambda_7a5ef57ff966f610505f1d28a3d40618>@@AEAV<lambda_b721fa326cdb32351d23dfa67958c160>@@$$QEAV<lambda_5e0fb27672408a07956fe59e48ccb2aa>@@@Z@4HA 000000018005063c     libucrt:setvbuf.obj
 0002:0000c63c       $unwind$?fin$0@?0???$?RV<lambda_7b91131dde12e1c3dfc74ff76b3f2eac>@@AEAV<lambda_dd75445284c072d0bd3768540cc698fa>@@V<lambda_16bc4ecb55b4718497c16bceaea2ceaf>@@@?$__crt_seh_guarded_call@H@@QEAAH$$QEAV<lambda_7b91131dde12e1c3dfc74ff76b3f2eac>@@AEAV<lambda_dd75445284c072d0bd3768540cc698fa>@@$$QEAV<lambda_16bc4ecb55b4718497c16bceaea2ceaf>@@@Z@4HA 000000018005063c     libucrt:output.obj
 0002:0000c63c       $unwind$__acrt_update_thread_multibyte_data$fin$0 000000018005063c     libucrt:mbctype.obj
 0002:0000c63c       $unwind$?fin$0@?0??__acrt_stdio_allocate_stream@@YA?AV__crt_stdio_stream@@XZ@4HA 000000018005063c     libucrt:stream.obj
 0002:0000c63c       $unwind$fclose$fin$0       000000018005063c     libucrt:fclose.obj
 0002:0000c63c       $unwind$?fin$0@?0???$?RV<lambda_e24bbb7b643b32fcea6fa61b31d4c984>@@AEAV<lambda_275893d493268fdec8709772e3fcec0e>@@V<lambda_9d71df4d7cf3f480f8d633942495c3b0>@@@?$__crt_seh_guarded_call@H@@QEAAH$$QEAV<lambda_e24bbb7b643b32fcea6fa61b31d4c984>@@AEAV<lambda_275893d493268fdec8709772e3fcec0e>@@$$QEAV<lambda_9d71df4d7cf3f480f8d633942495c3b0>@@@Z@4HA 000000018005063c     libucrt:onexit.obj
 0002:0000c63c       $unwind$?fin$0@?0???$?RV<lambda_b8c45f8f788dd370798f47cfe8ac3a86>@@AEAV<lambda_4e60a939b0d047cfe11ddc22648dfba9>@@V<lambda_332c3edc96d0294ec56c57d38c1cdfd5>@@@?$__crt_seh_guarded_call@H@@QEAAH$$QEAV<lambda_b8c45f8f788dd370798f47cfe8ac3a86>@@AEAV<lambda_4e60a939b0d047cfe11ddc22648dfba9>@@$$QEAV<lambda_332c3edc96d0294ec56c57d38c1cdfd5>@@@Z@4HA 000000018005063c     libucrt:onexit.obj
 0002:0000c63c       $unwind$?fin$0@?0??dllmain_crt_process_detach@@YAH_N@Z@4HA 000000018005063c     LIBCMT:dll_dllmain.obj
 0002:0000c63c       $unwind$?fin$0@?0???$?RV<lambda_aa279a7bcb127014629d5b1d62c7325d>@@AEAV<lambda_0a64b6a4deda75c01876f29c44fc5eb3>@@V<lambda_3323e69fbefe9d1a11713e670d47cdfa>@@@?$__crt_seh_guarded_call@H@@QEAAH$$QEAV<lambda_aa279a7bcb127014629d5b1d62c7325d>@@AEAV<lambda_0a64b6a4deda75c01876f29c44fc5eb3>@@$$QEAV<lambda_3323e69fbefe9d1a11713e670d47cdfa>@@@Z@4HA 000000018005063c     libucrt:output.obj
 0002:0000c644       $unwind$fclose             0000000180050644     libucrt:fclose.obj
 0002:0000c668       $unwind$??$common_getenv@D@@YAPEADQEBD@Z 0000000180050668     libucrt:getenv.obj
 0002:0000c688       $xdatasym                  0000000180050688     libucrt:strncpy.obj
 0002:0000c690       $xdatasym                  0000000180050690     libucrt:strncmp.obj
 0002:0000c694       $unwind$__stdio_common_vsprintf 0000000180050694     libucrt:output.obj
 0002:0000c694       $unwind$__stdio_common_vswprintf 0000000180050694     libucrt:output.obj
 0002:0000c6b8       $unwind$__stdio_common_vfprintf 00000001800506b8     libucrt:output.obj
 0002:0000c6b8       $unwind$__stdio_common_vfwprintf 00000001800506b8     libucrt:output.obj
 0002:0000c6c0       $unwind$?process@?$output_processor@DV?$stream_output_adapter@D@__crt_stdio_output@@V?$standard_base@DV?$stream_output_adapter@D@__crt_stdio_output@@@2@@__crt_stdio_output@@QEAAHXZ 00000001800506c0     libucrt:output.obj
 0002:0000c6c0       $unwind$?process@?$output_processor@DV?$string_output_adapter@D@__crt_stdio_output@@V?$standard_base@DV?$string_output_adapter@D@__crt_stdio_output@@@2@@__crt_stdio_output@@QEAAHXZ 00000001800506c0     libucrt:output.obj
 0002:0000c6d0       $unwind$?state_case_type@?$output_processor@DV?$string_output_adapter@D@__crt_stdio_output@@V?$standard_base@DV?$string_output_adapter@D@__crt_stdio_output@@@2@@__crt_stdio_output@@AEAA_NXZ 00000001800506d0     libucrt:output.obj
 0002:0000c6d0       $unwind$?configure_text_mode@@YAHHUfile_options@?A0x656cf9f4@@HAEAW4__crt_lowio_text_mode@@@Z 00000001800506d0     libucrt:open.obj
 0002:0000c6d0       $unwind$?state_case_type@?$output_processor@DV?$stream_output_adapter@D@__crt_stdio_output@@V?$standard_base@DV?$stream_output_adapter@D@__crt_stdio_output@@@2@@__crt_stdio_output@@AEAA_NXZ 00000001800506d0     libucrt:output.obj
 0002:0000c6e8       $unwind$?type_case_a@?$output_processor@DV?$stream_output_adapter@D@__crt_stdio_output@@V?$standard_base@DV?$stream_output_adapter@D@__crt_stdio_output@@@2@@__crt_stdio_output@@AEAA_NXZ 00000001800506e8     libucrt:output.obj
 0002:0000c6e8       $unwind$?type_case_a@?$output_processor@DV?$string_output_adapter@D@__crt_stdio_output@@V?$standard_base@DV?$string_output_adapter@D@__crt_stdio_output@@@2@@__crt_stdio_output@@AEAA_NXZ 00000001800506e8     libucrt:output.obj
 0002:0000c6f4       $unwind$?process@?$output_processor@_WV?$stream_output_adapter@_W@__crt_stdio_output@@V?$standard_base@_WV?$stream_output_adapter@_W@__crt_stdio_output@@@2@@__crt_stdio_output@@QEAAHXZ 00000001800506f4     libucrt:output.obj
 0002:0000c70c       $unwind$?state_case_type@?$output_processor@_WV?$stream_output_adapter@_W@__crt_stdio_output@@V?$standard_base@_WV?$stream_output_adapter@_W@__crt_stdio_output@@@2@@__crt_stdio_output@@AEAA_NXZ 000000018005070c     libucrt:output.obj
 0002:0000c70c       $unwind$?state_case_type@?$output_processor@_WV?$string_output_adapter@_W@__crt_stdio_output@@V?$standard_base@_WV?$string_output_adapter@_W@__crt_stdio_output@@@2@@__crt_stdio_output@@AEAA_NXZ 000000018005070c     libucrt:output.obj
 0002:0000c730       $unwind$?type_case_a@?$output_processor@_WV?$stream_output_adapter@_W@__crt_stdio_output@@V?$standard_base@_WV?$stream_output_adapter@_W@__crt_stdio_output@@@2@@__crt_stdio_output@@AEAA_NXZ 0000000180050730     libucrt:output.obj
 0002:0000c730       $unwind$?type_case_a@?$output_processor@_WV?$string_output_adapter@_W@__crt_stdio_output@@V?$standard_base@_WV?$string_output_adapter@_W@__crt_stdio_output@@@2@@__crt_stdio_output@@AEAA_NXZ 0000000180050730     libucrt:output.obj
 0002:0000c740       $unwind$?write_stored_string_tchar@?$output_processor@_WV?$stream_output_adapter@_W@__crt_stdio_output@@V?$standard_base@_WV?$stream_output_adapter@_W@__crt_stdio_output@@@2@@__crt_stdio_output@@AEAA_N_W@Z 0000000180050740     libucrt:output.obj
 0002:0000c754       $unwind$??R<lambda_0a64b6a4deda75c01876f29c44fc5eb3>@@QEBAHXZ 0000000180050754     libucrt:output.obj
 0002:0000c754       $unwind$??R<lambda_dd75445284c072d0bd3768540cc698fa>@@QEBAHXZ 0000000180050754     libucrt:output.obj
 0002:0000c770       $unwind$?parse_int_from_format_string@?$output_processor@DV?$string_output_adapter@D@__crt_stdio_output@@V?$standard_base@DV?$string_output_adapter@D@__crt_stdio_output@@@2@@__crt_stdio_output@@AEAA_NQEAH@Z 0000000180050770     libucrt:output.obj
 0002:0000c770       $unwind$?parse_int_from_format_string@?$output_processor@DV?$stream_output_adapter@D@__crt_stdio_output@@V?$standard_base@DV?$stream_output_adapter@D@__crt_stdio_output@@@2@@__crt_stdio_output@@AEAA_NQEAH@Z 0000000180050770     libucrt:output.obj
 0002:0000c784       $unwind$?write_stored_string_tchar@?$output_processor@DV?$string_output_adapter@D@__crt_stdio_output@@V?$standard_base@DV?$string_output_adapter@D@__crt_stdio_output@@@2@@__crt_stdio_output@@AEAA_ND@Z 0000000180050784     libucrt:output.obj
 0002:0000c784       $unwind$?write_stored_string_tchar@?$output_processor@DV?$stream_output_adapter@D@__crt_stdio_output@@V?$standard_base@DV?$stream_output_adapter@D@__crt_stdio_output@@@2@@__crt_stdio_output@@AEAA_ND@Z 0000000180050784     libucrt:output.obj
 0002:0000c79c       $unwind$?try_get_function@@YAPEAXW4function_id@?A0x679b24ab@@QEBDQEBW4module_id@2@2@Z 000000018005079c     libvcruntime:winapi_downlevel.obj
 0002:0000c79c       $unwind$?try_get_function@@YAPEAXW4function_id@?A0x63058377@@QEBDQEBW4module_id@2@2@Z 000000018005079c     libucrt:winapi_thunks.obj
 0002:0000c79c       $unwind$?write_string@?$string_output_adapter@_W@__crt_stdio_output@@QEBAXQEB_WHQEAH1@Z 000000018005079c     libucrt:output.obj
 0002:0000c7b8       $unwind$?parse_int_from_format_string@?$output_processor@_WV?$string_output_adapter@_W@__crt_stdio_output@@V?$standard_base@_WV?$string_output_adapter@_W@__crt_stdio_output@@@2@@__crt_stdio_output@@AEAA_NQEAH@Z 00000001800507b8     libucrt:output.obj
 0002:0000c7b8       $unwind$?parse_int_from_format_string@?$output_processor@_WV?$stream_output_adapter@_W@__crt_stdio_output@@V?$standard_base@_WV?$stream_output_adapter@_W@__crt_stdio_output@@@2@@__crt_stdio_output@@AEAA_NQEAH@Z 00000001800507b8     libucrt:output.obj
 0002:0000c7cc       $unwind$?write_stored_string_tchar@?$output_processor@_WV?$string_output_adapter@_W@__crt_stdio_output@@V?$standard_base@_WV?$string_output_adapter@_W@__crt_stdio_output@@@2@@__crt_stdio_output@@AEAA_N_W@Z 00000001800507cc     libucrt:output.obj
 0002:0000c7e0       $unwind$??$write_multiple_characters@V?$stream_output_adapter@D@__crt_stdio_output@@D@__crt_stdio_output@@YAXAEBV?$stream_output_adapter@D@0@DHQEAH@Z 00000001800507e0     libucrt:output.obj
 0002:0000c7f8       $unwind$??$write_multiple_characters@V?$stream_output_adapter@_W@__crt_stdio_output@@D@__crt_stdio_output@@YAXAEBV?$stream_output_adapter@_W@0@DHQEAH@Z 00000001800507f8     libucrt:output.obj
 0002:0000c810       $unwind$??$type_case_integer_parse_into_buffer@_K@?$output_processor@DV?$string_output_adapter@D@__crt_stdio_output@@V?$standard_base@DV?$string_output_adapter@D@__crt_stdio_output@@@2@@__crt_stdio_output@@AEAAX_KI_N@Z 0000000180050810     libucrt:output.obj
 0002:0000c810       $unwind$??$write_multiple_characters@V?$string_output_adapter@D@__crt_stdio_output@@D@__crt_stdio_output@@YAXAEBV?$string_output_adapter@D@0@DHQEAH@Z 0000000180050810     libucrt:output.obj
 0002:0000c810       $unwind$??$type_case_integer_parse_into_buffer@_K@?$output_processor@_WV?$string_output_adapter@_W@__crt_stdio_output@@V?$standard_base@_WV?$string_output_adapter@_W@__crt_stdio_output@@@2@@__crt_stdio_output@@AEAAX_KI_N@Z 0000000180050810     libucrt:output.obj
 0002:0000c810       $unwind$??$type_case_integer_parse_into_buffer@I@?$output_processor@DV?$string_output_adapter@D@__crt_stdio_output@@V?$standard_base@DV?$string_output_adapter@D@__crt_stdio_output@@@2@@__crt_stdio_output@@AEAAXII_N@Z 0000000180050810     libucrt:output.obj
 0002:0000c810       $unwind$??$type_case_integer_parse_into_buffer@I@?$output_processor@DV?$stream_output_adapter@D@__crt_stdio_output@@V?$standard_base@DV?$stream_output_adapter@D@__crt_stdio_output@@@2@@__crt_stdio_output@@AEAAXII_N@Z 0000000180050810     libucrt:output.obj
 0002:0000c810       $unwind$??$type_case_integer_parse_into_buffer@_K@?$output_processor@DV?$stream_output_adapter@D@__crt_stdio_output@@V?$standard_base@DV?$stream_output_adapter@D@__crt_stdio_output@@@2@@__crt_stdio_output@@AEAAX_KI_N@Z 0000000180050810     libucrt:output.obj
 0002:0000c810       $unwind$??$type_case_integer_parse_into_buffer@_K@?$output_processor@_WV?$stream_output_adapter@_W@__crt_stdio_output@@V?$standard_base@_WV?$stream_output_adapter@_W@__crt_stdio_output@@@2@@__crt_stdio_output@@AEAAX_KI_N@Z 0000000180050810     libucrt:output.obj
 0002:0000c810       $unwind$??$type_case_integer_parse_into_buffer@I@?$output_processor@_WV?$string_output_adapter@_W@__crt_stdio_output@@V?$standard_base@_WV?$string_output_adapter@_W@__crt_stdio_output@@@2@@__crt_stdio_output@@AEAAXII_N@Z 0000000180050810     libucrt:output.obj
 0002:0000c810       $unwind$??$type_case_integer_parse_into_buffer@I@?$output_processor@_WV?$stream_output_adapter@_W@__crt_stdio_output@@V?$standard_base@_WV?$stream_output_adapter@_W@__crt_stdio_output@@@2@@__crt_stdio_output@@AEAAXII_N@Z 0000000180050810     libucrt:output.obj
 0002:0000c818       $unwind$??$write_multiple_characters@V?$string_output_adapter@_W@__crt_stdio_output@@D@__crt_stdio_output@@YAXAEBV?$string_output_adapter@_W@0@DHQEAH@Z 0000000180050818     libucrt:output.obj
 0002:0000c824       $unwind$??$?RV<lambda_aa279a7bcb127014629d5b1d62c7325d>@@AEAV<lambda_0a64b6a4deda75c01876f29c44fc5eb3>@@V<lambda_3323e69fbefe9d1a11713e670d47cdfa>@@@?$__crt_seh_guarded_call@H@@QEAAH$$QEAV<lambda_aa279a7bcb127014629d5b1d62c7325d>@@AEAV<lambda_0a64b6a4deda75c01876f29c44fc5eb3>@@$$QEAV<lambda_3323e69fbefe9d1a11713e670d47cdfa>@@@Z 0000000180050824     libucrt:output.obj
 0002:0000c848       $unwind$??$?RV<lambda_7b91131dde12e1c3dfc74ff76b3f2eac>@@AEAV<lambda_dd75445284c072d0bd3768540cc698fa>@@V<lambda_16bc4ecb55b4718497c16bceaea2ceaf>@@@?$__crt_seh_guarded_call@H@@QEAAH$$QEAV<lambda_7b91131dde12e1c3dfc74ff76b3f2eac>@@AEAV<lambda_dd75445284c072d0bd3768540cc698fa>@@$$QEAV<lambda_16bc4ecb55b4718497c16bceaea2ceaf>@@@Z 0000000180050848     libucrt:output.obj
 0002:0000c86c       $unwind$??$parse_integer@KV?$c_string_character_source@D@__crt_strtox@@@__crt_strtox@@YAKQEAU__crt_locale_pointers@@V?$c_string_character_source@D@0@H_N@Z 000000018005086c     libucrt:atox.obj
 0002:0000c888       $unwind$??$parse_integer@KV?$c_string_character_source@_W@__crt_strtox@@@__crt_strtox@@YAKQEAU__crt_locale_pointers@@V?$c_string_character_source@_W@0@H_N@Z 0000000180050888     libucrt:atox.obj
 0002:0000c8a4       $unwind$isspace            00000001800508a4     libucrt:_ctype.obj
 0002:0000c8a4       $unwind$_isleadbyte_l      00000001800508a4     libucrt:_wctype.obj
 0002:0000c8a4       $unwind$isdigit            00000001800508a4     libucrt:_ctype.obj
 0002:0000c8a4       $unwind$isalpha            00000001800508a4     libucrt:_ctype.obj
 0002:0000c8a4       $unwind$?getSystemCP@@YAHH@Z 00000001800508a4     libucrt:mbctype.obj
 0002:0000c8ac       $unwind$??$common_fgets@D@@YAPEADQEADHV__crt_stdio_stream@@@Z 00000001800508ac     libucrt:fgets.obj
 0002:0000c8d8       $unwind$fread_s            00000001800508d8     libucrt:fread.obj
 0002:0000c908       $unwind$_fread_nolock_s    0000000180050908     libucrt:fread.obj
 0002:0000c920       $unwind$_query_new_handler 0000000180050920     libucrt:new_handler.obj
 0002:0000c940       $unwind$__acrt_initialize_stdio 0000000180050940     libucrt:_file.obj
 0002:0000c940       $unwind$__acrt_MessageBoxW 0000000180050940     libucrt:winapi_thunks.obj
 0002:0000c940       $unwind$?process@?$output_processor@_WV?$string_output_adapter@_W@__crt_stdio_output@@V?$standard_base@_WV?$string_output_adapter@_W@__crt_stdio_output@@@2@@__crt_stdio_output@@QEAAHXZ 0000000180050940     libucrt:output.obj
 0002:0000c940       $unwind$__acrt_lowio_set_os_handle 0000000180050940     libucrt:osfinfo.obj
 0002:0000c940       $unwind$_initterm          0000000180050940     libucrt:initterm.obj
 0002:0000c958       $unwind$?common_exit@@YAXHW4_crt_exit_cleanup_mode@@W4_crt_exit_return_mode@@@Z 0000000180050958     libucrt:exit.obj
 0002:0000c998       $unwind$_configure_narrow_argv 0000000180050998     libucrt:argv_parsing.obj
 0002:0000c9ac       $unwind$?write_string@?$string_output_adapter@D@__crt_stdio_output@@QEBAXQEBDHQEAH1@Z 00000001800509ac     libucrt:output.obj
 0002:0000c9ac       $unwind$??$parse_command_line@D@@YAXPEADPEAPEAD0PEA_K2@Z 00000001800509ac     libucrt:argv_parsing.obj
 0002:0000c9ac       $unwind$??R<lambda_4e60a939b0d047cfe11ddc22648dfba9>@@QEBAHXZ 00000001800509ac     libucrt:onexit.obj
 0002:0000c9c8       $unwind$??$initialize_environment_by_cloning_nolock@D@@YAHXZ 00000001800509c8     libucrt:environment_initialization.obj
 0002:0000c9d8       $unwind$_register_onexit_function 00000001800509d8     libucrt:onexit.obj
 0002:0000c9e0       $unwind$_execute_onexit_table 00000001800509e0     libucrt:onexit.obj
 0002:0000c9e8       $unwind$??$?RV<lambda_b8c45f8f788dd370798f47cfe8ac3a86>@@AEAV<lambda_4e60a939b0d047cfe11ddc22648dfba9>@@V<lambda_332c3edc96d0294ec56c57d38c1cdfd5>@@@?$__crt_seh_guarded_call@H@@QEAAH$$QEAV<lambda_b8c45f8f788dd370798f47cfe8ac3a86>@@AEAV<lambda_4e60a939b0d047cfe11ddc22648dfba9>@@$$QEAV<lambda_332c3edc96d0294ec56c57d38c1cdfd5>@@@Z 00000001800509e8     libucrt:onexit.obj
 0002:0000ca0c       $unwind$??$?RV<lambda_e24bbb7b643b32fcea6fa61b31d4c984>@@AEAV<lambda_275893d493268fdec8709772e3fcec0e>@@V<lambda_9d71df4d7cf3f480f8d633942495c3b0>@@@?$__crt_seh_guarded_call@H@@QEAAH$$QEAV<lambda_e24bbb7b643b32fcea6fa61b31d4c984>@@AEAV<lambda_275893d493268fdec8709772e3fcec0e>@@$$QEAV<lambda_9d71df4d7cf3f480f8d633942495c3b0>@@@Z 0000000180050a0c     libucrt:onexit.obj
 0002:0000ca3c       $unwind$terminate          0000000180050a3c     libucrt:terminate.obj
 0002:0000ca5c       $unwind$?destroy_fls@@YAXPEAX@Z 0000000180050a5c     libucrt:per_thread_data.obj
 0002:0000ca5c       $unwind$__acrt_locale_free_lc_time_if_unreferenced 0000000180050a5c     libucrt:locale_refcounting.obj
 0002:0000ca5c       $unwind$_free_base         0000000180050a5c     libucrt:free_base.obj
 0002:0000ca5c       $unwind$__acrt_locale_free_numeric 0000000180050a5c     libucrt:initnum.obj
 0002:0000ca64       $unwind$wctomb_s           0000000180050a64     libucrt:wctomb.obj
 0002:0000ca64       $unwind$_itow_s            0000000180050a64     libucrt:xtoa.obj
 0002:0000ca64       $unwind$_sopen_s           0000000180050a64     libucrt:open.obj
 0002:0000ca64       $unwind$_log10_special     0000000180050a64     libucrt:log_special.obj
 0002:0000ca64       $unwind$_invalid_parameter_noinfo 0000000180050a64     libucrt:invalid_parameter.obj
 0002:0000ca64       $unwind$_invalid_parameter_noinfo_noreturn 0000000180050a64     libucrt:invalid_parameter.obj
 0002:0000ca64       $unwind$atoi               0000000180050a64     libucrt:atox.obj
 0002:0000ca64       $unwind$fread              0000000180050a64     libucrt:fread.obj
 0002:0000ca6c       $unwind$fflush             0000000180050a6c     libucrt:fflush.obj
 0002:0000ca90       $unwind$common_flush_all   0000000180050a90     libucrt:fflush.obj
 0002:0000cacc       $unwind$setvbuf            0000000180050acc     libucrt:setvbuf.obj
 0002:0000cad4       $unwind$??$?RV<lambda_7a5ef57ff966f610505f1d28a3d40618>@@AEAV<lambda_b721fa326cdb32351d23dfa67958c160>@@V<lambda_5e0fb27672408a07956fe59e48ccb2aa>@@@?$__crt_seh_guarded_call@H@@QEAAH$$QEAV<lambda_7a5ef57ff966f610505f1d28a3d40618>@@AEAV<lambda_b721fa326cdb32351d23dfa67958c160>@@$$QEAV<lambda_5e0fb27672408a07956fe59e48ccb2aa>@@@Z 0000000180050ad4     libucrt:setvbuf.obj
 0002:0000caf8       $unwind$__acrt_get_sigabrt_handler 0000000180050af8     libucrt:signal.obj
 0002:0000cb00       $unwind$raise              0000000180050b00     libucrt:signal.obj
 0002:0000cb2c       $unwind$??$?RV<lambda_c36588078e9f5dfd39652860aa6b3aaf>@@AEAV<lambda_ec61778202f4f5fc7e7711acc23c3bca>@@V<lambda_dc9d2797ccde5d239b4a0efae8ebd7db>@@@?$__crt_seh_guarded_call@P6AXH@Z@@QEAAP6AXH@Z$$QEAV<lambda_c36588078e9f5dfd39652860aa6b3aaf>@@AEAV<lambda_ec61778202f4f5fc7e7711acc23c3bca>@@$$QEAV<lambda_dc9d2797ccde5d239b4a0efae8ebd7db>@@@Z 0000000180050b2c     libucrt:signal.obj
 0002:0000cb50       $unwind$?construct_ptd_array@@YAXQEAU__acrt_ptd@@@Z 0000000180050b50     libucrt:per_thread_data.obj
 0002:0000cb58       $unwind$?destroy_ptd_array@@YAXQEAU__acrt_ptd@@@Z 0000000180050b58     libucrt:per_thread_data.obj
 0002:0000cb60       $unwind$??$?RV<lambda_72d1df2b273a38828b1ce30cbf4cdab5>@@AEAV<lambda_876a65b173b8412d3a47c70a915b0cf4>@@V<lambda_41932305e351933ebe8f8be3ed8bb5dc>@@@?$__crt_seh_guarded_call@X@@QEAAX$$QEAV<lambda_72d1df2b273a38828b1ce30cbf4cdab5>@@AEAV<lambda_876a65b173b8412d3a47c70a915b0cf4>@@$$QEAV<lambda_41932305e351933ebe8f8be3ed8bb5dc>@@@Z 0000000180050b60     libucrt:per_thread_data.obj
 0002:0000cb84       $unwind$??$?RV<lambda_5e887d1dcbef67a5eb4283622ba103bf>@@AEAV<lambda_4466841279450cc726390878d4a41900>@@V<lambda_341c25c0346d94847f1f3c463c57e077>@@@?$__crt_seh_guarded_call@X@@QEAAX$$QEAV<lambda_5e887d1dcbef67a5eb4283622ba103bf>@@AEAV<lambda_4466841279450cc726390878d4a41900>@@$$QEAV<lambda_341c25c0346d94847f1f3c463c57e077>@@@Z 0000000180050b84     libucrt:per_thread_data.obj
 0002:0000cba8       $unwind$??$?RV<lambda_46352004c1216016012b18bd6f87e700>@@AEAV<lambda_3bd07e1a1191394380780325891bf33f>@@V<lambda_334532d3f185bcaa59b5be82d7d22bff>@@@?$__crt_seh_guarded_call@X@@QEAAX$$QEAV<lambda_46352004c1216016012b18bd6f87e700>@@AEAV<lambda_3bd07e1a1191394380780325891bf33f>@@$$QEAV<lambda_334532d3f185bcaa59b5be82d7d22bff>@@@Z 0000000180050ba8     libucrt:per_thread_data.obj
 0002:0000cbcc       $unwind$??$?RV<lambda_fb3a7dec4e47f37f22dae91bb15c9095>@@AEAV<lambda_698284760c8add0bfb0756c19673e34b>@@V<lambda_dfb8eca1e75fef3034a8fb18dd509707>@@@?$__crt_seh_guarded_call@X@@QEAAX$$QEAV<lambda_fb3a7dec4e47f37f22dae91bb15c9095>@@AEAV<lambda_698284760c8add0bfb0756c19673e34b>@@$$QEAV<lambda_dfb8eca1e75fef3034a8fb18dd509707>@@@Z 0000000180050bcc     libucrt:per_thread_data.obj
 0002:0000cbf0       $unwind$?__acrt_stdio_allocate_stream@@YA?AV__crt_stdio_stream@@XZ 0000000180050bf0     libucrt:stream.obj
 0002:0000cc10       $unwind$_openfile          0000000180050c10     libucrt:openfile.obj
 0002:0000cc24       $unwind$??$?RV<lambda_bfedae4ebbf01fab1bb6dcc6a9e276e0>@@AEAV<lambda_2fe9b910cf3cbf4a0ab98a02ba45b3ec>@@V<lambda_237c231691f317818eb88cc1d5d642d6>@@@?$__crt_seh_guarded_call@H@@QEAAH$$QEAV<lambda_bfedae4ebbf01fab1bb6dcc6a9e276e0>@@AEAV<lambda_2fe9b910cf3cbf4a0ab98a02ba45b3ec>@@$$QEAV<lambda_237c231691f317818eb88cc1d5d642d6>@@@Z 0000000180050c24     libucrt:close.obj
 0002:0000cc48       $unwind$__acrt_uninitialize_locale 0000000180050c48     libucrt:wsetlocale.obj
 0002:0000cc68       $unwind$wcsnlen            0000000180050c68     libucrt:strnlen.obj
 0002:0000cc68       $unwind$strnlen            0000000180050c68     libucrt:strnlen.obj
 0002:0000cc70       $unwind$_strnicoll_l       0000000180050c70     libucrt:strnicol.obj
 0002:0000cc84       $unwind$_tolower_l         0000000180050c84     libucrt:tolower_toupper.obj
 0002:0000cc94       $unwind$_wctomb_s_l        0000000180050c94     libucrt:wctomb.obj
 0002:0000cca4       $unwind$__acrt_fp_format   0000000180050ca4     libucrt:cvt.obj
 0002:0000ccc0       $unwind$?fp_format_nan_or_infinity@@YAHW4__acrt_fp_class@@_NPEAD_K1@Z 0000000180050cc0     libucrt:cvt.obj
 0002:0000ccd4       $unwind$?fp_format_e_internal@@YAHQEAD_KH_NIQEAU_strflt@@2QEAU__crt_locale_pointers@@@Z 0000000180050cd4     libucrt:cvt.obj
 0002:0000ccec       $unwind$?fp_format_e@@YAHQEBNQEAD_K12H_NIQEAU__crt_locale_pointers@@@Z 0000000180050cec     libucrt:cvt.obj
 0002:0000ccec       $unwind$_sopen_nolock      0000000180050cec     libucrt:open.obj
 0002:0000cd00       $unwind$?fp_format_a@@YAHQEBNPEAD_KQEAD2H_NIQEAU__crt_locale_pointers@@@Z 0000000180050d00     libucrt:cvt.obj
 0002:0000cd1c       $unwind$?fp_format_g@@YAHQEBNQEAD_K12H_NIQEAU__crt_locale_pointers@@@Z 0000000180050d1c     libucrt:cvt.obj
 0002:0000cd30       $unwind$_fputwc_nolock     0000000180050d30     libucrt:fputwc.obj
 0002:0000cd4c       $unwind$__vcrt_uninitialize_winapi_thunks 0000000180050d4c     libvcruntime:winapi_downlevel.obj
 0002:0000cd4c       $unwind$__acrt_stdio_end_temporary_buffering_nolock 0000000180050d4c     libucrt:_sftbuf.obj
 0002:0000cd54       $unwind$__acrt_initialize_lowio 0000000180050d54     libucrt:ioinit.obj
 0002:0000cd74       $unwind$?initialize_inherited_file_handles_nolock@@YAXXZ 0000000180050d74     libucrt:ioinit.obj
 0002:0000cd90       $unwind$__acrt_initialize_winapi_thunks 0000000180050d90     libucrt:winapi_thunks.obj
 0002:0000cd98       $unwind$__acrt_show_wide_message_box 0000000180050d98     libucrt:crtmbox.obj
 0002:0000cd98       $unwind$__acrt_CompareStringEx 0000000180050d98     libucrt:winapi_thunks.obj
 0002:0000cd98       $unwind$_mbtowc_l          0000000180050d98     libucrt:mbtowc.obj
 0002:0000cd98       $unwind$__acrt_LCMapStringEx 0000000180050d98     libucrt:winapi_thunks.obj
 0002:0000cdb0       $unwind$__acrt_is_interactive 0000000180050db0     libucrt:winapi_thunks.obj
 0002:0000cdc4       $unwind$_fcloseall         0000000180050dc4     libucrt:closeall.obj
 0002:0000cde8       $unwind$_isctype_l         0000000180050de8     libucrt:isctype.obj
 0002:0000ce04       $unwind$_read              0000000180050e04     libucrt:read.obj
 0002:0000ce30       $unwind$_read_nolock       0000000180050e30     libucrt:read.obj
 0002:0000ce48       $unwind$?translate_ansi_or_utf8_nolock@@YAHHQEAD_KQEA_W1@Z 0000000180050e48     libucrt:read.obj
 0002:0000ce60       $unwind$??$translate_text_mode_nolock@_W@@YAHHQEA_W_K@Z 0000000180050e60     libucrt:read.obj
 0002:0000ce78       $unwind$??$common_expand_argv_wildcards@D@@YAHQEAPEADQEAPEAPEAD@Z 0000000180050e78     libucrt:argv_wildcards.obj
 0002:0000ce90       $unwind$??$copy_and_add_argument_to_buffer@D@@YAHQEBD0_KAEAV?$argument_list@D@?A0xca0879c4@@@Z 0000000180050e90     libucrt:argv_wildcards.obj
 0002:0000ceac       $unwind$??$expand_argument_wildcards@D@@YAHQEAD0AEAV?$argument_list@D@?A0xca0879c4@@@Z 0000000180050eac     libucrt:argv_wildcards.obj
 0002:0000cecc       $unwind$__acrt_update_thread_multibyte_data 0000000180050ecc     libucrt:mbctype.obj
 0002:0000cef0       $unwind$_setmbcp_nolock    0000000180050ef0     libucrt:mbctype.obj
 0002:0000cf10       $unwind$?setSBUpLow@@YAXPEAU__crt_multibyte_data@@@Z 0000000180050f10     libucrt:mbctype.obj
 0002:0000cf2c       $unwind$?setmbcp_internal@@YAHH_N@Z 0000000180050f2c     libucrt:mbctype.obj
 0002:0000cf3c       $unwind$??$?RV<lambda_99476a1ad63dd22509b5d3e65b0ffc95>@@AEAV<lambda_ad1ced32f4ac17aa236e5ef05d6b3b7c>@@V<lambda_f7424dd8d45958661754dc4f2697e9c3>@@@?$__crt_seh_guarded_call@X@@QEAAX$$QEAV<lambda_99476a1ad63dd22509b5d3e65b0ffc95>@@AEAV<lambda_ad1ced32f4ac17aa236e5ef05d6b3b7c>@@$$QEAV<lambda_f7424dd8d45958661754dc4f2697e9c3>@@@Z 0000000180050f3c     libucrt:mbctype.obj
 0002:0000cf60       $unwind$?x_ismbbtype_l@@YAHPEAU__crt_locale_pointers@@IHH@Z 0000000180050f60     libucrt:ismbbyte.obj
 0002:0000cf70       $unwind$__dcrt_get_narrow_environment_from_os 0000000180050f70     libucrt:get_environment_from_os.obj
 0002:0000cf70       $unwind$?fp_format_f_internal@@YAHQEAD_KHQEAU_strflt@@_NQEAU__crt_locale_pointers@@@Z 0000000180050f70     libucrt:cvt.obj
 0002:0000cf88       $unwind$??$common_set_variable_in_environment_nolock@D@@YAHQEADH@Z 0000000180050f88     libucrt:setenv.obj
 0002:0000cfa0       $unwind$??$copy_environment@D@@YAPEAPEADQEAPEAD@Z 0000000180050fa0     libucrt:setenv.obj
 0002:0000cfb4       $unwind$_close             0000000180050fb4     libucrt:close.obj
 0002:0000cfb4       $unwind$_commit            0000000180050fb4     libucrt:commit.obj
 0002:0000cfbc       $unwind$??$?RV<lambda_b521505b218e5242e90febf6bfebc422>@@AEAV<lambda_6978c1fb23f02e42e1d9e99668cc68aa>@@V<lambda_314360699dd331753a4119843814e9a7>@@@?$__crt_seh_guarded_call@H@@QEAAH$$QEAV<lambda_b521505b218e5242e90febf6bfebc422>@@AEAV<lambda_6978c1fb23f02e42e1d9e99668cc68aa>@@$$QEAV<lambda_314360699dd331753a4119843814e9a7>@@@Z 0000000180050fbc     libucrt:commit.obj
 0002:0000cfe0       $unwind$_write             0000000180050fe0     libucrt:write.obj
 0002:0000d010       $unwind$_write_nolock      0000000180051010     libucrt:write.obj
 0002:0000d028       $unwind$?write_double_translated_ansi_nolock@@YA?AUwrite_result@?A0x9c548279@@HQEBDI@Z 0000000180051028     libucrt:write.obj
 0002:0000d048       $unwind$?write_text_ansi_nolock@@YA?AUwrite_result@?A0x9c548279@@HQEBDI@Z 0000000180051048     libucrt:write.obj
 0002:0000d048       $unwind$?write_text_utf16le_nolock@@YA?AUwrite_result@?A0x9c548279@@HQEBDI@Z 0000000180051048     libucrt:write.obj
 0002:0000d068       $unwind$?write_text_utf8_nolock@@YA?AUwrite_result@?A0x9c548279@@HQEBDI@Z 0000000180051068     libucrt:write.obj
 0002:0000d08c       $unwind$__acrt_update_thread_locale_data 000000018005108c     libucrt:locale_refcounting.obj
 0002:0000d0b0       $unwind$_wsopen_nolock     00000001800510b0     libucrt:open.obj
 0002:0000d0cc       $unwind$??$common_sopen_dispatch@D@@YAHQEBDHHHQEAHH@Z 00000001800510cc     libucrt:open.obj
 0002:0000d0f0       $unwind$?fin$0@?0???$common_sopen_dispatch@D@@YAHQEBDHHHQEAHH@Z@4HA 00000001800510f0     libucrt:open.obj
 0002:0000d0f8       $unwind$?decode_options@@YA?AUfile_options@?A0x656cf9f4@@HHH@Z 00000001800510f8     libucrt:open.obj
 0002:0000d10c       $unwind$_alloc_osfhnd      000000018005110c     libucrt:osfinfo.obj
 0002:0000d13c       $unwind$__acrt_lowio_destroy_handle_array 000000018005113c     libucrt:osfinfo.obj
 0002:0000d14c       $unwind$__acrt_lowio_ensure_fh_exists 000000018005114c     libucrt:osfinfo.obj
 0002:0000d178       $unwind$__acrt_locale_free_monetary 0000000180051178     libucrt:initmon.obj
 0002:0000d180       $unwind$__acrt_locale_free_time 0000000180051180     libucrt:inittime.obj
 0002:0000d190       $unwind$__acrt_GetStringTypeA 0000000180051190     libucrt:getstringtypea.obj
 0002:0000d1b8       $unwind$__acrt_CompareStringA 00000001800511b8     libucrt:comparestringa.obj
 0002:0000d1c8       $unwind$?InternalCompareStringA@@YAHPEAU__crt_locale_pointers@@PEB_WKPEBDH2HH@Z 00000001800511c8     libucrt:comparestringa.obj
 0002:0000d1ec       $unwind$__acrt_LCMapStringA 00000001800511ec     libucrt:lcmapstringa.obj
 0002:0000d1fc       $unwind$?__acrt_LCMapStringA_stat@@YAHPEAU__crt_locale_pointers@@PEB_WKPEBDHPEADHHH@Z 00000001800511fc     libucrt:lcmapstringa.obj
 0002:0000d224       $unwind$__acrt_fltout      0000000180051224     libucrt:cfout.obj
 0002:0000d244       $unwind$?divide@__crt_strtox@@YA_KAEAUbig_integer@1@AEBU21@@Z 0000000180051244     libucrt:cfout.obj
 0002:0000d264       $chain$5$?divide@__crt_strtox@@YA_KAEAUbig_integer@1@AEBU21@@Z 0000000180051264     libucrt:cfout.obj
 0002:0000d278       $chain$6$?divide@__crt_strtox@@YA_KAEAUbig_integer@1@AEBU21@@Z 0000000180051278     libucrt:cfout.obj
 0002:0000d288       $unwind$??$write_buffer_nolock@D@@YA_NDV__crt_stdio_stream@@@Z 0000000180051288     libucrt:_flsbuf.obj
 0002:0000d298       $unwind$??$write_buffer_nolock@_W@@YA_N_WV__crt_stdio_stream@@@Z 0000000180051298     libucrt:_flsbuf.obj
 0002:0000d2a8       $unwind$?GetTableIndexFromLocaleName@@YAHPEB_W@Z 00000001800512a8     libucrt:lcidtoname_downlevel.obj
 0002:0000d2c0       $unwind$??$common_lseek@_J@@YA_JH_JH@Z 00000001800512c0     libucrt:lseek.obj
 0002:0000d2f0       $unwind$qsort              00000001800512f0     libucrt:qsort.obj
 0002:0000d308       $chain$4$qsort             0000000180051308     libucrt:qsort.obj
 0002:0000d32c       $chain$5$qsort             000000018005132c     libucrt:qsort.obj
 0002:0000d33c       $unwind$?shortsort@@YAXPEAD0_KP6AHPEBX2@Z@Z 000000018005133c     libucrt:qsort.obj
 0002:0000d34c       $chain$2$?shortsort@@YAXPEAD0_KP6AHPEBX2@Z@Z 000000018005134c     libucrt:qsort.obj
 0002:0000d368       $chain$3$?shortsort@@YAXPEAD0_KP6AHPEBX2@Z@Z 0000000180051368     libucrt:qsort.obj
 0002:0000d378       $unwind$strpbrk            0000000180051378     libucrt:strpbrk.obj
 0002:0000d388       $unwind$_putwch_nolock     0000000180051388     libucrt:putwch.obj
 0002:0000d388       $unwind$__report_gsfailure 0000000180051388     LIBCMT:gs_report.obj
 0002:0000d390       $unwind$_setmode_nolock    0000000180051390     libucrt:setmode.obj
 0002:0000d3a0       $unwind$_chsize_nolock     00000001800513a0     libucrt:chsize.obj
 0002:0000d3a0       $unwind$?write_string@?$stream_output_adapter@D@__crt_stdio_output@@QEBAXQEBDHQEAH1@Z 00000001800513a0     libucrt:output.obj
 0002:0000d3b8       $xdatasym                  00000001800513b8     libucrt:log10.obj
 0002:0000d3c4       $unwind$common_control87   00000001800513c4     libucrt:ieee.obj
 0002:0000d3f4       $unwind$_call_matherr      00000001800513f4     libucrt:libm_error.obj
 0002:0000d3fc       $unwind$_handle_error      00000001800513fc     libucrt:libm_error.obj
 0002:0000d41c       $unwind$__acrt_initialize_fma3 000000018005141c     libucrt:fma3_available.obj
 0002:0000d424       $unwind$_log_special_common 0000000180051424     libucrt:log_special.obj
 0002:0000d430       $xdatasym                  0000000180051430     libucrt:fpsr.obj
 0002:0000d438       $unwind$_raise_exc_ex      0000000180051438     libucrt:fpexcept.obj
 0002:0000d438       $unwind$??$common_refill_and_read_nolock@D@@YAHV__crt_stdio_stream@@@Z 0000000180051438     libucrt:_filbuf.obj
 0002:0000d44c       $unwind$_ctrlfp            000000018005144c     libucrt:fpctrl.obj
 0002:0000d474       $unwind$_IsNonwritableInCurrentImage 0000000180051474     LIBCMT:pesect.obj
 0002:0000d498       $xdatasym                  0000000180051498     LIBCMT:_chkstk_.obj
 0002:0000d4a0       $xdatasym                  00000001800514a0     libvcruntime:memcmp.obj
 0002:0000d4a4       $unwind$strchr             00000001800514a4     libvcruntime:strchr.obj
 0002:0000d4a4       $unwind$strrchr            00000001800514a4     libvcruntime:strrchr.obj
 0002:0000d6a0       .edata                     00000001800516a0     spellchecker.exp
 0002:0000d6c8       rgpv                       00000001800516c8     spellchecker.exp
 0002:0000d6cc       rgszName                   00000001800516cc     spellchecker.exp
 0002:0000d6d0       rgwOrd                     00000001800516d0     spellchecker.exp
 0002:0000d6d2       szName                     00000001800516d2     spellchecker.exp
 0002:0000d6e4       $N00001                    00000001800516e4     spellchecker.exp
 0002:0000db6c       .idata$6                   0000000180051b6c     kernel32:KERNEL32.dll
 0002:0000dbc0       .idata$6                   0000000180051bc0     ole32:ole32.dll
 0002:0000e6de       .idata$6                   00000001800526de     iojs:node.dll
 0003:00000030       ?__vcrt_flsindex@@3KA      0000000180053030     libvcruntime:per_thread_data.obj
 0003:0000014c       errno_no_memory            000000018005314c     libucrt:errno.obj
 0003:00000150       doserrno_no_memory         0000000180053150     libucrt:errno.obj
 0003:00000154       __acrt_flsindex            0000000180053154     libucrt:per_thread_data.obj
 0003:00000650       __rgctypeflag              0000000180053650     libucrt:mbctype.obj
 0003:00000660       __rgcode_page_info         0000000180053660     libucrt:mbctype.obj
 0003:00000a18       ?dazSupported@?1??common_control87@@9@9 0000000180053a18     libucrt:ieee.obj
 0003:00000a20       ?dazSupported@?1??_ctrlfp@@9@9 0000000180053a20     libucrt:fpctrl.obj
 0003:00000a40       _module                    0000000180053a40     main.obj
 0003:00000a80       ?koi8u_tbl@@3PAUcs_info@@A 0000000180053a80     hunspell:csutil.obj
 0003:00000d80       ?iso3_tbl@@3PAUcs_info@@A  0000000180053d80     hunspell:csutil.obj
 0003:00001080       ?iso1_tbl@@3PAUcs_info@@A  0000000180054080     hunspell:csutil.obj
 0003:00001380       ?cp1251_tbl@@3PAUcs_info@@A 0000000180054380     hunspell:csutil.obj
 0003:00001680       ?lang2enc@@3PAUlang_map@@A 0000000180054680     hunspell:csutil.obj
 0003:00001840       ?iso7_tbl@@3PAUcs_info@@A  0000000180054840     hunspell:csutil.obj
 0003:00001b40       ?iso2_tbl@@3PAUcs_info@@A  0000000180054b40     hunspell:csutil.obj
 0003:00001e40       ?iso14_tbl@@3PAUcs_info@@A 0000000180054e40     hunspell:csutil.obj
 0003:00002140       ?utf_lst@@3PAUunicode_info@@A 0000000180055140     hunspell:csutil.obj
 0003:0001ee50       ?iso8_tbl@@3PAUcs_info@@A  0000000180071e50     hunspell:csutil.obj
 0003:0001f150       ?iso4_tbl@@3PAUcs_info@@A  0000000180072150     hunspell:csutil.obj
 0003:0001f450       ?encds@@3PAUenc_entry@@A   0000000180072450     hunspell:csutil.obj
 0003:0001f5b0       ?iso10_tbl@@3PAUcs_info@@A 00000001800725b0     hunspell:csutil.obj
 0003:0001f8b0       ?iso13_tbl@@3PAUcs_info@@A 00000001800728b0     hunspell:csutil.obj
 0003:0001fbb0       ?koi8r_tbl@@3PAUcs_info@@A 0000000180072bb0     hunspell:csutil.obj
 0003:0001feb0       ?iscii_devanagari_tbl@@3PAUcs_info@@A 0000000180072eb0     hunspell:csutil.obj
 0003:000201b0       ?tis620_tbl@@3PAUcs_info@@A 00000001800731b0     hunspell:csutil.obj
 0003:000204b0       ?iso5_tbl@@3PAUcs_info@@A  00000001800734b0     hunspell:csutil.obj
 0003:000207b0       ?iso15_tbl@@3PAUcs_info@@A 00000001800737b0     hunspell:csutil.obj
 0003:00020ab0       ?iso6_tbl@@3PAUcs_info@@A  0000000180073ab0     hunspell:csutil.obj
 0003:00020db0       ?iso9_tbl@@3PAUcs_info@@A  0000000180073db0     hunspell:csutil.obj
 0003:000211d0       ?__proc_attached@@3HA      00000001800741d0     LIBCMT:dll_dllmain.obj
 0003:000211e0       GS_ExceptionRecord         00000001800741e0     LIBCMT:gs_report.obj
 0003:00021280       GS_ContextRecord           0000000180074280     LIBCMT:gs_report.obj
 0003:00021760       ?module_local_atexit_table@@3U_onexit_table_t@@A 0000000180074760     LIBCMT:utility.obj
 0003:00021778       ?module_local_at_quick_exit_table@@3U_onexit_table_t@@A 0000000180074778     LIBCMT:utility.obj
 0003:00021790       ?is_initialized_as_dll@@3_NA 0000000180074790     LIBCMT:utility.obj
 0003:000217d0       ?__vcrt_startup_thread_ptd@@3U__vcrt_ptd@@A 00000001800747d0     libvcruntime:per_thread_data.obj
 0003:00021848       __vcrt_lock_table          0000000180074848     libvcruntime:locks.obj
 0003:00021870       __vcrt_locks_initialized   0000000180074870     libvcruntime:locks.obj
 0003:00021880       ?module_handles@@3PAPEAUHINSTANCE__@@A 0000000180074880     libvcruntime:winapi_downlevel.obj
 0003:000218a0       ?encoded_function_pointers@@3PAPEAXA 00000001800748a0     libvcruntime:winapi_downlevel.obj
 0003:00021930       ?heap@@3V_HeapManager@@A   0000000180074930     libvcruntime:undname.obj
 0003:00021958       __acrt_invalid_parameter_handler 0000000180074958     libucrt:invalid_parameter.obj
 0003:00021978       source_frequency           0000000180074978     libucrt:clock.obj
 0003:00021980       start_count                0000000180074980     libucrt:clock.obj
 0003:00021988       __acrt_new_handler         0000000180074988     libucrt:new_handler.obj
 0003:00021990       c_termination_complete     0000000180074990     libucrt:exit.obj
 0003:00021998       thread_local_exit_callback_func 0000000180074998     libucrt:exit.obj
 0003:000219a0       ?c_exit_complete@?5??common_exit@@YAXHW4_crt_exit_cleanup_mode@@W4_crt_exit_return_mode@@@Z@4_NA 00000001800749a0     libucrt:exit.obj
 0003:000219b0       ?program_name@?5???$common_configure_argv@D@@YAHW4_crt_argv_mode@@@Z@4PADA 00000001800749b0     libucrt:argv_parsing.obj
 0003:00021b08       __acrt_app_type            0000000180074b08     libucrt:report_runtime_error.obj
 0003:00021b0c       __acrt_error_mode          0000000180074b0c     libucrt:set_error_mode.obj
 0003:00021b10       ctrlc_action               0000000180074b10     libucrt:signal.obj
 0003:00021b18       ctrlbreak_action           0000000180074b18     libucrt:signal.obj
 0003:00021b20       abort_action               0000000180074b20     libucrt:signal.obj
 0003:00021b28       term_action                0000000180074b28     libucrt:signal.obj
 0003:00021b40       __acrt_lock_table          0000000180074b40     libucrt:locks.obj
 0003:00021d48       __acrt_locks_initialized   0000000180074d48     libucrt:locks.obj
 0003:00021d50       enable_percent_n           0000000180074d50     libucrt:printf_count_output.obj
 0003:00022180       module_handles             0000000180075180     libucrt:winapi_thunks.obj
 0003:00022220       encoded_function_pointers  0000000180075220     libucrt:winapi_thunks.obj
 0003:00022320       ?state_cache@?1??__acrt_is_packaged_app@@9@4JA 0000000180075320     libucrt:winapi_thunks.obj
 0003:0002233c       fSystemSet                 000000018007533c     libucrt:mbctype.obj
 0003:00022348       ?initialized@?1??__acrt_initialize_multibyte@@9@4_NA 0000000180075348     libucrt:mbctype.obj
 0003:00022380       user_matherr               0000000180075380     libucrt:matherr.obj
 0003:00022388       __acrt_global_new_mode     0000000180075388     libucrt:new_mode.obj
 0003:000223b0       ?utf_tbl@@3PEAUunicode_info2@@EA 00000001800753b0     hunspell:csutil.obj
 0003:000223b8       ?utf_tbl_count@@3HA        00000001800753b8     hunspell:csutil.obj
 0004:00000000       $pdata$?FunctionCallbackWrapper@imp@Nan@@YAXAEBV?$FunctionCallbackInfo@VValue@v8@@@v8@@@Z 0000000180076000     main.obj
 0004:0000000c       $pdata$?New@?$Factory@VFunctionTemplate@v8@@@imp@Nan@@SA?AV?$Local@VFunctionTemplate@v8@@@v8@@P6AXAEBV?$FunctionCallbackInfo@VValue@v8@@@3@@ZV?$Local@VValue@v8@@@5@V?$Local@VSignature@v8@@@5@@Z 000000018007600c     main.obj
 0004:00000018       $pdata$0$?New@?$Factory@VFunctionTemplate@v8@@@imp@Nan@@SA?AV?$Local@VFunctionTemplate@v8@@@v8@@P6AXAEBV?$FunctionCallbackInfo@VValue@v8@@@3@@ZV?$Local@VValue@v8@@@5@V?$Local@VSignature@v8@@@5@@Z 0000000180076018     main.obj
 0004:00000024       $pdata$1$?New@?$Factory@VFunctionTemplate@v8@@@imp@Nan@@SA?AV?$Local@VFunctionTemplate@v8@@@v8@@P6AXAEBV?$FunctionCallbackInfo@VValue@v8@@@3@@ZV?$Local@VValue@v8@@@5@V?$Local@VSignature@v8@@@5@@Z 0000000180076024     main.obj
 0004:00000030       $pdata$2$?New@?$Factory@VFunctionTemplate@v8@@@imp@Nan@@SA?AV?$Local@VFunctionTemplate@v8@@@v8@@P6AXAEBV?$FunctionCallbackInfo@VValue@v8@@@3@@ZV?$Local@VValue@v8@@@5@V?$Local@VSignature@v8@@@5@@Z 0000000180076030     main.obj
 0004:0000003c       $pdata$3$?New@?$Factory@VFunctionTemplate@v8@@@imp@Nan@@SA?AV?$Local@VFunctionTemplate@v8@@@v8@@P6AXAEBV?$FunctionCallbackInfo@VValue@v8@@@3@@ZV?$Local@VValue@v8@@@5@V?$Local@VSignature@v8@@@5@@Z 000000018007603c     main.obj
 0004:00000048       $pdata$?ThrowError@Nan@@YAXPEBD@Z 0000000180076048     main.obj
 0004:00000054       $pdata$??1ObjectWrap@Nan@@UEAA@XZ 0000000180076054     main.obj
 0004:00000060       $pdata$?Wrap@ObjectWrap@Nan@@IEAAXV?$Local@VObject@v8@@@v8@@@Z 0000000180076060     main.obj
 0004:0000006c       $pdata$?Ref@ObjectWrap@Nan@@MEAAXXZ 000000018007606c     main.obj
 0004:00000078       $pdata$?Unref@ObjectWrap@Nan@@MEAAXXZ 0000000180076078     main.obj
 0004:00000084       $pdata$?WeakCallback@ObjectWrap@Nan@@CAXAEBV?$WeakCallbackInfo@VObjectWrap@Nan@@@v8@@@Z 0000000180076084     main.obj
 0004:00000090       $pdata$??_GObjectWrap@Nan@@UEAAPEAXI@Z 0000000180076090     main.obj
 0004:0000009c       $pdata$?New@Spellchecker@?A0x29701496@@CAXAEBV?$FunctionCallbackInfo@VValue@v8@@@Nan@@@Z 000000018007609c     main.obj
 0004:000000a8       $pdata$?SetDictionary@Spellchecker@?A0x29701496@@CAXAEBV?$FunctionCallbackInfo@VValue@v8@@@Nan@@@Z 00000001800760a8     main.obj
 0004:000000b4       $pdata$2$?SetDictionary@Spellchecker@?A0x29701496@@CAXAEBV?$FunctionCallbackInfo@VValue@v8@@@Nan@@@Z 00000001800760b4     main.obj
 0004:000000c0       $pdata$3$?SetDictionary@Spellchecker@?A0x29701496@@CAXAEBV?$FunctionCallbackInfo@VValue@v8@@@Nan@@@Z 00000001800760c0     main.obj
 0004:000000cc       $pdata$4$?SetDictionary@Spellchecker@?A0x29701496@@CAXAEBV?$FunctionCallbackInfo@VValue@v8@@@Nan@@@Z 00000001800760cc     main.obj
 0004:000000d8       $pdata$5$?SetDictionary@Spellchecker@?A0x29701496@@CAXAEBV?$FunctionCallbackInfo@VValue@v8@@@Nan@@@Z 00000001800760d8     main.obj
 0004:000000e4       $pdata$?IsMisspelled@Spellchecker@?A0x29701496@@CAXAEBV?$FunctionCallbackInfo@VValue@v8@@@Nan@@@Z 00000001800760e4     main.obj
 0004:000000f0       $pdata$0$?IsMisspelled@Spellchecker@?A0x29701496@@CAXAEBV?$FunctionCallbackInfo@VValue@v8@@@Nan@@@Z 00000001800760f0     main.obj
 0004:000000fc       $pdata$1$?IsMisspelled@Spellchecker@?A0x29701496@@CAXAEBV?$FunctionCallbackInfo@VValue@v8@@@Nan@@@Z 00000001800760fc     main.obj
 0004:00000108       $pdata$?CheckSpelling@Spellchecker@?A0x29701496@@CAXAEBV?$FunctionCallbackInfo@VValue@v8@@@Nan@@@Z 0000000180076108     main.obj
 0004:00000114       $pdata$3$?CheckSpelling@Spellchecker@?A0x29701496@@CAXAEBV?$FunctionCallbackInfo@VValue@v8@@@Nan@@@Z 0000000180076114     main.obj
 0004:00000120       $pdata$4$?CheckSpelling@Spellchecker@?A0x29701496@@CAXAEBV?$FunctionCallbackInfo@VValue@v8@@@Nan@@@Z 0000000180076120     main.obj
 0004:0000012c       $pdata$5$?CheckSpelling@Spellchecker@?A0x29701496@@CAXAEBV?$FunctionCallbackInfo@VValue@v8@@@Nan@@@Z 000000018007612c     main.obj
 0004:00000138       $pdata$?Add@Spellchecker@?A0x29701496@@CAXAEBV?$FunctionCallbackInfo@VValue@v8@@@Nan@@@Z 0000000180076138     main.obj
 0004:00000144       $pdata$0$?Add@Spellchecker@?A0x29701496@@CAXAEBV?$FunctionCallbackInfo@VValue@v8@@@Nan@@@Z 0000000180076144     main.obj
 0004:00000150       $pdata$1$?Add@Spellchecker@?A0x29701496@@CAXAEBV?$FunctionCallbackInfo@VValue@v8@@@Nan@@@Z 0000000180076150     main.obj
 0004:0000015c       $pdata$?GetAvailableDictionaries@Spellchecker@?A0x29701496@@CAXAEBV?$FunctionCallbackInfo@VValue@v8@@@Nan@@@Z 000000018007615c     main.obj
 0004:00000168       $pdata$0$?GetAvailableDictionaries@Spellchecker@?A0x29701496@@CAXAEBV?$FunctionCallbackInfo@VValue@v8@@@Nan@@@Z 0000000180076168     main.obj
 0004:00000174       $pdata$2$?GetAvailableDictionaries@Spellchecker@?A0x29701496@@CAXAEBV?$FunctionCallbackInfo@VValue@v8@@@Nan@@@Z 0000000180076174     main.obj
 0004:00000180       $pdata$3$?GetAvailableDictionaries@Spellchecker@?A0x29701496@@CAXAEBV?$FunctionCallbackInfo@VValue@v8@@@Nan@@@Z 0000000180076180     main.obj
 0004:0000018c       $pdata$4$?GetAvailableDictionaries@Spellchecker@?A0x29701496@@CAXAEBV?$FunctionCallbackInfo@VValue@v8@@@Nan@@@Z 000000018007618c     main.obj
 0004:00000198       $pdata$?GetCorrectionsForMisspelling@Spellchecker@?A0x29701496@@CAXAEBV?$FunctionCallbackInfo@VValue@v8@@@Nan@@@Z 0000000180076198     main.obj
 0004:000001a4       $pdata$1$?GetCorrectionsForMisspelling@Spellchecker@?A0x29701496@@CAXAEBV?$FunctionCallbackInfo@VValue@v8@@@Nan@@@Z 00000001800761a4     main.obj
 0004:000001b0       $pdata$3$?GetCorrectionsForMisspelling@Spellchecker@?A0x29701496@@CAXAEBV?$FunctionCallbackInfo@VValue@v8@@@Nan@@@Z 00000001800761b0     main.obj
 0004:000001bc       $pdata$4$?GetCorrectionsForMisspelling@Spellchecker@?A0x29701496@@CAXAEBV?$FunctionCallbackInfo@VValue@v8@@@Nan@@@Z 00000001800761bc     main.obj
 0004:000001c8       $pdata$5$?GetCorrectionsForMisspelling@Spellchecker@?A0x29701496@@CAXAEBV?$FunctionCallbackInfo@VValue@v8@@@Nan@@@Z 00000001800761c8     main.obj
 0004:000001d4       $pdata$?Init@Spellchecker@?A0x29701496@@SAXV?$Local@VObject@v8@@@v8@@@Z 00000001800761d4     main.obj
 0004:000001e0       $pdata$??_GSpellchecker@?A0x29701496@@EEAAPEAXI@Z 00000001800761e0     main.obj
 0004:000001ec       $pdata$?Init@?A0x29701496@@YAXV?$Local@VObject@v8@@@v8@@0@Z 00000001800761ec     main.obj
 0004:000001f8       $pdata$??1?$basic_string@DU?$char_traits@D@std@@V?$allocator@D@2@@std@@QEAA@XZ 00000001800761f8     main.obj
 0004:00000204       $pdata$?assign@?$basic_string@DU?$char_traits@D@std@@V?$allocator@D@2@@std@@QEAAAEAV12@PEBD_K@Z 0000000180076204     main.obj
 0004:00000210       $pdata$?assign@?$basic_string@DU?$char_traits@D@std@@V?$allocator@D@2@@std@@QEAAAEAV12@AEBV12@_K1@Z 0000000180076210     main.obj
 0004:0000021c       $pdata$?erase@?$basic_string@DU?$char_traits@D@std@@V?$allocator@D@2@@std@@QEAAAEAV12@_K0@Z 000000018007621c     main.obj
 0004:00000228       $pdata$?_Copy@?$basic_string@DU?$char_traits@D@std@@V?$allocator@D@2@@std@@QEAAX_K0@Z 0000000180076228     main.obj
 0004:00000234       $pdata$??$Unwrap@VSpellchecker@?A0x29701496@@@ObjectWrap@Nan@@SAPEAVSpellchecker@?A0x29701496@@V?$Local@VObject@v8@@@v8@@@Z 0000000180076234     main.obj
 0004:00000240       $pdata$??$_Destroy_range1@V?$allocator@V?$basic_string@DU?$char_traits@D@std@@V?$allocator@D@2@@std@@@std@@PEAV?$basic_string@DU?$char_traits@D@std@@V?$allocator@D@2@@2@@std@@YAXPEAV?$basic_string@DU?$char_traits@D@std@@V?$allocator@D@2@@0@0AEAU?$_Wrap_alloc@V?$allocator@V?$basic_string@DU?$char_traits@D@std@@V?$allocator@D@2@@std@@@std@@@0@U?$integral_constant@_N$0A@@0@@Z 0000000180076240     main.obj
 0004:0000024c       $pdata$1$??$_Destroy_range1@V?$allocator@V?$basic_string@DU?$char_traits@D@std@@V?$allocator@D@2@@std@@@std@@PEAV?$basic_string@DU?$char_traits@D@std@@V?$allocator@D@2@@2@@std@@YAXPEAV?$basic_string@DU?$char_traits@D@std@@V?$allocator@D@2@@0@0AEAU?$_Wrap_alloc@V?$allocator@V?$basic_string@DU?$char_traits@D@std@@V?$allocator@D@2@@std@@@std@@@0@U?$integral_constant@_N$0A@@0@@Z 000000018007624c     main.obj
 0004:00000258       $pdata$2$??$_Destroy_range1@V?$allocator@V?$basic_string@DU?$char_traits@D@std@@V?$allocator@D@2@@std@@@std@@PEAV?$basic_string@DU?$char_traits@D@std@@V?$allocator@D@2@@2@@std@@YAXPEAV?$basic_string@DU?$char_traits@D@std@@V?$allocator@D@2@@0@0AEAU?$_Wrap_alloc@V?$allocator@V?$basic_string@DU?$char_traits@D@std@@V?$allocator@D@2@@std@@@std@@@0@U?$integral_constant@_N$0A@@0@@Z 0000000180076258     main.obj
 0004:00000264       $pdata$3$??$_Destroy_range1@V?$allocator@V?$basic_string@DU?$char_traits@D@std@@V?$allocator@D@2@@std@@@std@@PEAV?$basic_string@DU?$char_traits@D@std@@V?$allocator@D@2@@2@@std@@YAXPEAV?$basic_string@DU?$char_traits@D@std@@V?$allocator@D@2@@0@0AEAU?$_Wrap_alloc@V?$allocator@V?$basic_string@DU?$char_traits@D@std@@V?$allocator@D@2@@std@@@std@@@0@U?$integral_constant@_N$0A@@0@@Z 0000000180076264     main.obj
 0004:00000270       $pdata$??_GSpellcheckerImplementation@spellchecker@@UEAAPEAXI@Z 0000000180076270     spellchecker_hunspell.obj
 0004:0000027c       $pdata$??_GHunspellSpellchecker@spellchecker@@UEAAPEAXI@Z 000000018007627c     spellchecker_hunspell.obj
 0004:00000288       $pdata$?SetDictionary@HunspellSpellchecker@spellchecker@@UEAA_NAEBV?$basic_string@DU?$char_traits@D@std@@V?$allocator@D@2@@std@@0@Z 0000000180076288     spellchecker_hunspell.obj
 0004:00000294       $pdata$?IsMisspelled@HunspellSpellchecker@spellchecker@@UEAA_NAEBV?$basic_string@DU?$char_traits@D@std@@V?$allocator@D@2@@std@@@Z 0000000180076294     spellchecker_hunspell.obj
 0004:000002a0       $pdata$?CheckSpelling@HunspellSpellchecker@spellchecker@@UEAA?AV?$vector@UMisspelledRange@spellchecker@@V?$allocator@UMisspelledRange@spellchecker@@@std@@@std@@PEBG_K@Z 00000001800762a0     spellchecker_hunspell.obj
 0004:000002ac       $pdata$3$?CheckSpelling@HunspellSpellchecker@spellchecker@@UEAA?AV?$vector@UMisspelledRange@spellchecker@@V?$allocator@UMisspelledRange@spellchecker@@@std@@@std@@PEBG_K@Z 00000001800762ac     spellchecker_hunspell.obj
 0004:000002b8       $pdata$4$?CheckSpelling@HunspellSpellchecker@spellchecker@@UEAA?AV?$vector@UMisspelledRange@spellchecker@@V?$allocator@UMisspelledRange@spellchecker@@@std@@@std@@PEBG_K@Z 00000001800762b8     spellchecker_hunspell.obj
 0004:000002c4       $pdata$5$?CheckSpelling@HunspellSpellchecker@spellchecker@@UEAA?AV?$vector@UMisspelledRange@spellchecker@@V?$allocator@UMisspelledRange@spellchecker@@@std@@@std@@PEBG_K@Z 00000001800762c4     spellchecker_hunspell.obj
 0004:000002d0       $pdata$?GetCorrectionsForMisspelling@HunspellSpellchecker@spellchecker@@UEAA?AV?$vector@V?$basic_string@DU?$char_traits@D@std@@V?$allocator@D@2@@std@@V?$allocator@V?$basic_string@DU?$char_traits@D@std@@V?$allocator@D@2@@std@@@2@@std@@AEBV?$basic_string@DU?$char_traits@D@std@@V?$allocator@D@2@@4@@Z 00000001800762d0     spellchecker_hunspell.obj
 0004:000002dc       $pdata$?_Reserve@?$vector@V?$basic_string@DU?$char_traits@D@std@@V?$allocator@D@2@@std@@V?$allocator@V?$basic_string@DU?$char_traits@D@std@@V?$allocator@D@2@@std@@@2@@std@@IEAAX_K@Z 00000001800762dc     spellchecker_hunspell.obj
 0004:000002e8       $pdata$?_Reallocate@?$vector@V?$basic_string@DU?$char_traits@D@std@@V?$allocator@D@2@@std@@V?$allocator@V?$basic_string@DU?$char_traits@D@std@@V?$allocator@D@2@@std@@@2@@std@@IEAAX_K@Z 00000001800762e8     spellchecker_hunspell.obj
 0004:000002f4       $pdata$0$?_Reallocate@?$vector@V?$basic_string@DU?$char_traits@D@std@@V?$allocator@D@2@@std@@V?$allocator@V?$basic_string@DU?$char_traits@D@std@@V?$allocator@D@2@@std@@@2@@std@@IEAAX_K@Z 00000001800762f4     spellchecker_hunspell.obj
 0004:00000300       $pdata$2$?_Reallocate@?$vector@V?$basic_string@DU?$char_traits@D@std@@V?$allocator@D@2@@std@@V?$allocator@V?$basic_string@DU?$char_traits@D@std@@V?$allocator@D@2@@std@@@2@@std@@IEAAX_K@Z 0000000180076300     spellchecker_hunspell.obj
 0004:0000030c       $pdata$3$?_Reallocate@?$vector@V?$basic_string@DU?$char_traits@D@std@@V?$allocator@D@2@@std@@V?$allocator@V?$basic_string@DU?$char_traits@D@std@@V?$allocator@D@2@@std@@@2@@std@@IEAAX_K@Z 000000018007630c     spellchecker_hunspell.obj
 0004:00000318       $pdata$4$?_Reallocate@?$vector@V?$basic_string@DU?$char_traits@D@std@@V?$allocator@D@2@@std@@V?$allocator@V?$basic_string@DU?$char_traits@D@std@@V?$allocator@D@2@@std@@@2@@std@@IEAAX_K@Z 0000000180076318     spellchecker_hunspell.obj
 0004:00000324       $pdata$5$?_Reallocate@?$vector@V?$basic_string@DU?$char_traits@D@std@@V?$allocator@D@2@@std@@V?$allocator@V?$basic_string@DU?$char_traits@D@std@@V?$allocator@D@2@@std@@@2@@std@@IEAAX_K@Z 0000000180076324     spellchecker_hunspell.obj
 0004:00000330       $pdata$?append@?$basic_string@DU?$char_traits@D@std@@V?$allocator@D@2@@std@@QEAAAEAV12@PEBD_K@Z 0000000180076330     spellchecker_hunspell.obj
 0004:0000033c       $pdata$0$?append@?$basic_string@DU?$char_traits@D@std@@V?$allocator@D@2@@std@@QEAAAEAV12@PEBD_K@Z 000000018007633c     spellchecker_hunspell.obj
 0004:00000348       $pdata$1$?append@?$basic_string@DU?$char_traits@D@std@@V?$allocator@D@2@@std@@QEAAAEAV12@PEBD_K@Z 0000000180076348     spellchecker_hunspell.obj
 0004:00000354       $pdata$2$?append@?$basic_string@DU?$char_traits@D@std@@V?$allocator@D@2@@std@@QEAAAEAV12@PEBD_K@Z 0000000180076354     spellchecker_hunspell.obj
 0004:00000360       $pdata$?append@?$basic_string@DU?$char_traits@D@std@@V?$allocator@D@2@@std@@QEAAAEAV12@AEBV12@_K1@Z 0000000180076360     spellchecker_hunspell.obj
 0004:0000036c       $pdata$0$?append@?$basic_string@DU?$char_traits@D@std@@V?$allocator@D@2@@std@@QEAAAEAV12@AEBV12@_K1@Z 000000018007636c     spellchecker_hunspell.obj
 0004:00000378       $pdata$1$?append@?$basic_string@DU?$char_traits@D@std@@V?$allocator@D@2@@std@@QEAAAEAV12@AEBV12@_K1@Z 0000000180076378     spellchecker_hunspell.obj
 0004:00000384       $pdata$2$?append@?$basic_string@DU?$char_traits@D@std@@V?$allocator@D@2@@std@@QEAAAEAV12@AEBV12@_K1@Z 0000000180076384     spellchecker_hunspell.obj
 0004:00000390       $pdata$?_Assign_rv@?$basic_string@DU?$char_traits@D@std@@V?$allocator@D@2@@std@@QEAAX$$QEAV12@@Z 0000000180076390     spellchecker_hunspell.obj
 0004:0000039c       $pdata$?_Reallocate@?$vector@UMisspelledRange@spellchecker@@V?$allocator@UMisspelledRange@spellchecker@@@std@@@std@@IEAAX_K@Z 000000018007639c     spellchecker_hunspell.obj
 0004:000003a8       $pdata$0$?_Reallocate@?$vector@UMisspelledRange@spellchecker@@V?$allocator@UMisspelledRange@spellchecker@@@std@@@std@@IEAAX_K@Z 00000001800763a8     spellchecker_hunspell.obj
 0004:000003b4       $pdata$1$?_Reallocate@?$vector@UMisspelledRange@spellchecker@@V?$allocator@UMisspelledRange@spellchecker@@@std@@@std@@IEAAX_K@Z 00000001800763b4     spellchecker_hunspell.obj
 0004:000003c0       $pdata$2$?_Reallocate@?$vector@UMisspelledRange@spellchecker@@V?$allocator@UMisspelledRange@spellchecker@@@std@@@std@@IEAAX_K@Z 00000001800763c0     spellchecker_hunspell.obj
 0004:000003cc       $pdata$?ToUTF8@spellchecker@@YA?AV?$basic_string@DU?$char_traits@D@std@@V?$allocator@D@2@@std@@AEBV?$basic_string@_WU?$char_traits@_W@std@@V?$allocator@_W@2@@3@@Z 00000001800763cc     spellchecker_win.obj
 0004:000003d8       $pdata$0$?ToUTF8@spellchecker@@YA?AV?$basic_string@DU?$char_traits@D@std@@V?$allocator@D@2@@std@@AEBV?$basic_string@_WU?$char_traits@_W@std@@V?$allocator@_W@2@@3@@Z 00000001800763d8     spellchecker_win.obj
 0004:000003e4       $pdata$1$?ToUTF8@spellchecker@@YA?AV?$basic_string@DU?$char_traits@D@std@@V?$allocator@D@2@@std@@AEBV?$basic_string@_WU?$char_traits@_W@std@@V?$allocator@_W@2@@3@@Z 00000001800763e4     spellchecker_win.obj
 0004:000003f0       $pdata$2$?ToUTF8@spellchecker@@YA?AV?$basic_string@DU?$char_traits@D@std@@V?$allocator@D@2@@std@@AEBV?$basic_string@_WU?$char_traits@_W@std@@V?$allocator@_W@2@@3@@Z 00000001800763f0     spellchecker_win.obj
 0004:000003fc       $pdata$3$?ToUTF8@spellchecker@@YA?AV?$basic_string@DU?$char_traits@D@std@@V?$allocator@D@2@@std@@AEBV?$basic_string@_WU?$char_traits@_W@std@@V?$allocator@_W@2@@3@@Z 00000001800763fc     spellchecker_win.obj
 0004:00000408       $pdata$?ToWString@spellchecker@@YA?AV?$basic_string@_WU?$char_traits@_W@std@@V?$allocator@_W@2@@std@@AEBV?$basic_string@DU?$char_traits@D@std@@V?$allocator@D@2@@3@@Z 0000000180076408     spellchecker_win.obj
 0004:00000414       $pdata$0$?ToWString@spellchecker@@YA?AV?$basic_string@_WU?$char_traits@_W@std@@V?$allocator@_W@2@@std@@AEBV?$basic_string@DU?$char_traits@D@std@@V?$allocator@D@2@@3@@Z 0000000180076414     spellchecker_win.obj
 0004:00000420       $pdata$2$?ToWString@spellchecker@@YA?AV?$basic_string@_WU?$char_traits@_W@std@@V?$allocator@_W@2@@std@@AEBV?$basic_string@DU?$char_traits@D@std@@V?$allocator@D@2@@3@@Z 0000000180076420     spellchecker_win.obj
 0004:0000042c       $pdata$3$?ToWString@spellchecker@@YA?AV?$basic_string@_WU?$char_traits@_W@std@@V?$allocator@_W@2@@std@@AEBV?$basic_string@DU?$char_traits@D@std@@V?$allocator@D@2@@3@@Z 000000018007642c     spellchecker_win.obj
 0004:00000438       $pdata$4$?ToWString@spellchecker@@YA?AV?$basic_string@_WU?$char_traits@_W@std@@V?$allocator@_W@2@@std@@AEBV?$basic_string@DU?$char_traits@D@std@@V?$allocator@D@2@@3@@Z 0000000180076438     spellchecker_win.obj
 0004:00000444       $pdata$??0WindowsSpellchecker@spellchecker@@QEAA@XZ 0000000180076444     spellchecker_win.obj
 0004:00000450       $pdata$??_GWindowsSpellchecker@spellchecker@@UEAAPEAXI@Z 0000000180076450     spellchecker_win.obj
 0004:0000045c       $pdata$?SetDictionary@WindowsSpellchecker@spellchecker@@UEAA_NAEBV?$basic_string@DU?$char_traits@D@std@@V?$allocator@D@2@@std@@0@Z 000000018007645c     spellchecker_win.obj
 0004:00000468       $pdata$1$?SetDictionary@WindowsSpellchecker@spellchecker@@UEAA_NAEBV?$basic_string@DU?$char_traits@D@std@@V?$allocator@D@2@@std@@0@Z 0000000180076468     spellchecker_win.obj
 0004:00000474       $pdata$2$?SetDictionary@WindowsSpellchecker@spellchecker@@UEAA_NAEBV?$basic_string@DU?$char_traits@D@std@@V?$allocator@D@2@@std@@0@Z 0000000180076474     spellchecker_win.obj
 0004:00000480       $pdata$3$?SetDictionary@WindowsSpellchecker@spellchecker@@UEAA_NAEBV?$basic_string@DU?$char_traits@D@std@@V?$allocator@D@2@@std@@0@Z 0000000180076480     spellchecker_win.obj
 0004:0000048c       $pdata$4$?SetDictionary@WindowsSpellchecker@spellchecker@@UEAA_NAEBV?$basic_string@DU?$char_traits@D@std@@V?$allocator@D@2@@std@@0@Z 000000018007648c     spellchecker_win.obj
 0004:00000498       $pdata$?GetAvailableDictionaries@WindowsSpellchecker@spellchecker@@UEAA?AV?$vector@V?$basic_string@DU?$char_traits@D@std@@V?$allocator@D@2@@std@@V?$allocator@V?$basic_string@DU?$char_traits@D@std@@V?$allocator@D@2@@std@@@2@@std@@AEBV?$basic_string@DU?$char_traits@D@std@@V?$allocator@D@2@@4@@Z 0000000180076498     spellchecker_win.obj
 0004:000004a4       $pdata$4$?GetAvailableDictionaries@WindowsSpellchecker@spellchecker@@UEAA?AV?$vector@V?$basic_string@DU?$char_traits@D@std@@V?$allocator@D@2@@std@@V?$allocator@V?$basic_string@DU?$char_traits@D@std@@V?$allocator@D@2@@std@@@2@@std@@AEBV?$basic_string@DU?$char_traits@D@std@@V?$allocator@D@2@@4@@Z 00000001800764a4     spellchecker_win.obj
 0004:000004b0       $pdata$5$?GetAvailableDictionaries@WindowsSpellchecker@spellchecker@@UEAA?AV?$vector@V?$basic_string@DU?$char_traits@D@std@@V?$allocator@D@2@@std@@V?$allocator@V?$basic_string@DU?$char_traits@D@std@@V?$allocator@D@2@@std@@@2@@std@@AEBV?$basic_string@DU?$char_traits@D@std@@V?$allocator@D@2@@4@@Z 00000001800764b0     spellchecker_win.obj
 0004:000004bc       $pdata$6$?GetAvailableDictionaries@WindowsSpellchecker@spellchecker@@UEAA?AV?$vector@V?$basic_string@DU?$char_traits@D@std@@V?$allocator@D@2@@std@@V?$allocator@V?$basic_string@DU?$char_traits@D@std@@V?$allocator@D@2@@std@@@2@@std@@AEBV?$basic_string@DU?$char_traits@D@std@@V?$allocator@D@2@@4@@Z 00000001800764bc     spellchecker_win.obj
 0004:000004c8       $pdata$?IsMisspelled@WindowsSpellchecker@spellchecker@@UEAA_NAEBV?$basic_string@DU?$char_traits@D@std@@V?$allocator@D@2@@std@@@Z 00000001800764c8     spellchecker_win.obj
 0004:000004d4       $pdata$?CheckSpelling@WindowsSpellchecker@spellchecker@@UEAA?AV?$vector@UMisspelledRange@spellchecker@@V?$allocator@UMisspelledRange@spellchecker@@@std@@@std@@PEBG_K@Z 00000001800764d4     spellchecker_win.obj
 0004:000004e0       $pdata$2$?CheckSpelling@WindowsSpellchecker@spellchecker@@UEAA?AV?$vector@UMisspelledRange@spellchecker@@V?$allocator@UMisspelledRange@spellchecker@@@std@@@std@@PEBG_K@Z 00000001800764e0     spellchecker_win.obj
 0004:000004ec       $pdata$3$?CheckSpelling@WindowsSpellchecker@spellchecker@@UEAA?AV?$vector@UMisspelledRange@spellchecker@@V?$allocator@UMisspelledRange@spellchecker@@@std@@@std@@PEBG_K@Z 00000001800764ec     spellchecker_win.obj
 0004:000004f8       $pdata$4$?CheckSpelling@WindowsSpellchecker@spellchecker@@UEAA?AV?$vector@UMisspelledRange@spellchecker@@V?$allocator@UMisspelledRange@spellchecker@@@std@@@std@@PEBG_K@Z 00000001800764f8     spellchecker_win.obj
 0004:00000504       $pdata$?Add@WindowsSpellchecker@spellchecker@@UEAAXAEBV?$basic_string@DU?$char_traits@D@std@@V?$allocator@D@2@@std@@@Z 0000000180076504     spellchecker_win.obj
 0004:00000510       $pdata$?GetCorrectionsForMisspelling@WindowsSpellchecker@spellchecker@@UEAA?AV?$vector@V?$basic_string@DU?$char_traits@D@std@@V?$allocator@D@2@@std@@V?$allocator@V?$basic_string@DU?$char_traits@D@std@@V?$allocator@D@2@@std@@@2@@std@@AEBV?$basic_string@DU?$char_traits@D@std@@V?$allocator@D@2@@4@@Z 0000000180076510     spellchecker_win.obj
 0004:0000051c       $pdata$3$?GetCorrectionsForMisspelling@WindowsSpellchecker@spellchecker@@UEAA?AV?$vector@V?$basic_string@DU?$char_traits@D@std@@V?$allocator@D@2@@std@@V?$allocator@V?$basic_string@DU?$char_traits@D@std@@V?$allocator@D@2@@std@@@2@@std@@AEBV?$basic_string@DU?$char_traits@D@std@@V?$allocator@D@2@@4@@Z 000000018007651c     spellchecker_win.obj
 0004:00000528       $pdata$4$?GetCorrectionsForMisspelling@WindowsSpellchecker@spellchecker@@UEAA?AV?$vector@V?$basic_string@DU?$char_traits@D@std@@V?$allocator@D@2@@std@@V?$allocator@V?$basic_string@DU?$char_traits@D@std@@V?$allocator@D@2@@std@@@2@@std@@AEBV?$basic_string@DU?$char_traits@D@std@@V?$allocator@D@2@@4@@Z 0000000180076528     spellchecker_win.obj
 0004:00000534       $pdata$5$?GetCorrectionsForMisspelling@WindowsSpellchecker@spellchecker@@UEAA?AV?$vector@V?$basic_string@DU?$char_traits@D@std@@V?$allocator@D@2@@std@@V?$allocator@V?$basic_string@DU?$char_traits@D@std@@V?$allocator@D@2@@std@@@2@@std@@AEBV?$basic_string@DU?$char_traits@D@std@@V?$allocator@D@2@@4@@Z 0000000180076534     spellchecker_win.obj
 0004:00000540       $pdata$?CreateSpellchecker@SpellcheckerFactory@spellchecker@@SAPEAVSpellcheckerImplementation@2@XZ 0000000180076540     spellchecker_win.obj
 0004:0000054c       $pdata$??1?$basic_string@_WU?$char_traits@_W@std@@V?$allocator@_W@2@@std@@QEAA@XZ 000000018007654c     spellchecker_win.obj
 0004:00000558       $pdata$?assign@?$basic_string@_WU?$char_traits@_W@std@@V?$allocator@_W@2@@std@@QEAAAEAV12@PEB_W_K@Z 0000000180076558     spellchecker_win.obj
 0004:00000564       $pdata$?assign@?$basic_string@_WU?$char_traits@_W@std@@V?$allocator@_W@2@@std@@QEAAAEAV12@AEBV12@_K1@Z 0000000180076564     spellchecker_win.obj
 0004:00000570       $pdata$?_Copy@?$basic_string@_WU?$char_traits@_W@std@@V?$allocator@_W@2@@std@@QEAAX_K0@Z 0000000180076570     spellchecker_win.obj
 0004:0000057c       $pdata$?erase@?$basic_string@_WU?$char_traits@_W@std@@V?$allocator@_W@2@@std@@QEAAAEAV12@_K0@Z 000000018007657c     spellchecker_win.obj
 0004:00000588       $pdata$sprintf             0000000180076588     hunspell:hunspell.obj
 0004:00000594       $pdata$??0Hunspell@@QEAA@PEBD00@Z 0000000180076594     hunspell:hunspell.obj
 0004:000005a0       $pdata$??1Hunspell@@QEAA@XZ 00000001800765a0     hunspell:hunspell.obj
 0004:000005ac       $pdata$0$??1Hunspell@@QEAA@XZ 00000001800765ac     hunspell:hunspell.obj
 0004:000005b8       $pdata$2$??1Hunspell@@QEAA@XZ 00000001800765b8     hunspell:hunspell.obj
 0004:000005c4       $pdata$3$??1Hunspell@@QEAA@XZ 00000001800765c4     hunspell:hunspell.obj
 0004:000005d0       $pdata$4$??1Hunspell@@QEAA@XZ 00000001800765d0     hunspell:hunspell.obj
 0004:000005dc       $pdata$??_GSuggestMgr@@QEAAPEAXI@Z 00000001800765dc     hunspell:hunspell.obj
 0004:000005e8       $pdata$?cleanword@Hunspell@@AEAAHPEADPEBDPEAH2@Z 00000001800765e8     hunspell:hunspell.obj
 0004:000005f4       $pdata$2$?cleanword@Hunspell@@AEAAHPEADPEBDPEAH2@Z 00000001800765f4     hunspell:hunspell.obj
 0004:00000600       $pdata$3$?cleanword@Hunspell@@AEAAHPEADPEBDPEAH2@Z 0000000180076600     hunspell:hunspell.obj
 0004:0000060c       $pdata$?mkallcap@Hunspell@@AEAAXPEAD@Z 000000018007660c     hunspell:hunspell.obj
 0004:00000618       $pdata$0$?mkallcap@Hunspell@@AEAAXPEAD@Z 0000000180076618     hunspell:hunspell.obj
 0004:00000624       $pdata$1$?mkallcap@Hunspell@@AEAAXPEAD@Z 0000000180076624     hunspell:hunspell.obj
 0004:00000630       $pdata$?mkallsmall2@Hunspell@@AEAAHPEADPEAUw_char@@H@Z 0000000180076630     hunspell:hunspell.obj
 0004:0000063c       $pdata$0$?mkallsmall2@Hunspell@@AEAAHPEADPEAUw_char@@H@Z 000000018007663c     hunspell:hunspell.obj
 0004:00000648       $pdata$1$?mkallsmall2@Hunspell@@AEAAHPEADPEAUw_char@@H@Z 0000000180076648     hunspell:hunspell.obj
 0004:00000654       $pdata$2$?mkallsmall2@Hunspell@@AEAAHPEADPEAUw_char@@H@Z 0000000180076654     hunspell:hunspell.obj
 0004:00000660       $pdata$3$?mkallsmall2@Hunspell@@AEAAHPEADPEAUw_char@@H@Z 0000000180076660     hunspell:hunspell.obj
 0004:0000066c       $pdata$?spellsharps@Hunspell@@AEAAPEAUhentry@@PEAD0HH0PEAHPEAPEAD@Z 000000018007666c     hunspell:hunspell.obj
 0004:00000678       $pdata$?insert_sug@Hunspell@@AEAAHPEAPEAPEADPEADH@Z 0000000180076678     hunspell:hunspell.obj
 0004:00000684       $pdata$?spell@Hunspell@@QEAAHPEBDPEAHPEAPEAD@Z 0000000180076684     hunspell:hunspell.obj
 0004:00000690       $pdata$?checkword@Hunspell@@AEAAPEAUhentry@@PEBDPEAHPEAPEAD@Z 0000000180076690     hunspell:hunspell.obj
 0004:0000069c       $pdata$?suggest@Hunspell@@QEAAHPEAPEAPEADPEBD@Z 000000018007669c     hunspell:hunspell.obj
 0004:000006a8       $pdata$?stem@Hunspell@@QEAAHPEAPEAPEADPEAPEADH@Z 00000001800766a8     hunspell:hunspell.obj
 0004:000006b4       $pdata$0$?stem@Hunspell@@QEAAHPEAPEAPEADPEAPEADH@Z 00000001800766b4     hunspell:hunspell.obj
 0004:000006c0       $pdata$4$?stem@Hunspell@@QEAAHPEAPEAPEADPEAPEADH@Z 00000001800766c0     hunspell:hunspell.obj
 0004:000006cc       $pdata$5$?stem@Hunspell@@QEAAHPEAPEAPEADPEAPEADH@Z 00000001800766cc     hunspell:hunspell.obj
 0004:000006d8       $pdata$6$?stem@Hunspell@@QEAAHPEAPEAPEADPEAPEADH@Z 00000001800766d8     hunspell:hunspell.obj
 0004:000006e4       $pdata$?stem@Hunspell@@QEAAHPEAPEAPEADPEBD@Z 00000001800766e4     hunspell:hunspell.obj
 0004:000006f0       $pdata$?mkinitcap@Hunspell@@AEAAXPEAD@Z 00000001800766f0     hunspell:hunspell.obj
 0004:000006fc       $pdata$?mkinitcap2@Hunspell@@AEAAHPEADPEAUw_char@@H@Z 00000001800766fc     hunspell:hunspell.obj
 0004:00000708       $pdata$?analyze@Hunspell@@QEAAHPEAPEAPEADPEBD@Z 0000000180076708     hunspell:hunspell.obj
 0004:00000714       $pdata$1$?analyze@Hunspell@@QEAAHPEAPEAPEADPEBD@Z 0000000180076714     hunspell:hunspell.obj
 0004:00000720       $pdata$3$?analyze@Hunspell@@QEAAHPEAPEAPEADPEBD@Z 0000000180076720     hunspell:hunspell.obj
 0004:0000072c       $pdata$4$?analyze@Hunspell@@QEAAHPEAPEAPEADPEBD@Z 000000018007672c     hunspell:hunspell.obj
 0004:00000738       $pdata$5$?analyze@Hunspell@@QEAAHPEAPEAPEADPEBD@Z 0000000180076738     hunspell:hunspell.obj
 0004:00000744       $pdata$6$?analyze@Hunspell@@QEAAHPEAPEAPEADPEBD@Z 0000000180076744     hunspell:hunspell.obj
 0004:00000750       $pdata$7$?analyze@Hunspell@@QEAAHPEAPEAPEADPEBD@Z 0000000180076750     hunspell:hunspell.obj
 0004:0000075c       $pdata$8$?analyze@Hunspell@@QEAAHPEAPEAPEADPEBD@Z 000000018007675c     hunspell:hunspell.obj
 0004:00000768       $pdata$?generate@Hunspell@@QEAAHPEAPEAPEADPEBDPEAPEADH@Z 0000000180076768     hunspell:hunspell.obj
 0004:00000774       $pdata$1$?generate@Hunspell@@QEAAHPEAPEAPEADPEBDPEAPEADH@Z 0000000180076774     hunspell:hunspell.obj
 0004:00000780       $pdata$2$?generate@Hunspell@@QEAAHPEAPEAPEADPEBDPEAPEADH@Z 0000000180076780     hunspell:hunspell.obj
 0004:0000078c       $pdata$3$?generate@Hunspell@@QEAAHPEAPEAPEADPEBDPEAPEADH@Z 000000018007678c     hunspell:hunspell.obj
 0004:00000798       $pdata$4$?generate@Hunspell@@QEAAHPEAPEAPEADPEBDPEAPEADH@Z 0000000180076798     hunspell:hunspell.obj
 0004:000007a4       $pdata$?get_xml_par@Hunspell@@AEAAHPEADPEBDH@Z 00000001800767a4     hunspell:hunspell.obj
 0004:000007b0       $pdata$0$?get_xml_par@Hunspell@@AEAAHPEADPEBDH@Z 00000001800767b0     hunspell:hunspell.obj
 0004:000007bc       $pdata$1$?get_xml_par@Hunspell@@AEAAHPEADPEBDH@Z 00000001800767bc     hunspell:hunspell.obj
 0004:000007c8       $pdata$?check_xml_par@Hunspell@@AEAAHPEBD00@Z 00000001800767c8     hunspell:hunspell.obj
 0004:000007d4       $pdata$?get_xml_list@Hunspell@@AEAAHPEAPEAPEADPEADPEBD@Z 00000001800767d4     hunspell:hunspell.obj
 0004:000007e0       $pdata$0$?get_xml_list@Hunspell@@AEAAHPEAPEAPEADPEADPEBD@Z 00000001800767e0     hunspell:hunspell.obj
 0004:000007ec       $pdata$1$?get_xml_list@Hunspell@@AEAAHPEAPEAPEADPEADPEBD@Z 00000001800767ec     hunspell:hunspell.obj
 0004:000007f8       $pdata$?spellml@Hunspell@@AEAAHPEAPEAPEADPEBD@Z 00000001800767f8     hunspell:hunspell.obj
 0004:00000804       $pdata$0$?spellml@Hunspell@@AEAAHPEAPEAPEADPEBD@Z 0000000180076804     hunspell:hunspell.obj
 0004:00000810       $pdata$1$?spellml@Hunspell@@AEAAHPEAPEAPEADPEBD@Z 0000000180076810     hunspell:hunspell.obj
 0004:0000081c       $pdata$2$?spellml@Hunspell@@AEAAHPEAPEAPEADPEBD@Z 000000018007681c     hunspell:hunspell.obj
 0004:00000828       $pdata$3$?spellml@Hunspell@@AEAAHPEAPEAPEADPEBD@Z 0000000180076828     hunspell:hunspell.obj
 0004:00000834       $pdata$?u8_u16@@YAHPEAUw_char@@HPEBD@Z 0000000180076834     hunspell:csutil.obj
 0004:00000840       $pdata$?flag_qsort@@YAXQEAGHH@Z 0000000180076840     hunspell:csutil.obj
 0004:0000084c       $pdata$1$?flag_qsort@@YAXQEAGHH@Z 000000018007684c     hunspell:csutil.obj
 0004:00000858       $pdata$2$?flag_qsort@@YAXQEAGHH@Z 0000000180076858     hunspell:csutil.obj
 0004:00000864       $pdata$?mystrdup@@YAPEADPEBD@Z 0000000180076864     hunspell:csutil.obj
 0004:00000870       $pdata$1$?mystrdup@@YAPEADPEBD@Z 0000000180076870     hunspell:csutil.obj
 0004:0000087c       $pdata$3$?mystrdup@@YAPEADPEBD@Z 000000018007687c     hunspell:csutil.obj
 0004:00000888       $pdata$4$?mystrdup@@YAPEADPEBD@Z 0000000180076888     hunspell:csutil.obj
 0004:00000894       $pdata$?myrevstrdup@@YAPEADPEBD@Z 0000000180076894     hunspell:csutil.obj
 0004:000008a0       $pdata$1$?myrevstrdup@@YAPEADPEBD@Z 00000001800768a0     hunspell:csutil.obj
 0004:000008ac       $pdata$3$?myrevstrdup@@YAPEADPEBD@Z 00000001800768ac     hunspell:csutil.obj
 0004:000008b8       $pdata$4$?myrevstrdup@@YAPEADPEBD@Z 00000001800768b8     hunspell:csutil.obj
 0004:000008c4       $pdata$?line_tok@@YAHPEBDPEAPEAPEADD@Z 00000001800768c4     hunspell:csutil.obj
 0004:000008d0       $pdata$2$?line_tok@@YAHPEBDPEAPEAPEADD@Z 00000001800768d0     hunspell:csutil.obj
 0004:000008dc       $pdata$4$?line_tok@@YAHPEBDPEAPEAPEADD@Z 00000001800768dc     hunspell:csutil.obj
 0004:000008e8       $pdata$?line_uniq@@YAPEADPEADD@Z 00000001800768e8     hunspell:csutil.obj
 0004:000008f4       $pdata$?line_uniq_app@@YAPEADPEAPEADD@Z 00000001800768f4     hunspell:csutil.obj
 0004:00000900       $pdata$2$?line_uniq_app@@YAPEADPEAPEADD@Z 0000000180076900     hunspell:csutil.obj
 0004:0000090c       $pdata$6$?line_uniq_app@@YAPEADPEAPEADD@Z 000000018007690c     hunspell:csutil.obj
 0004:00000918       $pdata$7$?line_uniq_app@@YAPEADPEAPEADD@Z 0000000180076918     hunspell:csutil.obj
 0004:00000924       $pdata$8$?line_uniq_app@@YAPEADPEAPEADD@Z 0000000180076924     hunspell:csutil.obj
 0004:00000930       $pdata$?morphcmp@@YAHPEBD0@Z 0000000180076930     hunspell:csutil.obj
 0004:0000093c       $pdata$3$?morphcmp@@YAHPEBD0@Z 000000018007693c     hunspell:csutil.obj
 0004:00000948       $pdata$5$?morphcmp@@YAHPEBD0@Z 0000000180076948     hunspell:csutil.obj
 0004:00000954       $pdata$6$?morphcmp@@YAHPEBD0@Z 0000000180076954     hunspell:csutil.obj
 0004:00000960       $pdata$?get_sfxcount@@YAHPEBD@Z 0000000180076960     hunspell:csutil.obj
 0004:0000096c       $pdata$0$?get_sfxcount@@YAHPEBD@Z 000000018007696c     hunspell:csutil.obj
 0004:00000978       $pdata$1$?get_sfxcount@@YAHPEBD@Z 0000000180076978     hunspell:csutil.obj
 0004:00000984       $pdata$?mystrrep@@YAPEADPEADPEBD1@Z 0000000180076984     hunspell:csutil.obj
 0004:00000990       $pdata$3$?mystrrep@@YAPEADPEADPEBD1@Z 0000000180076990     hunspell:csutil.obj
 0004:0000099c       $pdata$4$?mystrrep@@YAPEADPEADPEBD1@Z 000000018007699c     hunspell:csutil.obj
 0004:000009a8       $pdata$?reverseword_utf@@YAHPEAD@Z 00000001800769a8     hunspell:csutil.obj
 0004:000009b4       $pdata$?uniqlist@@YAHPEAPEADH@Z 00000001800769b4     hunspell:csutil.obj
 0004:000009c0       $pdata$2$?uniqlist@@YAHPEAPEADH@Z 00000001800769c0     hunspell:csutil.obj
 0004:000009cc       $pdata$3$?uniqlist@@YAHPEAPEADH@Z 00000001800769cc     hunspell:csutil.obj
 0004:000009d8       $pdata$4$?uniqlist@@YAHPEAPEADH@Z 00000001800769d8     hunspell:csutil.obj
 0004:000009e4       $pdata$5$?uniqlist@@YAHPEAPEADH@Z 00000001800769e4     hunspell:csutil.obj
 0004:000009f0       $pdata$?mkallsmall_utf@@YAXPEAUw_char@@HH@Z 00000001800769f0     hunspell:csutil.obj
 0004:000009fc       $pdata$1$?mkallsmall_utf@@YAXPEAUw_char@@HH@Z 00000001800769fc     hunspell:csutil.obj
 0004:00000a08       $pdata$2$?mkallsmall_utf@@YAXPEAUw_char@@HH@Z 0000000180076a08     hunspell:csutil.obj
 0004:00000a14       $pdata$?mkallcap_utf@@YAXPEAUw_char@@HH@Z 0000000180076a14     hunspell:csutil.obj
 0004:00000a20       $pdata$1$?mkallcap_utf@@YAXPEAUw_char@@HH@Z 0000000180076a20     hunspell:csutil.obj
 0004:00000a2c       $pdata$2$?mkallcap_utf@@YAXPEAUw_char@@HH@Z 0000000180076a2c     hunspell:csutil.obj
 0004:00000a38       $pdata$?get_current_cs@@YAPEAUcs_info@@PEBD@Z 0000000180076a38     hunspell:csutil.obj
 0004:00000a44       $pdata$?get_lang_num@@YAHPEBD@Z 0000000180076a44     hunspell:csutil.obj
 0004:00000a50       $pdata$?initialize_utf_tbl@@YAHXZ 0000000180076a50     hunspell:csutil.obj
 0004:00000a5c       $pdata$?get_captype@@YAHPEADHPEAUcs_info@@@Z 0000000180076a5c     hunspell:csutil.obj
 0004:00000a68       $pdata$0$?get_captype@@YAHPEADHPEAUcs_info@@@Z 0000000180076a68     hunspell:csutil.obj
 0004:00000a74       $pdata$1$?get_captype@@YAHPEADHPEAUcs_info@@@Z 0000000180076a74     hunspell:csutil.obj
 0004:00000a80       $pdata$2$?get_captype@@YAHPEADHPEAUcs_info@@@Z 0000000180076a80     hunspell:csutil.obj
 0004:00000a8c       $pdata$4$?get_captype@@YAHPEADHPEAUcs_info@@@Z 0000000180076a8c     hunspell:csutil.obj
 0004:00000a98       $pdata$6$?get_captype@@YAHPEADHPEAUcs_info@@@Z 0000000180076a98     hunspell:csutil.obj
 0004:00000aa4       $pdata$8$?get_captype@@YAHPEADHPEAUcs_info@@@Z 0000000180076aa4     hunspell:csutil.obj
 0004:00000ab0       $pdata$10$?get_captype@@YAHPEADHPEAUcs_info@@@Z 0000000180076ab0     hunspell:csutil.obj
 0004:00000abc       $pdata$?get_captype_utf8@@YAHPEAUw_char@@HH@Z 0000000180076abc     hunspell:csutil.obj
 0004:00000ac8       $pdata$2$?get_captype_utf8@@YAHPEAUw_char@@HH@Z 0000000180076ac8     hunspell:csutil.obj
 0004:00000ad4       $pdata$3$?get_captype_utf8@@YAHPEAUw_char@@HH@Z 0000000180076ad4     hunspell:csutil.obj
 0004:00000ae0       $pdata$4$?get_captype_utf8@@YAHPEAUw_char@@HH@Z 0000000180076ae0     hunspell:csutil.obj
 0004:00000aec       $pdata$5$?get_captype_utf8@@YAHPEAUw_char@@HH@Z 0000000180076aec     hunspell:csutil.obj
 0004:00000af8       $pdata$?remove_ignored_chars_utf@@YAXPEADQEAGH@Z 0000000180076af8     hunspell:csutil.obj
 0004:00000b04       $pdata$0$?remove_ignored_chars_utf@@YAXPEADQEAGH@Z 0000000180076b04     hunspell:csutil.obj
 0004:00000b10       $pdata$1$?remove_ignored_chars_utf@@YAXPEADQEAGH@Z 0000000180076b10     hunspell:csutil.obj
 0004:00000b1c       $pdata$?remove_ignored_chars@@YAXPEAD0@Z 0000000180076b1c     hunspell:csutil.obj
 0004:00000b28       $pdata$?parse_string@@YAHPEADPEAPEADH@Z 0000000180076b28     hunspell:csutil.obj
 0004:00000b34       $pdata$?parse_array@@YAHPEADPEAPEADPEAPEAGPEAHHH@Z 0000000180076b34     hunspell:csutil.obj
 0004:00000b40       $pdata$0$?parse_array@@YAHPEADPEAPEADPEAPEAGPEAHHH@Z 0000000180076b40     hunspell:csutil.obj
 0004:00000b4c       $pdata$1$?parse_array@@YAHPEADPEAPEADPEAPEAGPEAHHH@Z 0000000180076b4c     hunspell:csutil.obj
 0004:00000b58       $pdata$??0HashMgr@@QEAA@PEBD00@Z 0000000180076b58     hunspell:hashmgr.obj
 0004:00000b64       $pdata$??1HashMgr@@QEAA@XZ 0000000180076b64     hunspell:hashmgr.obj
 0004:00000b70       $pdata$3$??1HashMgr@@QEAA@XZ 0000000180076b70     hunspell:hashmgr.obj
 0004:00000b7c       $pdata$4$??1HashMgr@@QEAA@XZ 0000000180076b7c     hunspell:hashmgr.obj
 0004:00000b88       $pdata$6$??1HashMgr@@QEAA@XZ 0000000180076b88     hunspell:hashmgr.obj
 0004:00000b94       $pdata$7$??1HashMgr@@QEAA@XZ 0000000180076b94     hunspell:hashmgr.obj
 0004:00000ba0       $pdata$8$??1HashMgr@@QEAA@XZ 0000000180076ba0     hunspell:hashmgr.obj
 0004:00000bac       $pdata$9$??1HashMgr@@QEAA@XZ 0000000180076bac     hunspell:hashmgr.obj
 0004:00000bb8       $pdata$10$??1HashMgr@@QEAA@XZ 0000000180076bb8     hunspell:hashmgr.obj
 0004:00000bc4       $pdata$11$??1HashMgr@@QEAA@XZ 0000000180076bc4     hunspell:hashmgr.obj
 0004:00000bd0       $pdata$?lookup@HashMgr@@QEBAPEAUhentry@@PEBD@Z 0000000180076bd0     hunspell:hashmgr.obj
 0004:00000bdc       $pdata$?add_word@HashMgr@@AEAAHPEBDHHPEAGH0_N@Z 0000000180076bdc     hunspell:hashmgr.obj
 0004:00000be8       $pdata$?add_hidden_capitalized_word@HashMgr@@AEAAHPEADHHPEAGH0H@Z 0000000180076be8     hunspell:hashmgr.obj
 0004:00000bf4       $pdata$1$?add_hidden_capitalized_word@HashMgr@@AEAAHPEADHHPEAGH0H@Z 0000000180076bf4     hunspell:hashmgr.obj
 0004:00000c00       $pdata$2$?add_hidden_capitalized_word@HashMgr@@AEAAHPEADHHPEAGH0H@Z 0000000180076c00     hunspell:hashmgr.obj
 0004:00000c0c       $pdata$?get_clen_and_captype@HashMgr@@AEAAHPEBDHPEAH@Z 0000000180076c0c     hunspell:hashmgr.obj
 0004:00000c18       $pdata$?remove_forbidden_flag@HashMgr@@AEAAHPEBD@Z 0000000180076c18     hunspell:hashmgr.obj
 0004:00000c24       $pdata$1$?remove_forbidden_flag@HashMgr@@AEAAHPEBD@Z 0000000180076c24     hunspell:hashmgr.obj
 0004:00000c30       $pdata$3$?remove_forbidden_flag@HashMgr@@AEAAHPEBD@Z 0000000180076c30     hunspell:hashmgr.obj
 0004:00000c3c       $pdata$?add@HashMgr@@QEAAHPEBD@Z 0000000180076c3c     hunspell:hashmgr.obj
 0004:00000c48       $pdata$2$?add@HashMgr@@QEAAHPEBD@Z 0000000180076c48     hunspell:hashmgr.obj
 0004:00000c54       $pdata$3$?add@HashMgr@@QEAAHPEBD@Z 0000000180076c54     hunspell:hashmgr.obj
 0004:00000c60       $pdata$?load_tables@HashMgr@@AEAAHPEBD0@Z 0000000180076c60     hunspell:hashmgr.obj
 0004:00000c6c       $pdata$4$?load_tables@HashMgr@@AEAAHPEBD0@Z 0000000180076c6c     hunspell:hashmgr.obj
 0004:00000c78       $pdata$??_GFileMgr@@QEAAPEAXI@Z 0000000180076c78     hunspell:hashmgr.obj
 0004:00000c84       $pdata$?decode_flags@HashMgr@@QEAAHPEAPEAGPEADPEAVFileMgr@@@Z 0000000180076c84     hunspell:hashmgr.obj
 0004:00000c90       $pdata$2$?decode_flags@HashMgr@@QEAAHPEAPEAGPEADPEAVFileMgr@@@Z 0000000180076c90     hunspell:hashmgr.obj
 0004:00000c9c       $pdata$3$?decode_flags@HashMgr@@QEAAHPEAPEAGPEADPEAVFileMgr@@@Z 0000000180076c9c     hunspell:hashmgr.obj
 0004:00000ca8       $pdata$?decode_flag@HashMgr@@QEAAGPEBD@Z 0000000180076ca8     hunspell:hashmgr.obj
 0004:00000cb4       $pdata$?encode_flag@HashMgr@@QEAAPEADG@Z 0000000180076cb4     hunspell:hashmgr.obj
 0004:00000cc0       $pdata$?load_config@HashMgr@@AEAAHPEBD0@Z 0000000180076cc0     hunspell:hashmgr.obj
 0004:00000ccc       $pdata$?parse_aliasf@HashMgr@@AEAAHPEADPEAVFileMgr@@@Z 0000000180076ccc     hunspell:hashmgr.obj
 0004:00000cd8       $pdata$3$?parse_aliasf@HashMgr@@AEAAHPEADPEAVFileMgr@@@Z 0000000180076cd8     hunspell:hashmgr.obj
 0004:00000ce4       $pdata$5$?parse_aliasf@HashMgr@@AEAAHPEADPEAVFileMgr@@@Z 0000000180076ce4     hunspell:hashmgr.obj
 0004:00000cf0       $pdata$6$?parse_aliasf@HashMgr@@AEAAHPEADPEAVFileMgr@@@Z 0000000180076cf0     hunspell:hashmgr.obj
 0004:00000cfc       $pdata$8$?parse_aliasf@HashMgr@@AEAAHPEADPEAVFileMgr@@@Z 0000000180076cfc     hunspell:hashmgr.obj
 0004:00000d08       $pdata$9$?parse_aliasf@HashMgr@@AEAAHPEADPEAVFileMgr@@@Z 0000000180076d08     hunspell:hashmgr.obj
 0004:00000d14       $pdata$?get_aliasf@HashMgr@@QEAAHHPEAPEAGPEAVFileMgr@@@Z 0000000180076d14     hunspell:hashmgr.obj
 0004:00000d20       $pdata$?parse_aliasm@HashMgr@@AEAAHPEADPEAVFileMgr@@@Z 0000000180076d20     hunspell:hashmgr.obj
 0004:00000d2c       $pdata$3$?parse_aliasm@HashMgr@@AEAAHPEADPEAVFileMgr@@@Z 0000000180076d2c     hunspell:hashmgr.obj
 0004:00000d38       $pdata$5$?parse_aliasm@HashMgr@@AEAAHPEADPEAVFileMgr@@@Z 0000000180076d38     hunspell:hashmgr.obj
 0004:00000d44       $pdata$6$?parse_aliasm@HashMgr@@AEAAHPEADPEAVFileMgr@@@Z 0000000180076d44     hunspell:hashmgr.obj
 0004:00000d50       $pdata$8$?parse_aliasm@HashMgr@@AEAAHPEADPEAVFileMgr@@@Z 0000000180076d50     hunspell:hashmgr.obj
 0004:00000d5c       $pdata$9$?parse_aliasm@HashMgr@@AEAAHPEADPEAVFileMgr@@@Z 0000000180076d5c     hunspell:hashmgr.obj
 0004:00000d68       $pdata$?add@RepList@@QEAAHPEAD0@Z 0000000180076d68     hunspell:replist.obj
 0004:00000d74       $pdata$0$?add@RepList@@QEAAHPEAD0@Z 0000000180076d74     hunspell:replist.obj
 0004:00000d80       $pdata$2$?add@RepList@@QEAAHPEAD0@Z 0000000180076d80     hunspell:replist.obj
 0004:00000d8c       $pdata$3$?add@RepList@@QEAAHPEAD0@Z 0000000180076d8c     hunspell:replist.obj
 0004:00000d98       $pdata$?conv@RepList@@QEAAHPEBDPEAD@Z 0000000180076d98     hunspell:replist.obj
 0004:00000da4       $pdata$1$?conv@RepList@@QEAAHPEBDPEAD@Z 0000000180076da4     hunspell:replist.obj
 0004:00000db0       $pdata$2$?conv@RepList@@QEAAHPEBDPEAD@Z 0000000180076db0     hunspell:replist.obj
 0004:00000dbc       $pdata$??0SuggestMgr@@QEAA@PEBDHPEAVAffixMgr@@@Z 0000000180076dbc     hunspell:suggestmgr.obj
 0004:00000dc8       $pdata$0$??0SuggestMgr@@QEAA@PEBDHPEAVAffixMgr@@@Z 0000000180076dc8     hunspell:suggestmgr.obj
 0004:00000dd4       $pdata$1$??0SuggestMgr@@QEAA@PEBDHPEAVAffixMgr@@@Z 0000000180076dd4     hunspell:suggestmgr.obj
 0004:00000de0       $pdata$?testsug@SuggestMgr@@AEAAHPEAPEADPEBDHHHPEAHPEAJ@Z 0000000180076de0     hunspell:suggestmgr.obj
 0004:00000dec       $pdata$?suggest@SuggestMgr@@QEAAHPEAPEAPEADPEBDHPEAH@Z 0000000180076dec     hunspell:suggestmgr.obj
 0004:00000df8       $pdata$?capchars_utf@SuggestMgr@@AEAAHPEAPEADPEBUw_char@@HHH@Z 0000000180076df8     hunspell:suggestmgr.obj
 0004:00000e04       $pdata$?capchars@SuggestMgr@@AEAAHPEAPEADPEBDHH@Z 0000000180076e04     hunspell:suggestmgr.obj
 0004:00000e10       $pdata$?mapchars@SuggestMgr@@AEAAHPEAPEADPEBDHH@Z 0000000180076e10     hunspell:suggestmgr.obj
 0004:00000e1c       $pdata$1$?mapchars@SuggestMgr@@AEAAHPEAPEADPEBDHH@Z 0000000180076e1c     hunspell:suggestmgr.obj
 0004:00000e28       $pdata$2$?mapchars@SuggestMgr@@AEAAHPEAPEADPEBDHH@Z 0000000180076e28     hunspell:suggestmgr.obj
 0004:00000e34       $pdata$3$?mapchars@SuggestMgr@@AEAAHPEAPEADPEBDHH@Z 0000000180076e34     hunspell:suggestmgr.obj
 0004:00000e40       $pdata$4$?mapchars@SuggestMgr@@AEAAHPEAPEADPEBDHH@Z 0000000180076e40     hunspell:suggestmgr.obj
 0004:00000e4c       $pdata$?map_related@SuggestMgr@@AEAAHPEBDPEADHHPEAPEADHHPEBUmapentry@@HPEAHPEAJ@Z 0000000180076e4c     hunspell:suggestmgr.obj
 0004:00000e58       $pdata$?replchars@SuggestMgr@@AEAAHPEAPEADPEBDHH@Z 0000000180076e58     hunspell:suggestmgr.obj
 0004:00000e64       $pdata$3$?replchars@SuggestMgr@@AEAAHPEAPEADPEBDHH@Z 0000000180076e64     hunspell:suggestmgr.obj
 0004:00000e70       $pdata$4$?replchars@SuggestMgr@@AEAAHPEAPEADPEBDHH@Z 0000000180076e70     hunspell:suggestmgr.obj
 0004:00000e7c       $pdata$5$?replchars@SuggestMgr@@AEAAHPEAPEADPEBDHH@Z 0000000180076e7c     hunspell:suggestmgr.obj
 0004:00000e88       $pdata$6$?replchars@SuggestMgr@@AEAAHPEAPEADPEBDHH@Z 0000000180076e88     hunspell:suggestmgr.obj
 0004:00000e94       $pdata$?doubletwochars@SuggestMgr@@AEAAHPEAPEADPEBDHH@Z 0000000180076e94     hunspell:suggestmgr.obj
 0004:00000ea0       $pdata$3$?doubletwochars@SuggestMgr@@AEAAHPEAPEADPEBDHH@Z 0000000180076ea0     hunspell:suggestmgr.obj
 0004:00000eac       $pdata$4$?doubletwochars@SuggestMgr@@AEAAHPEAPEADPEBDHH@Z 0000000180076eac     hunspell:suggestmgr.obj
 0004:00000eb8       $pdata$5$?doubletwochars@SuggestMgr@@AEAAHPEAPEADPEBDHH@Z 0000000180076eb8     hunspell:suggestmgr.obj
 0004:00000ec4       $pdata$6$?doubletwochars@SuggestMgr@@AEAAHPEAPEADPEBDHH@Z 0000000180076ec4     hunspell:suggestmgr.obj
 0004:00000ed0       $pdata$?doubletwochars_utf@SuggestMgr@@AEAAHPEAPEADPEBUw_char@@HHH@Z 0000000180076ed0     hunspell:suggestmgr.obj
 0004:00000edc       $pdata$5$?doubletwochars_utf@SuggestMgr@@AEAAHPEAPEADPEBUw_char@@HHH@Z 0000000180076edc     hunspell:suggestmgr.obj
 0004:00000ee8       $pdata$6$?doubletwochars_utf@SuggestMgr@@AEAAHPEAPEADPEBUw_char@@HHH@Z 0000000180076ee8     hunspell:suggestmgr.obj
 0004:00000ef4       $pdata$7$?doubletwochars_utf@SuggestMgr@@AEAAHPEAPEADPEBUw_char@@HHH@Z 0000000180076ef4     hunspell:suggestmgr.obj
 0004:00000f00       $pdata$?badcharkey@SuggestMgr@@AEAAHPEAPEADPEBDHH@Z 0000000180076f00     hunspell:suggestmgr.obj
 0004:00000f0c       $pdata$?badcharkey_utf@SuggestMgr@@AEAAHPEAPEADPEBUw_char@@HHH@Z 0000000180076f0c     hunspell:suggestmgr.obj
 0004:00000f18       $pdata$?badchar@SuggestMgr@@AEAAHPEAPEADPEBDHH@Z 0000000180076f18     hunspell:suggestmgr.obj
 0004:00000f24       $pdata$?badchar_utf@SuggestMgr@@AEAAHPEAPEADPEBUw_char@@HHH@Z 0000000180076f24     hunspell:suggestmgr.obj
 0004:00000f30       $pdata$?extrachar_utf@SuggestMgr@@AEAAHPEAPEADPEBUw_char@@HHH@Z 0000000180076f30     hunspell:suggestmgr.obj
 0004:00000f3c       $pdata$3$?extrachar_utf@SuggestMgr@@AEAAHPEAPEADPEBUw_char@@HHH@Z 0000000180076f3c     hunspell:suggestmgr.obj
 0004:00000f48       $pdata$4$?extrachar_utf@SuggestMgr@@AEAAHPEAPEADPEBUw_char@@HHH@Z 0000000180076f48     hunspell:suggestmgr.obj
 0004:00000f54       $pdata$?extrachar@SuggestMgr@@AEAAHPEAPEADPEBDHH@Z 0000000180076f54     hunspell:suggestmgr.obj
 0004:00000f60       $pdata$4$?extrachar@SuggestMgr@@AEAAHPEAPEADPEBDHH@Z 0000000180076f60     hunspell:suggestmgr.obj
 0004:00000f6c       $pdata$5$?extrachar@SuggestMgr@@AEAAHPEAPEADPEBDHH@Z 0000000180076f6c     hunspell:suggestmgr.obj
 0004:00000f78       $pdata$6$?extrachar@SuggestMgr@@AEAAHPEAPEADPEBDHH@Z 0000000180076f78     hunspell:suggestmgr.obj
 0004:00000f84       $pdata$?forgotchar@SuggestMgr@@AEAAHPEAPEADPEBDHH@Z 0000000180076f84     hunspell:suggestmgr.obj
 0004:00000f90       $pdata$?forgotchar_utf@SuggestMgr@@AEAAHPEAPEADPEBUw_char@@HHH@Z 0000000180076f90     hunspell:suggestmgr.obj
 0004:00000f9c       $pdata$?twowords@SuggestMgr@@AEAAHPEAPEADPEBDHH@Z 0000000180076f9c     hunspell:suggestmgr.obj
 0004:00000fa8       $pdata$3$?twowords@SuggestMgr@@AEAAHPEAPEADPEBDHH@Z 0000000180076fa8     hunspell:suggestmgr.obj
 0004:00000fb4       $pdata$4$?twowords@SuggestMgr@@AEAAHPEAPEADPEBDHH@Z 0000000180076fb4     hunspell:suggestmgr.obj
 0004:00000fc0       $pdata$5$?twowords@SuggestMgr@@AEAAHPEAPEADPEBDHH@Z 0000000180076fc0     hunspell:suggestmgr.obj
 0004:00000fcc       $pdata$?swapchar@SuggestMgr@@AEAAHPEAPEADPEBDHH@Z 0000000180076fcc     hunspell:suggestmgr.obj
 0004:00000fd8       $pdata$?swapchar_utf@SuggestMgr@@AEAAHPEAPEADPEBUw_char@@HHH@Z 0000000180076fd8     hunspell:suggestmgr.obj
 0004:00000fe4       $pdata$?longswapchar@SuggestMgr@@AEAAHPEAPEADPEBDHH@Z 0000000180076fe4     hunspell:suggestmgr.obj
 0004:00000ff0       $pdata$?longswapchar_utf@SuggestMgr@@AEAAHPEAPEADPEBUw_char@@HHH@Z 0000000180076ff0     hunspell:suggestmgr.obj
 0004:00000ffc       $pdata$?movechar@SuggestMgr@@AEAAHPEAPEADPEBDHH@Z 0000000180076ffc     hunspell:suggestmgr.obj
 0004:00001008       $pdata$?movechar_utf@SuggestMgr@@AEAAHPEAPEADPEBUw_char@@HHH@Z 0000000180077008     hunspell:suggestmgr.obj
 0004:00001014       $pdata$?ngsuggest@SuggestMgr@@QEAAHPEAPEADPEADHPEAPEAVHashMgr@@H@Z 0000000180077014     hunspell:suggestmgr.obj
 0004:00001020       $pdata$0$?ngsuggest@SuggestMgr@@QEAAHPEAPEADPEADHPEAPEAVHashMgr@@H@Z 0000000180077020     hunspell:suggestmgr.obj
 0004:0000102c       $pdata$1$?ngsuggest@SuggestMgr@@QEAAHPEAPEADPEADHPEAPEAVHashMgr@@H@Z 000000018007702c     hunspell:suggestmgr.obj
 0004:00001038       $pdata$2$?ngsuggest@SuggestMgr@@QEAAHPEAPEADPEADHPEAPEAVHashMgr@@H@Z 0000000180077038     hunspell:suggestmgr.obj
 0004:00001044       $pdata$?checkword@SuggestMgr@@AEAAHPEBDHHPEAHPEAJ@Z 0000000180077044     hunspell:suggestmgr.obj
 0004:00001050       $pdata$0$?checkword@SuggestMgr@@AEAAHPEBDHHPEAHPEAJ@Z 0000000180077050     hunspell:suggestmgr.obj
 0004:0000105c       $pdata$1$?checkword@SuggestMgr@@AEAAHPEBDHHPEAHPEAJ@Z 000000018007705c     hunspell:suggestmgr.obj
 0004:00001068       $pdata$?check_forbidden@SuggestMgr@@AEAAHPEBDH@Z 0000000180077068     hunspell:suggestmgr.obj
 0004:00001074       $pdata$0$?check_forbidden@SuggestMgr@@AEAAHPEBDH@Z 0000000180077074     hunspell:suggestmgr.obj
 0004:00001080       $pdata$1$?check_forbidden@SuggestMgr@@AEAAHPEBDH@Z 0000000180077080     hunspell:suggestmgr.obj
 0004:0000108c       $pdata$?suggest_morph@SuggestMgr@@QEAAPEADPEBD@Z 000000018007708c     hunspell:suggestmgr.obj
 0004:00001098       $pdata$2$?suggest_morph@SuggestMgr@@QEAAPEADPEBD@Z 0000000180077098     hunspell:suggestmgr.obj
 0004:000010a4       $pdata$4$?suggest_morph@SuggestMgr@@QEAAPEADPEBD@Z 00000001800770a4     hunspell:suggestmgr.obj
 0004:000010b0       $pdata$5$?suggest_morph@SuggestMgr@@QEAAPEADPEBD@Z 00000001800770b0     hunspell:suggestmgr.obj
 0004:000010bc       $pdata$6$?suggest_morph@SuggestMgr@@QEAAPEADPEBD@Z 00000001800770bc     hunspell:suggestmgr.obj
 0004:000010c8       $pdata$7$?suggest_morph@SuggestMgr@@QEAAPEADPEBD@Z 00000001800770c8     hunspell:suggestmgr.obj
 0004:000010d4       $pdata$?suggest_hentry_gen@SuggestMgr@@AEAAPEADPEAUhentry@@PEAD@Z 00000001800770d4     hunspell:suggestmgr.obj
 0004:000010e0       $pdata$0$?suggest_hentry_gen@SuggestMgr@@AEAAPEADPEAUhentry@@PEAD@Z 00000001800770e0     hunspell:suggestmgr.obj
 0004:000010ec       $pdata$2$?suggest_hentry_gen@SuggestMgr@@AEAAPEADPEAUhentry@@PEAD@Z 00000001800770ec     hunspell:suggestmgr.obj
 0004:000010f8       $pdata$3$?suggest_hentry_gen@SuggestMgr@@AEAAPEADPEAUhentry@@PEAD@Z 00000001800770f8     hunspell:suggestmgr.obj
 0004:00001104       $pdata$4$?suggest_hentry_gen@SuggestMgr@@AEAAPEADPEAUhentry@@PEAD@Z 0000000180077104     hunspell:suggestmgr.obj
 0004:00001110       $pdata$?suggest_gen@SuggestMgr@@QEAAPEADPEAPEADHPEAD@Z 0000000180077110     hunspell:suggestmgr.obj
 0004:0000111c       $pdata$5$?suggest_gen@SuggestMgr@@QEAAPEADPEAPEADHPEAD@Z 000000018007711c     hunspell:suggestmgr.obj
 0004:00001128       $pdata$6$?suggest_gen@SuggestMgr@@QEAAPEADPEAPEADHPEAD@Z 0000000180077128     hunspell:suggestmgr.obj
 0004:00001134       $pdata$?ngram@SuggestMgr@@AEAAHHPEADPEBDH@Z 0000000180077134     hunspell:suggestmgr.obj
 0004:00001140       $pdata$?leftcommonsubstring@SuggestMgr@@AEAAHPEADPEBD@Z 0000000180077140     hunspell:suggestmgr.obj
 0004:0000114c       $pdata$?commoncharacterpositions@SuggestMgr@@AEAAHPEADPEBDPEAH@Z 000000018007714c     hunspell:suggestmgr.obj
 0004:00001158       $pdata$?lcs@SuggestMgr@@AEAAXPEBD0PEAH1PEAPEAD@Z 0000000180077158     hunspell:suggestmgr.obj
 0004:00001164       $pdata$0$?lcs@SuggestMgr@@AEAAXPEBD0PEAH1PEAPEAD@Z 0000000180077164     hunspell:suggestmgr.obj
 0004:00001170       $pdata$1$?lcs@SuggestMgr@@AEAAXPEBD0PEAH1PEAPEAD@Z 0000000180077170     hunspell:suggestmgr.obj
 0004:0000117c       $pdata$??0AffixMgr@@QEAA@PEBDPEAPEAVHashMgr@@PEAH0@Z 000000018007717c     hunspell:affixmgr.obj
 0004:00001188       $pdata$??1AffixMgr@@QEAA@XZ 0000000180077188     hunspell:affixmgr.obj
 0004:00001194       $pdata$??_GRepList@@QEAAPEAXI@Z 0000000180077194     hunspell:affixmgr.obj
 0004:000011a0       $pdata$0$??_GRepList@@QEAAPEAXI@Z 00000001800771a0     hunspell:affixmgr.obj
 0004:000011ac       $pdata$1$??_GRepList@@QEAAPEAXI@Z 00000001800771ac     hunspell:affixmgr.obj
 0004:000011b8       $pdata$?parse_file@AffixMgr@@AEAAHPEBD0@Z 00000001800771b8     hunspell:affixmgr.obj
 0004:000011c4       $pdata$2$?parse_file@AffixMgr@@AEAAHPEBD0@Z 00000001800771c4     hunspell:affixmgr.obj
 0004:000011d0       $pdata$3$?parse_file@AffixMgr@@AEAAHPEBD0@Z 00000001800771d0     hunspell:affixmgr.obj
 0004:000011dc       $pdata$?build_pfxtree@AffixMgr@@AEAAHPEAVPfxEntry@@@Z 00000001800771dc     hunspell:affixmgr.obj
 0004:000011e8       $pdata$0$?build_pfxtree@AffixMgr@@AEAAHPEAVPfxEntry@@@Z 00000001800771e8     hunspell:affixmgr.obj
 0004:000011f4       $pdata$2$?build_pfxtree@AffixMgr@@AEAAHPEAVPfxEntry@@@Z 00000001800771f4     hunspell:affixmgr.obj
 0004:00001200       $pdata$?build_sfxtree@AffixMgr@@AEAAHPEAVSfxEntry@@@Z 0000000180077200     hunspell:affixmgr.obj
 0004:0000120c       $pdata$0$?build_sfxtree@AffixMgr@@AEAAHPEAVSfxEntry@@@Z 000000018007720c     hunspell:affixmgr.obj
 0004:00001218       $pdata$2$?build_sfxtree@AffixMgr@@AEAAHPEAVSfxEntry@@@Z 0000000180077218     hunspell:affixmgr.obj
 0004:00001224       $pdata$?process_pfx_tree_to_list@AffixMgr@@AEAAHXZ 0000000180077224     hunspell:affixmgr.obj
 0004:00001230       $pdata$?process_pfx_in_order@AffixMgr@@AEAAPEAVPfxEntry@@PEAV2@0@Z 0000000180077230     hunspell:affixmgr.obj
 0004:0000123c       $pdata$?process_sfx_tree_to_list@AffixMgr@@AEAAHXZ 000000018007723c     hunspell:affixmgr.obj
 0004:00001248       $pdata$?process_sfx_in_order@AffixMgr@@AEAAPEAVSfxEntry@@PEAV2@0@Z 0000000180077248     hunspell:affixmgr.obj
 0004:00001254       $pdata$?process_pfx_order@AffixMgr@@AEAAHXZ 0000000180077254     hunspell:affixmgr.obj
 0004:00001260       $pdata$?process_sfx_order@AffixMgr@@AEAAHXZ 0000000180077260     hunspell:affixmgr.obj
 0004:0000126c       $pdata$?debugflag@AffixMgr@@AEAAXPEADG@Z 000000018007726c     hunspell:affixmgr.obj
 0004:00001278       $pdata$?encodeit@AffixMgr@@AEAAHAEAUaffentry@@PEAD@Z 0000000180077278     hunspell:affixmgr.obj
 0004:00001284       $pdata$?prefix_check@AffixMgr@@QEAAPEAUhentry@@PEBDHDG@Z 0000000180077284     hunspell:affixmgr.obj
 0004:00001290       $pdata$?prefix_check_twosfx@AffixMgr@@QEAAPEAUhentry@@PEBDHDG@Z 0000000180077290     hunspell:affixmgr.obj
 0004:0000129c       $pdata$?prefix_check_morph@AffixMgr@@QEAAPEADPEBDHDG@Z 000000018007729c     hunspell:affixmgr.obj
 0004:000012a8       $pdata$2$?prefix_check_morph@AffixMgr@@QEAAPEADPEBDHDG@Z 00000001800772a8     hunspell:affixmgr.obj
 0004:000012b4       $pdata$3$?prefix_check_morph@AffixMgr@@QEAAPEADPEBDHDG@Z 00000001800772b4     hunspell:affixmgr.obj
 0004:000012c0       $pdata$4$?prefix_check_morph@AffixMgr@@QEAAPEADPEBDHDG@Z 00000001800772c0     hunspell:affixmgr.obj
 0004:000012cc       $pdata$5$?prefix_check_morph@AffixMgr@@QEAAPEADPEBDHDG@Z 00000001800772cc     hunspell:affixmgr.obj
 0004:000012d8       $pdata$?prefix_check_twosfx_morph@AffixMgr@@QEAAPEADPEBDHDG@Z 00000001800772d8     hunspell:affixmgr.obj
 0004:000012e4       $pdata$?cpdrep_check@AffixMgr@@QEAAHPEBDH@Z 00000001800772e4     hunspell:affixmgr.obj
 0004:000012f0       $pdata$5$?cpdrep_check@AffixMgr@@QEAAHPEBDH@Z 00000001800772f0     hunspell:affixmgr.obj
 0004:000012fc       $pdata$6$?cpdrep_check@AffixMgr@@QEAAHPEBDH@Z 00000001800772fc     hunspell:affixmgr.obj
 0004:00001308       $pdata$7$?cpdrep_check@AffixMgr@@QEAAHPEBDH@Z 0000000180077308     hunspell:affixmgr.obj
 0004:00001314       $pdata$8$?cpdrep_check@AffixMgr@@QEAAHPEBDH@Z 0000000180077314     hunspell:affixmgr.obj
 0004:00001320       $pdata$?cpdpat_check@AffixMgr@@QEAAHPEBDHPEAUhentry@@1D@Z 0000000180077320     hunspell:affixmgr.obj
 0004:0000132c       $pdata$?cpdcase_check@AffixMgr@@QEAAHPEBDH@Z 000000018007732c     hunspell:affixmgr.obj
 0004:00001338       $pdata$0$?cpdcase_check@AffixMgr@@QEAAHPEBDH@Z 0000000180077338     hunspell:affixmgr.obj
 0004:00001344       $pdata$1$?cpdcase_check@AffixMgr@@QEAAHPEBDH@Z 0000000180077344     hunspell:affixmgr.obj
 0004:00001350       $pdata$?defcpd_check@AffixMgr@@QEAAHPEAPEAPEAUhentry@@FPEAU2@PEAPEAU2@D@Z 0000000180077350     hunspell:affixmgr.obj
 0004:0000135c       $pdata$0$?defcpd_check@AffixMgr@@QEAAHPEAPEAPEAUhentry@@FPEAU2@PEAPEAU2@D@Z 000000018007735c     hunspell:affixmgr.obj
 0004:00001368       $pdata$6$?defcpd_check@AffixMgr@@QEAAHPEAPEAPEAUhentry@@FPEAU2@PEAPEAU2@D@Z 0000000180077368     hunspell:affixmgr.obj
 0004:00001374       $pdata$7$?defcpd_check@AffixMgr@@QEAAHPEAPEAPEAUhentry@@FPEAU2@PEAPEAU2@D@Z 0000000180077374     hunspell:affixmgr.obj
 0004:00001380       $pdata$8$?defcpd_check@AffixMgr@@QEAAHPEAPEAPEAUhentry@@FPEAU2@PEAPEAU2@D@Z 0000000180077380     hunspell:affixmgr.obj
 0004:0000138c       $pdata$?get_syllable@AffixMgr@@QEAAFPEBDH@Z 000000018007738c     hunspell:affixmgr.obj
 0004:00001398       $pdata$1$?get_syllable@AffixMgr@@QEAAFPEBDH@Z 0000000180077398     hunspell:affixmgr.obj
 0004:000013a4       $pdata$2$?get_syllable@AffixMgr@@QEAAFPEBDH@Z 00000001800773a4     hunspell:affixmgr.obj
 0004:000013b0       $pdata$3$?get_syllable@AffixMgr@@QEAAFPEBDH@Z 00000001800773b0     hunspell:affixmgr.obj
 0004:000013bc       $pdata$?compound_check@AffixMgr@@QEAAPEAUhentry@@PEBDHFFFFPEAPEAU2@DDPEAH@Z 00000001800773bc     hunspell:affixmgr.obj
 0004:000013c8       $pdata$?compound_check_morph@AffixMgr@@QEAAHPEBDHFFFFPEAPEAUhentry@@DPEAPEADPEAD@Z 00000001800773c8     hunspell:affixmgr.obj
 0004:000013d4       $pdata$?suffix_check@AffixMgr@@QEAAPEAUhentry@@PEBDHHPEAVPfxEntry@@PEAPEADHPEAHGGD@Z 00000001800773d4     hunspell:affixmgr.obj
 0004:000013e0       $pdata$?suffix_check_twosfx@AffixMgr@@QEAAPEAUhentry@@PEBDHHPEAVPfxEntry@@G@Z 00000001800773e0     hunspell:affixmgr.obj
 0004:000013ec       $pdata$0$?suffix_check_twosfx@AffixMgr@@QEAAPEAUhentry@@PEBDHHPEAVPfxEntry@@G@Z 00000001800773ec     hunspell:affixmgr.obj
 0004:000013f8       $pdata$1$?suffix_check_twosfx@AffixMgr@@QEAAPEAUhentry@@PEBDHHPEAVPfxEntry@@G@Z 00000001800773f8     hunspell:affixmgr.obj
 0004:00001404       $pdata$2$?suffix_check_twosfx@AffixMgr@@QEAAPEAUhentry@@PEBDHHPEAVPfxEntry@@G@Z 0000000180077404     hunspell:affixmgr.obj
 0004:00001410       $pdata$?suffix_check_twosfx_morph@AffixMgr@@QEAAPEADPEBDHHPEAVPfxEntry@@G@Z 0000000180077410     hunspell:affixmgr.obj
 0004:0000141c       $pdata$0$?suffix_check_twosfx_morph@AffixMgr@@QEAAPEADPEBDHHPEAVPfxEntry@@G@Z 000000018007741c     hunspell:affixmgr.obj
 0004:00001428       $pdata$1$?suffix_check_twosfx_morph@AffixMgr@@QEAAPEADPEBDHHPEAVPfxEntry@@G@Z 0000000180077428     hunspell:affixmgr.obj
 0004:00001434       $pdata$?suffix_check_morph@AffixMgr@@QEAAPEADPEBDHHPEAVPfxEntry@@GGD@Z 0000000180077434     hunspell:affixmgr.obj
 0004:00001440       $pdata$?affix_check@AffixMgr@@QEAAPEAUhentry@@PEBDHGD@Z 0000000180077440     hunspell:affixmgr.obj
 0004:0000144c       $pdata$0$?affix_check@AffixMgr@@QEAAPEAUhentry@@PEBDHGD@Z 000000018007744c     hunspell:affixmgr.obj
 0004:00001458       $pdata$1$?affix_check@AffixMgr@@QEAAPEAUhentry@@PEBDHGD@Z 0000000180077458     hunspell:affixmgr.obj
 0004:00001464       $pdata$?affix_check_morph@AffixMgr@@QEAAPEADPEBDHGD@Z 0000000180077464     hunspell:affixmgr.obj
 0004:00001470       $pdata$?morphgen@AffixMgr@@QEAAPEADPEADHPEBGG00H@Z 0000000180077470     hunspell:affixmgr.obj
 0004:0000147c       $pdata$0$?morphgen@AffixMgr@@QEAAPEADPEADHPEBGG00H@Z 000000018007747c     hunspell:affixmgr.obj
 0004:00001488       $pdata$1$?morphgen@AffixMgr@@QEAAPEADPEADHPEBGG00H@Z 0000000180077488     hunspell:affixmgr.obj
 0004:00001494       $pdata$2$?morphgen@AffixMgr@@QEAAPEADPEADHPEBGG00H@Z 0000000180077494     hunspell:affixmgr.obj
 0004:000014a0       $pdata$?expand_rootword@AffixMgr@@QEAAHPEAUguessword@@HPEBDHPEBGGPEADH3@Z 00000001800774a0     hunspell:affixmgr.obj
 0004:000014ac       $pdata$0$?expand_rootword@AffixMgr@@QEAAHPEAUguessword@@HPEBDHPEBGGPEADH3@Z 00000001800774ac     hunspell:affixmgr.obj
 0004:000014b8       $pdata$1$?expand_rootword@AffixMgr@@QEAAHPEAUguessword@@HPEBDHPEBGGPEADH3@Z 00000001800774b8     hunspell:affixmgr.obj
 0004:000014c4       $pdata$?get_encoding@AffixMgr@@QEAAPEADXZ 00000001800774c4     hunspell:affixmgr.obj
 0004:000014d0       $pdata$0$?get_encoding@AffixMgr@@QEAAPEADXZ 00000001800774d0     hunspell:affixmgr.obj
 0004:000014dc       $pdata$1$?get_encoding@AffixMgr@@QEAAPEADXZ 00000001800774dc     hunspell:affixmgr.obj
 0004:000014e8       $pdata$?get_key_string@AffixMgr@@QEAAPEADXZ 00000001800774e8     hunspell:affixmgr.obj
 0004:000014f4       $pdata$0$?get_key_string@AffixMgr@@QEAAPEADXZ 00000001800774f4     hunspell:affixmgr.obj
 0004:00001500       $pdata$1$?get_key_string@AffixMgr@@QEAAPEADXZ 0000000180077500     hunspell:affixmgr.obj
 0004:0000150c       $pdata$?lookup@AffixMgr@@QEAAPEAUhentry@@PEBD@Z 000000018007750c     hunspell:affixmgr.obj
 0004:00001518       $pdata$1$?lookup@AffixMgr@@QEAAPEAUhentry@@PEBD@Z 0000000180077518     hunspell:affixmgr.obj
 0004:00001524       $pdata$2$?lookup@AffixMgr@@QEAAPEAUhentry@@PEBD@Z 0000000180077524     hunspell:affixmgr.obj
 0004:00001530       $pdata$?parse_flag@AffixMgr@@AEAAHPEADPEAGPEAVFileMgr@@@Z 0000000180077530     hunspell:affixmgr.obj
 0004:0000153c       $pdata$?parse_cpdsyllable@AffixMgr@@AEAAHPEADPEAVFileMgr@@@Z 000000018007753c     hunspell:affixmgr.obj
 0004:00001548       $pdata$?parse_reptable@AffixMgr@@AEAAHPEADPEAVFileMgr@@@Z 0000000180077548     hunspell:affixmgr.obj
 0004:00001554       $pdata$3$?parse_reptable@AffixMgr@@AEAAHPEADPEAVFileMgr@@@Z 0000000180077554     hunspell:affixmgr.obj
 0004:00001560       $pdata$4$?parse_reptable@AffixMgr@@AEAAHPEADPEAVFileMgr@@@Z 0000000180077560     hunspell:affixmgr.obj
 0004:0000156c       $pdata$5$?parse_reptable@AffixMgr@@AEAAHPEADPEAVFileMgr@@@Z 000000018007756c     hunspell:affixmgr.obj
 0004:00001578       $pdata$7$?parse_reptable@AffixMgr@@AEAAHPEADPEAVFileMgr@@@Z 0000000180077578     hunspell:affixmgr.obj
 0004:00001584       $pdata$8$?parse_reptable@AffixMgr@@AEAAHPEADPEAVFileMgr@@@Z 0000000180077584     hunspell:affixmgr.obj
 0004:00001590       $pdata$?parse_convtable@AffixMgr@@AEAAHPEADPEAVFileMgr@@PEAPEAVRepList@@PEBD@Z 0000000180077590     hunspell:affixmgr.obj
 0004:0000159c       $pdata$5$?parse_convtable@AffixMgr@@AEAAHPEADPEAVFileMgr@@PEAPEAVRepList@@PEBD@Z 000000018007759c     hunspell:affixmgr.obj
 0004:000015a8       $pdata$6$?parse_convtable@AffixMgr@@AEAAHPEADPEAVFileMgr@@PEAPEAVRepList@@PEBD@Z 00000001800775a8     hunspell:affixmgr.obj
 0004:000015b4       $pdata$7$?parse_convtable@AffixMgr@@AEAAHPEADPEAVFileMgr@@PEAPEAVRepList@@PEBD@Z 00000001800775b4     hunspell:affixmgr.obj
 0004:000015c0       $pdata$9$?parse_convtable@AffixMgr@@AEAAHPEADPEAVFileMgr@@PEAPEAVRepList@@PEBD@Z 00000001800775c0     hunspell:affixmgr.obj
 0004:000015cc       $pdata$10$?parse_convtable@AffixMgr@@AEAAHPEADPEAVFileMgr@@PEAPEAVRepList@@PEBD@Z 00000001800775cc     hunspell:affixmgr.obj
 0004:000015d8       $pdata$?parse_phonetable@AffixMgr@@AEAAHPEADPEAVFileMgr@@@Z 00000001800775d8     hunspell:affixmgr.obj
 0004:000015e4       $pdata$?parse_checkcpdtable@AffixMgr@@AEAAHPEADPEAVFileMgr@@@Z 00000001800775e4     hunspell:affixmgr.obj
 0004:000015f0       $pdata$3$?parse_checkcpdtable@AffixMgr@@AEAAHPEADPEAVFileMgr@@@Z 00000001800775f0     hunspell:affixmgr.obj
 0004:000015fc       $pdata$4$?parse_checkcpdtable@AffixMgr@@AEAAHPEADPEAVFileMgr@@@Z 00000001800775fc     hunspell:affixmgr.obj
 0004:00001608       $pdata$5$?parse_checkcpdtable@AffixMgr@@AEAAHPEADPEAVFileMgr@@@Z 0000000180077608     hunspell:affixmgr.obj
 0004:00001614       $pdata$7$?parse_checkcpdtable@AffixMgr@@AEAAHPEADPEAVFileMgr@@@Z 0000000180077614     hunspell:affixmgr.obj
 0004:00001620       $pdata$8$?parse_checkcpdtable@AffixMgr@@AEAAHPEADPEAVFileMgr@@@Z 0000000180077620     hunspell:affixmgr.obj
 0004:0000162c       $pdata$?parse_defcpdtable@AffixMgr@@AEAAHPEADPEAVFileMgr@@@Z 000000018007762c     hunspell:affixmgr.obj
 0004:00001638       $pdata$2$?parse_defcpdtable@AffixMgr@@AEAAHPEADPEAVFileMgr@@@Z 0000000180077638     hunspell:affixmgr.obj
 0004:00001644       $pdata$5$?parse_defcpdtable@AffixMgr@@AEAAHPEADPEAVFileMgr@@@Z 0000000180077644     hunspell:affixmgr.obj
 0004:00001650       $pdata$6$?parse_defcpdtable@AffixMgr@@AEAAHPEADPEAVFileMgr@@@Z 0000000180077650     hunspell:affixmgr.obj
 0004:0000165c       $pdata$8$?parse_defcpdtable@AffixMgr@@AEAAHPEADPEAVFileMgr@@@Z 000000018007765c     hunspell:affixmgr.obj
 0004:00001668       $pdata$9$?parse_defcpdtable@AffixMgr@@AEAAHPEADPEAVFileMgr@@@Z 0000000180077668     hunspell:affixmgr.obj
 0004:00001674       $pdata$?parse_maptable@AffixMgr@@AEAAHPEADPEAVFileMgr@@@Z 0000000180077674     hunspell:affixmgr.obj
 0004:00001680       $pdata$2$?parse_maptable@AffixMgr@@AEAAHPEADPEAVFileMgr@@@Z 0000000180077680     hunspell:affixmgr.obj
 0004:0000168c       $pdata$5$?parse_maptable@AffixMgr@@AEAAHPEADPEAVFileMgr@@@Z 000000018007768c     hunspell:affixmgr.obj
 0004:00001698       $pdata$6$?parse_maptable@AffixMgr@@AEAAHPEADPEAVFileMgr@@@Z 0000000180077698     hunspell:affixmgr.obj
 0004:000016a4       $pdata$8$?parse_maptable@AffixMgr@@AEAAHPEADPEAVFileMgr@@@Z 00000001800776a4     hunspell:affixmgr.obj
 0004:000016b0       $pdata$9$?parse_maptable@AffixMgr@@AEAAHPEADPEAVFileMgr@@@Z 00000001800776b0     hunspell:affixmgr.obj
 0004:000016bc       $pdata$?parse_breaktable@AffixMgr@@AEAAHPEADPEAVFileMgr@@@Z 00000001800776bc     hunspell:affixmgr.obj
 0004:000016c8       $pdata$2$?parse_breaktable@AffixMgr@@AEAAHPEADPEAVFileMgr@@@Z 00000001800776c8     hunspell:affixmgr.obj
 0004:000016d4       $pdata$3$?parse_breaktable@AffixMgr@@AEAAHPEADPEAVFileMgr@@@Z 00000001800776d4     hunspell:affixmgr.obj
 0004:000016e0       $pdata$4$?parse_breaktable@AffixMgr@@AEAAHPEADPEAVFileMgr@@@Z 00000001800776e0     hunspell:affixmgr.obj
 0004:000016ec       $pdata$6$?parse_breaktable@AffixMgr@@AEAAHPEADPEAVFileMgr@@@Z 00000001800776ec     hunspell:affixmgr.obj
 0004:000016f8       $pdata$7$?parse_breaktable@AffixMgr@@AEAAHPEADPEAVFileMgr@@@Z 00000001800776f8     hunspell:affixmgr.obj
 0004:00001704       $pdata$?parse_affix@AffixMgr@@AEAAHPEADDPEAVFileMgr@@0@Z 0000000180077704     hunspell:affixmgr.obj
 0004:00001710       $pdata$5$?parse_affix@AffixMgr@@AEAAHPEADDPEAVFileMgr@@0@Z 0000000180077710     hunspell:affixmgr.obj
 0004:0000171c       $pdata$6$?parse_affix@AffixMgr@@AEAAHPEADDPEAVFileMgr@@0@Z 000000018007771c     hunspell:affixmgr.obj
 0004:00001728       $pdata$?redundant_condition@AffixMgr@@AEAAHDPEADHPEBDH@Z 0000000180077728     hunspell:affixmgr.obj
 0004:00001734       $pdata$?resize@?$vector@Uaffentry@@V?$allocator@Uaffentry@@@std@@@std@@QEAAX_K@Z 0000000180077734     hunspell:affixmgr.obj
 0004:00001740       $pdata$?_Reserve@?$vector@Uaffentry@@V?$allocator@Uaffentry@@@std@@@std@@IEAAX_K@Z 0000000180077740     hunspell:affixmgr.obj
 0004:0000174c       $pdata$?deallocate@?$_Wrap_alloc@V?$allocator@Uaffentry@@@std@@@std@@QEAAXPEAUaffentry@@_K@Z 000000018007774c     hunspell:affixmgr.obj
 0004:00001758       $pdata$?_Reallocate@?$vector@Uaffentry@@V?$allocator@Uaffentry@@@std@@@std@@IEAAX_K@Z 0000000180077758     hunspell:affixmgr.obj
 0004:00001764       $pdata$0$?_Reallocate@?$vector@Uaffentry@@V?$allocator@Uaffentry@@@std@@@std@@IEAAX_K@Z 0000000180077764     hunspell:affixmgr.obj
 0004:00001770       $pdata$1$?_Reallocate@?$vector@Uaffentry@@V?$allocator@Uaffentry@@@std@@@std@@IEAAX_K@Z 0000000180077770     hunspell:affixmgr.obj
 0004:0000177c       $pdata$fprintf             000000018007777c     hunspell:filemgr.obj
 0004:00001788       $pdata$??0FileMgr@@QEAA@PEBD0@Z 0000000180077788     hunspell:filemgr.obj
 0004:00001794       $pdata$0$??0FileMgr@@QEAA@PEBD0@Z 0000000180077794     hunspell:filemgr.obj
 0004:000017a0       $pdata$1$??0FileMgr@@QEAA@PEBD0@Z 00000001800777a0     hunspell:filemgr.obj
 0004:000017ac       $pdata$?getline@FileMgr@@QEAAPEADXZ 00000001800777ac     hunspell:filemgr.obj
 0004:000017b8       $pdata$?phonet@@YAHPEBDPEADHAEAUphonetable@@@Z 00000001800777b8     hunspell:phonet.obj
 0004:000017c4       $pdata$2$?phonet@@YAHPEBDPEADHAEAUphonetable@@@Z 00000001800777c4     hunspell:phonet.obj
 0004:000017d0       $pdata$4$?phonet@@YAHPEBDPEADHAEAUphonetable@@@Z 00000001800777d0     hunspell:phonet.obj
 0004:000017dc       $pdata$5$?phonet@@YAHPEBDPEADHAEAUphonetable@@@Z 00000001800777dc     hunspell:phonet.obj
 0004:000017e8       $pdata$6$?phonet@@YAHPEBDPEADHAEAUphonetable@@@Z 00000001800777e8     hunspell:phonet.obj
 0004:000017f4       $pdata$7$?phonet@@YAHPEBDPEADHAEAUphonetable@@@Z 00000001800777f4     hunspell:phonet.obj
 0004:00001800       $pdata$?add@PfxEntry@@QEAAPEADPEBDH@Z 0000000180077800     hunspell:affentry.obj
 0004:0000180c       $pdata$?test_condition@PfxEntry@@QEAAHPEBD@Z 000000018007780c     hunspell:affentry.obj
 0004:00001818       $pdata$?checkword@PfxEntry@@QEAAPEAUhentry@@PEBDHDG@Z 0000000180077818     hunspell:affentry.obj
 0004:00001824       $pdata$?check_twosfx@PfxEntry@@QEAAPEAUhentry@@PEBDHDG@Z 0000000180077824     hunspell:affentry.obj
 0004:00001830       $pdata$?check_twosfx_morph@PfxEntry@@QEAAPEADPEBDHDG@Z 0000000180077830     hunspell:affentry.obj
 0004:0000183c       $pdata$?check_morph@PfxEntry@@QEAAPEADPEBDHDG@Z 000000018007783c     hunspell:affentry.obj
 0004:00001848       $pdata$2$?check_morph@PfxEntry@@QEAAPEADPEBDHDG@Z 0000000180077848     hunspell:affentry.obj
 0004:00001854       $pdata$3$?check_morph@PfxEntry@@QEAAPEADPEBDHDG@Z 0000000180077854     hunspell:affentry.obj
 0004:00001860       $pdata$??0SfxEntry@@QEAA@PEAVAffixMgr@@PEAUaffentry@@@Z 0000000180077860     hunspell:affentry.obj
 0004:0000186c       $pdata$?add@SfxEntry@@QEAAPEADPEBDH@Z 000000018007786c     hunspell:affentry.obj
 0004:00001878       $pdata$?test_condition@SfxEntry@@QEAAHPEBD0@Z 0000000180077878     hunspell:affentry.obj
 0004:00001884       $pdata$?checkword@SfxEntry@@QEAAPEAUhentry@@PEBDHHPEAVPfxEntry@@PEAPEADHPEAHGGG@Z 0000000180077884     hunspell:affentry.obj
 0004:00001890       $pdata$5$?checkword@SfxEntry@@QEAAPEAUhentry@@PEBDHHPEAVPfxEntry@@PEAPEADHPEAHGGG@Z 0000000180077890     hunspell:affentry.obj
 0004:0000189c       $pdata$6$?checkword@SfxEntry@@QEAAPEAUhentry@@PEBDHHPEAVPfxEntry@@PEAPEADHPEAHGGG@Z 000000018007789c     hunspell:affentry.obj
 0004:000018a8       $pdata$7$?checkword@SfxEntry@@QEAAPEAUhentry@@PEBDHHPEAVPfxEntry@@PEAPEADHPEAHGGG@Z 00000001800778a8     hunspell:affentry.obj
 0004:000018b4       $pdata$?check_twosfx@SfxEntry@@QEAAPEAUhentry@@PEBDHHPEAVPfxEntry@@G@Z 00000001800778b4     hunspell:affentry.obj
 0004:000018c0       $pdata$?check_twosfx_morph@SfxEntry@@QEAAPEADPEBDHHPEAVPfxEntry@@G@Z 00000001800778c0     hunspell:affentry.obj
 0004:000018cc       $pdata$?get_next_homonym@SfxEntry@@QEAAPEAUhentry@@PEAU2@HPEAVPfxEntry@@GG@Z 00000001800778cc     hunspell:affentry.obj
 0004:000018d8       $pdata$??0Hunzip@@QEAA@PEBD0@Z 00000001800778d8     hunspell:hunzip.obj
 0004:000018e4       $pdata$?getcode@Hunzip@@IEAAHPEBD@Z 00000001800778e4     hunspell:hunzip.obj
 0004:000018f0       $pdata$0$?getcode@Hunzip@@IEAAHPEBD@Z 00000001800778f0     hunspell:hunzip.obj
 0004:000018fc       $pdata$3$?getcode@Hunzip@@IEAAHPEBD@Z 00000001800778fc     hunspell:hunzip.obj
 0004:00001908       $pdata$9$?getcode@Hunzip@@IEAAHPEBD@Z 0000000180077908     hunspell:hunzip.obj
 0004:00001914       $pdata$11$?getcode@Hunzip@@IEAAHPEBD@Z 0000000180077914     hunspell:hunzip.obj
 0004:00001920       $pdata$12$?getcode@Hunzip@@IEAAHPEBD@Z 0000000180077920     hunspell:hunzip.obj
 0004:0000192c       $pdata$?getbuf@Hunzip@@IEAAHXZ 000000018007792c     hunspell:hunzip.obj
 0004:00001938       $pdata$?getline@Hunzip@@QEAAPEBDXZ 0000000180077938     hunspell:hunzip.obj
 0004:00001944       $pdata$0$?getline@Hunzip@@QEAAPEBDXZ 0000000180077944     hunspell:hunzip.obj
 0004:00001950       $pdata$1$?getline@Hunzip@@QEAAPEBDXZ 0000000180077950     hunspell:hunzip.obj
 0004:0000195c       $pdata$2$?getline@Hunzip@@QEAAPEBDXZ 000000018007795c     hunspell:hunzip.obj
 0004:00001968       $pdata$3$?getline@Hunzip@@QEAAPEBDXZ 0000000180077968     hunspell:hunzip.obj
 0004:00001974       $pdata$4$?getline@Hunzip@@QEAAPEBDXZ 0000000180077974     hunspell:hunzip.obj
 0004:00001980       $pdata$??0bad_alloc@std@@QEAA@AEBV01@@Z 0000000180077980     libcpmt:xthrow.obj
 0004:0000198c       $pdata$??0exception@std@@QEAA@AEBV01@@Z 000000018007798c     libcpmt:xthrow.obj
 0004:00001998       $pdata$??0length_error@std@@QEAA@AEBV01@@Z 0000000180077998     libcpmt:xthrow.obj
 0004:000019a4       $pdata$??0length_error@std@@QEAA@PEBD@Z 00000001800779a4     libcpmt:xthrow.obj
 0004:000019b0       $pdata$??0logic_error@std@@QEAA@AEBV01@@Z 00000001800779b0     libcpmt:xthrow.obj
 0004:000019bc       $pdata$??0out_of_range@std@@QEAA@AEBV01@@Z 00000001800779bc     libcpmt:xthrow.obj
 0004:000019c8       $pdata$??0out_of_range@std@@QEAA@PEBD@Z 00000001800779c8     libcpmt:xthrow.obj
 0004:000019d4       $pdata$??_Glogic_error@std@@UEAAPEAXI@Z 00000001800779d4     libcpmt:xthrow.obj
 0004:000019d4       $pdata$??_Glength_error@std@@UEAAPEAXI@Z 00000001800779d4     libcpmt:xthrow.obj
 0004:000019d4       $pdata$??_Gbad_array_new_length@std@@UEAAPEAXI@Z 00000001800779d4     LIBCMT:throw_bad_alloc.obj
 0004:000019d4       $pdata$??_Gexception@std@@UEAAPEAXI@Z 00000001800779d4     libcpmt:xthrow.obj
 0004:000019d4       $pdata$??_Gout_of_range@std@@UEAAPEAXI@Z 00000001800779d4     libcpmt:xthrow.obj
 0004:000019d4       $pdata$??_Gbad_alloc@std@@UEAAPEAXI@Z 00000001800779d4     libcpmt:xthrow.obj
 0004:000019e0       $pdata$?_Xlength_error@std@@YAXPEBD@Z 00000001800779e0     libcpmt:xthrow.obj
 0004:000019ec       $pdata$?_Xout_of_range@std@@YAXPEBD@Z 00000001800779ec     libcpmt:xthrow.obj
 0004:00001a04       $pdata$??2@YAPEAX_K@Z      0000000180077a04     LIBCMT:new_scalar.obj
 0004:00001a10       $pdata$?dllmain_crt_dispatch@@YAHQEAUHINSTANCE__@@KQEAX@Z 0000000180077a10     LIBCMT:dll_dllmain.obj
 0004:00001a1c       $pdata$?dllmain_crt_process_attach@@YAHQEAUHINSTANCE__@@QEAX@Z 0000000180077a1c     LIBCMT:dll_dllmain.obj
 0004:00001a28       $pdata$?dllmain_crt_process_detach@@YAH_N@Z 0000000180077a28     LIBCMT:dll_dllmain.obj
 0004:00001a34       $pdata$?dllmain_dispatch@@YAHQEAUHINSTANCE__@@KQEAX@Z 0000000180077a34     LIBCMT:dll_dllmain.obj
 0004:00001a40       $pdata$?dllmain_raw@@YAHQEAUHINSTANCE__@@KQEAX@Z 0000000180077a40     LIBCMT:dll_dllmain.obj
 0004:00001a4c       $pdata$_DllMainCRTStartup  0000000180077a4c     LIBCMT:dll_dllmain.obj
 0004:00001a58       $pdata$__raise_securityfailure 0000000180077a58     LIBCMT:gs_report.obj
 0004:00001a64       $pdata$__report_gsfailure  0000000180077a64     LIBCMT:gs_report.obj
 0004:00001a70       $pdata$__report_rangecheckfailure 0000000180077a70     LIBCMT:gs_report.obj
 0004:00001a7c       $pdata$__report_securityfailure 0000000180077a7c     LIBCMT:gs_report.obj
 0004:00001a88       $pdata$capture_current_context 0000000180077a88     LIBCMT:gs_report.obj
 0004:00001a94       $pdata$capture_previous_context 0000000180077a94     LIBCMT:gs_report.obj
 0004:00001aa0       $pdata$??_Gtype_info@@UEAAPEAXI@Z 0000000180077aa0     LIBCMT:std_type_info_static.obj
 0004:00001aac       $pdata$??0bad_array_new_length@std@@QEAA@AEBV01@@Z 0000000180077aac     LIBCMT:throw_bad_alloc.obj
 0004:00001ab8       $pdata$?_Xbad_alloc@std@@YAXXZ 0000000180077ab8     libcpmt:xthrow.obj
 0004:00001ab8       $pdata$?__scrt_throw_std_bad_alloc@@YAXXZ 0000000180077ab8     LIBCMT:throw_bad_alloc.obj
 0004:00001ac4       $pdata$?__scrt_throw_std_bad_array_new_length@@YAXXZ 0000000180077ac4     LIBCMT:throw_bad_alloc.obj
 0004:00001ad0       $pdata$__scrt_acquire_startup_lock 0000000180077ad0     LIBCMT:utility.obj
 0004:00001adc       $pdata$__scrt_dllmain_after_initialize_c 0000000180077adc     LIBCMT:utility.obj
 0004:00001ae8       $pdata$__scrt_dllmain_before_initialize_c 0000000180077ae8     LIBCMT:utility.obj
 0004:00001af4       $pdata$__scrt_dllmain_crt_thread_attach 0000000180077af4     LIBCMT:utility.obj
 0004:00001b00       $pdata$__scrt_dllmain_crt_thread_detach 0000000180077b00     LIBCMT:utility.obj
 0004:00001b0c       $pdata$__scrt_dllmain_exception_filter 0000000180077b0c     LIBCMT:utility.obj
 0004:00001b18       $pdata$__scrt_dllmain_uninitialize_c 0000000180077b18     LIBCMT:utility.obj
 0004:00001b24       $pdata$__scrt_dllmain_uninitialize_critical 0000000180077b24     LIBCMT:utility.obj
 0004:00001b30       $pdata$__scrt_initialize_crt 0000000180077b30     LIBCMT:utility.obj
 0004:00001b3c       $pdata$__scrt_initialize_onexit_tables 0000000180077b3c     LIBCMT:utility.obj
 0004:00001b48       $pdata$__scrt_is_nonwritable_in_current_image 0000000180077b48     LIBCMT:utility.obj
 0004:00001b54       $pdata$__scrt_release_startup_lock 0000000180077b54     LIBCMT:utility.obj
 0004:00001b60       $pdata$__scrt_uninitialize_crt 0000000180077b60     LIBCMT:utility.obj
 0004:00001b6c       $pdata$_onexit             0000000180077b6c     LIBCMT:utility.obj
 0004:00001b78       $pdata$atexit              0000000180077b78     LIBCMT:utility.obj
 0004:00001b84       $pdata$__security_init_cookie 0000000180077b84     LIBCMT:gs_support.obj
 0004:00001b90       $pdata$__scrt_initialize_default_local_stdio_options 0000000180077b90     LIBCMT:default_local_stdio_options.obj
 0004:00001b9c       $pdata$__scrt_fastfail     0000000180077b9c     LIBCMT:utility_desktop.obj
 0004:00001ba8       $pdata$_RTC_Initialize     0000000180077ba8     LIBCMT:_initsect_.obj
 0004:00001bb4       $pdata$_RTC_Terminate      0000000180077bb4     LIBCMT:_initsect_.obj
 0004:00001bc0       $pdata$__isa_available_init 0000000180077bc0     LIBCMT:_cpu_disp_.obj
 0004:00001bd8       $pdata$_purecall           0000000180077bd8     libvcruntime:purevirt.obj
 0004:00001be4       $pdata$strstr              0000000180077be4     libvcruntime:strstr.obj
 0004:00001bf0       $pdata$strchr              0000000180077bf0     libvcruntime:strchr.obj
 0004:00001bfc       $pdata$__std_exception_copy 0000000180077bfc     libvcruntime:std_exception.obj
 0004:00001c08       $pdata$__std_exception_destroy 0000000180077c08     libvcruntime:std_exception.obj
 0004:00001c14       $pdata$_CxxThrowException  0000000180077c14     libvcruntime:throw.obj
 0004:00001c20       $pdata$__C_specific_handler 0000000180077c20     libvcruntime:_chandler_.obj
 0004:00001c2c       $pdata$__vcrt_initialize   0000000180077c2c     libvcruntime:initialization.obj
 0004:00001c38       $pdata$__vcrt_thread_attach 0000000180077c38     libvcruntime:initialization.obj
 0004:00001c44       $pdata$__vcrt_thread_detach 0000000180077c44     libvcruntime:initialization.obj
 0004:00001c50       $pdata$__vcrt_uninitialize 0000000180077c50     libvcruntime:initialization.obj
 0004:00001c5c       $pdata$__vcrt_uninitialize_critical 0000000180077c5c     libvcruntime:initialization.obj
 0004:00001c68       $pdata$__std_type_info_destroy_list 0000000180077c68     libvcruntime:std_type_info.obj
 0004:00001cb0       $pdata$__vcrt_freefls      0000000180077cb0     libvcruntime:per_thread_data.obj
 0004:00001cbc       $pdata$__vcrt_freeptd      0000000180077cbc     libvcruntime:per_thread_data.obj
 0004:00001cc8       $pdata$__vcrt_getptd_noexit 0000000180077cc8     libvcruntime:per_thread_data.obj
 0004:00001cd4       $pdata$__vcrt_initialize_ptd 0000000180077cd4     libvcruntime:per_thread_data.obj
 0004:00001ce0       $pdata$__vcrt_uninitialize_ptd 0000000180077ce0     libvcruntime:per_thread_data.obj
 0004:00001cec       $pdata$__vcrt_initialize_locks 0000000180077cec     libvcruntime:locks.obj
 0004:00001cf8       $pdata$__vcrt_uninitialize_locks 0000000180077cf8     libvcruntime:locks.obj
 0004:00001d04       $pdata$?try_get_function@@YAPEAXW4function_id@?A0x679b24ab@@QEBDQEBW4module_id@2@2@Z 0000000180077d04     libvcruntime:winapi_downlevel.obj
 0004:00001d10       $pdata$__vcrt_FlsAlloc     0000000180077d10     libvcruntime:winapi_downlevel.obj
 0004:00001d1c       $pdata$__vcrt_FlsFree      0000000180077d1c     libvcruntime:winapi_downlevel.obj
 0004:00001d28       $pdata$__vcrt_FlsGetValue  0000000180077d28     libvcruntime:winapi_downlevel.obj
 0004:00001d34       $pdata$__vcrt_FlsSetValue  0000000180077d34     libvcruntime:winapi_downlevel.obj
 0004:00001d40       $pdata$__vcrt_InitializeCriticalSectionEx 0000000180077d40     libvcruntime:winapi_downlevel.obj
 0004:00001d4c       $pdata$__vcrt_uninitialize_winapi_thunks 0000000180077d4c     libvcruntime:winapi_downlevel.obj
 0004:00001d58       $pdata$??$common_assert_to_message_box@_W@@YAXQEB_W0IQEAX@Z 0000000180077d58     libucrt:assert.obj
 0004:00001d64       $pdata$??$common_assert_to_message_box_build_string@_W@@YAXQEA_W_KQEB_W2IQEAX@Z 0000000180077d64     libucrt:assert.obj
 0004:00001d70       $pdata$??$common_assert_to_stderr@_W@@YAXQEB_W0I@Z 0000000180077d70     libucrt:assert.obj
 0004:00001d7c       $pdata$_wassert            0000000180077d7c     libucrt:assert.obj
 0004:00001d88       $pdata$fwprintf            0000000180077d88     libucrt:assert.obj
 0004:00001d94       $pdata$swprintf            0000000180077d94     libucrt:assert.obj
 0004:00001da0       $pdata$__acrt_call_reportfault 0000000180077da0     libucrt:invalid_parameter.obj
 0004:00001dac       $pdata$_invalid_parameter  0000000180077dac     libucrt:invalid_parameter.obj
 0004:00001db8       $pdata$_invalid_parameter_noinfo 0000000180077db8     libucrt:invalid_parameter.obj
 0004:00001dc4       $pdata$_invalid_parameter_noinfo_noreturn 0000000180077dc4     libucrt:invalid_parameter.obj
 0004:00001dd0       $pdata$_invoke_watson      0000000180077dd0     libucrt:invalid_parameter.obj
 0004:00001ddc       $pdata$??$common_fsopen@D@@YAPEAU_iobuf@@QEBD0H@Z 0000000180077ddc     libucrt:fopen.obj
 0004:00001de8       $pdata$_fclose_nolock      0000000180077de8     libucrt:fclose.obj
 0004:00001df4       $pdata$fclose              0000000180077df4     libucrt:fclose.obj
 0004:00001e00       $pdata$??0_LocaleUpdate@@QEAA@QEAU__crt_locale_pointers@@@Z 0000000180077e00     libucrt:_wctype.obj
 0004:00001e0c       $pdata$_isleadbyte_l       0000000180077e0c     libucrt:_wctype.obj
 0004:00001e18       $pdata$??$common_getenv@D@@YAPEADQEBD@Z 0000000180077e18     libucrt:getenv.obj
 0004:00001e24       $pdata$??$common_getenv_nolock@D@@YAPEADQEBD@Z 0000000180077e24     libucrt:getenv.obj
 0004:00001e48       $pdata$??$?RV<lambda_7b91131dde12e1c3dfc74ff76b3f2eac>@@AEAV<lambda_dd75445284c072d0bd3768540cc698fa>@@V<lambda_16bc4ecb55b4718497c16bceaea2ceaf>@@@?$__crt_seh_guarded_call@H@@QEAAH$$QEAV<lambda_7b91131dde12e1c3dfc74ff76b3f2eac>@@AEAV<lambda_dd75445284c072d0bd3768540cc698fa>@@$$QEAV<lambda_16bc4ecb55b4718497c16bceaea2ceaf>@@@Z 0000000180077e48     libucrt:output.obj
 0004:00001e54       $pdata$??$?RV<lambda_aa279a7bcb127014629d5b1d62c7325d>@@AEAV<lambda_0a64b6a4deda75c01876f29c44fc5eb3>@@V<lambda_3323e69fbefe9d1a11713e670d47cdfa>@@@?$__crt_seh_guarded_call@H@@QEAAH$$QEAV<lambda_aa279a7bcb127014629d5b1d62c7325d>@@AEAV<lambda_0a64b6a4deda75c01876f29c44fc5eb3>@@$$QEAV<lambda_3323e69fbefe9d1a11713e670d47cdfa>@@@Z 0000000180077e54     libucrt:output.obj
 0004:00001e60       $pdata$??$ensure_buffer_is_big_enough@D@formatting_buffer@__crt_stdio_output@@QEAA_N_K@Z 0000000180077e60     libucrt:output.obj
 0004:00001e6c       $pdata$??$type_case_integer_parse_into_buffer@I@?$output_processor@_WV?$string_output_adapter@_W@__crt_stdio_output@@V?$standard_base@_WV?$string_output_adapter@_W@__crt_stdio_output@@@2@@__crt_stdio_output@@AEAAXII_N@Z 0000000180077e6c     libucrt:output.obj
 0004:00001e6c       $pdata$??$type_case_integer_parse_into_buffer@I@?$output_processor@DV?$stream_output_adapter@D@__crt_stdio_output@@V?$standard_base@DV?$stream_output_adapter@D@__crt_stdio_output@@@2@@__crt_stdio_output@@AEAAXII_N@Z 0000000180077e6c     libucrt:output.obj
 0004:00001e6c       $pdata$??$type_case_integer_parse_into_buffer@I@?$output_processor@_WV?$stream_output_adapter@_W@__crt_stdio_output@@V?$standard_base@_WV?$stream_output_adapter@_W@__crt_stdio_output@@@2@@__crt_stdio_output@@AEAAXII_N@Z 0000000180077e6c     libucrt:output.obj
 0004:00001e6c       $pdata$??$type_case_integer_parse_into_buffer@I@?$output_processor@DV?$string_output_adapter@D@__crt_stdio_output@@V?$standard_base@DV?$string_output_adapter@D@__crt_stdio_output@@@2@@__crt_stdio_output@@AEAAXII_N@Z 0000000180077e6c     libucrt:output.obj
 0004:00001e78       $pdata$??$type_case_integer_parse_into_buffer@_K@?$output_processor@DV?$stream_output_adapter@D@__crt_stdio_output@@V?$standard_base@DV?$stream_output_adapter@D@__crt_stdio_output@@@2@@__crt_stdio_output@@AEAAX_KI_N@Z 0000000180077e78     libucrt:output.obj
 0004:00001e78       $pdata$??$type_case_integer_parse_into_buffer@_K@?$output_processor@_WV?$stream_output_adapter@_W@__crt_stdio_output@@V?$standard_base@_WV?$stream_output_adapter@_W@__crt_stdio_output@@@2@@__crt_stdio_output@@AEAAX_KI_N@Z 0000000180077e78     libucrt:output.obj
 0004:00001e78       $pdata$??$type_case_integer_parse_into_buffer@_K@?$output_processor@DV?$string_output_adapter@D@__crt_stdio_output@@V?$standard_base@DV?$string_output_adapter@D@__crt_stdio_output@@@2@@__crt_stdio_output@@AEAAX_KI_N@Z 0000000180077e78     libucrt:output.obj
 0004:00001e78       $pdata$??$type_case_integer_parse_into_buffer@_K@?$output_processor@_WV?$string_output_adapter@_W@__crt_stdio_output@@V?$standard_base@_WV?$string_output_adapter@_W@__crt_stdio_output@@@2@@__crt_stdio_output@@AEAAX_KI_N@Z 0000000180077e78     libucrt:output.obj
 0004:00001e84       $pdata$??$write_multiple_characters@V?$stream_output_adapter@D@__crt_stdio_output@@D@__crt_stdio_output@@YAXAEBV?$stream_output_adapter@D@0@DHQEAH@Z 0000000180077e84     libucrt:output.obj
 0004:00001e90       $pdata$??$write_multiple_characters@V?$stream_output_adapter@_W@__crt_stdio_output@@D@__crt_stdio_output@@YAXAEBV?$stream_output_adapter@_W@0@DHQEAH@Z 0000000180077e90     libucrt:output.obj
 0004:00001e9c       $pdata$??$write_multiple_characters@V?$string_output_adapter@D@__crt_stdio_output@@D@__crt_stdio_output@@YAXAEBV?$string_output_adapter@D@0@DHQEAH@Z 0000000180077e9c     libucrt:output.obj
 0004:00001ea8       $pdata$??$write_multiple_characters@V?$string_output_adapter@_W@__crt_stdio_output@@D@__crt_stdio_output@@YAXAEBV?$string_output_adapter@_W@0@DHQEAH@Z 0000000180077ea8     libucrt:output.obj
 0004:00001eb4       $pdata$??0?$output_processor@DV?$string_output_adapter@D@__crt_stdio_output@@V?$standard_base@DV?$string_output_adapter@D@__crt_stdio_output@@@2@@__crt_stdio_output@@QEAA@AEBV?$string_output_adapter@D@1@_KQEBDQEAU__crt_locale_pointers@@QEAD@Z 0000000180077eb4     libucrt:output.obj
 0004:00001eb4       $pdata$??0?$output_processor@DV?$stream_output_adapter@D@__crt_stdio_output@@V?$standard_base@DV?$stream_output_adapter@D@__crt_stdio_output@@@2@@__crt_stdio_output@@QEAA@AEBV?$stream_output_adapter@D@1@_KQEBDQEAU__crt_locale_pointers@@QEAD@Z 0000000180077eb4     libucrt:output.obj
 0004:00001ec0       $pdata$??0?$output_processor@_WV?$string_output_adapter@_W@__crt_stdio_output@@V?$standard_base@_WV?$string_output_adapter@_W@__crt_stdio_output@@@2@@__crt_stdio_output@@QEAA@AEBV?$string_output_adapter@_W@1@_KQEB_WQEAU__crt_locale_pointers@@QEAD@Z 0000000180077ec0     libucrt:output.obj
 0004:00001ec0       $pdata$??0?$output_processor@_WV?$stream_output_adapter@_W@__crt_stdio_output@@V?$standard_base@_WV?$stream_output_adapter@_W@__crt_stdio_output@@@2@@__crt_stdio_output@@QEAA@AEBV?$stream_output_adapter@_W@1@_KQEB_WQEAU__crt_locale_pointers@@QEAD@Z 0000000180077ec0     libucrt:output.obj
 0004:00001ecc       $pdata$??R<lambda_0a64b6a4deda75c01876f29c44fc5eb3>@@QEBAHXZ 0000000180077ecc     libucrt:output.obj
 0004:00001ed8       $pdata$??R<lambda_dd75445284c072d0bd3768540cc698fa>@@QEBAHXZ 0000000180077ed8     libucrt:output.obj
 0004:00001ee4       $pdata$?force_decimal_point@__crt_stdio_output@@YAXPEADQEAU__crt_locale_pointers@@@Z 0000000180077ee4     libucrt:output.obj
 0004:00001ef0       $pdata$?parse_int_from_format_string@?$output_processor@DV?$string_output_adapter@D@__crt_stdio_output@@V?$standard_base@DV?$string_output_adapter@D@__crt_stdio_output@@@2@@__crt_stdio_output@@AEAA_NQEAH@Z 0000000180077ef0     libucrt:output.obj
 0004:00001ef0       $pdata$?parse_int_from_format_string@?$output_processor@DV?$stream_output_adapter@D@__crt_stdio_output@@V?$standard_base@DV?$stream_output_adapter@D@__crt_stdio_output@@@2@@__crt_stdio_output@@AEAA_NQEAH@Z 0000000180077ef0     libucrt:output.obj
 0004:00001efc       $pdata$?parse_int_from_format_string@?$output_processor@_WV?$stream_output_adapter@_W@__crt_stdio_output@@V?$standard_base@_WV?$stream_output_adapter@_W@__crt_stdio_output@@@2@@__crt_stdio_output@@AEAA_NQEAH@Z 0000000180077efc     libucrt:output.obj
 0004:00001efc       $pdata$?parse_int_from_format_string@?$output_processor@_WV?$string_output_adapter@_W@__crt_stdio_output@@V?$standard_base@_WV?$string_output_adapter@_W@__crt_stdio_output@@@2@@__crt_stdio_output@@AEAA_NQEAH@Z 0000000180077efc     libucrt:output.obj
 0004:00001f08       $pdata$?process@?$output_processor@DV?$stream_output_adapter@D@__crt_stdio_output@@V?$standard_base@DV?$stream_output_adapter@D@__crt_stdio_output@@@2@@__crt_stdio_output@@QEAAHXZ 0000000180077f08     libucrt:output.obj
 0004:00001f14       $pdata$?process@?$output_processor@DV?$string_output_adapter@D@__crt_stdio_output@@V?$standard_base@DV?$string_output_adapter@D@__crt_stdio_output@@@2@@__crt_stdio_output@@QEAAHXZ 0000000180077f14     libucrt:output.obj
 0004:00001f20       $pdata$?process@?$output_processor@_WV?$stream_output_adapter@_W@__crt_stdio_output@@V?$standard_base@_WV?$stream_output_adapter@_W@__crt_stdio_output@@@2@@__crt_stdio_output@@QEAAHXZ 0000000180077f20     libucrt:output.obj
 0004:00001f2c       $pdata$?process@?$output_processor@_WV?$string_output_adapter@_W@__crt_stdio_output@@V?$standard_base@_WV?$string_output_adapter@_W@__crt_stdio_output@@@2@@__crt_stdio_output@@QEAAHXZ 0000000180077f2c     libucrt:output.obj
 0004:00001f38       $pdata$?state_case_normal@?$output_processor@DV?$stream_output_adapter@D@__crt_stdio_output@@V?$standard_base@DV?$stream_output_adapter@D@__crt_stdio_output@@@2@@__crt_stdio_output@@AEAA_NXZ 0000000180077f38     libucrt:output.obj
 0004:00001f44       $pdata$?state_case_normal@?$output_processor@DV?$string_output_adapter@D@__crt_stdio_output@@V?$standard_base@DV?$string_output_adapter@D@__crt_stdio_output@@@2@@__crt_stdio_output@@AEAA_NXZ 0000000180077f44     libucrt:output.obj
 0004:00001f50       $pdata$?state_case_normal_tchar@?$output_processor@DV?$stream_output_adapter@D@__crt_stdio_output@@V?$standard_base@DV?$stream_output_adapter@D@__crt_stdio_output@@@2@@__crt_stdio_output@@AEAA_ND@Z 0000000180077f50     libucrt:output.obj
 0004:00001f5c       $pdata$?state_case_normal_tchar@?$output_processor@DV?$string_output_adapter@D@__crt_stdio_output@@V?$standard_base@DV?$string_output_adapter@D@__crt_stdio_output@@@2@@__crt_stdio_output@@AEAA_ND@Z 0000000180077f5c     libucrt:output.obj
 0004:00001f68       $pdata$?state_case_size@?$output_processor@DV?$stream_output_adapter@D@__crt_stdio_output@@V?$standard_base@DV?$stream_output_adapter@D@__crt_stdio_output@@@2@@__crt_stdio_output@@AEAA_NXZ 0000000180077f68     libucrt:output.obj
 0004:00001f74       $pdata$?state_case_size@?$output_processor@DV?$string_output_adapter@D@__crt_stdio_output@@V?$standard_base@DV?$string_output_adapter@D@__crt_stdio_output@@@2@@__crt_stdio_output@@AEAA_NXZ 0000000180077f74     libucrt:output.obj
 0004:00001f80       $pdata$?state_case_size@?$output_processor@_WV?$stream_output_adapter@_W@__crt_stdio_output@@V?$standard_base@_WV?$stream_output_adapter@_W@__crt_stdio_output@@@2@@__crt_stdio_output@@AEAA_NXZ 0000000180077f80     libucrt:output.obj
 0004:00001f8c       $pdata$?state_case_size@?$output_processor@_WV?$string_output_adapter@_W@__crt_stdio_output@@V?$standard_base@_WV?$string_output_adapter@_W@__crt_stdio_output@@@2@@__crt_stdio_output@@AEAA_NXZ 0000000180077f8c     libucrt:output.obj
 0004:00001f98       $pdata$?state_case_type@?$output_processor@DV?$stream_output_adapter@D@__crt_stdio_output@@V?$standard_base@DV?$stream_output_adapter@D@__crt_stdio_output@@@2@@__crt_stdio_output@@AEAA_NXZ 0000000180077f98     libucrt:output.obj
 0004:00001fa4       $pdata$?state_case_type@?$output_processor@DV?$string_output_adapter@D@__crt_stdio_output@@V?$standard_base@DV?$string_output_adapter@D@__crt_stdio_output@@@2@@__crt_stdio_output@@AEAA_NXZ 0000000180077fa4     libucrt:output.obj
 0004:00001fb0       $pdata$?state_case_type@?$output_processor@_WV?$stream_output_adapter@_W@__crt_stdio_output@@V?$standard_base@_WV?$stream_output_adapter@_W@__crt_stdio_output@@@2@@__crt_stdio_output@@AEAA_NXZ 0000000180077fb0     libucrt:output.obj
 0004:00001fbc       $pdata$?state_case_type@?$output_processor@_WV?$string_output_adapter@_W@__crt_stdio_output@@V?$standard_base@_WV?$string_output_adapter@_W@__crt_stdio_output@@@2@@__crt_stdio_output@@AEAA_NXZ 0000000180077fbc     libucrt:output.obj
 0004:00001fc8       $pdata$?type_case_Z@?$output_processor@DV?$string_output_adapter@D@__crt_stdio_output@@V?$standard_base@DV?$string_output_adapter@D@__crt_stdio_output@@@2@@__crt_stdio_output@@AEAA_NXZ 0000000180077fc8     libucrt:output.obj
 0004:00001fc8       $pdata$?type_case_Z@?$output_processor@DV?$stream_output_adapter@D@__crt_stdio_output@@V?$standard_base@DV?$stream_output_adapter@D@__crt_stdio_output@@@2@@__crt_stdio_output@@AEAA_NXZ 0000000180077fc8     libucrt:output.obj
 0004:00001fd4       $pdata$?type_case_Z@?$output_processor@_WV?$string_output_adapter@_W@__crt_stdio_output@@V?$standard_base@_WV?$string_output_adapter@_W@__crt_stdio_output@@@2@@__crt_stdio_output@@AEAA_NXZ 0000000180077fd4     libucrt:output.obj
 0004:00001fd4       $pdata$?type_case_Z@?$output_processor@_WV?$stream_output_adapter@_W@__crt_stdio_output@@V?$standard_base@_WV?$stream_output_adapter@_W@__crt_stdio_output@@@2@@__crt_stdio_output@@AEAA_NXZ 0000000180077fd4     libucrt:output.obj
 0004:00001fe0       $pdata$?type_case_a@?$output_processor@DV?$stream_output_adapter@D@__crt_stdio_output@@V?$standard_base@DV?$stream_output_adapter@D@__crt_stdio_output@@@2@@__crt_stdio_output@@AEAA_NXZ 0000000180077fe0     libucrt:output.obj
 0004:00001fe0       $pdata$?type_case_a@?$output_processor@DV?$string_output_adapter@D@__crt_stdio_output@@V?$standard_base@DV?$string_output_adapter@D@__crt_stdio_output@@@2@@__crt_stdio_output@@AEAA_NXZ 0000000180077fe0     libucrt:output.obj
 0004:00001fec       $pdata$?type_case_a@?$output_processor@_WV?$string_output_adapter@_W@__crt_stdio_output@@V?$standard_base@_WV?$string_output_adapter@_W@__crt_stdio_output@@@2@@__crt_stdio_output@@AEAA_NXZ 0000000180077fec     libucrt:output.obj
 0004:00001fec       $pdata$?type_case_a@?$output_processor@_WV?$stream_output_adapter@_W@__crt_stdio_output@@V?$standard_base@_WV?$stream_output_adapter@_W@__crt_stdio_output@@@2@@__crt_stdio_output@@AEAA_NXZ 0000000180077fec     libucrt:output.obj
 0004:00001ff8       $pdata$?type_case_c_tchar@?$output_processor@DV?$string_output_adapter@D@__crt_stdio_output@@V?$standard_base@DV?$string_output_adapter@D@__crt_stdio_output@@@2@@__crt_stdio_output@@AEAA_ND@Z 0000000180077ff8     libucrt:output.obj
 0004:00001ff8       $pdata$?type_case_c_tchar@?$output_processor@DV?$stream_output_adapter@D@__crt_stdio_output@@V?$standard_base@DV?$stream_output_adapter@D@__crt_stdio_output@@@2@@__crt_stdio_output@@AEAA_ND@Z 0000000180077ff8     libucrt:output.obj
 0004:00002004       $pdata$?type_case_c_tchar@?$output_processor@_WV?$stream_output_adapter@_W@__crt_stdio_output@@V?$standard_base@_WV?$stream_output_adapter@_W@__crt_stdio_output@@@2@@__crt_stdio_output@@AEAA_N_W@Z 0000000180078004     libucrt:output.obj
 0004:00002004       $pdata$?type_case_c_tchar@?$output_processor@_WV?$string_output_adapter@_W@__crt_stdio_output@@V?$standard_base@_WV?$string_output_adapter@_W@__crt_stdio_output@@@2@@__crt_stdio_output@@AEAA_N_W@Z 0000000180078004     libucrt:output.obj
 0004:00002010       $pdata$?type_case_integer@?$output_processor@_WV?$string_output_adapter@_W@__crt_stdio_output@@V?$standard_base@_WV?$string_output_adapter@_W@__crt_stdio_output@@@2@@__crt_stdio_output@@AEAA_NI_N@Z 0000000180078010     libucrt:output.obj
 0004:00002010       $pdata$?type_case_integer@?$output_processor@DV?$string_output_adapter@D@__crt_stdio_output@@V?$standard_base@DV?$string_output_adapter@D@__crt_stdio_output@@@2@@__crt_stdio_output@@AEAA_NI_N@Z 0000000180078010     libucrt:output.obj
 0004:00002010       $pdata$?type_case_integer@?$output_processor@_WV?$stream_output_adapter@_W@__crt_stdio_output@@V?$standard_base@_WV?$stream_output_adapter@_W@__crt_stdio_output@@@2@@__crt_stdio_output@@AEAA_NI_N@Z 0000000180078010     libucrt:output.obj
 0004:00002010       $pdata$?type_case_integer@?$output_processor@DV?$stream_output_adapter@D@__crt_stdio_output@@V?$standard_base@DV?$stream_output_adapter@D@__crt_stdio_output@@@2@@__crt_stdio_output@@AEAA_NI_N@Z 0000000180078010     libucrt:output.obj
 0004:0000201c       $pdata$?type_case_n@?$output_processor@DV?$stream_output_adapter@D@__crt_stdio_output@@V?$standard_base@DV?$stream_output_adapter@D@__crt_stdio_output@@@2@@__crt_stdio_output@@AEAA_NXZ 000000018007801c     libucrt:output.obj
 0004:0000201c       $pdata$?type_case_n@?$output_processor@_WV?$string_output_adapter@_W@__crt_stdio_output@@V?$standard_base@_WV?$string_output_adapter@_W@__crt_stdio_output@@@2@@__crt_stdio_output@@AEAA_NXZ 000000018007801c     libucrt:output.obj
 0004:0000201c       $pdata$?type_case_n@?$output_processor@DV?$string_output_adapter@D@__crt_stdio_output@@V?$standard_base@DV?$string_output_adapter@D@__crt_stdio_output@@@2@@__crt_stdio_output@@AEAA_NXZ 000000018007801c     libucrt:output.obj
 0004:0000201c       $pdata$?type_case_n@?$output_processor@_WV?$stream_output_adapter@_W@__crt_stdio_output@@V?$standard_base@_WV?$stream_output_adapter@_W@__crt_stdio_output@@@2@@__crt_stdio_output@@AEAA_NXZ 000000018007801c     libucrt:output.obj
 0004:00002028       $pdata$?type_case_s@?$output_processor@DV?$stream_output_adapter@D@__crt_stdio_output@@V?$standard_base@DV?$stream_output_adapter@D@__crt_stdio_output@@@2@@__crt_stdio_output@@AEAA_NXZ 0000000180078028     libucrt:output.obj
 0004:00002028       $pdata$?type_case_s@?$output_processor@DV?$string_output_adapter@D@__crt_stdio_output@@V?$standard_base@DV?$string_output_adapter@D@__crt_stdio_output@@@2@@__crt_stdio_output@@AEAA_NXZ 0000000180078028     libucrt:output.obj
 0004:00002034       $pdata$?type_case_s@?$output_processor@_WV?$stream_output_adapter@_W@__crt_stdio_output@@V?$standard_base@_WV?$stream_output_adapter@_W@__crt_stdio_output@@@2@@__crt_stdio_output@@AEAA_NXZ 0000000180078034     libucrt:output.obj
 0004:00002034       $pdata$?type_case_s@?$output_processor@_WV?$string_output_adapter@_W@__crt_stdio_output@@V?$standard_base@_WV?$string_output_adapter@_W@__crt_stdio_output@@@2@@__crt_stdio_output@@AEAA_NXZ 0000000180078034     libucrt:output.obj
 0004:00002040       $pdata$?validate_stream_is_ansi_if_required@?$__acrt_stdio_char_traits@D@@SA_NQEAU_iobuf@@@Z 0000000180078040     libucrt:output.obj
 0004:0000204c       $pdata$?write_stored_string_tchar@?$output_processor@DV?$stream_output_adapter@D@__crt_stdio_output@@V?$standard_base@DV?$stream_output_adapter@D@__crt_stdio_output@@@2@@__crt_stdio_output@@AEAA_ND@Z 000000018007804c     libucrt:output.obj
 0004:00002058       $pdata$?write_stored_string_tchar@?$output_processor@DV?$string_output_adapter@D@__crt_stdio_output@@V?$standard_base@DV?$string_output_adapter@D@__crt_stdio_output@@@2@@__crt_stdio_output@@AEAA_ND@Z 0000000180078058     libucrt:output.obj
 0004:00002064       $pdata$?write_stored_string_tchar@?$output_processor@_WV?$stream_output_adapter@_W@__crt_stdio_output@@V?$standard_base@_WV?$stream_output_adapter@_W@__crt_stdio_output@@@2@@__crt_stdio_output@@AEAA_N_W@Z 0000000180078064     libucrt:output.obj
 0004:00002070       $pdata$?write_stored_string_tchar@?$output_processor@_WV?$string_output_adapter@_W@__crt_stdio_output@@V?$standard_base@_WV?$string_output_adapter@_W@__crt_stdio_output@@@2@@__crt_stdio_output@@AEAA_N_W@Z 0000000180078070     libucrt:output.obj
 0004:0000207c       $pdata$?write_string@?$stream_output_adapter@D@__crt_stdio_output@@QEBAXQEBDHQEAH1@Z 000000018007807c     libucrt:output.obj
 0004:00002088       $pdata$?write_string@?$stream_output_adapter@_W@__crt_stdio_output@@QEBAXQEB_WHQEAH1@Z 0000000180078088     libucrt:output.obj
 0004:00002094       $pdata$?write_string@?$string_output_adapter@D@__crt_stdio_output@@QEBAXQEBDHQEAH1@Z 0000000180078094     libucrt:output.obj
 0004:000020a0       $pdata$?write_string@?$string_output_adapter@_W@__crt_stdio_output@@QEBAXQEB_WHQEAH1@Z 00000001800780a0     libucrt:output.obj
 0004:000020ac       $pdata$__stdio_common_vfprintf 00000001800780ac     libucrt:output.obj
 0004:000020b8       $pdata$__stdio_common_vfwprintf 00000001800780b8     libucrt:output.obj
 0004:000020c4       $pdata$__stdio_common_vsprintf 00000001800780c4     libucrt:output.obj
 0004:000020d0       $pdata$__stdio_common_vswprintf 00000001800780d0     libucrt:output.obj
 0004:000020dc       $pdata$__acrt_initialize_stdio 00000001800780dc     libucrt:_file.obj
 0004:000020e8       $pdata$__acrt_uninitialize_stdio 00000001800780e8     libucrt:_file.obj
 0004:000020f4       $pdata$??$parse_integer@KV?$c_string_character_source@D@__crt_strtox@@@__crt_strtox@@YAKQEAU__crt_locale_pointers@@V?$c_string_character_source@D@0@H_N@Z 00000001800780f4     libucrt:atox.obj
 0004:00002100       $pdata$??$parse_integer@KV?$c_string_character_source@_W@__crt_strtox@@@__crt_strtox@@YAKQEAU__crt_locale_pointers@@V?$c_string_character_source@_W@0@H_N@Z 0000000180078100     libucrt:atox.obj
 0004:0000210c       $pdata$atoi                000000018007810c     libucrt:atox.obj
 0004:00002118       $pdata$isalpha             0000000180078118     libucrt:_ctype.obj
 0004:00002124       $pdata$isdigit             0000000180078124     libucrt:_ctype.obj
 0004:00002130       $pdata$isspace             0000000180078130     libucrt:_ctype.obj
 0004:0000213c       $pdata$__acrt_initialize_clock 000000018007813c     libucrt:clock.obj
 0004:00002148       $pdata$clock               0000000180078148     libucrt:clock.obj
 0004:00002154       $pdata$??$common_fgets@D@@YAPEADQEADHV__crt_stdio_stream@@@Z 0000000180078154     libucrt:fgets.obj
 0004:00002160       $pdata$_fread_nolock_s     0000000180078160     libucrt:fread.obj
 0004:0000216c       $pdata$fread               000000018007816c     libucrt:fread.obj
 0004:00002178       $pdata$fread_s             0000000180078178     libucrt:fread.obj
 0004:00002184       $pdata$_callnewh           0000000180078184     libucrt:new_handler.obj
 0004:00002190       $pdata$_query_new_handler  0000000180078190     libucrt:new_handler.obj
 0004:0000219c       $pdata$_initterm           000000018007819c     libucrt:initterm.obj
 0004:000021a8       $pdata$_initterm_e         00000001800781a8     libucrt:initterm.obj
 0004:000021b4       $pdata$_seh_filter_exe     00000001800781b4     libucrt:exception_filter.obj
 0004:000021c0       $pdata$?common_exit@@YAXHW4_crt_exit_cleanup_mode@@W4_crt_exit_return_mode@@@Z 00000001800781c0     libucrt:exit.obj
 0004:000021cc       $pdata$?exit_or_terminate_process@@YAXI@Z 00000001800781cc     libucrt:exit.obj
 0004:000021d8       $pdata$?try_cor_exit_process@@YAXI@Z 00000001800781d8     libucrt:exit.obj
 0004:000021e4       $pdata$??$parse_command_line@D@@YAXPEADPEAPEAD0PEA_K2@Z 00000001800781e4     libucrt:argv_parsing.obj
 0004:000021f0       $pdata$__acrt_allocate_buffer_for_argv 00000001800781f0     libucrt:argv_parsing.obj
 0004:000021fc       $pdata$_configure_narrow_argv 00000001800781fc     libucrt:argv_parsing.obj
 0004:00002208       $pdata$??$common_get_or_create_environment_nolock@D@@YAPEAPEADXZ 0000000180078208     libucrt:environment_initialization.obj
 0004:00002214       $pdata$??$common_initialize_environment_nolock@D@@YAHXZ 0000000180078214     libucrt:environment_initialization.obj
 0004:00002220       $pdata$??$create_environment@D@@YAQEAPEADQEAD@Z 0000000180078220     libucrt:environment_initialization.obj
 0004:0000222c       $pdata$??$free_environment@D@@YAXQEAPEAD@Z 000000018007822c     libucrt:environment_initialization.obj
 0004:0000222c       $pdata$??$free_environment@_W@@YAXQEAPEA_W@Z 000000018007822c     libucrt:environment_initialization.obj
 0004:00002238       $pdata$??$initialize_environment_by_cloning_nolock@D@@YAHXZ 0000000180078238     libucrt:environment_initialization.obj
 0004:00002244       $pdata$??$uninitialize_environment_internal@D@@YAXAEAPEAPEAD@Z 0000000180078244     libucrt:environment_initialization.obj
 0004:00002250       $pdata$??$uninitialize_environment_internal@_W@@YAXAEAPEAPEA_W@Z 0000000180078250     libucrt:environment_initialization.obj
 0004:0000225c       $pdata$__dcrt_uninitialize_environments_nolock 000000018007825c     libucrt:environment_initialization.obj
 0004:00002268       $pdata$??$?RV<lambda_b8c45f8f788dd370798f47cfe8ac3a86>@@AEAV<lambda_4e60a939b0d047cfe11ddc22648dfba9>@@V<lambda_332c3edc96d0294ec56c57d38c1cdfd5>@@@?$__crt_seh_guarded_call@H@@QEAAH$$QEAV<lambda_b8c45f8f788dd370798f47cfe8ac3a86>@@AEAV<lambda_4e60a939b0d047cfe11ddc22648dfba9>@@$$QEAV<lambda_332c3edc96d0294ec56c57d38c1cdfd5>@@@Z 0000000180078268     libucrt:onexit.obj
 0004:00002274       $pdata$??$?RV<lambda_e24bbb7b643b32fcea6fa61b31d4c984>@@AEAV<lambda_275893d493268fdec8709772e3fcec0e>@@V<lambda_9d71df4d7cf3f480f8d633942495c3b0>@@@?$__crt_seh_guarded_call@H@@QEAAH$$QEAV<lambda_e24bbb7b643b32fcea6fa61b31d4c984>@@AEAV<lambda_275893d493268fdec8709772e3fcec0e>@@$$QEAV<lambda_9d71df4d7cf3f480f8d633942495c3b0>@@@Z 0000000180078274     libucrt:onexit.obj
 0004:00002280       $pdata$??R<lambda_4e60a939b0d047cfe11ddc22648dfba9>@@QEBAHXZ 0000000180078280     libucrt:onexit.obj
 0004:0000228c       $pdata$_execute_onexit_table 000000018007828c     libucrt:onexit.obj
 0004:00002298       $pdata$_register_onexit_function 0000000180078298     libucrt:onexit.obj
 0004:000022a4       $pdata$initialize_c        00000001800782a4     libucrt:initialization.obj
 0004:000022b0       $pdata$uninitialize_environment 00000001800782b0     libucrt:initialization.obj
 0004:000022bc       $pdata$initialize_pointers 00000001800782bc     libucrt:initialization.obj
 0004:000022c8       $pdata$uninitialize_allocated_memory 00000001800782c8     libucrt:initialization.obj
 0004:000022d4       $pdata$__acrt_thread_attach 00000001800782d4     libucrt:initialization.obj
 0004:000022e0       $pdata$__acrt_thread_detach 00000001800782e0     libucrt:initialization.obj
 0004:000022ec       $pdata$__acrt_uninitialize_critical 00000001800782ec     libucrt:initialization.obj
 0004:000022f8       $pdata$terminate           00000001800782f8     libucrt:terminate.obj
 0004:00002304       $pdata$abort               0000000180078304     libucrt:abort.obj
 0004:00002310       $pdata$strcpy_s            0000000180078310     libucrt:strcpy_s.obj
 0004:0000231c       $pdata$_free_base          000000018007831c     libucrt:free_base.obj
 0004:00002328       $pdata$_malloc_base        0000000180078328     libucrt:malloc_base.obj
 0004:00002334       $pdata$_calloc_base        0000000180078334     libucrt:calloc_base.obj
 0004:00002340       $pdata$__acrt_errno_map_os_error 0000000180078340     libucrt:errno.obj
 0004:0000234c       $pdata$__doserrno          000000018007834c     libucrt:errno.obj
 0004:00002358       $pdata$_errno              0000000180078358     libucrt:errno.obj
 0004:00002364       $pdata$??$common_xtox@K_W@@YAHKQEA_W_KI_N@Z 0000000180078364     libucrt:xtoa.obj
 0004:00002370       $pdata$??$common_xtox_s@K_W@@YAHKQEA_W_KI_N@Z 0000000180078370     libucrt:xtoa.obj
 0004:0000237c       $pdata$_itow_s             000000018007837c     libucrt:xtoa.obj
 0004:00002388       $pdata$_set_error_mode     0000000180078388     libucrt:set_error_mode.obj
 0004:00002394       $pdata$wcscat_s            0000000180078394     libucrt:wcscat_s.obj
 0004:000023a0       $pdata$wcscpy_s            00000001800783a0     libucrt:wcscpy_s.obj
 0004:000023ac       $pdata$wcsncat_s           00000001800783ac     libucrt:wcsncat_s.obj
 0004:000023b8       $pdata$??$message_box_wait_thread@_W@@YAKQEAX@Z 00000001800783b8     libucrt:crtmbox.obj
 0004:000023c4       $pdata$__acrt_show_wide_message_box 00000001800783c4     libucrt:crtmbox.obj
 0004:000023d0       $pdata$__acrt_stdio_flush_nolock 00000001800783d0     libucrt:fflush.obj
 0004:000023dc       $pdata$_fflush_nolock      00000001800783dc     libucrt:fflush.obj
 0004:000023e8       $pdata$common_flush_all    00000001800783e8     libucrt:fflush.obj
 0004:000023f4       $pdata$fflush              00000001800783f4     libucrt:fflush.obj
 0004:00002400       $pdata$??$?RV<lambda_7a5ef57ff966f610505f1d28a3d40618>@@AEAV<lambda_b721fa326cdb32351d23dfa67958c160>@@V<lambda_5e0fb27672408a07956fe59e48ccb2aa>@@@?$__crt_seh_guarded_call@H@@QEAAH$$QEAV<lambda_7a5ef57ff966f610505f1d28a3d40618>@@AEAV<lambda_b721fa326cdb32351d23dfa67958c160>@@$$QEAV<lambda_5e0fb27672408a07956fe59e48ccb2aa>@@@Z 0000000180078400     libucrt:setvbuf.obj
 0004:0000240c       $pdata$??R<lambda_b721fa326cdb32351d23dfa67958c160>@@QEBAHXZ 000000018007840c     libucrt:setvbuf.obj
 0004:00002418       $pdata$setvbuf             0000000180078418     libucrt:setvbuf.obj
 0004:00002424       $pdata$??$?RV<lambda_c36588078e9f5dfd39652860aa6b3aaf>@@AEAV<lambda_ec61778202f4f5fc7e7711acc23c3bca>@@V<lambda_dc9d2797ccde5d239b4a0efae8ebd7db>@@@?$__crt_seh_guarded_call@P6AXH@Z@@QEAAP6AXH@Z$$QEAV<lambda_c36588078e9f5dfd39652860aa6b3aaf>@@AEAV<lambda_ec61778202f4f5fc7e7711acc23c3bca>@@$$QEAV<lambda_dc9d2797ccde5d239b4a0efae8ebd7db>@@@Z 0000000180078424     libucrt:signal.obj
 0004:00002430       $pdata$__acrt_get_sigabrt_handler 0000000180078430     libucrt:signal.obj
 0004:0000243c       $pdata$raise               000000018007843c     libucrt:signal.obj
 0004:00002448       $pdata$??$?RV<lambda_46352004c1216016012b18bd6f87e700>@@AEAV<lambda_3bd07e1a1191394380780325891bf33f>@@V<lambda_334532d3f185bcaa59b5be82d7d22bff>@@@?$__crt_seh_guarded_call@X@@QEAAX$$QEAV<lambda_46352004c1216016012b18bd6f87e700>@@AEAV<lambda_3bd07e1a1191394380780325891bf33f>@@$$QEAV<lambda_334532d3f185bcaa59b5be82d7d22bff>@@@Z 0000000180078448     libucrt:per_thread_data.obj
 0004:00002454       $pdata$??$?RV<lambda_5e887d1dcbef67a5eb4283622ba103bf>@@AEAV<lambda_4466841279450cc726390878d4a41900>@@V<lambda_341c25c0346d94847f1f3c463c57e077>@@@?$__crt_seh_guarded_call@X@@QEAAX$$QEAV<lambda_5e887d1dcbef67a5eb4283622ba103bf>@@AEAV<lambda_4466841279450cc726390878d4a41900>@@$$QEAV<lambda_341c25c0346d94847f1f3c463c57e077>@@@Z 0000000180078454     libucrt:per_thread_data.obj
 0004:00002460       $pdata$??$?RV<lambda_72d1df2b273a38828b1ce30cbf4cdab5>@@AEAV<lambda_876a65b173b8412d3a47c70a915b0cf4>@@V<lambda_41932305e351933ebe8f8be3ed8bb5dc>@@@?$__crt_seh_guarded_call@X@@QEAAX$$QEAV<lambda_72d1df2b273a38828b1ce30cbf4cdab5>@@AEAV<lambda_876a65b173b8412d3a47c70a915b0cf4>@@$$QEAV<lambda_41932305e351933ebe8f8be3ed8bb5dc>@@@Z 0000000180078460     libucrt:per_thread_data.obj
 0004:0000246c       $pdata$??$?RV<lambda_fb3a7dec4e47f37f22dae91bb15c9095>@@AEAV<lambda_698284760c8add0bfb0756c19673e34b>@@V<lambda_dfb8eca1e75fef3034a8fb18dd509707>@@@?$__crt_seh_guarded_call@X@@QEAAX$$QEAV<lambda_fb3a7dec4e47f37f22dae91bb15c9095>@@AEAV<lambda_698284760c8add0bfb0756c19673e34b>@@$$QEAV<lambda_dfb8eca1e75fef3034a8fb18dd509707>@@@Z 000000018007846c     libucrt:per_thread_data.obj
 0004:00002478       $pdata$?construct_ptd_array@@YAXQEAU__acrt_ptd@@@Z 0000000180078478     libucrt:per_thread_data.obj
 0004:00002484       $pdata$?destroy_fls@@YAXPEAX@Z 0000000180078484     libucrt:per_thread_data.obj
 0004:00002490       $pdata$?destroy_ptd_array@@YAXQEAU__acrt_ptd@@@Z 0000000180078490     libucrt:per_thread_data.obj
 0004:0000249c       $pdata$?replace_current_thread_locale_nolock@@YAXQEAU__acrt_ptd@@QEAU__crt_locale_data@@@Z 000000018007849c     libucrt:per_thread_data.obj
 0004:000024a8       $pdata$__acrt_freeptd      00000001800784a8     libucrt:per_thread_data.obj
 0004:000024b4       $pdata$__acrt_getptd       00000001800784b4     libucrt:per_thread_data.obj
 0004:000024c0       $pdata$__acrt_getptd_noexit 00000001800784c0     libucrt:per_thread_data.obj
 0004:000024cc       $pdata$__acrt_initialize_ptd 00000001800784cc     libucrt:per_thread_data.obj
 0004:000024d8       $pdata$__acrt_uninitialize_ptd 00000001800784d8     libucrt:per_thread_data.obj
 0004:000024e4       $pdata$?__acrt_stdio_allocate_stream@@YA?AV__crt_stdio_stream@@XZ 00000001800784e4     libucrt:stream.obj
 0004:000024f0       $pdata$?find_or_allocate_unused_stream_nolock@@YA?AV__crt_stdio_stream@@XZ 00000001800784f0     libucrt:stream.obj
 0004:000024fc       $pdata$??$__acrt_stdio_parse_mode@D@@YA?AU__acrt_stdio_stream_mode@@QEBD@Z 00000001800784fc     libucrt:openfile.obj
 0004:00002508       $pdata$_openfile           0000000180078508     libucrt:openfile.obj
 0004:00002514       $pdata$??$?RV<lambda_bfedae4ebbf01fab1bb6dcc6a9e276e0>@@AEAV<lambda_2fe9b910cf3cbf4a0ab98a02ba45b3ec>@@V<lambda_237c231691f317818eb88cc1d5d642d6>@@@?$__crt_seh_guarded_call@H@@QEAAH$$QEAV<lambda_bfedae4ebbf01fab1bb6dcc6a9e276e0>@@AEAV<lambda_2fe9b910cf3cbf4a0ab98a02ba45b3ec>@@$$QEAV<lambda_237c231691f317818eb88cc1d5d642d6>@@@Z 0000000180078514     libucrt:close.obj
 0004:00002520       $pdata$_close              0000000180078520     libucrt:close.obj
 0004:0000252c       $pdata$_close_nolock       000000018007852c     libucrt:close.obj
 0004:00002538       $pdata$_fileno             0000000180078538     libucrt:fileno.obj
 0004:00002544       $pdata$__acrt_stdio_free_buffer_nolock 0000000180078544     libucrt:_freebuf.obj
 0004:00002550       $pdata$iswctype            0000000180078550     libucrt:iswctype.obj
 0004:0000255c       $pdata$__acrt_update_locale_info 000000018007855c     libucrt:locale_update.obj
 0004:00002568       $pdata$__acrt_update_multibyte_info 0000000180078568     libucrt:locale_update.obj
 0004:00002574       $pdata$__acrt_uninitialize_locale 0000000180078574     libucrt:wsetlocale.obj
 0004:00002580       $pdata$strnlen             0000000180078580     libucrt:strnlen.obj
 0004:0000258c       $pdata$wcsnlen             000000018007858c     libucrt:strnlen.obj
 0004:00002598       $pdata$_strnicoll_l        0000000180078598     libucrt:strnicol.obj
 0004:000025a4       $pdata$__acrt_initialize_locks 00000001800785a4     libucrt:locks.obj
 0004:000025b0       $pdata$__acrt_uninitialize_locks 00000001800785b0     libucrt:locks.obj
 0004:000025bc       $pdata$?internal_isupper_l@@YA_NHQEAU__crt_locale_pointers@@@Z 00000001800785bc     libucrt:tolower_toupper.obj
 0004:000025c8       $pdata$_tolower_l          00000001800785c8     libucrt:tolower_toupper.obj
 0004:000025d4       $pdata$tolower             00000001800785d4     libucrt:tolower_toupper.obj
 0004:000025e0       $pdata$_realloc_base       00000001800785e0     libucrt:realloc_base.obj
 0004:000025ec       $pdata$strtol              00000001800785ec     libucrt:strtox.obj
 0004:000025f8       $pdata$wcstol              00000001800785f8     libucrt:strtox.obj
 0004:00002604       $pdata$_mbtowc_l           0000000180078604     libucrt:mbtowc.obj
 0004:00002610       $pdata$_wctomb_s_l         0000000180078610     libucrt:wctomb.obj
 0004:0000261c       $pdata$wctomb_s            000000018007861c     libucrt:wctomb.obj
 0004:00002628       $pdata$?fp_format_a@@YAHQEBNPEAD_KQEAD2H_NIQEAU__crt_locale_pointers@@@Z 0000000180078628     libucrt:cvt.obj
 0004:00002634       $pdata$?fp_format_e@@YAHQEBNQEAD_K12H_NIQEAU__crt_locale_pointers@@@Z 0000000180078634     libucrt:cvt.obj
 0004:00002640       $pdata$?fp_format_e_internal@@YAHQEAD_KH_NIQEAU_strflt@@2QEAU__crt_locale_pointers@@@Z 0000000180078640     libucrt:cvt.obj
 0004:0000264c       $pdata$?fp_format_f_internal@@YAHQEAD_KHQEAU_strflt@@_NQEAU__crt_locale_pointers@@@Z 000000018007864c     libucrt:cvt.obj
 0004:00002658       $pdata$?fp_format_g@@YAHQEBNQEAD_K12H_NIQEAU__crt_locale_pointers@@@Z 0000000180078658     libucrt:cvt.obj
 0004:00002664       $pdata$?fp_format_nan_or_infinity@@YAHW4__acrt_fp_class@@_NPEAD_K1@Z 0000000180078664     libucrt:cvt.obj
 0004:00002670       $pdata$__acrt_fp_format    0000000180078670     libucrt:cvt.obj
 0004:0000267c       $pdata$_fputwc_nolock      000000018007867c     libucrt:fputwc.obj
 0004:00002688       $pdata$__acrt_stdio_begin_temporary_buffering_nolock 0000000180078688     libucrt:_sftbuf.obj
 0004:00002694       $pdata$__acrt_stdio_end_temporary_buffering_nolock 0000000180078694     libucrt:_sftbuf.obj
 0004:000026a0       $pdata$?initialize_inherited_file_handles_nolock@@YAXXZ 00000001800786a0     libucrt:ioinit.obj
 0004:000026ac       $pdata$?initialize_stdio_handles_nolock@@YAXXZ 00000001800786ac     libucrt:ioinit.obj
 0004:000026b8       $pdata$__acrt_initialize_lowio 00000001800786b8     libucrt:ioinit.obj
 0004:000026c4       $pdata$__acrt_uninitialize_lowio 00000001800786c4     libucrt:ioinit.obj
 0004:000026d0       $pdata$?try_get_function@@YAPEAXW4function_id@?A0x63058377@@QEBDQEBW4module_id@2@2@Z 00000001800786d0     libucrt:winapi_thunks.obj
 0004:000026dc       $pdata$__acrt_AreFileApisANSI 00000001800786dc     libucrt:winapi_thunks.obj
 0004:000026e8       $pdata$__acrt_CompareStringEx 00000001800786e8     libucrt:winapi_thunks.obj
 0004:000026f4       $pdata$__acrt_FlsAlloc     00000001800786f4     libucrt:winapi_thunks.obj
 0004:00002700       $pdata$__acrt_FlsFree      0000000180078700     libucrt:winapi_thunks.obj
 0004:0000270c       $pdata$__acrt_FlsGetValue  000000018007870c     libucrt:winapi_thunks.obj
 0004:00002718       $pdata$__acrt_FlsSetValue  0000000180078718     libucrt:winapi_thunks.obj
 0004:00002724       $pdata$__acrt_InitializeCriticalSectionEx 0000000180078724     libucrt:winapi_thunks.obj
 0004:00002730       $pdata$__acrt_LCMapStringEx 0000000180078730     libucrt:winapi_thunks.obj
 0004:0000273c       $pdata$__acrt_LocaleNameToLCID 000000018007873c     libucrt:winapi_thunks.obj
 0004:00002748       $pdata$__acrt_MessageBoxW  0000000180078748     libucrt:winapi_thunks.obj
 0004:00002754       $pdata$__acrt_can_show_message_box 0000000180078754     libucrt:winapi_thunks.obj
 0004:00002760       $pdata$__acrt_get_parent_window 0000000180078760     libucrt:winapi_thunks.obj
 0004:0000276c       $pdata$__acrt_initialize_winapi_thunks 000000018007876c     libucrt:winapi_thunks.obj
 0004:00002778       $pdata$__acrt_is_interactive 0000000180078778     libucrt:winapi_thunks.obj
 0004:00002784       $pdata$__acrt_is_packaged_app 0000000180078784     libucrt:winapi_thunks.obj
 0004:00002790       $pdata$__acrt_uninitialize_winapi_thunks 0000000180078790     libucrt:winapi_thunks.obj
 0004:0000279c       $pdata$_fcloseall          000000018007879c     libucrt:closeall.obj
 0004:000027a8       $pdata$__pctype_func       00000001800787a8     libucrt:ctype.obj
 0004:000027b4       $pdata$_isctype_l          00000001800787b4     libucrt:isctype.obj
 0004:000027c0       $pdata$_fgetc_nolock       00000001800787c0     libucrt:fgetc.obj
 0004:000027cc       $pdata$??$translate_text_mode_nolock@_W@@YAHHQEA_W_K@Z 00000001800787cc     libucrt:read.obj
 0004:000027d8       $pdata$?translate_ansi_or_utf8_nolock@@YAHHQEAD_KQEA_W1@Z 00000001800787d8     libucrt:read.obj
 0004:000027e4       $pdata$_read               00000001800787e4     libucrt:read.obj
 0004:000027f0       $pdata$_read_nolock        00000001800787f0     libucrt:read.obj
 0004:000027fc       $pdata$??$common_refill_and_read_nolock@D@@YAHV__crt_stdio_stream@@@Z 00000001800787fc     libucrt:_filbuf.obj
 0004:00002808       $pdata$??$common_expand_argv_wildcards@D@@YAHQEAPEADQEAPEAPEAD@Z 0000000180078808     libucrt:argv_wildcards.obj
 0004:00002814       $pdata$??$copy_and_add_argument_to_buffer@D@@YAHQEBD0_KAEAV?$argument_list@D@?A0xca0879c4@@@Z 0000000180078814     libucrt:argv_wildcards.obj
 0004:00002820       $pdata$??$expand_argument_wildcards@D@@YAHQEAD0AEAV?$argument_list@D@?A0xca0879c4@@@Z 0000000180078820     libucrt:argv_wildcards.obj
 0004:0000282c       $pdata$?expand_if_necessary@?$argument_list@D@?A0xca0879c4@@AEAAHXZ 000000018007882c     libucrt:argv_wildcards.obj
 0004:00002838       $pdata$??$?RV<lambda_99476a1ad63dd22509b5d3e65b0ffc95>@@AEAV<lambda_ad1ced32f4ac17aa236e5ef05d6b3b7c>@@V<lambda_f7424dd8d45958661754dc4f2697e9c3>@@@?$__crt_seh_guarded_call@X@@QEAAX$$QEAV<lambda_99476a1ad63dd22509b5d3e65b0ffc95>@@AEAV<lambda_ad1ced32f4ac17aa236e5ef05d6b3b7c>@@$$QEAV<lambda_f7424dd8d45958661754dc4f2697e9c3>@@@Z 0000000180078838     libucrt:mbctype.obj
 0004:00002844       $pdata$??R<lambda_ad1ced32f4ac17aa236e5ef05d6b3b7c>@@QEBAXXZ 0000000180078844     libucrt:mbctype.obj
 0004:00002850       $pdata$?getSystemCP@@YAHH@Z 0000000180078850     libucrt:mbctype.obj
 0004:0000285c       $pdata$?setSBCS@@YAXPEAU__crt_multibyte_data@@@Z 000000018007885c     libucrt:mbctype.obj
 0004:00002868       $pdata$?setSBUpLow@@YAXPEAU__crt_multibyte_data@@@Z 0000000180078868     libucrt:mbctype.obj
 0004:00002874       $pdata$?setmbcp_internal@@YAHH_N@Z 0000000180078874     libucrt:mbctype.obj
 0004:00002880       $pdata$__acrt_initialize_multibyte 0000000180078880     libucrt:mbctype.obj
 0004:0000288c       $pdata$__acrt_update_thread_multibyte_data 000000018007888c     libucrt:mbctype.obj
 0004:00002898       $pdata$_setmbcp_nolock     0000000180078898     libucrt:mbctype.obj
 0004:000028a4       $pdata$?x_ismbbtype_l@@YAHPEAU__crt_locale_pointers@@IHH@Z 00000001800788a4     libucrt:ismbbyte.obj
 0004:000028b0       $pdata$__acrt_initialize_command_line 00000001800788b0     libucrt:argv_data.obj
 0004:000028bc       $pdata$__dcrt_get_narrow_environment_from_os 00000001800788bc     libucrt:get_environment_from_os.obj
 0004:000028c8       $pdata$??$common_set_variable_in_environment_nolock@D@@YAHQEADH@Z 00000001800788c8     libucrt:setenv.obj
 0004:000028d4       $pdata$??$copy_environment@D@@YAPEAPEADQEAPEAD@Z 00000001800788d4     libucrt:setenv.obj
 0004:000028e0       $pdata$_recalloc_base      00000001800788e0     libucrt:recalloc.obj
 0004:000028ec       $pdata$__acrt_initialize_heap 00000001800788ec     libucrt:heap_handle.obj
 0004:000028f8       $pdata$__acrt_execute_initializers 00000001800788f8     libucrt:shared_initialization.obj
 0004:00002904       $pdata$__acrt_execute_uninitializers 0000000180078904     libucrt:shared_initialization.obj
 0004:00002910       $pdata$__acrt_invoke_user_matherr 0000000180078910     libucrt:matherr.obj
 0004:0000291c       $pdata$??$?RV<lambda_b521505b218e5242e90febf6bfebc422>@@AEAV<lambda_6978c1fb23f02e42e1d9e99668cc68aa>@@V<lambda_314360699dd331753a4119843814e9a7>@@@?$__crt_seh_guarded_call@H@@QEAAH$$QEAV<lambda_b521505b218e5242e90febf6bfebc422>@@AEAV<lambda_6978c1fb23f02e42e1d9e99668cc68aa>@@$$QEAV<lambda_314360699dd331753a4119843814e9a7>@@@Z 000000018007891c     libucrt:commit.obj
 0004:00002928       $pdata$_commit             0000000180078928     libucrt:commit.obj
 0004:00002934       $pdata$?write_double_translated_ansi_nolock@@YA?AUwrite_result@?A0x9c548279@@HQEBDI@Z 0000000180078934     libucrt:write.obj
 0004:00002940       $pdata$?write_text_ansi_nolock@@YA?AUwrite_result@?A0x9c548279@@HQEBDI@Z 0000000180078940     libucrt:write.obj
 0004:0000294c       $pdata$?write_text_utf16le_nolock@@YA?AUwrite_result@?A0x9c548279@@HQEBDI@Z 000000018007894c     libucrt:write.obj
 0004:00002958       $pdata$?write_text_utf8_nolock@@YA?AUwrite_result@?A0x9c548279@@HQEBDI@Z 0000000180078958     libucrt:write.obj
 0004:00002964       $pdata$_write              0000000180078964     libucrt:write.obj
 0004:00002970       $pdata$_write_nolock       0000000180078970     libucrt:write.obj
 0004:0000297c       $pdata$__acrt_free_locale  000000018007897c     libucrt:locale_refcounting.obj
 0004:00002988       $pdata$__acrt_locale_free_lc_time_if_unreferenced 0000000180078988     libucrt:locale_refcounting.obj
 0004:00002994       $pdata$__acrt_release_locale_ref 0000000180078994     libucrt:locale_refcounting.obj
 0004:000029a0       $pdata$__acrt_update_thread_locale_data 00000001800789a0     libucrt:locale_refcounting.obj
 0004:000029ac       $pdata$_updatetlocinfoEx_nolock 00000001800789ac     libucrt:locale_refcounting.obj
 0004:000029b8       $pdata$_strnicmp           00000001800789b8     libucrt:strnicmp.obj
 0004:000029c4       $pdata$_strnicmp_l         00000001800789c4     libucrt:strnicmp.obj
 0004:000029d0       $pdata$??$common_sopen_dispatch@D@@YAHQEBDHHHQEAHH@Z 00000001800789d0     libucrt:open.obj
 0004:000029dc       $pdata$?configure_text_mode@@YAHHUfile_options@?A0x656cf9f4@@HAEAW4__crt_lowio_text_mode@@@Z 00000001800789dc     libucrt:open.obj
 0004:000029e8       $pdata$?decode_options@@YA?AUfile_options@?A0x656cf9f4@@HHH@Z 00000001800789e8     libucrt:open.obj
 0004:000029f4       $pdata$?truncate_ctrl_z_if_present@@YAHH@Z 00000001800789f4     libucrt:open.obj
 0004:00002a00       $pdata$_sopen_nolock       0000000180078a00     libucrt:open.obj
 0004:00002a0c       $pdata$_sopen_s            0000000180078a0c     libucrt:open.obj
 0004:00002a18       $pdata$_wsopen_nolock      0000000180078a18     libucrt:open.obj
 0004:00002a24       $pdata$__acrt_lowio_create_handle_array 0000000180078a24     libucrt:osfinfo.obj
 0004:00002a30       $pdata$__acrt_lowio_destroy_handle_array 0000000180078a30     libucrt:osfinfo.obj
 0004:00002a3c       $pdata$__acrt_lowio_ensure_fh_exists 0000000180078a3c     libucrt:osfinfo.obj
 0004:00002a48       $pdata$__acrt_lowio_set_os_handle 0000000180078a48     libucrt:osfinfo.obj
 0004:00002a54       $pdata$_alloc_osfhnd       0000000180078a54     libucrt:osfinfo.obj
 0004:00002a60       $pdata$_free_osfhnd        0000000180078a60     libucrt:osfinfo.obj
 0004:00002a6c       $pdata$_get_osfhandle      0000000180078a6c     libucrt:osfinfo.obj
 0004:00002a78       $pdata$__acrt_locale_free_monetary 0000000180078a78     libucrt:initmon.obj
 0004:00002a84       $pdata$__acrt_locale_free_numeric 0000000180078a84     libucrt:initnum.obj
 0004:00002a90       $pdata$?free_crt_array_internal@@YAXQEAPEBX_K@Z 0000000180078a90     libucrt:inittime.obj
 0004:00002a9c       $pdata$__acrt_locale_free_time 0000000180078a9c     libucrt:inittime.obj
 0004:00002aa8       $pdata$__acrt_GetStringTypeA 0000000180078aa8     libucrt:getstringtypea.obj
 0004:00002ab4       $pdata$?InternalCompareStringA@@YAHPEAU__crt_locale_pointers@@PEB_WKPEBDH2HH@Z 0000000180078ab4     libucrt:comparestringa.obj
 0004:00002ac0       $pdata$__acrt_CompareStringA 0000000180078ac0     libucrt:comparestringa.obj
 0004:00002acc       $pdata$?__acrt_LCMapStringA_stat@@YAHPEAU__crt_locale_pointers@@PEB_WKPEBDHPEADHHH@Z 0000000180078acc     libucrt:lcmapstringa.obj
 0004:00002ad8       $pdata$__acrt_LCMapStringA 0000000180078ad8     libucrt:lcmapstringa.obj
 0004:00002ae4       $pdata$__acrt_fp_strflt_to_string 0000000180078ae4     libucrt:_fptostr.obj
 0004:00002af0       $pdata$?divide@__crt_strtox@@YA_KAEAUbig_integer@1@AEBU21@@Z 0000000180078af0     libucrt:cfout.obj
 0004:00002afc       $pdata$5$?divide@__crt_strtox@@YA_KAEAUbig_integer@1@AEBU21@@Z 0000000180078afc     libucrt:cfout.obj
 0004:00002b08       $pdata$6$?divide@__crt_strtox@@YA_KAEAUbig_integer@1@AEBU21@@Z 0000000180078b08     libucrt:cfout.obj
 0004:00002b14       $pdata$__acrt_fltout       0000000180078b14     libucrt:cfout.obj
 0004:00002b20       $pdata$memcpy_s            0000000180078b20     libucrt:cfout.obj
 0004:00002b2c       $pdata$??$write_buffer_nolock@D@@YA_NDV__crt_stdio_stream@@@Z 0000000180078b2c     libucrt:_flsbuf.obj
 0004:00002b38       $pdata$??$write_buffer_nolock@_W@@YA_N_WV__crt_stdio_stream@@@Z 0000000180078b38     libucrt:_flsbuf.obj
 0004:00002b44       $pdata$__acrt_stdio_flush_and_write_narrow_nolock 0000000180078b44     libucrt:_flsbuf.obj
 0004:00002b50       $pdata$__acrt_stdio_flush_and_write_wide_nolock 0000000180078b50     libucrt:_flsbuf.obj
 0004:00002b5c       $pdata$_isatty             0000000180078b5c     libucrt:isatty.obj
 0004:00002b68       $pdata$?GetTableIndexFromLocaleName@@YAHPEB_W@Z 0000000180078b68     libucrt:lcidtoname_downlevel.obj
 0004:00002b74       $pdata$__acrt_DownlevelLocaleNameToLCID 0000000180078b74     libucrt:lcidtoname_downlevel.obj
 0004:00002b80       $pdata$??$common_lseek@_J@@YA_JH_JH@Z 0000000180078b80     libucrt:lseek.obj
 0004:00002b8c       $pdata$??$common_lseek_nolock@_J@@YA_JH_JH@Z 0000000180078b8c     libucrt:lseek.obj
 0004:00002b98       $pdata$__acrt_stdio_allocate_buffer_nolock 0000000180078b98     libucrt:_getbuf.obj
 0004:00002ba4       $pdata$?shortsort@@YAXPEAD0_KP6AHPEBX2@Z@Z 0000000180078ba4     libucrt:qsort.obj
 0004:00002bb0       $pdata$2$?shortsort@@YAXPEAD0_KP6AHPEBX2@Z@Z 0000000180078bb0     libucrt:qsort.obj
 0004:00002bbc       $pdata$3$?shortsort@@YAXPEAD0_KP6AHPEBX2@Z@Z 0000000180078bbc     libucrt:qsort.obj
 0004:00002bc8       $pdata$qsort               0000000180078bc8     libucrt:qsort.obj
 0004:00002bd4       $pdata$4$qsort             0000000180078bd4     libucrt:qsort.obj
 0004:00002be0       $pdata$5$qsort             0000000180078be0     libucrt:qsort.obj
 0004:00002bec       $pdata$strncpy_s           0000000180078bec     libucrt:strncpy_s.obj
 0004:00002bf8       $pdata$strpbrk             0000000180078bf8     libucrt:strpbrk.obj
 0004:00002c04       $pdata$_mbsdec_l           0000000180078c04     libucrt:mbsdec.obj
 0004:00002c10       $pdata$?initialize_multibyte@@YAHXZ 0000000180078c10     libucrt:multibyte_initializer.obj
 0004:00002c1c       $pdata$_msize              0000000180078c1c     libucrt:msize.obj
 0004:00002c28       $pdata$_putwch_nolock      0000000180078c28     libucrt:putwch.obj
 0004:00002c34       $pdata$_get_fmode          0000000180078c34     libucrt:setmode.obj
 0004:00002c40       $pdata$_setmode_nolock     0000000180078c40     libucrt:setmode.obj
 0004:00002c4c       $pdata$__acrt_copy_path_to_wide_string 0000000180078c4c     libucrt:string_utilities.obj
 0004:00002c58       $pdata$_chsize_nolock      0000000180078c58     libucrt:chsize.obj
 0004:00002c64       $pdata$fegetenv            0000000180078c64     libucrt:fegetenv.obj
 0004:00002c70       $pdata$fesetenv            0000000180078c70     libucrt:fesetenv.obj
 0004:00002c7c       $pdata$feholdexcept        0000000180078c7c     libucrt:feholdexcept.obj
 0004:00002c94       $pdata$__dcrt_lowio_initialize_console_output 0000000180078c94     libucrt:initcon.obj
 0004:00002ca0       $pdata$__dcrt_terminate_console_output 0000000180078ca0     libucrt:initcon.obj
 0004:00002cac       $pdata$_getfpcontrolword   0000000180078cac     libucrt:_fenvutils.obj
 0004:00002cb8       $pdata$_getfpstatusword    0000000180078cb8     libucrt:_fenvutils.obj
 0004:00002cc4       $pdata$_setfpstatusword    0000000180078cc4     libucrt:_fenvutils.obj
 0004:00002cd0       $pdata$_clearfp            0000000180078cd0     libucrt:ieee.obj
 0004:00002cdc       $pdata$common_control87    0000000180078cdc     libucrt:ieee.obj
 0004:00002ce8       $pdata$_call_matherr       0000000180078ce8     libucrt:libm_error.obj
 0004:00002cf4       $pdata$_exception_enabled  0000000180078cf4     libucrt:libm_error.obj
 0004:00002d00       $pdata$_handle_error       0000000180078d00     libucrt:libm_error.obj
 0004:00002d0c       $pdata$__acrt_initialize_fma3 0000000180078d0c     libucrt:fma3_available.obj
 0004:00002d18       $pdata$_log10_special      0000000180078d18     libucrt:log_special.obj
 0004:00002d24       $pdata$_log_special_common 0000000180078d24     libucrt:log_special.obj
 0004:00002d3c       $pdata$_raise_exc          0000000180078d3c     libucrt:fpexcept.obj
 0004:00002d48       $pdata$_raise_exc_ex       0000000180078d48     libucrt:fpexcept.obj
 0004:00002d54       $pdata$_set_errno_from_matherr 0000000180078d54     libucrt:fpexcept.obj
 0004:00002d60       $pdata$_clrfp              0000000180078d60     libucrt:fpctrl.obj
 0004:00002d6c       $pdata$_ctrlfp             0000000180078d6c     libucrt:fpctrl.obj
 0004:00002d78       $pdata$_set_statfp         0000000180078d78     libucrt:fpctrl.obj
 0004:00002d84       $pdata$_statfp             0000000180078d84     libucrt:fpctrl.obj
 0004:00002d90       $pdata$_IsNonwritableInCurrentImage 0000000180078d90     LIBCMT:pesect.obj
 0004:00002d9c       $pdata$__GSHandlerCheck    0000000180078d9c     LIBCMT:_gshandler_.obj
 0004:00002da8       $pdata$__GSHandlerCheckCommon 0000000180078da8     LIBCMT:_gshandler_.obj
 0004:00002dcc       $pdata$strrchr             0000000180078dcc     libvcruntime:strrchr.obj
 0004:00002de4       $pdata$?fin$0@?0??dllmain_crt_process_attach@@YAHQEAUHINSTANCE__@@QEAX@Z@4HA 0000000180078de4     LIBCMT:dll_dllmain.obj
 0004:00002df0       $pdata$?fin$0@?0??dllmain_crt_process_detach@@YAH_N@Z@4HA 0000000180078df0     LIBCMT:dll_dllmain.obj
 0004:00002dfc       $pdata$?filt$0@?0??dllmain_dispatch@@YAHQEAUHINSTANCE__@@KQEAX@Z@4HA 0000000180078dfc     LIBCMT:dll_dllmain.obj
 0004:00002e08       $pdata$__scrt_is_nonwritable_in_current_image$filt$0 0000000180078e08     LIBCMT:utility.obj
 0004:00002e14       $pdata$?fin$0@?0???$common_fsopen@D@@YAPEAU_iobuf@@QEBD0H@Z@4HA 0000000180078e14     libucrt:fopen.obj
 0004:00002e20       $pdata$fflush$fin$0        0000000180078e20     libucrt:fflush.obj
 0004:00002e20       $pdata$fclose$fin$0        0000000180078e20     libucrt:fclose.obj
 0004:00002e2c       $pdata$?fin$0@?0???$common_getenv@D@@YAPEADQEBD@Z@4HA 0000000180078e2c     libucrt:getenv.obj
 0004:00002e38       $pdata$?fin$0@?0???$?RV<lambda_aa279a7bcb127014629d5b1d62c7325d>@@AEAV<lambda_0a64b6a4deda75c01876f29c44fc5eb3>@@V<lambda_3323e69fbefe9d1a11713e670d47cdfa>@@@?$__crt_seh_guarded_call@H@@QEAAH$$QEAV<lambda_aa279a7bcb127014629d5b1d62c7325d>@@AEAV<lambda_0a64b6a4deda75c01876f29c44fc5eb3>@@$$QEAV<lambda_3323e69fbefe9d1a11713e670d47cdfa>@@@Z@4HA 0000000180078e38     libucrt:output.obj
 0004:00002e38       $pdata$?fin$0@?0???$?RV<lambda_7b91131dde12e1c3dfc74ff76b3f2eac>@@AEAV<lambda_dd75445284c072d0bd3768540cc698fa>@@V<lambda_16bc4ecb55b4718497c16bceaea2ceaf>@@@?$__crt_seh_guarded_call@H@@QEAAH$$QEAV<lambda_7b91131dde12e1c3dfc74ff76b3f2eac>@@AEAV<lambda_dd75445284c072d0bd3768540cc698fa>@@$$QEAV<lambda_16bc4ecb55b4718497c16bceaea2ceaf>@@@Z@4HA 0000000180078e38     libucrt:output.obj
 0004:00002e38       $pdata$?fin$0@?0???$?RV<lambda_7a5ef57ff966f610505f1d28a3d40618>@@AEAV<lambda_b721fa326cdb32351d23dfa67958c160>@@V<lambda_5e0fb27672408a07956fe59e48ccb2aa>@@@?$__crt_seh_guarded_call@H@@QEAAH$$QEAV<lambda_7a5ef57ff966f610505f1d28a3d40618>@@AEAV<lambda_b721fa326cdb32351d23dfa67958c160>@@$$QEAV<lambda_5e0fb27672408a07956fe59e48ccb2aa>@@@Z@4HA 0000000180078e38     libucrt:setvbuf.obj
 0004:00002e44       $pdata$?fin$0@?0???$common_fgets@D@@YAPEADQEADHV__crt_stdio_stream@@@Z@4HA 0000000180078e44     libucrt:fgets.obj
 0004:00002e50       $pdata$fread_s$fin$0       0000000180078e50     libucrt:fread.obj
 0004:00002e5c       $pdata$_query_new_handler$fin$0 0000000180078e5c     libucrt:new_handler.obj
 0004:00002e68       $pdata$?filt$0@?0??common_exit@@YAXHW4_crt_exit_cleanup_mode@@W4_crt_exit_return_mode@@@Z@4HA 0000000180078e68     libucrt:exit.obj
 0004:00002e74       $pdata$?fin$1@?0??common_exit@@YAXHW4_crt_exit_cleanup_mode@@W4_crt_exit_return_mode@@@Z@4HA 0000000180078e74     libucrt:exit.obj
 0004:00002e80       $pdata$?fin$0@?0???$?RV<lambda_e24bbb7b643b32fcea6fa61b31d4c984>@@AEAV<lambda_275893d493268fdec8709772e3fcec0e>@@V<lambda_9d71df4d7cf3f480f8d633942495c3b0>@@@?$__crt_seh_guarded_call@H@@QEAAH$$QEAV<lambda_e24bbb7b643b32fcea6fa61b31d4c984>@@AEAV<lambda_275893d493268fdec8709772e3fcec0e>@@$$QEAV<lambda_9d71df4d7cf3f480f8d633942495c3b0>@@@Z@4HA 0000000180078e80     libucrt:onexit.obj
 0004:00002e8c       $pdata$common_flush_all$fin$0 0000000180078e8c     libucrt:fflush.obj
 0004:00002e98       $pdata$common_flush_all$fin$1 0000000180078e98     libucrt:fflush.obj
 0004:00002ea4       $pdata$raise$fin$0         0000000180078ea4     libucrt:signal.obj
 0004:00002eb0       $pdata$?fin$0@?0???$?RV<lambda_46352004c1216016012b18bd6f87e700>@@AEAV<lambda_3bd07e1a1191394380780325891bf33f>@@V<lambda_334532d3f185bcaa59b5be82d7d22bff>@@@?$__crt_seh_guarded_call@X@@QEAAX$$QEAV<lambda_46352004c1216016012b18bd6f87e700>@@AEAV<lambda_3bd07e1a1191394380780325891bf33f>@@$$QEAV<lambda_334532d3f185bcaa59b5be82d7d22bff>@@@Z@4HA 0000000180078eb0     libucrt:per_thread_data.obj
 0004:00002eb0       $pdata$?fin$0@?0???$?RV<lambda_c36588078e9f5dfd39652860aa6b3aaf>@@AEAV<lambda_ec61778202f4f5fc7e7711acc23c3bca>@@V<lambda_dc9d2797ccde5d239b4a0efae8ebd7db>@@@?$__crt_seh_guarded_call@P6AXH@Z@@QEAAP6AXH@Z$$QEAV<lambda_c36588078e9f5dfd39652860aa6b3aaf>@@AEAV<lambda_ec61778202f4f5fc7e7711acc23c3bca>@@$$QEAV<lambda_dc9d2797ccde5d239b4a0efae8ebd7db>@@@Z@4HA 0000000180078eb0     libucrt:signal.obj
 0004:00002eb0       $pdata$?fin$0@?0???$?RV<lambda_99476a1ad63dd22509b5d3e65b0ffc95>@@AEAV<lambda_ad1ced32f4ac17aa236e5ef05d6b3b7c>@@V<lambda_f7424dd8d45958661754dc4f2697e9c3>@@@?$__crt_seh_guarded_call@X@@QEAAX$$QEAV<lambda_99476a1ad63dd22509b5d3e65b0ffc95>@@AEAV<lambda_ad1ced32f4ac17aa236e5ef05d6b3b7c>@@$$QEAV<lambda_f7424dd8d45958661754dc4f2697e9c3>@@@Z@4HA 0000000180078eb0     libucrt:mbctype.obj
 0004:00002eb0       $pdata$?fin$0@?0???$?RV<lambda_b8c45f8f788dd370798f47cfe8ac3a86>@@AEAV<lambda_4e60a939b0d047cfe11ddc22648dfba9>@@V<lambda_332c3edc96d0294ec56c57d38c1cdfd5>@@@?$__crt_seh_guarded_call@H@@QEAAH$$QEAV<lambda_b8c45f8f788dd370798f47cfe8ac3a86>@@AEAV<lambda_4e60a939b0d047cfe11ddc22648dfba9>@@$$QEAV<lambda_332c3edc96d0294ec56c57d38c1cdfd5>@@@Z@4HA 0000000180078eb0     libucrt:onexit.obj
 0004:00002eb0       $pdata$?fin$0@?0???$?RV<lambda_5e887d1dcbef67a5eb4283622ba103bf>@@AEAV<lambda_4466841279450cc726390878d4a41900>@@V<lambda_341c25c0346d94847f1f3c463c57e077>@@@?$__crt_seh_guarded_call@X@@QEAAX$$QEAV<lambda_5e887d1dcbef67a5eb4283622ba103bf>@@AEAV<lambda_4466841279450cc726390878d4a41900>@@$$QEAV<lambda_341c25c0346d94847f1f3c463c57e077>@@@Z@4HA 0000000180078eb0     libucrt:per_thread_data.obj
 0004:00002eb0       $pdata$?fin$0@?0???$?RV<lambda_72d1df2b273a38828b1ce30cbf4cdab5>@@AEAV<lambda_876a65b173b8412d3a47c70a915b0cf4>@@V<lambda_41932305e351933ebe8f8be3ed8bb5dc>@@@?$__crt_seh_guarded_call@X@@QEAAX$$QEAV<lambda_72d1df2b273a38828b1ce30cbf4cdab5>@@AEAV<lambda_876a65b173b8412d3a47c70a915b0cf4>@@$$QEAV<lambda_41932305e351933ebe8f8be3ed8bb5dc>@@@Z@4HA 0000000180078eb0     libucrt:per_thread_data.obj
 0004:00002eb0       $pdata$?fin$0@?0???$?RV<lambda_fb3a7dec4e47f37f22dae91bb15c9095>@@AEAV<lambda_698284760c8add0bfb0756c19673e34b>@@V<lambda_dfb8eca1e75fef3034a8fb18dd509707>@@@?$__crt_seh_guarded_call@X@@QEAAX$$QEAV<lambda_fb3a7dec4e47f37f22dae91bb15c9095>@@AEAV<lambda_698284760c8add0bfb0756c19673e34b>@@$$QEAV<lambda_dfb8eca1e75fef3034a8fb18dd509707>@@@Z@4HA 0000000180078eb0     libucrt:per_thread_data.obj
 0004:00002ebc       $pdata$?fin$0@?0???$?RV<lambda_bfedae4ebbf01fab1bb6dcc6a9e276e0>@@AEAV<lambda_2fe9b910cf3cbf4a0ab98a02ba45b3ec>@@V<lambda_237c231691f317818eb88cc1d5d642d6>@@@?$__crt_seh_guarded_call@H@@QEAAH$$QEAV<lambda_bfedae4ebbf01fab1bb6dcc6a9e276e0>@@AEAV<lambda_2fe9b910cf3cbf4a0ab98a02ba45b3ec>@@$$QEAV<lambda_237c231691f317818eb88cc1d5d642d6>@@@Z@4HA 0000000180078ebc     libucrt:close.obj
 0004:00002ebc       $pdata$?fin$0@?0???$?RV<lambda_b521505b218e5242e90febf6bfebc422>@@AEAV<lambda_6978c1fb23f02e42e1d9e99668cc68aa>@@V<lambda_314360699dd331753a4119843814e9a7>@@@?$__crt_seh_guarded_call@H@@QEAAH$$QEAV<lambda_b521505b218e5242e90febf6bfebc422>@@AEAV<lambda_6978c1fb23f02e42e1d9e99668cc68aa>@@$$QEAV<lambda_314360699dd331753a4119843814e9a7>@@@Z@4HA 0000000180078ebc     libucrt:commit.obj
 0004:00002ec8       $pdata$__acrt_uninitialize_locale$fin$0 0000000180078ec8     libucrt:wsetlocale.obj
 0004:00002ec8       $pdata$__acrt_update_thread_locale_data$fin$0 0000000180078ec8     libucrt:locale_refcounting.obj
 0004:00002ed4       $pdata$_alloc_osfhnd$fin$0 0000000180078ed4     libucrt:osfinfo.obj
 0004:00002ed4       $pdata$__acrt_lowio_ensure_fh_exists$fin$0 0000000180078ed4     libucrt:osfinfo.obj
 0004:00002ed4       $pdata$__acrt_initialize_lowio$fin$0 0000000180078ed4     libucrt:ioinit.obj
 0004:00002ee0       $pdata$_fcloseall$fin$0    0000000180078ee0     libucrt:closeall.obj
 0004:00002ee0       $pdata$?fin$0@?0??__acrt_stdio_allocate_stream@@YA?AV__crt_stdio_stream@@XZ@4HA 0000000180078ee0     libucrt:stream.obj
 0004:00002eec       $pdata$_read$fin$0         0000000180078eec     libucrt:read.obj
 0004:00002eec       $pdata$_write$fin$0        0000000180078eec     libucrt:write.obj
 0004:00002eec       $pdata$?fin$0@?0???$common_lseek@_J@@YA_JH_JH@Z@4HA 0000000180078eec     libucrt:lseek.obj
 0004:00002ef8       $pdata$__acrt_update_thread_multibyte_data$fin$0 0000000180078ef8     libucrt:mbctype.obj
 0004:00002f04       $pdata$?fin$0@?0???$common_sopen_dispatch@D@@YAHQEBDHHHQEAHH@Z@4HA 0000000180078f04     libucrt:open.obj
 0004:00002f10       $pdata$common_control87$filt$0 0000000180078f10     libucrt:ieee.obj
 0004:00002f10       $pdata$_ctrlfp$filt$0      0000000180078f10     libucrt:fpctrl.obj
 0004:00002f1c       $pdata$_IsNonwritableInCurrentImage$filt$0 0000000180078f1c     LIBCMT:pesect.obj
 0005:00000000       __guard_fids__             0000000180079000     libucrt:initialization.obj
 0005:00000060       __guard_fids___acrt_show_wide_message_box 0000000180079060     libucrt:crtmbox.obj
 0005:00000064       __guard_fids___acrt_initialize_ptd 0000000180079064     libucrt:per_thread_data.obj
 0005:00000068       __guard_fids__             0000000180079068     libucrt:stdio_initializer.obj
 0005:0000006c       __guard_fids__             000000018007906c     libucrt:stdio_initializer.obj
 0005:00000070       __guard_fids__             0000000180079070     libucrt:clock_initializer.obj
 0005:00000074       __guard_fids_??$expand_argument_wildcards@D@@YAHQEAD0AEAV?$argument_list@D@?A0xca0879c4@@@Z 0000000180079074     libucrt:argv_wildcards.obj
 0005:00000078       __guard_fids__             0000000180079078     libucrt:locale_initializer.obj
 0005:0000007c       __guard_fids__             000000018007907c     libucrt:multibyte_initializer.obj
 0005:00000080       __guard_fids__             0000000180079080     libucrt:console_output_initializer.obj
 0005:00000084       __guard_fids__             0000000180079084     libucrt:fma3_initializer.obj
 0005:00000088       __guard_fids__             0000000180079088     libcpmt:xthrow.obj
 0005:00000090       __guard_fids__             0000000180079090     libcpmt:xthrow.obj
 0005:00000098       __guard_fids__             0000000180079098     libcpmt:xthrow.obj
 0005:000000a0       __guard_fids__             00000001800790a0     libcpmt:xthrow.obj
 0005:000000a8       __guard_fids__             00000001800790a8     libcpmt:xthrow.obj
 0005:000000b0       __guard_fids_?dllmain_crt_process_attach@@YAHQEAUHINSTANCE__@@QEAX@Z 00000001800790b0     LIBCMT:dll_dllmain.obj
 0005:000000b8       __guard_fids_?dllmain_dispatch@@YAHQEAUHINSTANCE__@@KQEAX@Z 00000001800790b8     LIBCMT:dll_dllmain.obj
 0005:000000bc       __guard_fids__             00000001800790bc     LIBCMT:std_type_info_static.obj
 0005:000000c0       __guard_fids__             00000001800790c0     LIBCMT:throw_bad_alloc.obj
 0005:000000c8       __guard_fids__             00000001800790c8     LIBCMT:guard_support.obj
 0005:000000cc       __guard_fids___vcrt_initialize_ptd 00000001800790cc     libvcruntime:per_thread_data.obj
 0006:00000060       $R000000                   000000018007a060     * linker generated manifest res *

 Exports

  ordinal    name

        1    _register_spellchecker_
