 ctags

 Timestamp is 594175d8 (Wed Jun 14 17:43:52 2017)

 Preferred load address is 0000000180000000

 Start         Length     Name                   Class
 0001:00000000 00019700H .text$mn                CODE
 0001:00019700 00000020H .text$mn$00             CODE
 0001:00019720 00000340H .text$x                 CODE
 0002:00000000 000003d0H .idata$5                DATA
 0002:000003d0 00000010H .00cfg                  DATA
 0002:000003e0 00000008H .CRT$XCA                DATA
 0002:000003e8 00000008H .CRT$XCU                DATA
 0002:000003f0 00000008H .CRT$XCZ                DATA
 0002:000003f8 00000008H .CRT$XIA                DATA
 0002:00000400 00000018H .CRT$XIC                DATA
 0002:00000418 00000008H .CRT$XIZ                DATA
 0002:00000420 00000008H .CRT$XPA                DATA
 0002:00000428 00000010H .CRT$XPX                DATA
 0002:00000438 00000008H .CRT$XPXA               DATA
 0002:00000440 00000008H .CRT$XPZ                DATA
 0002:00000448 00000008H .CRT$XTA                DATA
 0002:00000450 00000010H .CRT$XTZ                DATA
 0002:00000460 00008ae8H .rdata                  DATA
 0002:00008f48 00000384H .rdata$r                DATA
 0002:000092cc 0000035cH .rdata$zzzdbg           DATA
 0002:00009628 00000008H .rtc$IAA                DATA
 0002:00009630 00000008H .rtc$IZZ                DATA
 0002:00009638 00000008H .rtc$TAA                DATA
 0002:00009640 00000008H .rtc$TZZ                DATA
 0002:00009648 00001628H .xdata                  DATA
 0002:0000ac70 000001f0H .xdata$x                DATA
 0002:0000ae60 00000050H .edata                  DATA
 0002:0000aeb0 00000028H .idata$2                DATA
 0002:0000aed8 00000018H .idata$3                DATA
 0002:0000aef0 000003d0H .idata$4                DATA
 0002:0000b2c0 00001176H .idata$6                DATA
 0003:00000000 00000a90H .data                   DATA
 0003:00000a90 00000120H .data$r                 DATA
 0003:00000bb0 000011c8H .bss                    DATA
 0004:00000000 000018e4H .pdata                  DATA
 0005:00000000 00000084H .gfids$x                DATA
 0005:00000084 00000048H .gfids$y                DATA
 0006:00000000 00000060H .rsrc$01                DATA
 0006:00000060 00000180H .rsrc$02                DATA

  Address         Publics by Value              Rva+Base               Lib:Object

 0000:00000000       __guard_iat_table          0000000000000000     <absolute>
 0000:00000000       __dynamic_value_reloc_table 0000000000000000     <absolute>
 0000:00000000       __guard_iat_count          0000000000000000     <absolute>
 0000:00000000       __guard_longjmp_table      0000000000000000     <absolute>
 0000:00000000       __guard_longjmp_count      0000000000000000     <absolute>
 0000:00000000       __guard_fids_count         0000000000000000     <absolute>
 0000:00000000       ___safe_se_handler_table   0000000000000000     <absolute>
 0000:00000000       ___safe_se_handler_count   0000000000000000     <absolute>
 0000:00000000       __guard_fids_table         0000000000000000     <absolute>
 0000:00000100       __guard_flags              0000000000000100     <absolute>
 0000:00000000       __ImageBase                0000000180000000     <linker-defined>
 0001:00000ec0       ?Wrap@ObjectWrap@node@@IEAAXV?$Local@VObject@v8@@@v8@@@Z 0000000180001ec0 f i tags.obj
 0001:00000fa0       ?Ref@ObjectWrap@node@@MEAAXXZ 0000000180001fa0 f i tags.obj
 0001:00000fe0       ?Unref@ObjectWrap@node@@MEAAXXZ 0000000180001fe0 f i tags.obj
 0001:00001090       ?WeakCallback@ObjectWrap@node@@CAXAEBV?$WeakCallbackInfo@VObjectWrap@node@@@v8@@@Z 0000000180002090 f i tags.obj
 0001:000010f0       ??_EObjectWrap@node@@UEAAPEAXI@Z 00000001800020f0 f i * CIL library *:* CIL module *
 0001:000010f0       ??_GObjectWrap@node@@UEAAPEAXI@Z 00000001800020f0 f i tags.obj
 0001:00001250       ?New@?$Factory@VFunctionTemplate@v8@@@imp@Nan@@SA?AV?$Local@VFunctionTemplate@v8@@@v8@@P6AXAEBV?$FunctionCallbackInfo@VValue@v8@@@3@@ZV?$Local@VValue@v8@@@5@V?$Local@VSignature@v8@@@5@@Z 0000000180002250 f i tags.obj
 0001:00001430       ?Call@Callback@Nan@@QEBA?AV?$Local@VValue@v8@@@v8@@HQEAV34@@Z 0000000180002430 f i tags.obj
 0001:00001530       ??0AsyncWorker@Nan@@QEAA@PEAVCallback@1@@Z 0000000180002530 f i tags.obj
 0001:000015f0       ??1AsyncWorker@Nan@@UEAA@XZ 00000001800025f0 f i tags.obj
 0001:000016a0       ?WorkComplete@AsyncWorker@Nan@@UEAAXXZ 00000001800026a0 f i tags.obj
 0001:00001730       ?Destroy@AsyncWorker@Nan@@UEAAXXZ 0000000180002730 f i tags.obj
 0001:00001750       ?HandleOKCallback@AsyncWorker@Nan@@MEAAXXZ 0000000180002750 f i tags.obj
 0001:000017a0       ?HandleErrorCallback@AsyncWorker@Nan@@MEAAXXZ 00000001800027a0 f i tags.obj
 0001:00001910       ??_EAsyncWorker@Nan@@UEAAPEAXI@Z 0000000180002910 f i * CIL library *:* CIL module *
 0001:00001910       ??_GAsyncWorker@Nan@@UEAAPEAXI@Z 0000000180002910 f i tags.obj
 0001:00001950       ?AsyncExecute@Nan@@YAXPEAUuv_work_s@@@Z 0000000180002950 f i tags.obj
 0001:00001960       ?AsyncExecuteComplete@Nan@@YAXPEAUuv_work_s@@@Z 0000000180002960 f i tags.obj
 0001:000019a0       ??1Tags@@EEAA@XZ           00000001800029a0 f i tags.obj
 0001:00001a40       ??_ETags@@EEAAPEAXI@Z      0000000180002a40 f i * CIL library *:* CIL module *
 0001:00001a40       ??_GTags@@EEAAPEAXI@Z      0000000180002a40 f i tags.obj
 0001:00001a80       ??0TagFinder@@QEAA@PEAVCallback@Nan@@V?$basic_string@DU?$char_traits@D@std@@V?$allocator@D@2@@std@@HPEAUsTagFile@@@Z 0000000180002a80 f i tags.obj
 0001:00001b10       ??_GTagFinder@@UEAAPEAXI@Z 0000000180002b10 f i tags.obj
 0001:00001b10       ??_ETagFinder@@UEAAPEAXI@Z 0000000180002b10 f i * CIL library *:* CIL module *
 0001:00001b70       ??_GTagReader@@UEAAPEAXI@Z 0000000180002b70 f i tags.obj
 0001:00001b70       ??_ETagReader@@UEAAPEAXI@Z 0000000180002b70 f i * CIL library *:* CIL module *
 0001:00001bc0       ?Init@Tags@@SAXV?$Local@VObject@v8@@@v8@@@Z 0000000180002bc0 f   tags.obj
 0001:00001f20       ?New@Tags@@CAXAEBV?$FunctionCallbackInfo@VValue@v8@@@Nan@@@Z 0000000180002f20 f   tags.obj
 0001:00001f80       ?GetTags@Tags@@CAXAEBV?$FunctionCallbackInfo@VValue@v8@@@Nan@@@Z 0000000180002f80 f   tags.obj
 0001:000020c0       ?FindTags@Tags@@CAXAEBV?$FunctionCallbackInfo@VValue@v8@@@Nan@@@Z 00000001800030c0 f   tags.obj
 0001:00002370       ??0Tags@@AEAA@V?$Local@VString@v8@@@v8@@@Z 0000000180003370 f   tags.obj
 0001:000024f0       ?Exists@Tags@@CAXAEBV?$FunctionCallbackInfo@VValue@v8@@@Nan@@@Z 00000001800034f0 f   tags.obj
 0001:00002540       ?End@Tags@@CAXAEBV?$FunctionCallbackInfo@VValue@v8@@@Nan@@@Z 0000000180003540 f   tags.obj
 0001:000025a0       ??1?$basic_string@DU?$char_traits@D@std@@V?$allocator@D@2@@std@@QEAA@XZ 00000001800035a0 f i tags.obj
 0001:00002630       ?_Tidy@?$vector@VTag@@V?$allocator@VTag@@@std@@@std@@IEAAXXZ 0000000180003630 f i tags.obj
 0001:000026f0       ?assign@?$basic_string@DU?$char_traits@D@std@@V?$allocator@D@2@@std@@QEAAAEAV12@PEBD_K@Z 00000001800036f0 f i tags.obj
 0001:00002820       ?assign@?$basic_string@DU?$char_traits@D@std@@V?$allocator@D@2@@std@@QEAAAEAV12@AEBV12@_K1@Z 0000000180003820 f i tags.obj
 0001:00002950       ?erase@?$basic_string@DU?$char_traits@D@std@@V?$allocator@D@2@@std@@QEAAAEAV12@_K0@Z 0000000180003950 f i tags.obj
 0001:000029f0       ?_Copy@?$basic_string@DU?$char_traits@D@std@@V?$allocator@D@2@@std@@QEAAX_K0@Z 00000001800039f0 f i tags.obj
 0001:00002b70       ??$Unwrap@VTags@@@ObjectWrap@node@@SAPEAVTags@@V?$Local@VObject@v8@@@v8@@@Z 0000000180003b70 f i tags.obj
 0001:00002bf0       ??$_Destroy_range1@V?$allocator@VTag@@@std@@PEAVTag@@@std@@YAXPEAVTag@@0AEAU?$_Wrap_alloc@V?$allocator@VTag@@@std@@@0@U?$integral_constant@_N$0A@@0@@Z 0000000180003bf0 f i tags.obj
 0001:00002e50       ??0Tag@@QEAA@UtagEntry@@@Z 0000000180003e50 f i tag-finder.obj
 0001:00002f80       ?Execute@TagFinder@@UEAAXXZ 0000000180003f80 f   tag-finder.obj
 0001:00003370       ?HandleOKCallback@TagFinder@@UEAAXXZ 0000000180004370 f   tag-finder.obj
 0001:00003880       ?push_back@?$vector@VTag@@V?$allocator@VTag@@@std@@@std@@QEAAX$$QEAVTag@@@Z 0000000180004880 f i tag-finder.obj
 0001:00003950       ??0?$basic_string@DU?$char_traits@D@std@@V?$allocator@D@2@@std@@QEAA@$$QEAV01@@Z 0000000180004950 f i tag-finder.obj
 0001:000039f0       ?_Reserve@?$vector@VTag@@V?$allocator@VTag@@@std@@@std@@IEAAX_K@Z 00000001800049f0 f i tag-finder.obj
 0001:00003ac0       ?_Reallocate@?$vector@VTag@@V?$allocator@VTag@@@std@@@std@@IEAAX_K@Z 0000000180004ac0 f i tag-finder.obj
 0001:00003c40       ??$_Uninitialized_move_al_unchecked@PEAVTag@@PEAV1@V?$allocator@VTag@@@std@@@std@@YAPEAVTag@@PEAV1@00AEAU?$_Wrap_alloc@V?$allocator@VTag@@@std@@@0@@Z 0000000180004c40 f i tag-finder.obj
 0001:00003cf0       ?Execute@TagReader@@UEAAXXZ 0000000180004cf0 f   tag-reader.obj
 0001:00003ff0       ?HandleOKCallback@TagReader@@UEAAXXZ 0000000180004ff0 f   tag-reader.obj
 0001:00004510       __security_check_cookie    0000000180005510 f   LIBCMT:_amdsecgs_.obj
 0001:00004534       ??2@YAPEAX_K@Z             0000000180005534 f   LIBCMT:new_scalar.obj
 0001:00004570       ??3@YAXPEAX@Z              0000000180005570 f   LIBCMT:delete_scalar.obj
 0001:00004578       ??_V@YAXPEAX@Z             0000000180005578 f   LIBCMT:delete_array.obj
 0001:00004578       ??3@YAXPEAX_K@Z            0000000180005578 f   LIBCMT:delete_scalar_size.obj
 0001:000048cc       _DllMainCRTStartup         00000001800058cc f   LIBCMT:dll_dllmain.obj
 0001:0000490c       __raise_securityfailure    000000018000590c f   LIBCMT:gs_report.obj
 0001:00004940       __report_gsfailure         0000000180005940 f   LIBCMT:gs_report.obj
 0001:00004a14       __report_rangecheckfailure 0000000180005a14 f   LIBCMT:gs_report.obj
 0001:00004a28       __report_securityfailure   0000000180005a28 f   LIBCMT:gs_report.obj
 0001:00004ba8       ??0bad_alloc@std@@QEAA@AEBV01@@Z 0000000180005ba8 f i LIBCMT:throw_bad_alloc.obj
 0001:00004be8       ??0bad_alloc@std@@QEAA@XZ  0000000180005be8 f i LIBCMT:throw_bad_alloc.obj
 0001:00004c08       ??0bad_array_new_length@std@@QEAA@AEBV01@@Z 0000000180005c08 f i LIBCMT:throw_bad_alloc.obj
 0001:00004c48       ??0bad_array_new_length@std@@QEAA@XZ 0000000180005c48 f i LIBCMT:throw_bad_alloc.obj
 0001:00004c68       ??0exception@std@@QEAA@AEBV01@@Z 0000000180005c68 f i LIBCMT:throw_bad_alloc.obj
 0001:00004ca0       ?_Xbad_alloc@std@@YAXXZ    0000000180005ca0 f   libcpmt:xthrow.obj
 0001:00004ca0       ?__scrt_throw_std_bad_alloc@@YAXXZ 0000000180005ca0 f   LIBCMT:throw_bad_alloc.obj
 0001:00004cc0       ?__scrt_throw_std_bad_array_new_length@@YAXXZ 0000000180005cc0 f   LIBCMT:throw_bad_alloc.obj
 0001:00004ce0       ?what@exception@std@@UEBAPEBDXZ 0000000180005ce0 f i LIBCMT:throw_bad_alloc.obj
 0001:00004cf4       __scrt_acquire_startup_lock 0000000180005cf4 f   LIBCMT:utility.obj
 0001:00004d30       __scrt_dllmain_after_initialize_c 0000000180005d30 f   LIBCMT:utility.obj
 0001:00004d64       __scrt_dllmain_before_initialize_c 0000000180005d64 f   LIBCMT:utility.obj
 0001:00004d7c       __scrt_dllmain_crt_thread_attach 0000000180005d7c f   LIBCMT:utility.obj
 0001:00004da4       __scrt_dllmain_crt_thread_detach 0000000180005da4 f   LIBCMT:utility.obj
 0001:00004dbc       __scrt_dllmain_exception_filter 0000000180005dbc f   LIBCMT:utility.obj
 0001:00004e20       __scrt_dllmain_uninitialize_c 0000000180005e20 f   LIBCMT:utility.obj
 0001:00004e50       __scrt_dllmain_uninitialize_critical 0000000180005e50 f   LIBCMT:utility.obj
 0001:00004e64       __scrt_initialize_crt      0000000180005e64 f   LIBCMT:utility.obj
 0001:00004eb0       __scrt_initialize_onexit_tables 0000000180005eb0 f   LIBCMT:utility.obj
 0001:00004f7c       __scrt_is_nonwritable_in_current_image 0000000180005f7c f   LIBCMT:utility.obj
 0001:00005018       __scrt_release_startup_lock 0000000180006018 f   LIBCMT:utility.obj
 0001:0000503c       __scrt_uninitialize_crt    000000018000603c f   LIBCMT:utility.obj
 0001:00005068       _onexit                    0000000180006068 f   LIBCMT:utility.obj
 0001:000050b8       atexit                     00000001800060b8 f   LIBCMT:utility.obj
 0001:000050d0       __security_init_cookie     00000001800060d0 f   LIBCMT:gs_support.obj
 0001:0000517c       ?__scrt_initialize_type_info@@YAXXZ 000000018000617c f   LIBCMT:tncleanup.obj
 0001:0000518c       ?__scrt_uninitialize_type_info@@YAXXZ 000000018000618c f   LIBCMT:tncleanup.obj
 0001:00005198       __local_stdio_printf_options 0000000180006198 f i LIBCMT:default_local_stdio_options.obj
 0001:000051a0       __local_stdio_scanf_options 00000001800061a0 f i LIBCMT:default_local_stdio_options.obj
 0001:000051a8       __scrt_initialize_default_local_stdio_options 00000001800061a8 f   LIBCMT:default_local_stdio_options.obj
 0001:000051c4       __scrt_get_dyn_tls_init_callback 00000001800061c4 f   LIBCMT:dyn_tls_init.obj
 0001:000051cc       __crt_debugger_hook        00000001800061cc f   LIBCMT:utility_desktop.obj
 0001:000051d4       __scrt_fastfail            00000001800061d4 f   LIBCMT:utility_desktop.obj
 0001:0000531c       _RTC_Initialize            000000018000631c f   LIBCMT:_initsect_.obj
 0001:00005368       _RTC_Terminate             0000000180006368 f   LIBCMT:_initsect_.obj
 0001:000053b4       _guard_check_icall         00000001800063b4 f i LIBCMT:checkcfg.obj
 0001:000053bc       ??_Etype_info@@UEAAPEAXI@Z 00000001800063bc f i LIBCMT:std_type_info_static.obj
 0001:000053bc       ??_Gtype_info@@UEAAPEAXI@Z 00000001800063bc f i LIBCMT:std_type_info_static.obj
 0001:000053e8       __isa_available_init       00000001800063e8 f   LIBCMT:_cpu_disp_.obj
 0001:000055b0       DllMain                    00000001800065b0 f   LIBCMT:dll_dllmain_stub.obj
 0001:000055b0       _get_startup_argv_mode     00000001800065b0 f   LIBCMT:argv_mode.obj
 0001:000055b8       __scrt_is_ucrt_dll_in_use  00000001800065b8 f   LIBCMT:ucrt_detection.obj
 0001:000055c4       _guard_check_icall_nop     00000001800065c4 f i LIBCMT:guard_support.obj
 0001:000055c4       __except_validate_context_record 00000001800065c4 f i libvcruntime:jbcxrval.obj
 0001:000055d0       ??0length_error@std@@QEAA@AEBV01@@Z 00000001800065d0 f i libcpmt:xthrow.obj
 0001:00005610       ??0length_error@std@@QEAA@PEBD@Z 0000000180006610 f i libcpmt:xthrow.obj
 0001:0000565c       ??0logic_error@std@@QEAA@AEBV01@@Z 000000018000665c f i libcpmt:xthrow.obj
 0001:0000569c       ??0out_of_range@std@@QEAA@AEBV01@@Z 000000018000669c f i libcpmt:xthrow.obj
 0001:000056dc       ??0out_of_range@std@@QEAA@PEBD@Z 00000001800066dc f i libcpmt:xthrow.obj
 0001:00005728       ??1out_of_range@std@@UEAA@XZ 0000000180006728 f i libcpmt:xthrow.obj
 0001:00005728       ??1length_error@std@@UEAA@XZ 0000000180006728 f i libcpmt:xthrow.obj
 0001:00005728       ??1bad_array_new_length@std@@UEAA@XZ 0000000180006728 f i LIBCMT:throw_bad_alloc.obj
 0001:00005728       ??1bad_alloc@std@@UEAA@XZ  0000000180006728 f i LIBCMT:throw_bad_alloc.obj
 0001:0000573c       ??_Eexception@std@@UEAAPEAXI@Z 000000018000673c f i LIBCMT:throw_bad_alloc.obj
 0001:0000573c       ??_Glogic_error@std@@UEAAPEAXI@Z 000000018000673c f i libcpmt:xthrow.obj
 0001:0000573c       ??_Gout_of_range@std@@UEAAPEAXI@Z 000000018000673c f i libcpmt:xthrow.obj
 0001:0000573c       ??_Glength_error@std@@UEAAPEAXI@Z 000000018000673c f i libcpmt:xthrow.obj
 0001:0000573c       ??_Eout_of_range@std@@UEAAPEAXI@Z 000000018000673c f i libcpmt:xthrow.obj
 0001:0000573c       ??_Gexception@std@@UEAAPEAXI@Z 000000018000673c f i LIBCMT:throw_bad_alloc.obj
 0001:0000573c       ??_Elength_error@std@@UEAAPEAXI@Z 000000018000673c f i libcpmt:xthrow.obj
 0001:0000573c       ??_Gbad_array_new_length@std@@UEAAPEAXI@Z 000000018000673c f i LIBCMT:throw_bad_alloc.obj
 0001:0000573c       ??_Gbad_alloc@std@@UEAAPEAXI@Z 000000018000673c f i LIBCMT:throw_bad_alloc.obj
 0001:0000573c       ??_Elogic_error@std@@UEAAPEAXI@Z 000000018000673c f i libcpmt:xthrow.obj
 0001:0000573c       ??_Ebad_array_new_length@std@@UEAAPEAXI@Z 000000018000673c f i LIBCMT:throw_bad_alloc.obj
 0001:0000573c       ??_Ebad_alloc@std@@UEAAPEAXI@Z 000000018000673c f i LIBCMT:throw_bad_alloc.obj
 0001:00005780       ?_Xlength_error@std@@YAXPEBD@Z 0000000180006780 f   libcpmt:xthrow.obj
 0001:000057a4       ?_Xout_of_range@std@@YAXPEBD@Z 00000001800067a4 f   libcpmt:xthrow.obj
 0001:000057c8       strchr                     00000001800067c8 f   libvcruntime:strchr.obj
 0001:00005870       memcpy                     0000000180006870 f   libvcruntime:memcpy.obj
 0001:00005870       memmove                    0000000180006870 f   libvcruntime:memcpy.obj
 0001:00005ca8       _purecall                  0000000180006ca8 f   libvcruntime:purevirt.obj
 0001:00005ce4       __C_specific_handler       0000000180006ce4 f   libvcruntime:_chandler_.obj
 0001:00005ee0       __std_exception_copy       0000000180006ee0 f   libvcruntime:std_exception.obj
 0001:00005f70       __std_exception_destroy    0000000180006f70 f   libvcruntime:std_exception.obj
 0001:00005f98       _CxxThrowException         0000000180006f98 f   libvcruntime:throw.obj
 0001:00006070       __vcrt_initialize          0000000180007070 f   libvcruntime:initialization.obj
 0001:000060a4       __vcrt_thread_attach       00000001800070a4 f   libvcruntime:initialization.obj
 0001:000060b8       __vcrt_thread_detach       00000001800070b8 f   libvcruntime:initialization.obj
 0001:000060cc       __vcrt_uninitialize        00000001800070cc f   libvcruntime:initialization.obj
 0001:000060ec       __vcrt_uninitialize_critical 00000001800070ec f   libvcruntime:initialization.obj
 0001:000060fc       __std_type_info_destroy_list 00000001800070fc f   libvcruntime:std_type_info.obj
 0001:00006140       memset                     0000000180007140 f   libvcruntime:memset.obj
 0001:000062e0       __vcrt_initialize_pure_virtual_call_handler 00000001800072e0 f   libvcruntime:purevirt_data.obj
 0001:00006320       _local_unwind              0000000180007320 f   libvcruntime:_jmpuwind_.obj
 0001:00006350       _NLG_Notify                0000000180007350 f   libvcruntime:_jmpuwind_.obj
 0001:00006370       __NLG_Dispatch2            0000000180007370 f   libvcruntime:_jmpuwind_.obj
 0001:00006380       __NLG_Return2              0000000180007380 f   libvcruntime:_jmpuwind_.obj
 0001:00006384       __vcrt_freefls             0000000180007384 f   libvcruntime:per_thread_data.obj
 0001:000063a4       __vcrt_freeptd             00000001800073a4 f   libvcruntime:per_thread_data.obj
 0001:000063f4       __vcrt_getptd_noexit       00000001800073f4 f   libvcruntime:per_thread_data.obj
 0001:000064ac       __vcrt_initialize_ptd      00000001800074ac f   libvcruntime:per_thread_data.obj
 0001:000064ec       __vcrt_uninitialize_ptd    00000001800074ec f   libvcruntime:per_thread_data.obj
 0001:00006510       __vcrt_initialize_locks    0000000180007510 f   libvcruntime:locks.obj
 0001:00006558       __vcrt_uninitialize_locks  0000000180007558 f   libvcruntime:locks.obj
 0001:00006758       __vcrt_FlsAlloc            0000000180007758 f   libvcruntime:winapi_downlevel.obj
 0001:000067ac       __vcrt_FlsFree             00000001800077ac f   libvcruntime:winapi_downlevel.obj
 0001:00006800       __vcrt_FlsGetValue         0000000180007800 f   libvcruntime:winapi_downlevel.obj
 0001:00006854       __vcrt_FlsSetValue         0000000180007854 f   libvcruntime:winapi_downlevel.obj
 0001:000068bc       __vcrt_InitializeCriticalSectionEx 00000001800078bc f   libvcruntime:winapi_downlevel.obj
 0001:00006934       __vcrt_initialize_winapi_thunks 0000000180007934 f   libvcruntime:winapi_downlevel.obj
 0001:00006980       __vcrt_uninitialize_winapi_thunks 0000000180007980 f   libvcruntime:winapi_downlevel.obj
 0001:00006ee8       _ftelli64                  0000000180007ee8 f   libucrt:ftell.obj
 0001:00006ef0       _ftelli64_nolock           0000000180007ef0 f   libucrt:ftell.obj
 0001:00006ef8       ftell                      0000000180007ef8 f   libucrt:ftell.obj
 0001:00006f00       calloc                     0000000180007f00 f   libucrt:calloc.obj
 0001:00006f08       ??0_LocaleUpdate@@QEAA@QEAU__crt_locale_pointers@@@Z 0000000180007f08 f i libucrt:tolower_toupper.obj
 0001:00007038       _tolower_l                 0000000180008038 f   libucrt:tolower_toupper.obj
 0001:00007178       _toupper_l                 0000000180008178 f   libucrt:tolower_toupper.obj
 0001:000072b8       tolower                    00000001800082b8 f   libucrt:tolower_toupper.obj
 0001:000072e4       toupper                    00000001800082e4 f   libucrt:tolower_toupper.obj
 0001:000073e0       fopen                      00000001800083e0 f   libucrt:fopen.obj
 0001:000073ec       _fclose_nolock             00000001800083ec f   libucrt:fclose.obj
 0001:00007470       fclose                     0000000180008470 f   libucrt:fclose.obj
 0001:000074dc       perror                     00000001800084dc f   libucrt:perror.obj
 0001:0000759c       realloc                    000000018000859c f   libucrt:realloc.obj
 0001:00007818       _fseeki64                  0000000180008818 f   libucrt:fseek.obj
 0001:00007820       fseek                      0000000180008820 f   libucrt:fseek.obj
 0001:00007840       strncpy                    0000000180008840 f   libucrt:strncpy.obj
 0001:00007a80       ?validate_stream_is_ansi_if_required@?$__acrt_stdio_char_traits@D@@SA_NQEAU_iobuf@@@Z 0000000180008a80 f i libucrt:fgets.obj
 0001:00007b0c       fgets                      0000000180008b0c f   libucrt:fgets.obj
 0001:00007b30       strncmp                    0000000180008b30 f   libucrt:strncmp.obj
 0001:00007bb0       rewind                     0000000180008bb0 f   libucrt:rewind.obj
 0001:00007c7c       __acrt_errno_from_os_error 0000000180008c7c f   libucrt:errno.obj
 0001:00007cc4       __acrt_errno_map_os_error  0000000180008cc4 f   libucrt:errno.obj
 0001:00007d14       __doserrno                 0000000180008d14 f   libucrt:errno.obj
 0001:00007d34       _errno                     0000000180008d34 f   libucrt:errno.obj
 0001:00007d54       fgetpos                    0000000180008d54 f   libucrt:fgetpos.obj
 0001:00007da0       free                       0000000180008da0 f   libucrt:free.obj
 0001:00007da8       ??$is_overflow_condition@K@__crt_strtox@@YA_NIK@Z 0000000180008da8 f i libucrt:atox.obj
 0001:00007dd4       ??$parse_integer@KV?$c_string_character_source@D@__crt_strtox@@@__crt_strtox@@YAKQEAU__crt_locale_pointers@@V?$c_string_character_source@D@0@H_N@Z 0000000180008dd4 f i libucrt:atox.obj
 0001:000080e8       ??$parse_integer@KV?$c_string_character_source@_W@__crt_strtox@@@__crt_strtox@@YAKQEAU__crt_locale_pointers@@V?$c_string_character_source@_W@0@H_N@Z 00000001800090e8 f i libucrt:atox.obj
 0001:000087bc       atol                       00000001800097bc f   libucrt:atox.obj
 0001:000087bc       atoi                       00000001800097bc f   libucrt:atox.obj
 0001:000087e8       feof                       00000001800097e8 f   libucrt:feoferr.obj
 0001:00008814       fsetpos                    0000000180009814 f   libucrt:fsetpos.obj
 0001:0000884c       isdigit                    000000018000984c f i libucrt:_ctype.obj
 0001:000088c0       malloc                     00000001800098c0 f   libucrt:malloc.obj
 0001:000092b0       ??$ftprintf@PEAU_iobuf@@PEB_WAEBQEB_WAEBQEB_WAEBI@?$__crt_char_traits@_W@@SAH$$QEAPEAU_iobuf@@$$QEAPEB_WAEBQEB_W2AEBI@Z 000000018000a2b0 f i libucrt:assert.obj
 0001:000092d8       _wassert                   000000018000a2d8 f   libucrt:assert.obj
 0001:0000935c       fwprintf                   000000018000a35c f i libucrt:assert.obj
 0001:000093a0       swprintf                   000000018000a3a0 f i libucrt:assert.obj
 0001:000093f4       __acrt_call_reportfault    000000018000a3f4 f   libucrt:invalid_parameter.obj
 0001:00009550       __acrt_initialize_invalid_parameter_handler 000000018000a550 f   libucrt:invalid_parameter.obj
 0001:00009558       _invalid_parameter         000000018000a558 f   libucrt:invalid_parameter.obj
 0001:00009600       _invalid_parameter_noinfo  000000018000a600 f   libucrt:invalid_parameter.obj
 0001:00009620       _invalid_parameter_noinfo_noreturn 000000018000a620 f   libucrt:invalid_parameter.obj
 0001:00009650       _invoke_watson             000000018000a650 f   libucrt:invalid_parameter.obj
 0001:00009698       __acrt_initialize_new_handler 000000018000a698 f   libucrt:new_handler.obj
 0001:000096a0       _callnewh                  000000018000a6a0 f   libucrt:new_handler.obj
 0001:000096e0       _query_new_handler         000000018000a6e0 f   libucrt:new_handler.obj
 0001:00009714       _initterm                  000000018000a714 f   libucrt:initterm.obj
 0001:0000978c       _initterm_e                000000018000a78c f   libucrt:initterm.obj
 0001:000097d8       _seh_filter_dll            000000018000a7d8 f   libucrt:exception_filter.obj
 0001:000097ec       _seh_filter_exe            000000018000a7ec f   libucrt:exception_filter.obj
 0001:00009bac       __acrt_initialize_thread_local_exit_callback 000000018000abac f   libucrt:exit.obj
 0001:00009bb4       _cexit                     000000018000abb4 f   libucrt:exit.obj
 0001:00009bc4       _exit                      000000018000abc4 f   libucrt:exit.obj
 0001:00009bd0       _is_c_termination_complete 000000018000abd0 f   libucrt:exit.obj
 0001:00009d94       __acrt_allocate_buffer_for_argv 000000018000ad94 f   libucrt:argv_parsing.obj
 0001:00009df8       _configure_narrow_argv     000000018000adf8 f   libucrt:argv_parsing.obj
 0001:0000a154       __dcrt_uninitialize_environments_nolock 000000018000b154 f   libucrt:environment_initialization.obj
 0001:0000a18c       _initialize_narrow_environment 000000018000b18c f   libucrt:environment_initialization.obj
 0001:0000a194       ??$?RV<lambda_b8c45f8f788dd370798f47cfe8ac3a86>@@AEAV<lambda_4e60a939b0d047cfe11ddc22648dfba9>@@V<lambda_332c3edc96d0294ec56c57d38c1cdfd5>@@@?$__crt_seh_guarded_call@H@@QEAAH$$QEAV<lambda_b8c45f8f788dd370798f47cfe8ac3a86>@@AEAV<lambda_4e60a939b0d047cfe11ddc22648dfba9>@@$$QEAV<lambda_332c3edc96d0294ec56c57d38c1cdfd5>@@@Z 000000018000b194 f i libucrt:onexit.obj
 0001:0000a1d0       ??$?RV<lambda_e24bbb7b643b32fcea6fa61b31d4c984>@@AEAV<lambda_275893d493268fdec8709772e3fcec0e>@@V<lambda_9d71df4d7cf3f480f8d633942495c3b0>@@@?$__crt_seh_guarded_call@H@@QEAAH$$QEAV<lambda_e24bbb7b643b32fcea6fa61b31d4c984>@@AEAV<lambda_275893d493268fdec8709772e3fcec0e>@@$$QEAV<lambda_9d71df4d7cf3f480f8d633942495c3b0>@@@Z 000000018000b1d0 f i libucrt:onexit.obj
 0001:0000a54c       _crt_atexit                000000018000b54c f   libucrt:onexit.obj
 0001:0000a55c       _execute_onexit_table      000000018000b55c f   libucrt:onexit.obj
 0001:0000a598       _initialize_onexit_table   000000018000b598 f   libucrt:onexit.obj
 0001:0000a5d8       _register_onexit_function  000000018000b5d8 f   libucrt:onexit.obj
 0001:0000a658       __acrt_uninitialize_command_line 000000018000b658 f   libucrt:argv_data.obj
 0001:0000a758       __acrt_initialize          000000018000b758 f   libucrt:initialization.obj
 0001:0000a76c       __acrt_thread_attach       000000018000b76c f   libucrt:initialization.obj
 0001:0000a780       __acrt_thread_detach       000000018000b780 f   libucrt:initialization.obj
 0001:0000a790       __acrt_uninitialize        000000018000b790 f   libucrt:initialization.obj
 0001:0000a7a4       __acrt_uninitialize_critical 000000018000b7a4 f   libucrt:initialization.obj
 0001:0000a7b4       terminate                  000000018000b7b4 f   libucrt:terminate.obj
 0001:0000a7dc       _strdup                    000000018000b7dc f   libucrt:strdup.obj
 0001:0000a7dc       strdup                     000000018000b7dc f   libucrt:strdup.obj
 0001:0000a854       abort                      000000018000b854 f   libucrt:abort.obj
 0001:0000a8ac       strcpy_s                   000000018000b8ac f   libucrt:strcpy_s.obj
 0001:0000a90c       _free_base                 000000018000b90c f   libucrt:free_base.obj
 0001:0000a94c       _malloc_base               000000018000b94c f   libucrt:malloc_base.obj
 0001:0000a9ac       _calloc_base               000000018000b9ac f   libucrt:calloc_base.obj
 0001:0000aa24       ??$?RV<lambda_7b91131dde12e1c3dfc74ff76b3f2eac>@@AEAV<lambda_dd75445284c072d0bd3768540cc698fa>@@V<lambda_16bc4ecb55b4718497c16bceaea2ceaf>@@@?$__crt_seh_guarded_call@H@@QEAAH$$QEAV<lambda_7b91131dde12e1c3dfc74ff76b3f2eac>@@AEAV<lambda_dd75445284c072d0bd3768540cc698fa>@@$$QEAV<lambda_16bc4ecb55b4718497c16bceaea2ceaf>@@@Z 000000018000ba24 f i libucrt:output.obj
 0001:0000aa64       ??$ensure_buffer_is_big_enough@D@formatting_buffer@__crt_stdio_output@@QEAA_N_K@Z 000000018000ba64 f i libucrt:output.obj
 0001:0000ab10       ??$is_wide_character_specifier@_W@__crt_stdio_output@@YA_N_K_WW4length_modifier@0@@Z 000000018000bb10 f i libucrt:output.obj
 0001:0000ab54       ??$type_case_integer_parse_into_buffer@I@?$output_processor@_WV?$string_output_adapter@_W@__crt_stdio_output@@V?$standard_base@_WV?$string_output_adapter@_W@__crt_stdio_output@@@2@@__crt_stdio_output@@AEAAXII_N@Z 000000018000bb54 f i libucrt:output.obj
 0001:0000ab54       ??$type_case_integer_parse_into_buffer@I@?$output_processor@_WV?$stream_output_adapter@_W@__crt_stdio_output@@V?$standard_base@_WV?$stream_output_adapter@_W@__crt_stdio_output@@@2@@__crt_stdio_output@@AEAAXII_N@Z 000000018000bb54 f i libucrt:output.obj
 0001:0000abf0       ??$type_case_integer_parse_into_buffer@_K@?$output_processor@_WV?$string_output_adapter@_W@__crt_stdio_output@@V?$standard_base@_WV?$string_output_adapter@_W@__crt_stdio_output@@@2@@__crt_stdio_output@@AEAAX_KI_N@Z 000000018000bbf0 f i libucrt:output.obj
 0001:0000abf0       ??$type_case_integer_parse_into_buffer@_K@?$output_processor@_WV?$stream_output_adapter@_W@__crt_stdio_output@@V?$standard_base@_WV?$stream_output_adapter@_W@__crt_stdio_output@@@2@@__crt_stdio_output@@AEAAX_KI_N@Z 000000018000bbf0 f i libucrt:output.obj
 0001:0000ac8c       ??$write_multiple_characters@V?$stream_output_adapter@_W@__crt_stdio_output@@D@__crt_stdio_output@@YAXAEBV?$stream_output_adapter@_W@0@DHQEAH@Z 000000018000bc8c f i libucrt:output.obj
 0001:0000ad1c       ??$write_multiple_characters@V?$string_output_adapter@_W@__crt_stdio_output@@D@__crt_stdio_output@@YAXAEBV?$string_output_adapter@_W@0@DHQEAH@Z 000000018000bd1c f i libucrt:output.obj
 0001:0000ad8c       ??0?$output_processor@_WV?$string_output_adapter@_W@__crt_stdio_output@@V?$standard_base@_WV?$string_output_adapter@_W@__crt_stdio_output@@@2@@__crt_stdio_output@@QEAA@AEBV?$string_output_adapter@_W@1@_KQEB_WQEAU__crt_locale_pointers@@QEAD@Z 000000018000bd8c f i libucrt:output.obj
 0001:0000ad8c       ??0?$output_processor@_WV?$stream_output_adapter@_W@__crt_stdio_output@@V?$standard_base@_WV?$stream_output_adapter@_W@__crt_stdio_output@@@2@@__crt_stdio_output@@QEAA@AEBV?$stream_output_adapter@_W@1@_KQEB_WQEAU__crt_locale_pointers@@QEAD@Z 000000018000bd8c f i libucrt:output.obj
 0001:0000aefc       ?force_decimal_point@__crt_stdio_output@@YAXPEADQEAU__crt_locale_pointers@@@Z 000000018000befc f i libucrt:output.obj
 0001:0000af6c       ?parse_int_from_format_string@?$output_processor@_WV?$stream_output_adapter@_W@__crt_stdio_output@@V?$standard_base@_WV?$stream_output_adapter@_W@__crt_stdio_output@@@2@@__crt_stdio_output@@AEAA_NQEAH@Z 000000018000bf6c f i libucrt:output.obj
 0001:0000af6c       ?parse_int_from_format_string@?$output_processor@_WV?$string_output_adapter@_W@__crt_stdio_output@@V?$standard_base@_WV?$string_output_adapter@_W@__crt_stdio_output@@@2@@__crt_stdio_output@@AEAA_NQEAH@Z 000000018000bf6c f i libucrt:output.obj
 0001:0000afec       ?process@?$output_processor@_WV?$stream_output_adapter@_W@__crt_stdio_output@@V?$standard_base@_WV?$stream_output_adapter@_W@__crt_stdio_output@@@2@@__crt_stdio_output@@QEAAHXZ 000000018000bfec f i libucrt:output.obj
 0001:0000b264       ?process@?$output_processor@_WV?$string_output_adapter@_W@__crt_stdio_output@@V?$standard_base@_WV?$string_output_adapter@_W@__crt_stdio_output@@@2@@__crt_stdio_output@@QEAAHXZ 000000018000c264 f i libucrt:output.obj
 0001:0000b4e0       ?state_case_size@?$output_processor@_WV?$stream_output_adapter@_W@__crt_stdio_output@@V?$standard_base@_WV?$stream_output_adapter@_W@__crt_stdio_output@@@2@@__crt_stdio_output@@AEAA_NXZ 000000018000c4e0 f i libucrt:output.obj
 0001:0000b684       ?state_case_size@?$output_processor@_WV?$string_output_adapter@_W@__crt_stdio_output@@V?$standard_base@_WV?$string_output_adapter@_W@__crt_stdio_output@@@2@@__crt_stdio_output@@AEAA_NXZ 000000018000c684 f i libucrt:output.obj
 0001:0000b828       ?state_case_type@?$output_processor@_WV?$stream_output_adapter@_W@__crt_stdio_output@@V?$standard_base@_WV?$stream_output_adapter@_W@__crt_stdio_output@@@2@@__crt_stdio_output@@AEAA_NXZ 000000018000c828 f i libucrt:output.obj
 0001:0000baf4       ?state_case_type@?$output_processor@_WV?$string_output_adapter@_W@__crt_stdio_output@@V?$standard_base@_WV?$string_output_adapter@_W@__crt_stdio_output@@@2@@__crt_stdio_output@@AEAA_NXZ 000000018000caf4 f i libucrt:output.obj
 0001:0000bdc0       ?type_case_Z@?$output_processor@_WV?$string_output_adapter@_W@__crt_stdio_output@@V?$standard_base@_WV?$string_output_adapter@_W@__crt_stdio_output@@@2@@__crt_stdio_output@@AEAA_NXZ 000000018000cdc0 f i libucrt:output.obj
 0001:0000bdc0       ?type_case_Z@?$output_processor@_WV?$stream_output_adapter@_W@__crt_stdio_output@@V?$standard_base@_WV?$stream_output_adapter@_W@__crt_stdio_output@@@2@@__crt_stdio_output@@AEAA_NXZ 000000018000cdc0 f i libucrt:output.obj
 0001:0000be40       ?type_case_a@?$output_processor@_WV?$string_output_adapter@_W@__crt_stdio_output@@V?$standard_base@_WV?$string_output_adapter@_W@__crt_stdio_output@@@2@@__crt_stdio_output@@AEAA_NXZ 000000018000ce40 f i libucrt:output.obj
 0001:0000be40       ?type_case_a@?$output_processor@_WV?$stream_output_adapter@_W@__crt_stdio_output@@V?$standard_base@_WV?$stream_output_adapter@_W@__crt_stdio_output@@@2@@__crt_stdio_output@@AEAA_NXZ 000000018000ce40 f i libucrt:output.obj
 0001:0000c084       ?type_case_c_tchar@?$output_processor@_WV?$stream_output_adapter@_W@__crt_stdio_output@@V?$standard_base@_WV?$stream_output_adapter@_W@__crt_stdio_output@@@2@@__crt_stdio_output@@AEAA_N_W@Z 000000018000d084 f i libucrt:output.obj
 0001:0000c084       ?type_case_c_tchar@?$output_processor@_WV?$string_output_adapter@_W@__crt_stdio_output@@V?$standard_base@_WV?$string_output_adapter@_W@__crt_stdio_output@@@2@@__crt_stdio_output@@AEAA_N_W@Z 000000018000d084 f i libucrt:output.obj
 0001:0000c12c       ?type_case_integer@?$output_processor@_WV?$string_output_adapter@_W@__crt_stdio_output@@V?$standard_base@_WV?$string_output_adapter@_W@__crt_stdio_output@@@2@@__crt_stdio_output@@AEAA_NI_N@Z 000000018000d12c f i libucrt:output.obj
 0001:0000c12c       ?type_case_integer@?$output_processor@_WV?$stream_output_adapter@_W@__crt_stdio_output@@V?$standard_base@_WV?$stream_output_adapter@_W@__crt_stdio_output@@@2@@__crt_stdio_output@@AEAA_NI_N@Z 000000018000d12c f i libucrt:output.obj
 0001:0000c2cc       ?type_case_n@?$output_processor@_WV?$stream_output_adapter@_W@__crt_stdio_output@@V?$standard_base@_WV?$stream_output_adapter@_W@__crt_stdio_output@@@2@@__crt_stdio_output@@AEAA_NXZ 000000018000d2cc f i libucrt:output.obj
 0001:0000c2cc       ?type_case_n@?$output_processor@_WV?$string_output_adapter@_W@__crt_stdio_output@@V?$standard_base@_WV?$string_output_adapter@_W@__crt_stdio_output@@@2@@__crt_stdio_output@@AEAA_NXZ 000000018000d2cc f i libucrt:output.obj
 0001:0000c3a8       ?type_case_s@?$output_processor@_WV?$stream_output_adapter@_W@__crt_stdio_output@@V?$standard_base@_WV?$stream_output_adapter@_W@__crt_stdio_output@@@2@@__crt_stdio_output@@AEAA_NXZ 000000018000d3a8 f i libucrt:output.obj
 0001:0000c3a8       ?type_case_s@?$output_processor@_WV?$string_output_adapter@_W@__crt_stdio_output@@V?$standard_base@_WV?$string_output_adapter@_W@__crt_stdio_output@@@2@@__crt_stdio_output@@AEAA_NXZ 000000018000d3a8 f i libucrt:output.obj
 0001:0000c470       ?write_stored_string_tchar@?$output_processor@_WV?$stream_output_adapter@_W@__crt_stdio_output@@V?$standard_base@_WV?$stream_output_adapter@_W@__crt_stdio_output@@@2@@__crt_stdio_output@@AEAA_N_W@Z 000000018000d470 f i libucrt:output.obj
 0001:0000c55c       ?write_stored_string_tchar@?$output_processor@_WV?$string_output_adapter@_W@__crt_stdio_output@@V?$standard_base@_WV?$string_output_adapter@_W@__crt_stdio_output@@@2@@__crt_stdio_output@@AEAA_N_W@Z 000000018000d55c f i libucrt:output.obj
 0001:0000c64c       ?write_string@?$stream_output_adapter@_W@__crt_stdio_output@@QEBAXQEB_WHQEAH1@Z 000000018000d64c f i libucrt:output.obj
 0001:0000c758       ?write_string@?$string_output_adapter@_W@__crt_stdio_output@@QEBAXQEB_WHQEAH1@Z 000000018000d758 f i libucrt:output.obj
 0001:0000c818       __stdio_common_vfwprintf   000000018000d818 f   libucrt:output.obj
 0001:0000c8a4       __stdio_common_vswprintf   000000018000d8a4 f   libucrt:output.obj
 0001:0000ce80       _lseek                     000000018000de80 f   libucrt:lseek.obj
 0001:0000ce88       _lseeki64                  000000018000de88 f   libucrt:lseek.obj
 0001:0000ce90       _lseeki64_nolock           000000018000de90 f   libucrt:lseek.obj
 0001:0000ce98       _fileno                    000000018000de98 f   libucrt:fileno.obj
 0001:0000cec0       __acrt_initialize_stdio    000000018000dec0 f   libucrt:_file.obj
 0001:0000cfe0       __acrt_iob_func            000000018000dfe0 f   libucrt:_file.obj
 0001:0000cff4       __acrt_uninitialize_stdio  000000018000dff4 f   libucrt:_file.obj
 0001:0000d050       _lock_file                 000000018000e050 f   libucrt:_file.obj
 0001:0000d05c       _unlock_file               000000018000e05c f   libucrt:_file.obj
 0001:0000d598       _read                      000000018000e598 f   libucrt:read.obj
 0001:0000d6b0       _read_nolock               000000018000e6b0 f   libucrt:read.obj
 0001:0000dd00       __acrt_initialize_lowio    000000018000ed00 f   libucrt:ioinit.obj
 0001:0000dd3c       __acrt_uninitialize_lowio  000000018000ed3c f   libucrt:ioinit.obj
 0001:0000dd7c       __pctype_func              000000018000ed7c f   libucrt:ctype.obj
 0001:0000ddac       _isleadbyte_l              000000018000edac f i libucrt:_wctype.obj
 0001:0000ddec       _isctype_l                 000000018000edec f   libucrt:isctype.obj
 0001:0000e258       __acrt_LCMapStringA        000000018000f258 f   libucrt:lcmapstringa.obj
 0001:0000e2f0       ??$?RV<lambda_46352004c1216016012b18bd6f87e700>@@AEAV<lambda_3bd07e1a1191394380780325891bf33f>@@V<lambda_334532d3f185bcaa59b5be82d7d22bff>@@@?$__crt_seh_guarded_call@X@@QEAAX$$QEAV<lambda_46352004c1216016012b18bd6f87e700>@@AEAV<lambda_3bd07e1a1191394380780325891bf33f>@@$$QEAV<lambda_334532d3f185bcaa59b5be82d7d22bff>@@@Z 000000018000f2f0 f i libucrt:per_thread_data.obj
 0001:0000e350       ??$?RV<lambda_5e887d1dcbef67a5eb4283622ba103bf>@@AEAV<lambda_4466841279450cc726390878d4a41900>@@V<lambda_341c25c0346d94847f1f3c463c57e077>@@@?$__crt_seh_guarded_call@X@@QEAAX$$QEAV<lambda_5e887d1dcbef67a5eb4283622ba103bf>@@AEAV<lambda_4466841279450cc726390878d4a41900>@@$$QEAV<lambda_341c25c0346d94847f1f3c463c57e077>@@@Z 000000018000f350 f i libucrt:per_thread_data.obj
 0001:0000e398       ??$?RV<lambda_72d1df2b273a38828b1ce30cbf4cdab5>@@AEAV<lambda_876a65b173b8412d3a47c70a915b0cf4>@@V<lambda_41932305e351933ebe8f8be3ed8bb5dc>@@@?$__crt_seh_guarded_call@X@@QEAAX$$QEAV<lambda_72d1df2b273a38828b1ce30cbf4cdab5>@@AEAV<lambda_876a65b173b8412d3a47c70a915b0cf4>@@$$QEAV<lambda_41932305e351933ebe8f8be3ed8bb5dc>@@@Z 000000018000f398 f i libucrt:per_thread_data.obj
 0001:0000e3d8       ??$?RV<lambda_fb3a7dec4e47f37f22dae91bb15c9095>@@AEAV<lambda_698284760c8add0bfb0756c19673e34b>@@V<lambda_dfb8eca1e75fef3034a8fb18dd509707>@@@?$__crt_seh_guarded_call@X@@QEAAX$$QEAV<lambda_fb3a7dec4e47f37f22dae91bb15c9095>@@AEAV<lambda_698284760c8add0bfb0756c19673e34b>@@$$QEAV<lambda_dfb8eca1e75fef3034a8fb18dd509707>@@@Z 000000018000f3d8 f i libucrt:per_thread_data.obj
 0001:0000e668       __acrt_freeptd             000000018000f668 f   libucrt:per_thread_data.obj
 0001:0000e6ac       __acrt_getptd              000000018000f6ac f   libucrt:per_thread_data.obj
 0001:0000e740       __acrt_getptd_noexit       000000018000f740 f   libucrt:per_thread_data.obj
 0001:0000e7e0       __acrt_initialize_ptd      000000018000f7e0 f   libucrt:per_thread_data.obj
 0001:0000e81c       __acrt_uninitialize_ptd    000000018000f81c f   libucrt:per_thread_data.obj
 0001:0000e840       __acrt_update_locale_info  000000018000f840 f   libucrt:locale_update.obj
 0001:0000e874       __acrt_update_multibyte_info 000000018000f874 f   libucrt:locale_update.obj
 0001:0000e8a8       __acrt_set_locale_changed  000000018000f8a8 f   libucrt:wsetlocale.obj
 0001:0000e8b4       __acrt_uninitialize_locale 000000018000f8b4 f   libucrt:wsetlocale.obj
 0001:0000e8fc       ?__acrt_stdio_allocate_stream@@YA?AV__crt_stdio_stream@@XZ 000000018000f8fc f   libucrt:stream.obj
 0001:0000e958       ?__acrt_stdio_free_stream@@YAXV__crt_stdio_stream@@@Z 000000018000f958 f   libucrt:stream.obj
 0001:0000ea88       ??$__acrt_stdio_parse_mode@D@@YA?AU__acrt_stdio_stream_mode@@QEBD@Z 000000018000fa88 f i libucrt:openfile.obj
 0001:0000ed24       _openfile                  000000018000fd24 f   libucrt:openfile.obj
 0001:0000edc0       ??$?RV<lambda_bfedae4ebbf01fab1bb6dcc6a9e276e0>@@AEAV<lambda_2fe9b910cf3cbf4a0ab98a02ba45b3ec>@@V<lambda_237c231691f317818eb88cc1d5d642d6>@@@?$__crt_seh_guarded_call@H@@QEAAH$$QEAV<lambda_bfedae4ebbf01fab1bb6dcc6a9e276e0>@@AEAV<lambda_2fe9b910cf3cbf4a0ab98a02ba45b3ec>@@$$QEAV<lambda_237c231691f317818eb88cc1d5d642d6>@@@Z 000000018000fdc0 f i libucrt:close.obj
 0001:0000ee34       _close                     000000018000fe34 f   libucrt:close.obj
 0001:0000eed8       _close_nolock              000000018000fed8 f   libucrt:close.obj
 0001:0000ef94       __acrt_stdio_free_buffer_nolock 000000018000ff94 f   libucrt:_freebuf.obj
 0001:0000efd4       __acrt_stdio_flush_nolock  000000018000ffd4 f   libucrt:fflush.obj
 0001:0000f04c       _fflush_nolock             000000018001004c f   libucrt:fflush.obj
 0001:0000f098       _flushall                  0000000180010098 f   libucrt:fflush.obj
 0001:0000f188       fflush                     0000000180010188 f   libucrt:fflush.obj
 0001:0000f1cc       __sys_errlist              00000001800101cc f   libucrt:syserr.obj
 0001:0000f1d4       __sys_nerr                 00000001800101d4 f   libucrt:syserr.obj
 0001:0000f1dc       __acrt_lowio_create_handle_array 00000001800101dc f   libucrt:osfinfo.obj
 0001:0000f274       __acrt_lowio_destroy_handle_array 0000000180010274 f   libucrt:osfinfo.obj
 0001:0000f2c4       __acrt_lowio_ensure_fh_exists 00000001800102c4 f   libucrt:osfinfo.obj
 0001:0000f37c       __acrt_lowio_lock_fh       000000018001037c f   libucrt:osfinfo.obj
 0001:0000f3a0       __acrt_lowio_set_os_handle 00000001800103a0 f   libucrt:osfinfo.obj
 0001:0000f460       __acrt_lowio_unlock_fh     0000000180010460 f   libucrt:osfinfo.obj
 0001:0000f484       _alloc_osfhnd              0000000180010484 f   libucrt:osfinfo.obj
 0001:0000f5b4       _free_osfhnd               00000001800105b4 f   libucrt:osfinfo.obj
 0001:0000f670       _get_osfhandle             0000000180010670 f   libucrt:osfinfo.obj
 0001:0000fc88       _write                     0000000180010c88 f   libucrt:write.obj
 0001:0000fd74       _write_nolock              0000000180010d74 f   libucrt:write.obj
 0001:00010058       _realloc_base              0000000180011058 f   libucrt:realloc_base.obj
 0001:000100dc       _fgetc_nolock              00000001800110dc f   libucrt:fgetc.obj
 0001:00010120       _getc_nolock               0000000180011120 f   libucrt:fgetc.obj
 0001:00010128       iswctype                   0000000180011128 f   libucrt:iswctype.obj
 0001:00010198       _query_app_type            0000000180011198 f   libucrt:report_runtime_error.obj
 0001:000102c8       _itow_s                    00000001800112c8 f   libucrt:xtoa.obj
 0001:000102e8       _set_error_mode            00000001800112e8 f   libucrt:set_error_mode.obj
 0001:00010328       wcscat_s                   0000000180011328 f   libucrt:wcscat_s.obj
 0001:000103a8       wcscpy_s                   00000001800113a8 f   libucrt:wcscpy_s.obj
 0001:00010410       wcsncat_s                  0000000180011410 f   libucrt:wcsncat_s.obj
 0001:00010538       __acrt_show_wide_message_box 0000000180011538 f   libucrt:crtmbox.obj
 0001:00010654       ??$?RV<lambda_7a5ef57ff966f610505f1d28a3d40618>@@AEAV<lambda_b721fa326cdb32351d23dfa67958c160>@@V<lambda_5e0fb27672408a07956fe59e48ccb2aa>@@@?$__crt_seh_guarded_call@H@@QEAAH$$QEAV<lambda_7a5ef57ff966f610505f1d28a3d40618>@@AEAV<lambda_b721fa326cdb32351d23dfa67958c160>@@$$QEAV<lambda_5e0fb27672408a07956fe59e48ccb2aa>@@@Z 0000000180011654 f i libucrt:setvbuf.obj
 0001:00010784       setvbuf                    0000000180011784 f   libucrt:setvbuf.obj
 0001:00010824       ??$?RV<lambda_c36588078e9f5dfd39652860aa6b3aaf>@@AEAV<lambda_ec61778202f4f5fc7e7711acc23c3bca>@@V<lambda_dc9d2797ccde5d239b4a0efae8ebd7db>@@@?$__crt_seh_guarded_call@P6AXH@Z@@QEAAP6AXH@Z$$QEAV<lambda_c36588078e9f5dfd39652860aa6b3aaf>@@AEAV<lambda_ec61778202f4f5fc7e7711acc23c3bca>@@$$QEAV<lambda_dc9d2797ccde5d239b4a0efae8ebd7db>@@@Z 0000000180011824 f i libucrt:signal.obj
 0001:0001086c       __acrt_get_sigabrt_handler 000000018001186c f   libucrt:signal.obj
 0001:0001089c       __acrt_initialize_signal_handlers 000000018001189c f   libucrt:signal.obj
 0001:000108bc       raise                      00000001800118bc f   libucrt:signal.obj
 0001:00010b58       __acrt_initialize_locks    0000000180011b58 f   libucrt:locks.obj
 0001:00010ba0       __acrt_lock                0000000180011ba0 f   libucrt:locks.obj
 0001:00010bbc       __acrt_uninitialize_locks  0000000180011bbc f   libucrt:locks.obj
 0001:00010bf4       __acrt_unlock              0000000180011bf4 f   libucrt:locks.obj
 0001:00010db0       __acrt_AreFileApisANSI     0000000180011db0 f   libucrt:winapi_thunks.obj
 0001:00010dfc       __acrt_FlsAlloc            0000000180011dfc f   libucrt:winapi_thunks.obj
 0001:00010e54       __acrt_FlsFree             0000000180011e54 f   libucrt:winapi_thunks.obj
 0001:00010eac       __acrt_FlsGetValue         0000000180011eac f   libucrt:winapi_thunks.obj
 0001:00010f04       __acrt_FlsSetValue         0000000180011f04 f   libucrt:winapi_thunks.obj
 0001:00010f6c       __acrt_InitializeCriticalSectionEx 0000000180011f6c f   libucrt:winapi_thunks.obj
 0001:00010fe4       __acrt_LCMapStringEx       0000000180011fe4 f   libucrt:winapi_thunks.obj
 0001:000110d4       __acrt_LocaleNameToLCID    00000001800120d4 f   libucrt:winapi_thunks.obj
 0001:0001113c       __acrt_MessageBoxW         000000018001213c f   libucrt:winapi_thunks.obj
 0001:000111c4       __acrt_can_show_message_box 00000001800121c4 f   libucrt:winapi_thunks.obj
 0001:00011220       __acrt_get_parent_window   0000000180012220 f   libucrt:winapi_thunks.obj
 0001:000112b0       __acrt_initialize_winapi_thunks 00000001800122b0 f   libucrt:winapi_thunks.obj
 0001:000112e8       __acrt_is_interactive      00000001800122e8 f   libucrt:winapi_thunks.obj
 0001:000113bc       __acrt_is_packaged_app     00000001800123bc f   libucrt:winapi_thunks.obj
 0001:00011444       __acrt_uninitialize_winapi_thunks 0000000180012444 f   libucrt:winapi_thunks.obj
 0001:00011964       ?expand_if_necessary@?$argument_list@D@?A0xca0879c4@@AEAAHXZ 0000000180012964 f i libucrt:argv_wildcards.obj
 0001:00011a2c       __acrt_expand_narrow_argv_wildcards 0000000180012a2c f   libucrt:argv_wildcards.obj
 0001:00011a34       ??$?RV<lambda_99476a1ad63dd22509b5d3e65b0ffc95>@@AEAV<lambda_ad1ced32f4ac17aa236e5ef05d6b3b7c>@@V<lambda_f7424dd8d45958661754dc4f2697e9c3>@@@?$__crt_seh_guarded_call@X@@QEAAX$$QEAV<lambda_99476a1ad63dd22509b5d3e65b0ffc95>@@AEAV<lambda_ad1ced32f4ac17aa236e5ef05d6b3b7c>@@$$QEAV<lambda_f7424dd8d45958661754dc4f2697e9c3>@@@Z 0000000180012a34 f i libucrt:mbctype.obj
 0001:00012130       __acrt_initialize_multibyte 0000000180013130 f   libucrt:mbctype.obj
 0001:00012158       __acrt_update_thread_multibyte_data 0000000180013158 f   libucrt:mbctype.obj
 0001:00012218       _setmbcp_nolock            0000000180013218 f   libucrt:mbctype.obj
 0001:00012538       _ismbblead                 0000000180013538 f   libucrt:ismbbyte.obj
 0001:0001254c       __acrt_initialize_command_line 000000018001354c f   libucrt:argv_data.obj
 0001:00012574       __dcrt_get_narrow_environment_from_os 0000000180013574 f   libucrt:get_environment_from_os.obj
 0001:00012678       _recalloc                  0000000180013678 f   libucrt:recalloc.obj
 0001:00012680       _recalloc_base             0000000180013680 f   libucrt:recalloc.obj
 0001:00012718       __acrt_initialize_heap     0000000180013718 f   libucrt:heap_handle.obj
 0001:00012734       __acrt_uninitialize_heap   0000000180013734 f   libucrt:heap_handle.obj
 0001:00012740       __acrt_execute_initializers 0000000180013740 f   libucrt:shared_initialization.obj
 0001:000127d4       __acrt_execute_uninitializers 00000001800137d4 f   libucrt:shared_initialization.obj
 0001:00012824       __acrt_has_user_matherr    0000000180013824 f   libucrt:matherr.obj
 0001:00012844       __acrt_initialize_user_matherr 0000000180013844 f   libucrt:matherr.obj
 0001:0001284c       __acrt_invoke_user_matherr 000000018001384c f   libucrt:matherr.obj
 0001:00012894       __acrt_stdio_begin_temporary_buffering_nolock 0000000180013894 f   libucrt:_sftbuf.obj
 0001:00012964       __acrt_stdio_end_temporary_buffering_nolock 0000000180013964 f   libucrt:_sftbuf.obj
 0001:000129a0       _query_new_mode            00000001800139a0 f   libucrt:new_mode.obj
 0001:000129a8       ??$make_c_string_character_source@D$$T@__crt_strtox@@YA?AV?$c_string_character_source@D@0@QEBD$$T@Z 00000001800139a8 f i libucrt:atox.obj
 0001:000129a8       ??$make_c_string_character_source@_WPEAPEA_W@__crt_strtox@@YA?AV?$c_string_character_source@_W@0@QEB_WQEAPEA_W@Z 00000001800139a8 f i libucrt:strtox.obj
 0001:000129bc       wcstol                     00000001800139bc f   libucrt:strtox.obj
 0001:000129ec       _mbtowc_l                  00000001800139ec f   libucrt:mbtowc.obj
 0001:00012b34       mbtowc                     0000000180013b34 f   libucrt:mbtowc.obj
 0001:00012b3c       _wctomb_s_l                0000000180013b3c f   libucrt:wctomb.obj
 0001:00012cc0       wctomb_s                   0000000180013cc0 f   libucrt:wctomb.obj
 0001:00012cd4       wcsnlen                    0000000180013cd4 f   libucrt:strnlen.obj
 0001:00012ec4       ?__acrt_fp_classify@@YA?AW4__acrt_fp_class@@AEBN@Z 0000000180013ec4 f i libucrt:cvt.obj
 0001:000138fc       __acrt_fp_format           00000001800148fc f   libucrt:cvt.obj
 0001:00013b40       _fputwc_nolock             0000000180014b40 f   libucrt:fputwc.obj
 0001:00013cbc       _fputc_nolock              0000000180014cbc f   libucrt:fputc.obj
 0001:00013cd4       _get_printf_count_output   0000000180014cd4 f   libucrt:printf_count_output.obj
 0001:00013cec       _fcloseall                 0000000180014cec f   libucrt:closeall.obj
 0001:00013da0       _isatty                    0000000180014da0 f   libucrt:isatty.obj
 0001:00013e00       __acrt_GetStringTypeA      0000000180014e00 f   libucrt:getstringtypea.obj
 0001:00013fb4       __strncnt                  0000000180014fb4 f   libucrt:strncnt.obj
 0001:00013fcc       __acrt_add_locale_ref      0000000180014fcc f   libucrt:locale_refcounting.obj
 0001:00014058       __acrt_free_locale         0000000180015058 f   libucrt:locale_refcounting.obj
 0001:000141d0       __acrt_locale_add_lc_time_reference 00000001800151d0 f   libucrt:locale_refcounting.obj
 0001:000141f8       __acrt_locale_free_lc_time_if_unreferenced 00000001800151f8 f   libucrt:locale_refcounting.obj
 0001:00014230       __acrt_locale_release_lc_time_reference 0000000180015230 f   libucrt:locale_refcounting.obj
 0001:00014258       __acrt_release_locale_ref  0000000180015258 f   libucrt:locale_refcounting.obj
 0001:00014300       __acrt_update_thread_locale_data 0000000180015300 f   libucrt:locale_refcounting.obj
 0001:00014370       _updatetlocinfoEx_nolock   0000000180015370 f   libucrt:locale_refcounting.obj
 0001:000143d8       __acrt_locale_free_monetary 00000001800153d8 f   libucrt:initmon.obj
 0001:000144e4       __acrt_locale_free_numeric 00000001800154e4 f   libucrt:initnum.obj
 0001:000145a8       __acrt_locale_free_time    00000001800155a8 f   libucrt:inittime.obj
 0001:000146b0       __ascii_strnicmp           00000001800156b0 f   libucrt:strnicmp.obj
 0001:000146f8       _strnicmp                  00000001800156f8 f   libucrt:strnicmp.obj
 0001:00014748       _strnicmp_l                0000000180015748 f   libucrt:strnicmp.obj
 0001:00014e68       _sopen_nolock              0000000180015e68 f   libucrt:open.obj
 0001:00014ef8       _sopen_s                   0000000180015ef8 f   libucrt:open.obj
 0001:00014f2c       _wsopen_nolock             0000000180015f2c f   libucrt:open.obj
 0001:0001531c       ??$?RV<lambda_b521505b218e5242e90febf6bfebc422>@@AEAV<lambda_6978c1fb23f02e42e1d9e99668cc68aa>@@V<lambda_314360699dd331753a4119843814e9a7>@@@?$__crt_seh_guarded_call@H@@QEAAH$$QEAV<lambda_b521505b218e5242e90febf6bfebc422>@@AEAV<lambda_6978c1fb23f02e42e1d9e99668cc68aa>@@$$QEAV<lambda_314360699dd331753a4119843814e9a7>@@@Z 000000018001631c f i libucrt:commit.obj
 0001:000153a8       _commit                    00000001800163a8 f   libucrt:commit.obj
 0001:0001543c       _putwch_nolock             000000018001643c f   libucrt:putwch.obj
 0001:00015640       __acrt_stdio_refill_and_read_narrow_nolock 0000000180016640 f   libucrt:_filbuf.obj
 0001:00015710       __acrt_DownlevelLocaleNameToLCID 0000000180016710 f   libucrt:lcidtoname_downlevel.obj
 0001:00015820       qsort                      0000000180016820 f   libucrt:qsort.obj
 0001:00015b54       strncpy_s                  0000000180016b54 f   libucrt:strncpy_s.obj
 0001:00015c28       strpbrk                    0000000180016c28 f   libucrt:strpbrk.obj
 0001:00015cc8       _mbsdec                    0000000180016cc8 f   libucrt:mbsdec.obj
 0001:00015cd0       _mbsdec_l                  0000000180016cd0 f   libucrt:mbsdec.obj
 0001:00015d80       _msize                     0000000180016d80 f   libucrt:msize.obj
 0001:00015dbc       __acrt_fp_strflt_to_string 0000000180016dbc f   libucrt:_fptostr.obj
 0001:00015e80       ?divide@__crt_strtox@@YA_KAEAUbig_integer@1@AEBU21@@Z 0000000180016e80 f i libucrt:cfout.obj
 0001:00016350       __acrt_fltout              0000000180017350 f   libucrt:cfout.obj
 0001:00017954       __acrt_stdio_flush_and_write_narrow_nolock 0000000180018954 f   libucrt:_flsbuf.obj
 0001:00017a3c       __acrt_stdio_flush_and_write_wide_nolock 0000000180018a3c f   libucrt:_flsbuf.obj
 0001:00017b28       _get_fmode                 0000000180018b28 f   libucrt:setmode.obj
 0001:00017b58       _setmode_nolock            0000000180018b58 f   libucrt:setmode.obj
 0001:00017c38       __acrt_copy_path_to_wide_string 0000000180018c38 f   libucrt:string_utilities.obj
 0001:00017d30       _chsize_nolock             0000000180018d30 f   libucrt:chsize.obj
 0001:00017eac       __dcrt_lowio_initialize_console_output 0000000180018eac f   libucrt:initcon.obj
 0001:00017ee8       __dcrt_terminate_console_output 0000000180018ee8 f   libucrt:initcon.obj
 0001:00017f08       __acrt_stdio_allocate_buffer_nolock 0000000180018f08 f   libucrt:_getbuf.obj
 0001:00017f6c       fegetenv                   0000000180018f6c f   libucrt:fegetenv.obj
 0001:00017f8c       fesetenv                   0000000180018f8c f   libucrt:fesetenv.obj
 0001:00017fd8       feholdexcept               0000000180018fd8 f   libucrt:feholdexcept.obj
 0001:00018028       ceil                       0000000180019028 f   libucrt:ceil.obj
 0001:000180f0       log10                      00000001800190f0 f   libucrt:log10.obj
 0001:0001869c       _getfpcontrolword          000000018001969c f   libucrt:_fenvutils.obj
 0001:000186b4       _getfpstatusword           00000001800196b4 f   libucrt:_fenvutils.obj
 0001:000186c8       _setfpcontrolword          00000001800196c8 f   libucrt:_fenvutils.obj
 0001:000186d4       _setfpstatusword           00000001800196d4 f   libucrt:_fenvutils.obj
 0001:00018724       _clearfp                   0000000180019724 f   libucrt:ieee.obj
 0001:00018778       _controlfp                 0000000180019778 f   libucrt:ieee.obj
 0001:00018784       _statusfp                  0000000180019784 f   libucrt:ieee.obj
 0001:00018b88       _handle_error              0000000180019b88 f   libucrt:libm_error.obj
 0001:00018cb0       _handle_nan                0000000180019cb0 f   libucrt:libm_error.obj
 0001:00018cd0       __acrt_initialize_fma3     0000000180019cd0 f   libucrt:fma3_available.obj
 0001:00018d40       _log10_special             0000000180019d40 f   libucrt:log_special.obj
 0001:00018e10       _get_fpsr                  0000000180019e10 f   libucrt:fpsr.obj
 0001:00018e20       _set_fpsr                  0000000180019e20 f   libucrt:fpsr.obj
 0001:00018e2a       _fclrf                     0000000180019e2a f   libucrt:fpsr.obj
 0001:00018e3e       _frnd                      0000000180019e3e f   libucrt:fpsr.obj
 0001:00018e60       _raise_exc                 0000000180019e60 f   libucrt:fpexcept.obj
 0001:00018e88       _raise_exc_ex              0000000180019e88 f   libucrt:fpexcept.obj
 0001:00019190       _set_errno_from_matherr    000000018001a190 f   libucrt:fpexcept.obj
 0001:000191c0       _clrfp                     000000018001a1c0 f   libucrt:fpctrl.obj
 0001:000191e0       _ctrlfp                    000000018001a1e0 f   libucrt:fpctrl.obj
 0001:0001925c       _set_statfp                000000018001a25c f   libucrt:fpctrl.obj
 0001:0001927c       _statfp                    000000018001a27c f   libucrt:fpctrl.obj
 0001:0001928e       IsProcessorFeaturePresent  000000018001a28e f   kernel32:KERNEL32.dll
 0001:00019294       RtlUnwindEx                000000018001a294 f   kernel32:KERNEL32.dll
 0001:000192a0       _FindPESection             000000018001a2a0 f   LIBCMT:pesect.obj
 0001:000192f0       _IsNonwritableInCurrentImage 000000018001a2f0 f   LIBCMT:pesect.obj
 0001:00019340       _ValidateImageBase         000000018001a340 f   LIBCMT:pesect.obj
 0001:00019370       __GSHandlerCheck           000000018001a370 f   LIBCMT:_gshandler_.obj
 0001:00019390       __GSHandlerCheckCommon     000000018001a390 f   LIBCMT:_gshandler_.obj
 0001:00019400       _alloca_probe              000000018001a400 f   LIBCMT:_chkstk_.obj
 0001:00019400       __chkstk                   000000018001a400 f   LIBCMT:_chkstk_.obj
 0001:00019470       memcmp                     000000018001a470 f   libvcruntime:memcmp.obj
 0001:00019538       strrchr                    000000018001a538 f   libvcruntime:strrchr.obj
 0001:00019690       strcmp                     000000018001a690 f   libucrt:strcmp.obj
 0001:00019710       _guard_dispatch_icall_nop  000000018001a710 f   LIBCMT:_guard_dispatch_.obj
 0002:00000000       __imp_HeapSize             000000018001b000     kernel32:KERNEL32.dll
 0002:00000008       __imp_FlushFileBuffers     000000018001b008     kernel32:KERNEL32.dll
 0002:00000010       __imp_CreateFileW          000000018001b010     kernel32:KERNEL32.dll
 0002:00000018       __imp_GetProcessHeap       000000018001b018     kernel32:KERNEL32.dll
 0002:00000020       __imp_FreeEnvironmentStringsW 000000018001b020     kernel32:KERNEL32.dll
 0002:00000028       __imp_GetEnvironmentStringsW 000000018001b028     kernel32:KERNEL32.dll
 0002:00000030       __imp_GetCommandLineW      000000018001b030     kernel32:KERNEL32.dll
 0002:00000038       __imp_GetCommandLineA      000000018001b038     kernel32:KERNEL32.dll
 0002:00000040       __imp_GetCPInfo            000000018001b040     kernel32:KERNEL32.dll
 0002:00000048       __imp_GetOEMCP             000000018001b048     kernel32:KERNEL32.dll
 0002:00000050       __imp_IsValidCodePage      000000018001b050     kernel32:KERNEL32.dll
 0002:00000058       __imp_FindNextFileA        000000018001b058     kernel32:KERNEL32.dll
 0002:00000060       __imp_FindFirstFileExA     000000018001b060     kernel32:KERNEL32.dll
 0002:00000068       __imp_FindClose            000000018001b068     kernel32:KERNEL32.dll
 0002:00000070       __imp_LCMapStringW         000000018001b070     kernel32:KERNEL32.dll
 0002:00000078       __imp_CreateThread         000000018001b078     kernel32:KERNEL32.dll
 0002:00000080       __imp_WaitForSingleObjectEx 000000018001b080     kernel32:KERNEL32.dll
 0002:00000088       __imp_OutputDebugStringW   000000018001b088     kernel32:KERNEL32.dll
 0002:00000090       __imp_GetStringTypeW       000000018001b090     kernel32:KERNEL32.dll
 0002:00000098       __imp_HeapReAlloc          000000018001b098     kernel32:KERNEL32.dll
 0002:000000a0       __imp_GetConsoleCP         000000018001b0a0     kernel32:KERNEL32.dll
 0002:000000a8       __imp_WriteFile            000000018001b0a8     kernel32:KERNEL32.dll
 0002:000000b0       __imp_SetStdHandle         000000018001b0b0     kernel32:KERNEL32.dll
 0002:000000b8       __imp_CloseHandle          000000018001b0b8     kernel32:KERNEL32.dll
 0002:000000c0       __imp_GetACP               000000018001b0c0     kernel32:KERNEL32.dll
 0002:000000c8       __imp_ReadConsoleW         000000018001b0c8     kernel32:KERNEL32.dll
 0002:000000d0       __imp_GetConsoleMode       000000018001b0d0     kernel32:KERNEL32.dll
 0002:000000d8       __imp_SetFilePointerEx     000000018001b0d8     kernel32:KERNEL32.dll
 0002:000000e0       __imp_HeapAlloc            000000018001b0e0     kernel32:KERNEL32.dll
 0002:000000e8       __imp_HeapFree             000000018001b0e8     kernel32:KERNEL32.dll
 0002:000000f0       __imp_WideCharToMultiByte  000000018001b0f0     kernel32:KERNEL32.dll
 0002:000000f8       __imp_MultiByteToWideChar  000000018001b0f8     kernel32:KERNEL32.dll
 0002:00000100       __imp_ExitProcess          000000018001b100     kernel32:KERNEL32.dll
 0002:00000108       __imp_WriteConsoleW        000000018001b108     kernel32:KERNEL32.dll
 0002:00000110       __imp_GetModuleHandleExW   000000018001b110     kernel32:KERNEL32.dll
 0002:00000118       __imp_GetModuleFileNameW   000000018001b118     kernel32:KERNEL32.dll
 0002:00000120       __imp_GetModuleFileNameA   000000018001b120     kernel32:KERNEL32.dll
 0002:00000128       __imp_GetFileType          000000018001b128     kernel32:KERNEL32.dll
 0002:00000130       __imp_GetStdHandle         000000018001b130     kernel32:KERNEL32.dll
 0002:00000138       __imp_ReadFile             000000018001b138     kernel32:KERNEL32.dll
 0002:00000140       __imp_LoadLibraryExW       000000018001b140     kernel32:KERNEL32.dll
 0002:00000148       __imp_RtlCaptureContext    000000018001b148     kernel32:KERNEL32.dll
 0002:00000150       __imp_RtlLookupFunctionEntry 000000018001b150     kernel32:KERNEL32.dll
 0002:00000158       __imp_RtlVirtualUnwind     000000018001b158     kernel32:KERNEL32.dll
 0002:00000160       __imp_UnhandledExceptionFilter 000000018001b160     kernel32:KERNEL32.dll
 0002:00000168       __imp_SetUnhandledExceptionFilter 000000018001b168     kernel32:KERNEL32.dll
 0002:00000170       __imp_GetCurrentProcess    000000018001b170     kernel32:KERNEL32.dll
 0002:00000178       __imp_TerminateProcess     000000018001b178     kernel32:KERNEL32.dll
 0002:00000180       __imp_IsProcessorFeaturePresent 000000018001b180     kernel32:KERNEL32.dll
 0002:00000188       __imp_QueryPerformanceCounter 000000018001b188     kernel32:KERNEL32.dll
 0002:00000190       __imp_GetCurrentProcessId  000000018001b190     kernel32:KERNEL32.dll
 0002:00000198       __imp_GetCurrentThreadId   000000018001b198     kernel32:KERNEL32.dll
 0002:000001a0       __imp_GetSystemTimeAsFileTime 000000018001b1a0     kernel32:KERNEL32.dll
 0002:000001a8       __imp_InitializeSListHead  000000018001b1a8     kernel32:KERNEL32.dll
 0002:000001b0       __imp_IsDebuggerPresent    000000018001b1b0     kernel32:KERNEL32.dll
 0002:000001b8       __imp_GetStartupInfoW      000000018001b1b8     kernel32:KERNEL32.dll
 0002:000001c0       __imp_GetModuleHandleW     000000018001b1c0     kernel32:KERNEL32.dll
 0002:000001c8       __imp_RtlUnwindEx          000000018001b1c8     kernel32:KERNEL32.dll
 0002:000001d0       __imp_RtlPcToFileHeader    000000018001b1d0     kernel32:KERNEL32.dll
 0002:000001d8       __imp_RaiseException       000000018001b1d8     kernel32:KERNEL32.dll
 0002:000001e0       __imp_InterlockedFlushSList 000000018001b1e0     kernel32:KERNEL32.dll
 0002:000001e8       __imp_GetLastError         000000018001b1e8     kernel32:KERNEL32.dll
 0002:000001f0       __imp_SetLastError         000000018001b1f0     kernel32:KERNEL32.dll
 0002:000001f8       __imp_EnterCriticalSection 000000018001b1f8     kernel32:KERNEL32.dll
 0002:00000200       __imp_LeaveCriticalSection 000000018001b200     kernel32:KERNEL32.dll
 0002:00000208       __imp_DeleteCriticalSection 000000018001b208     kernel32:KERNEL32.dll
 0002:00000210       __imp_InitializeCriticalSectionAndSpinCount 000000018001b210     kernel32:KERNEL32.dll
 0002:00000218       __imp_TlsAlloc             000000018001b218     kernel32:KERNEL32.dll
 0002:00000220       __imp_TlsGetValue          000000018001b220     kernel32:KERNEL32.dll
 0002:00000228       __imp_TlsSetValue          000000018001b228     kernel32:KERNEL32.dll
 0002:00000230       __imp_TlsFree              000000018001b230     kernel32:KERNEL32.dll
 0002:00000238       __imp_FreeLibrary          000000018001b238     kernel32:KERNEL32.dll
 0002:00000240       __imp_GetProcAddress       000000018001b240     kernel32:KERNEL32.dll
 0002:00000248       __imp_SetEndOfFile         000000018001b248     kernel32:KERNEL32.dll
 0002:00000250       \177KERNEL32_NULL_THUNK_DATA 000000018001b250     kernel32:KERNEL32.dll
 0002:00000258       __imp_?Set@Object@v8@@QEAA_NIV?$Local@VValue@v8@@@2@@Z 000000018001b258     iojs:node.dll
 0002:00000260       __imp_?ToInteger@Value@v8@@QEBA?AV?$MaybeLocal@VInteger@v8@@@2@V?$Local@VContext@v8@@@2@@Z 000000018001b260     iojs:node.dll
 0002:00000268       __imp_?New@Array@v8@@SA?AV?$Local@VArray@v8@@@2@PEAVIsolate@2@H@Z 000000018001b268     iojs:node.dll
 0002:00000270       __imp_?New@Integer@v8@@SA?AV?$Local@VInteger@v8@@@2@PEAVIsolate@2@H@Z 000000018001b270     iojs:node.dll
 0002:00000278       __imp_uv_default_loop      000000018001b278     iojs:node.dll
 0002:00000280       __imp_?MakeCallback@node@@YA?AV?$Local@VValue@v8@@@v8@@PEAVIsolate@3@V?$Local@VObject@v8@@@3@V?$Local@VFunction@v8@@@3@HPEAV23@@Z 000000018001b280     iojs:node.dll
 0002:00000288       __imp_node_module_register 000000018001b288     iojs:node.dll
 0002:00000290       __imp_?New@ObjectTemplate@v8@@SA?AV?$Local@VObjectTemplate@v8@@@2@PEAVIsolate@2@V?$Local@VFunctionTemplate@v8@@@2@@Z 000000018001b290     iojs:node.dll
 0002:00000298       __imp_?NewInstance@ObjectTemplate@v8@@QEAA?AV?$MaybeLocal@VObject@v8@@@2@V?$Local@VContext@v8@@@2@@Z 000000018001b298     iojs:node.dll
 0002:000002a0       __imp_?SetInternalFieldCount@ObjectTemplate@v8@@QEAAXH@Z 000000018001b2a0     iojs:node.dll
 0002:000002a8       __imp_?Set@Object@v8@@QEAA_NV?$Local@VValue@v8@@@2@0@Z 000000018001b2a8     iojs:node.dll
 0002:000002b0       __imp_?InternalFieldCount@Object@v8@@QEAAHXZ 000000018001b2b0     iojs:node.dll
 0002:000002b8       __imp_?SetInternalField@Object@v8@@QEAAXHV?$Local@VValue@v8@@@2@@Z 000000018001b2b8     iojs:node.dll
 0002:000002c0       __imp_?SetAlignedPointerInInternalField@Object@v8@@QEAAXHPEAX@Z 000000018001b2c0     iojs:node.dll
 0002:000002c8       __imp_?New@Object@v8@@SA?AV?$Local@VObject@v8@@@2@PEAVIsolate@2@@Z 000000018001b2c8     iojs:node.dll
 0002:000002d0       __imp_?SlowGetInternalField@Object@v8@@AEAA?AV?$Local@VValue@v8@@@2@H@Z 000000018001b2d0     iojs:node.dll
 0002:000002d8       __imp_?SlowGetAlignedPointerFromInternalField@Object@v8@@AEAAPEAXH@Z 000000018001b2d8     iojs:node.dll
 0002:000002e0       __imp_?NewFromUtf8@String@v8@@SA?AV?$MaybeLocal@VString@v8@@@2@PEAVIsolate@2@PEBDW4NewStringType@2@H@Z 000000018001b2e0     iojs:node.dll
 0002:000002e8       __imp_??0Utf8Value@String@v8@@QEAA@V?$Local@VValue@v8@@@2@@Z 000000018001b2e8     iojs:node.dll
 0002:000002f0       __imp_??1Utf8Value@String@v8@@QEAA@XZ 000000018001b2f0     iojs:node.dll
 0002:000002f8       __imp_??0EscapableHandleScope@v8@@QEAA@PEAVIsolate@1@@Z 000000018001b2f8     iojs:node.dll
 0002:00000300       __imp_?Escape@EscapableHandleScope@v8@@AEAAPEAPEAVObject@internal@2@PEAPEAV342@@Z 000000018001b300     iojs:node.dll
 0002:00000308       __imp_?BooleanValue@Value@v8@@QEBA_NXZ 000000018001b308     iojs:node.dll
 0002:00000310       __imp_?Uint32Value@Value@v8@@QEBAIXZ 000000018001b310     iojs:node.dll
 0002:00000318       __imp_?GlobalizeReference@V8@v8@@CAPEAPEAVObject@internal@2@PEAVIsolate@42@PEAPEAV342@@Z 000000018001b318     iojs:node.dll
 0002:00000320       __imp_?DisposeGlobal@V8@v8@@CAXPEAPEAVObject@internal@2@@Z 000000018001b320     iojs:node.dll
 0002:00000328       __imp_?MakeWeak@V8@v8@@CAXPEAPEAVObject@internal@2@PEAXP6AXAEBV?$WeakCallbackInfo@X@2@@ZW4WeakCallbackType@2@@Z 000000018001b328     iojs:node.dll
 0002:00000330       __imp_?ClearWeak@V8@v8@@CAPEAXPEAPEAVObject@internal@2@@Z 000000018001b330     iojs:node.dll
 0002:00000338       __imp_?ToLocalEmpty@V8@v8@@CAXXZ 000000018001b338     iojs:node.dll
 0002:00000340       __imp_?New@FunctionTemplate@v8@@SA?AV?$Local@VFunctionTemplate@v8@@@2@PEAVIsolate@2@P6AXAEBV?$FunctionCallbackInfo@VValue@v8@@@2@@ZV?$Local@VValue@v8@@@2@V?$Local@VSignature@v8@@@2@HW4ConstructorBehavior@2@@Z 000000018001b340     iojs:node.dll
 0002:00000348       __imp_?GetFunction@FunctionTemplate@v8@@QEAA?AV?$Local@VFunction@v8@@@2@XZ 000000018001b348     iojs:node.dll
 0002:00000350       __imp_?InstanceTemplate@FunctionTemplate@v8@@QEAA?AV?$Local@VObjectTemplate@v8@@@2@XZ 000000018001b350     iojs:node.dll
 0002:00000358       __imp_?PrototypeTemplate@FunctionTemplate@v8@@QEAA?AV?$Local@VObjectTemplate@v8@@@2@XZ 000000018001b358     iojs:node.dll
 0002:00000360       __imp_?SetClassName@FunctionTemplate@v8@@QEAAXV?$Local@VString@v8@@@2@@Z 000000018001b360     iojs:node.dll
 0002:00000368       __imp_?Error@Exception@v8@@SA?AV?$Local@VValue@v8@@@2@V?$Local@VString@v8@@@2@@Z 000000018001b368     iojs:node.dll
 0002:00000370       __imp_?Set@Template@v8@@QEAAXV?$Local@VName@v8@@@2@V?$Local@VData@v8@@@2@W4PropertyAttribute@2@@Z 000000018001b370     iojs:node.dll
 0002:00000378       __imp_??0HandleScope@v8@@QEAA@PEAVIsolate@1@@Z 000000018001b378     iojs:node.dll
 0002:00000380       __imp_??1HandleScope@v8@@QEAA@XZ 000000018001b380     iojs:node.dll
 0002:00000388       __imp_?CreateHandle@HandleScope@v8@@CAPEAPEAVObject@internal@2@PEAVHeapObject@42@PEAV342@@Z 000000018001b388     iojs:node.dll
 0002:00000390       __imp_?CreateHandle@HandleScope@v8@@KAPEAPEAVObject@internal@2@PEAVIsolate@42@PEAV342@@Z 000000018001b390     iojs:node.dll
 0002:00000398       __imp_?GetCurrent@Isolate@v8@@SAPEAV12@XZ 000000018001b398     iojs:node.dll
 0002:000003a0       __imp_?GetCurrentContext@Isolate@v8@@QEAA?AV?$Local@VContext@v8@@@2@XZ 000000018001b3a0     iojs:node.dll
 0002:000003a8       __imp_?New@External@v8@@SA?AV?$Local@VExternal@v8@@@2@PEAVIsolate@2@PEAX@Z 000000018001b3a8     iojs:node.dll
 0002:000003b0       __imp_?Value@External@v8@@QEBAPEAXXZ 000000018001b3b0     iojs:node.dll
 0002:000003b8       __imp_?Global@Context@v8@@QEAA?AV?$Local@VObject@v8@@@2@XZ 000000018001b3b8     iojs:node.dll
 0002:000003c0       __imp_uv_queue_work        000000018001b3c0     iojs:node.dll
 0002:000003c8       \177node_NULL_THUNK_DATA   000000018001b3c8     iojs:node.dll
 0002:000003d0       __guard_check_icall_fptr   000000018001b3d0     LIBCMT:guard_support.obj
 0002:000003d8       __guard_dispatch_icall_fptr 000000018001b3d8     LIBCMT:guard_support.obj
 0002:000003e0       __xc_a                     000000018001b3e0     LIBCMT:initializers.obj
 0002:000003e8       _register_ctags_           000000018001b3e8     tags.obj
 0002:000003f0       __xc_z                     000000018001b3f0     LIBCMT:initializers.obj
 0002:000003f8       __xi_a                     000000018001b3f8     LIBCMT:initializers.obj
 0002:00000400       __acrt_stdio_initializer   000000018001b400     libucrt:stdio_initializer.obj
 0002:00000408       __acrt_multibyte_initializer 000000018001b408     libucrt:multibyte_initializer.obj
 0002:00000410       __acrt_tran_fma3_initializer 000000018001b410     libucrt:fma3_initializer.obj
 0002:00000418       __xi_z                     000000018001b418     LIBCMT:initializers.obj
 0002:00000420       __xp_a                     000000018001b420     LIBCMT:initializers.obj
 0002:00000428       __acrt_locale_terminator   000000018001b428     libucrt:locale_initializer.obj
 0002:00000430       __dcrt_console_output_terminator 000000018001b430     libucrt:console_output_initializer.obj
 0002:00000438       __acrt_stdio_terminator    000000018001b438     libucrt:stdio_initializer.obj
 0002:00000440       __xp_z                     000000018001b440     LIBCMT:initializers.obj
 0002:00000448       __xt_a                     000000018001b448     LIBCMT:initializers.obj
 0002:00000450       __xt_z                     000000018001b450     LIBCMT:initializers.obj
 0002:00000460       _pRawDllMain               000000018001b460     LIBCMT:dll_dllmain.obj
 0002:00000460       _pDefaultRawDllMain        000000018001b460     LIBCMT:dll_dllmain.obj
 0002:00000480       ??_7exception@std@@6B@     000000018001b480     LIBCMT:throw_bad_alloc.obj
 0002:00000490       ??_C@_0BC@EOODALEL@Unknown?5exception?$AA@ 000000018001b490     LIBCMT:throw_bad_alloc.obj
 0002:000004b0       ??_7bad_alloc@std@@6B@     000000018001b4b0     LIBCMT:throw_bad_alloc.obj
 0002:000004c0       ??_C@_0P@GHFPNOJB@bad?5allocation?$AA@ 000000018001b4c0     LIBCMT:throw_bad_alloc.obj
 0002:000004d8       ??_7bad_array_new_length@std@@6B@ 000000018001b4d8     LIBCMT:throw_bad_alloc.obj
 0002:000004e8       ??_C@_0BF@KINCDENJ@bad?5array?5new?5length?$AA@ 000000018001b4e8     LIBCMT:throw_bad_alloc.obj
 0002:00000508       ??_7type_info@@6B@         000000018001b508     LIBCMT:std_type_info_static.obj
 0002:00000518       ??_7logic_error@std@@6B@   000000018001b518     libcpmt:xthrow.obj
 0002:00000530       ??_7length_error@std@@6B@  000000018001b530     libcpmt:xthrow.obj
 0002:00000548       ??_7out_of_range@std@@6B@  000000018001b548     libcpmt:xthrow.obj
 0002:000005c0       ??_C@_1BC@DNHGCMLG@?$AAa?$AAd?$AAv?$AAa?$AAp?$AAi?$AA3?$AA2?$AA?$AA@ 000000018001b5c0     libvcruntime:winapi_downlevel.obj
 0002:000005d8       ??_C@_1DM@KHCHBNEB@?$AAa?$AAp?$AAi?$AA?9?$AAm?$AAs?$AA?9?$AAw?$AAi?$AAn?$AA?9?$AAc?$AAo?$AAr?$AAe?$AA?9?$AAf?$AAi?$AAb?$AAe?$AAr?$AAs?$AA?9?$AAl?$AA1?$AA?9?$AA1?$AA?9?$AA1?$AA?$AA@ 000000018001b5d8     libvcruntime:winapi_downlevel.obj
 0002:00000618       ??_C@_1DK@LPPGFMPP@?$AAa?$AAp?$AAi?$AA?9?$AAm?$AAs?$AA?9?$AAw?$AAi?$AAn?$AA?9?$AAc?$AAo?$AAr?$AAe?$AA?9?$AAs?$AAy?$AAn?$AAc?$AAh?$AA?9?$AAl?$AA1?$AA?9?$AA2?$AA?9?$AA0?$AA?$AA@ 000000018001b618     libvcruntime:winapi_downlevel.obj
 0002:00000658       ??_C@_1BC@GDMECMAK@?$AAk?$AAe?$AAr?$AAn?$AAe?$AAl?$AA3?$AA2?$AA?$AA@ 000000018001b658     libvcruntime:winapi_downlevel.obj
 0002:00000678       ??_C@_08KNHFBNJ@FlsAlloc?$AA@ 000000018001b678     libvcruntime:winapi_downlevel.obj
 0002:00000690       ??_C@_07PEJMOBNF@FlsFree?$AA@ 000000018001b690     libvcruntime:winapi_downlevel.obj
 0002:000006a0       ??_C@_0M@GDNOONDI@FlsGetValue?$AA@ 000000018001b6a0     libvcruntime:winapi_downlevel.obj
 0002:000006b8       ??_C@_0M@JCPCPOEF@FlsSetValue?$AA@ 000000018001b6b8     libvcruntime:winapi_downlevel.obj
 0002:000006d0       ??_C@_0BM@HCFOFFN@InitializeCriticalSectionEx?$AA@ 000000018001b6d0     libvcruntime:winapi_downlevel.obj
 0002:00000a10       ??_C@_08EHJDFFNH@__based?$CI?$AA@ 000000018001ba10     libvcruntime:undname.obj
 0002:00000a20       ??_C@_07KOLFKCDI@__cdecl?$AA@ 000000018001ba20     libvcruntime:undname.obj
 0002:00000a28       ??_C@_08GHMPAG@__pascal?$AA@ 000000018001ba28     libvcruntime:undname.obj
 0002:00000a38       ??_C@_09IFJBGAPI@__stdcall?$AA@ 000000018001ba38     libvcruntime:undname.obj
 0002:00000a48       ??_C@_0L@NPHFGOKO@__thiscall?$AA@ 000000018001ba48     libvcruntime:undname.obj
 0002:00000a58       ??_C@_0L@JMKHOMEK@__fastcall?$AA@ 000000018001ba58     libvcruntime:undname.obj
 0002:00000a68       ??_C@_0N@BCKKPABJ@__vectorcall?$AA@ 000000018001ba68     libvcruntime:undname.obj
 0002:00000a78       ??_C@_09HIJEGCPM@__clrcall?$AA@ 000000018001ba78     libvcruntime:undname.obj
 0002:00000a84       ??_C@_06GHPCKEAG@__eabi?$AA@ 000000018001ba84     libvcruntime:undname.obj
 0002:00000a90       ??_C@_07JOMMBBKO@__ptr64?$AA@ 000000018001ba90     libvcruntime:undname.obj
 0002:00000a98       ??_C@_0L@PILCLIHE@__restrict?$AA@ 000000018001ba98     libvcruntime:undname.obj
 0002:00000aa8       ??_C@_0M@GFIIJFMG@__unaligned?$AA@ 000000018001baa8     libvcruntime:undname.obj
 0002:00000ab8       ??_C@_09DHDLOLLB@restrict?$CI?$AA@ 000000018001bab8     libvcruntime:undname.obj
 0002:00000ac4       ??_C@_04NIHEBCM@?5new?$AA@ 000000018001bac4     libvcruntime:undname.obj
 0002:00000ad0       ??_C@_07FPCDHGMM@?5delete?$AA@ 000000018001bad0     libvcruntime:undname.obj
 0002:00000ad8       ??_C@_01NEMOKFLO@?$DN?$AA@ 000000018001bad8     libvcruntime:undname.obj
 0002:00000adc       ??_C@_02GPIOPFAK@?$DO?$DO?$AA@ 000000018001badc     libvcruntime:undname.obj
 0002:00000ae0       ??_C@_02FODMEDOG@?$DM?$DM?$AA@ 000000018001bae0     libvcruntime:undname.obj
 0002:00000ae4       ??_C@_01DCLJPIOD@?$CB?$AA@ 000000018001bae4     libvcruntime:undname.obj
 0002:00000ae8       ??_C@_02EGOFBIJA@?$DN?$DN?$AA@ 000000018001bae8     libvcruntime:undname.obj
 0002:00000aec       ??_C@_02FDNJECIE@?$CB?$DN?$AA@ 000000018001baec     libvcruntime:undname.obj
 0002:00000af0       ??_C@_02GPECMEKF@?$FL?$FN?$AA@ 000000018001baf0     libvcruntime:undname.obj
 0002:00000af8       ??_C@_08LHJFAFGD@operator?$AA@ 000000018001baf8     libvcruntime:undname.obj
 0002:00000b04       ??_C@_02HBOOOICD@?9?$DO?$AA@ 000000018001bb04     libvcruntime:undname.obj
 0002:00000b08       ??_C@_01NBENCBCI@?$CK?$AA@ 000000018001bb08     libvcruntime:undname.obj
 0002:00000b0c       ??_C@_02ECNGHCIF@?$CL?$CL?$AA@ 000000018001bb0c     libvcruntime:undname.obj
 0002:00000b10       ??_C@_02BAABKJLB@?9?9?$AA@ 000000018001bb10     libvcruntime:undname.obj
 0002:00000b14       ??_C@_01JOAMLHOP@?9?$AA@   000000018001bb14     libvcruntime:undname.obj
 0002:00000b18       ??_C@_01MIFGBAGJ@?$CL?$AA@ 000000018001bb18     libvcruntime:undname.obj
 0002:00000b1c       ??_C@_01HNPIGOCE@?$CG?$AA@ 000000018001bb1c     libvcruntime:undname.obj
 0002:00000b20       ??_C@_03MNHNFDLC@?9?$DO?$CK?$AA@ 000000018001bb20     libvcruntime:undname.obj
 0002:00000b24       ??_C@_01KMDKNFGN@?1?$AA@   000000018001bb24     libvcruntime:undname.obj
 0002:00000b28       ??_C@_01FGNFDNOH@?$CF?$AA@ 000000018001bb28     libvcruntime:undname.obj
 0002:00000b2c       ??_C@_01MNNFJEPP@?$DM?$AA@ 000000018001bb2c     libvcruntime:undname.obj
 0002:00000b30       ??_C@_02EHCHHCKH@?$DM?$DN?$AA@ 000000018001bb30     libvcruntime:undname.obj
 0002:00000b34       ??_C@_01PPODPGHN@?$DO?$AA@ 000000018001bb34     libvcruntime:undname.obj
 0002:00000b38       ??_C@_02EEKDKGMJ@?$DO?$DN?$AA@ 000000018001bb38     libvcruntime:undname.obj
 0002:00000b3c       ??_C@_01IHBHIGKO@?0?$AA@   000000018001bb3c     libvcruntime:undname.obj
 0002:00000b40       ??_C@_02HCKGKOFO@?$CI?$CJ?$AA@ 000000018001bb40     libvcruntime:undname.obj
 0002:00000b44       ??_C@_01PJKLJHI@?$HO?$AA@  000000018001bb44     libvcruntime:undname.obj
 0002:00000b48       ??_C@_01JKBOJNNK@?$FO?$AA@ 000000018001bb48     libvcruntime:undname.obj
 0002:00000b4c       ??_C@_01DNKMNLPK@?$HM?$AA@ 000000018001bb4c     libvcruntime:undname.obj
 0002:00000b50       ??_C@_02PPKAJPJL@?$CG?$CG?$AA@ 000000018001bb50     libvcruntime:undname.obj
 0002:00000b54       ??_C@_02NONPIBCD@?$HM?$HM?$AA@ 000000018001bb54     libvcruntime:undname.obj
 0002:00000b58       ??_C@_02FPIMKNGF@?$CK?$DN?$AA@ 000000018001bb58     libvcruntime:undname.obj
 0002:00000b5c       ??_C@_02FOEOMHFC@?$CL?$DN?$AA@ 000000018001bb5c     libvcruntime:undname.obj
 0002:00000b60       ??_C@_02FKMDLLOA@?9?$DN?$AA@ 000000018001bb60     libvcruntime:undname.obj
 0002:00000b64       ??_C@_02FJEHGPIO@?1?$DN?$AA@ 000000018001bb64     libvcruntime:undname.obj
 0002:00000b68       ??_C@_02FENAOKFI@?$CF?$DN?$AA@ 000000018001bb68     libvcruntime:undname.obj
 0002:00000b6c       ??_C@_03IKFCCPFF@?$DO?$DO?$DN?$AA@ 000000018001bb6c     libvcruntime:undname.obj
 0002:00000b70       ??_C@_03CDNPDDLA@?$DM?$DM?$DN?$AA@ 000000018001bb70     libvcruntime:undname.obj
 0002:00000b74       ??_C@_02FGJGFEAB@?$CG?$DN?$AA@ 000000018001bb74     libvcruntime:undname.obj
 0002:00000b78       ??_C@_02DHLNPPGH@?$HM?$DN?$AA@ 000000018001bb78     libvcruntime:undname.obj
 0002:00000b7c       ??_C@_02MHEGNOJ@?$FO?$DN?$AA@ 000000018001bb7c     libvcruntime:undname.obj
 0002:00000b80       ??_C@_09IFPLHPGF@?$GAvftable?8?$AA@ 000000018001bb80     libvcruntime:undname.obj
 0002:00000b90       ??_C@_09BLBHBJP@?$GAvbtable?8?$AA@ 000000018001bb90     libvcruntime:undname.obj
 0002:00000ba0       ??_C@_07FEEIOKP@?$GAvcall?8?$AA@ 000000018001bba0     libvcruntime:undname.obj
 0002:00000ba8       ??_C@_08LLFFHHDJ@?$GAtypeof?8?$AA@ 000000018001bba8     libvcruntime:undname.obj
 0002:00000bb8       ??_C@_0BF@KDPPACIK@?$GAlocal?5static?5guard?8?$AA@ 000000018001bbb8     libvcruntime:undname.obj
 0002:00000bd0       ??_C@_08OBABFOLI@?$GAstring?8?$AA@ 000000018001bbd0     libvcruntime:undname.obj
 0002:00000be0       ??_C@_0BD@JDLKDPAB@?$GAvbase?5destructor?8?$AA@ 000000018001bbe0     libvcruntime:undname.obj
 0002:00000bf8       ??_C@_0BN@DEGPLNFK@?$GAvector?5deleting?5destructor?8?$AA@ 000000018001bbf8     libvcruntime:undname.obj
 0002:00000c18       ??_C@_0BO@OBMKPJIG@?$GAdefault?5constructor?5closure?8?$AA@ 000000018001bc18     libvcruntime:undname.obj
 0002:00000c38       ??_C@_0BN@IMDCHIKM@?$GAscalar?5deleting?5destructor?8?$AA@ 000000018001bc38     libvcruntime:undname.obj
 0002:00000c58       ??_C@_0BO@PFGOCPJJ@?$GAvector?5constructor?5iterator?8?$AA@ 000000018001bc58     libvcruntime:undname.obj
 0002:00000c78       ??_C@_0BN@LFPFMEDL@?$GAvector?5destructor?5iterator?8?$AA@ 000000018001bc78     libvcruntime:undname.obj
 0002:00000c98       ??_C@_0CE@IKBNEHA@?$GAvector?5vbase?5constructor?5iterat@ 000000018001bc98     libvcruntime:undname.obj
 0002:00000cc0       ??_C@_0BL@NILFHHPC@?$GAvirtual?5displacement?5map?8?$AA@ 000000018001bcc0     libvcruntime:undname.obj
 0002:00000ce0       ??_C@_0CB@JONCMFFK@?$GAeh?5vector?5constructor?5iterator?8@ 000000018001bce0     libvcruntime:undname.obj
 0002:00000d08       ??_C@_0CA@GCEOPDGL@?$GAeh?5vector?5destructor?5iterator?8?$AA@ 000000018001bd08     libvcruntime:undname.obj
 0002:00000d28       ??_C@_0CH@OOJPLCPH@?$GAeh?5vector?5vbase?5constructor?5ite@ 000000018001bd28     libvcruntime:undname.obj
 0002:00000d50       ??_C@_0BL@LLKPOHJI@?$GAcopy?5constructor?5closure?8?$AA@ 000000018001bd50     libvcruntime:undname.obj
 0002:00000d70       ??_C@_0BA@KBCDOMBN@?$GAudt?5returning?8?$AA@ 000000018001bd70     libvcruntime:undname.obj
 0002:00000d80       ??_C@_03KLGMFNMG@?$GAEH?$AA@ 000000018001bd80     libvcruntime:undname.obj
 0002:00000d84       ??_C@_05KHLCHHI@?$GARTTI?$AA@ 000000018001bd84     libvcruntime:undname.obj
 0002:00000d90       ??_C@_0BA@KKLDJDLB@?$GAlocal?5vftable?8?$AA@ 000000018001bd90     libvcruntime:undname.obj
 0002:00000da0       ??_C@_0CE@IIHCMGGL@?$GAlocal?5vftable?5constructor?5closu@ 000000018001bda0     libvcruntime:undname.obj
 0002:00000dc4       ??_C@_06FHBGPFGH@?5new?$FL?$FN?$AA@ 000000018001bdc4     libvcruntime:undname.obj
 0002:00000dd0       ??_C@_09LBNFPBCA@?5delete?$FL?$FN?$AA@ 000000018001bdd0     libvcruntime:undname.obj
 0002:00000de0       ??_C@_0P@HJKNJFNN@?$GAomni?5callsig?8?$AA@ 000000018001bde0     libvcruntime:undname.obj
 0002:00000df0       ??_C@_0BL@CNOONJFP@?$GAplacement?5delete?5closure?8?$AA@ 000000018001bdf0     libvcruntime:undname.obj
 0002:00000e10       ??_C@_0BN@CKNJLHMB@?$GAplacement?5delete?$FL?$FN?5closure?8?$AA@ 000000018001be10     libvcruntime:undname.obj
 0002:00000e30       ??_C@_0CG@CFDHKGGD@?$GAmanaged?5vector?5constructor?5iter@ 000000018001be30     libvcruntime:undname.obj
 0002:00000e58       ??_C@_0CF@IMGKMJNO@?$GAmanaged?5vector?5destructor?5itera@ 000000018001be58     libvcruntime:undname.obj
 0002:00000e80       ??_C@_0CG@HLDDJMAG@?$GAeh?5vector?5copy?5constructor?5iter@ 000000018001be80     libvcruntime:undname.obj
 0002:00000ea8       ??_C@_0CM@FCBBDIGB@?$GAeh?5vector?5vbase?5copy?5constructo@ 000000018001bea8     libvcruntime:undname.obj
 0002:00000ed8       ??_C@_0BL@CLIPGLGB@?$GAdynamic?5initializer?5for?5?8?$AA@ 000000018001bed8     libvcruntime:undname.obj
 0002:00000ef8       ??_C@_0CB@PDBIFEP@?$GAdynamic?5atexit?5destructor?5for?5?8@ 000000018001bef8     libvcruntime:undname.obj
 0002:00000f20       ??_C@_0CD@CGAJBKEJ@?$GAvector?5copy?5constructor?5iterato@ 000000018001bf20     libvcruntime:undname.obj
 0002:00000f48       ??_C@_0CJ@GJELGAMM@?$GAvector?5vbase?5copy?5constructor?5i@ 000000018001bf48     libvcruntime:undname.obj
 0002:00000f78       ??_C@_0CL@FGIJHLCE@?$GAmanaged?5vector?5copy?5constructor@ 000000018001bf78     libvcruntime:undname.obj
 0002:00000fa8       ??_C@_0BM@PMGGMLDN@?$GAlocal?5static?5thread?5guard?8?$AA@ 000000018001bfa8     libvcruntime:undname.obj
 0002:00000fc8       ??_C@_0N@BDNMDMOL@operator?5?$CC?$CC?5?$AA@ 000000018001bfc8     libvcruntime:undname.obj
 0002:00000fd8       ??_C@_0BC@DAFEJGAK@?5Type?5Descriptor?8?$AA@ 000000018001bfd8     libvcruntime:undname.obj
 0002:00000ff0       ??_C@_0BM@LDKODKLH@?5Base?5Class?5Descriptor?5at?5?$CI?$AA@ 000000018001bff0     libvcruntime:undname.obj
 0002:00001010       ??_C@_0BD@LGICGFMM@?5Base?5Class?5Array?8?$AA@ 000000018001c010     libvcruntime:undname.obj
 0002:00001028       ??_C@_0BN@MECKDCOJ@?5Class?5Hierarchy?5Descriptor?8?$AA@ 000000018001c028     libvcruntime:undname.obj
 0002:00001048       ??_C@_0BK@CFCOFLF@?5Complete?5Object?5Locator?8?$AA@ 000000018001c048     libvcruntime:undname.obj
 0002:00001064       ??_C@_02LMMGGCAJ@?3?5?$AA@ 000000018001c064     libucrt:perror.obj
 0002:00001068       ??_C@_01EEMJAFIK@?6?$AA@   000000018001c068     libucrt:perror.obj
 0002:000011e0       ??_C@_1EK@MBDPDCGA@?$AAM?$AAi?$AAc?$AAr?$AAo?$AAs?$AAo?$AAf?$AAt?$AA?5?$AAV?$AAi?$AAs?$AAu?$AAa?$AAl?$AA?5?$AAC?$AA?$CL?$AA?$CL?$AA?5?$AAR?$AAu?$AAn?$AAt?$AAi?$AAm?$AAe?$AA?5?$AAL?$AAi?$AAb@ 000000018001c1e0     libucrt:assert.obj
 0002:00001230       ??_C@_1FE@LHBLIKM@?$AAA?$AAs?$AAs?$AAe?$AAr?$AAt?$AAi?$AAo?$AAn?$AA?5?$AAf?$AAa?$AAi?$AAl?$AAe?$AAd?$AA?3?$AA?5?$AA?$CF?$AAT?$AAs?$AA?0?$AA?5?$AAf?$AAi?$AAl?$AAe?$AA?5?$AA?$CF?$AAT?$AAs?$AA?0@ 000000018001c230     libucrt:assert.obj
 0002:00001288       ??_C@_1CE@OJBNHDMO@?$AAA?$AAs?$AAs?$AAe?$AAr?$AAt?$AAi?$AAo?$AAn?$AA?5?$AAf?$AAa?$AAi?$AAl?$AAe?$AAd?$AA?$CB?$AA?$AA@ 000000018001c288     libucrt:assert.obj
 0002:000012b0       ??_C@_1BE@PHKBBGE@?$AAP?$AAr?$AAo?$AAg?$AAr?$AAa?$AAm?$AA?3?$AA?5?$AA?$AA@ 000000018001c2b0     libucrt:assert.obj
 0002:000012c8       ??_C@_1O@HEMHKNDC@?$AAF?$AAi?$AAl?$AAe?$AA?3?$AA?5?$AA?$AA@ 000000018001c2c8     libucrt:assert.obj
 0002:000012d8       ??_C@_1O@KCAFKHJE@?$AAL?$AAi?$AAn?$AAe?$AA?3?$AA?5?$AA?$AA@ 000000018001c2d8     libucrt:assert.obj
 0002:000012e8       ??_C@_1BK@PEDCIPMA@?$AAE?$AAx?$AAp?$AAr?$AAe?$AAs?$AAs?$AAi?$AAo?$AAn?$AA?3?$AA?5?$AA?$AA@ 000000018001c2e8     libucrt:assert.obj
 0002:00001310       ??_C@_1OA@EGMLFBHJ@?$AAF?$AAo?$AAr?$AA?5?$AAi?$AAn?$AAf?$AAo?$AAr?$AAm?$AAa?$AAt?$AAi?$AAo?$AAn?$AA?5?$AAo?$AAn?$AA?5?$AAh?$AAo?$AAw?$AA?5?$AAy?$AAo?$AAu?$AAr?$AA?5?$AAp?$AAr?$AAo?$AAg@ 000000018001c310     libucrt:assert.obj
 0002:000013f0       ??_C@_1HK@POCJMFGK@?$AA?$CI?$AAP?$AAr?$AAe?$AAs?$AAs?$AA?5?$AAR?$AAe?$AAt?$AAr?$AAy?$AA?5?$AAt?$AAo?$AA?5?$AAd?$AAe?$AAb?$AAu?$AAg?$AA?5?$AAt?$AAh?$AAe?$AA?5?$AAa?$AAp?$AAp?$AAl?$AAi?$AAc@ 000000018001c3f0     libucrt:assert.obj
 0002:00001470       ??_C@_17LGKOMLJ@?$AA?4?$AA?4?$AA?4?$AA?$AA@ 000000018001c470     libucrt:assert.obj
 0002:00001478       ??_C@_13LBAGMAIH@?$AA?6?$AA?$AA@ 000000018001c478     libucrt:assert.obj
 0002:0000147c       ??_C@_15IABLJNFO@?$AA?6?$AA?6?$AA?$AA@ 000000018001c47c     libucrt:assert.obj
 0002:00001488       ??_C@_1CO@EAEJAADC@?$AA?$DM?$AAp?$AAr?$AAo?$AAg?$AAr?$AAa?$AAm?$AA?5?$AAn?$AAa?$AAm?$AAe?$AA?5?$AAu?$AAn?$AAk?$AAn?$AAo?$AAw?$AAn?$AA?$DO?$AA?$AA@ 000000018001c488     libucrt:assert.obj
 0002:000014c0       __acrt_exception_action_table 000000018001c4c0     libucrt:exception_filter.obj
 0002:00001580       __acrt_signal_action_table_count 000000018001c580     libucrt:exception_filter.obj
 0002:00001588       __acrt_signal_action_first_fpe_index 000000018001c588     libucrt:exception_filter.obj
 0002:00001590       __acrt_signal_action_fpe_count 000000018001c590     libucrt:exception_filter.obj
 0002:00001598       ??_C@_1BI@BGOHAHKC@?$AAm?$AAs?$AAc?$AAo?$AAr?$AAe?$AAe?$AA?4?$AAd?$AAl?$AAl?$AA?$AA@ 000000018001c598     libucrt:exit.obj
 0002:000015b0       ??_C@_0P@MIGLKIOC@CorExitProcess?$AA@ 000000018001c5b0     libucrt:exit.obj
 0002:000016b0       standard_lookup_table      000000018001c6b0     libucrt:output.obj
 0002:0000170c       ??_C@_06OJHGLDPL@?$CInull?$CJ?$AA@ 000000018001c70c     libucrt:output.obj
 0002:00001718       ??_C@_1O@CEDCILHN@?$AA?$CI?$AAn?$AAu?$AAl?$AAl?$AA?$CJ?$AA?$AA@ 000000018001c718     libucrt:output.obj
 0002:00001730       __newctype                 000000018001c730     libucrt:ctype.obj
 0002:00001a30       __newclmap                 000000018001ca30     libucrt:ctype.obj
 0002:00001bb0       __newcumap                 000000018001cbb0     libucrt:ctype.obj
 0002:00001d30       _wctype                    000000018001cd30     libucrt:ctype.obj
 0002:00001f40       __lc_time_c                000000018001cf40     libucrt:nlsdata.obj
 0002:00002200       ??_C@_03KOEHGMDN@Sun?$AA@  000000018001d200     libucrt:nlsdata.obj
 0002:00002204       ??_C@_03PDAGKDH@Mon?$AA@   000000018001d204     libucrt:nlsdata.obj
 0002:00002208       ??_C@_03NAGEINEP@Tue?$AA@  000000018001d208     libucrt:nlsdata.obj
 0002:0000220c       ??_C@_03MHOMLAJA@Wed?$AA@  000000018001d20c     libucrt:nlsdata.obj
 0002:00002210       ??_C@_03IOFIKPDN@Thu?$AA@  000000018001d210     libucrt:nlsdata.obj
 0002:00002214       ??_C@_03IDIOELNC@Fri?$AA@  000000018001d214     libucrt:nlsdata.obj
 0002:00002218       ??_C@_03FEFJNEK@Sat?$AA@   000000018001d218     libucrt:nlsdata.obj
 0002:0000221c       ??_C@_06OOPIFAJ@Sunday?$AA@ 000000018001d21c     libucrt:nlsdata.obj
 0002:00002224       ??_C@_06JLEDEDGH@Monday?$AA@ 000000018001d224     libucrt:nlsdata.obj
 0002:00002230       ??_C@_07BAAGCFCM@Tuesday?$AA@ 000000018001d230     libucrt:nlsdata.obj
 0002:00002238       ??_C@_09DLIGFAKA@Wednesday?$AA@ 000000018001d238     libucrt:nlsdata.obj
 0002:00002248       ??_C@_08HACCIKIA@Thursday?$AA@ 000000018001d248     libucrt:nlsdata.obj
 0002:00002254       ??_C@_06JECMNKMI@Friday?$AA@ 000000018001d254     libucrt:nlsdata.obj
 0002:00002260       ??_C@_08INBOOONO@Saturday?$AA@ 000000018001d260     libucrt:nlsdata.obj
 0002:0000226c       ??_C@_03JIHJHPIE@Jan?$AA@  000000018001d26c     libucrt:nlsdata.obj
 0002:00002270       ??_C@_03HJBDCHOM@Feb?$AA@  000000018001d270     libucrt:nlsdata.obj
 0002:00002274       ??_C@_03ODNJBKGA@Mar?$AA@  000000018001d274     libucrt:nlsdata.obj
 0002:00002278       ??_C@_03LEOLGMJP@Apr?$AA@  000000018001d278     libucrt:nlsdata.obj
 0002:0000227c       ??_C@_03CNMDKL@May?$AA@    000000018001d27c     libucrt:nlsdata.obj
 0002:00002280       ??_C@_03IDFGHECI@Jun?$AA@  000000018001d280     libucrt:nlsdata.obj
 0002:00002284       ??_C@_03LBGABGKK@Jul?$AA@  000000018001d284     libucrt:nlsdata.obj
 0002:00002288       ??_C@_03IFJFEIGA@Aug?$AA@  000000018001d288     libucrt:nlsdata.obj
 0002:0000228c       ??_C@_03GGCAPAJC@Sep?$AA@  000000018001d28c     libucrt:nlsdata.obj
 0002:00002290       ??_C@_03BMAOKBAD@Oct?$AA@  000000018001d290     libucrt:nlsdata.obj
 0002:00002294       ??_C@_03JPJOFNIA@Nov?$AA@  000000018001d294     libucrt:nlsdata.obj
 0002:00002298       ??_C@_03MKABNOCG@Dec?$AA@  000000018001d298     libucrt:nlsdata.obj
 0002:000022a0       ??_C@_07CGJPFGJA@January?$AA@ 000000018001d2a0     libucrt:nlsdata.obj
 0002:000022a8       ??_C@_08GNJGEPFN@February?$AA@ 000000018001d2a8     libucrt:nlsdata.obj
 0002:000022b4       ??_C@_05HPCKOFNC@March?$AA@ 000000018001d2b4     libucrt:nlsdata.obj
 0002:000022bc       ??_C@_05DMJDNLEJ@April?$AA@ 000000018001d2bc     libucrt:nlsdata.obj
 0002:000022c4       ??_C@_04CNLMGBGM@June?$AA@ 000000018001d2c4     libucrt:nlsdata.obj
 0002:000022cc       ??_C@_04MIEPOIFP@July?$AA@ 000000018001d2cc     libucrt:nlsdata.obj
 0002:000022d4       ??_C@_06LBBHFDDG@August?$AA@ 000000018001d2d4     libucrt:nlsdata.obj
 0002:000022e0       ??_C@_09BHHEALKD@September?$AA@ 000000018001d2e0     libucrt:nlsdata.obj
 0002:000022f0       ??_C@_07JJNFCEND@October?$AA@ 000000018001d2f0     libucrt:nlsdata.obj
 0002:000022f8       ??_C@_08HCHEGEOA@November?$AA@ 000000018001d2f8     libucrt:nlsdata.obj
 0002:00002308       ??_C@_08EDHMEBNP@December?$AA@ 000000018001d308     libucrt:nlsdata.obj
 0002:00002314       ??_C@_02DEDBPAFC@AM?$AA@   000000018001d314     libucrt:nlsdata.obj
 0002:00002318       ??_C@_02CJNFDJBF@PM?$AA@   000000018001d318     libucrt:nlsdata.obj
 0002:00002320       ??_C@_08BPBNCDIB@MM?1dd?1yy?$AA@ 000000018001d320     libucrt:nlsdata.obj
 0002:00002330       ??_C@_0BE@CKGJFCPC@dddd?0?5MMMM?5dd?0?5yyyy?$AA@ 000000018001d330     libucrt:nlsdata.obj
 0002:00002348       ??_C@_08JCCMCCIL@HH?3mm?3ss?$AA@ 000000018001d348     libucrt:nlsdata.obj
 0002:00002358       ??_C@_17MBGCMIPB@?$AAS?$AAu?$AAn?$AA?$AA@ 000000018001d358     libucrt:nlsdata.obj
 0002:00002360       ??_C@_17KBOMKBF@?$AAM?$AAo?$AAn?$AA?$AA@ 000000018001d360     libucrt:nlsdata.obj
 0002:00002368       ??_C@_17BMKGEGOJ@?$AAT?$AAu?$AAe?$AA?$AA@ 000000018001d368     libucrt:nlsdata.obj
 0002:00002370       ??_C@_17CJEDCEPE@?$AAW?$AAe?$AAd?$AA?$AA@ 000000018001d370     libucrt:nlsdata.obj
 0002:00002378       ??_C@_17PDPHAADD@?$AAT?$AAh?$AAu?$AA?$AA@ 000000018001d378     libucrt:nlsdata.obj
 0002:00002380       ??_C@_17HFOLPPLP@?$AAF?$AAr?$AAi?$AA?$AA@ 000000018001d380     libucrt:nlsdata.obj
 0002:00002388       ??_C@_17GGIBDPIH@?$AAS?$AAa?$AAt?$AA?$AA@ 000000018001d388     libucrt:nlsdata.obj
 0002:00002390       ??_C@_1O@IHNHDHPB@?$AAS?$AAu?$AAn?$AAd?$AAa?$AAy?$AA?$AA@ 000000018001d390     libucrt:nlsdata.obj
 0002:000023a0       ??_C@_1O@MMNBFLIA@?$AAM?$AAo?$AAn?$AAd?$AAa?$AAy?$AA?$AA@ 000000018001d3a0     libucrt:nlsdata.obj
 0002:000023b0       ??_C@_1BA@ENFBFFEK@?$AAT?$AAu?$AAe?$AAs?$AAd?$AAa?$AAy?$AA?$AA@ 000000018001d3b0     libucrt:nlsdata.obj
 0002:000023c0       ??_C@_1BE@EBOGMDOH@?$AAW?$AAe?$AAd?$AAn?$AAe?$AAs?$AAd?$AAa?$AAy?$AA?$AA@ 000000018001d3c0     libucrt:nlsdata.obj
 0002:000023d8       ??_C@_1BC@HHMNLIHE@?$AAT?$AAh?$AAu?$AAr?$AAs?$AAd?$AAa?$AAy?$AA?$AA@ 000000018001d3d8     libucrt:nlsdata.obj
 0002:000023f0       ??_C@_1O@PDICJHAG@?$AAF?$AAr?$AAi?$AAd?$AAa?$AAy?$AA?$AA@ 000000018001d3f0     libucrt:nlsdata.obj
 0002:00002400       ??_C@_1BC@ENMNNPAJ@?$AAS?$AAa?$AAt?$AAu?$AAr?$AAd?$AAa?$AAy?$AA?$AA@ 000000018001d400     libucrt:nlsdata.obj
 0002:00002418       ??_C@_17DKNBKCHM@?$AAJ?$AAa?$AAn?$AA?$AA@ 000000018001d418     libucrt:nlsdata.obj
 0002:00002420       ??_C@_17LMDJEKJN@?$AAF?$AAe?$AAb?$AA?$AA@ 000000018001d420     libucrt:nlsdata.obj
 0002:00002428       ??_C@_17CKNLEDEC@?$AAM?$AAa?$AAr?$AA?$AA@ 000000018001d428     libucrt:nlsdata.obj
 0002:00002430       ??_C@_17LFPOIHDD@?$AAA?$AAp?$AAr?$AA?$AA@ 000000018001d430     libucrt:nlsdata.obj
 0002:00002438       ??_C@_17PNNKMEED@?$AAM?$AAa?$AAy?$AA?$AA@ 000000018001d438     libucrt:nlsdata.obj
 0002:00002440       ??_C@_17KCJGOCPB@?$AAJ?$AAu?$AAn?$AA?$AA@ 000000018001d440     libucrt:nlsdata.obj
 0002:00002448       ??_C@_17IJPCKHK@?$AAJ?$AAu?$AAl?$AA?$AA@ 000000018001d448     libucrt:nlsdata.obj
 0002:00002450       ??_C@_17ICPELBCN@?$AAA?$AAu?$AAg?$AA?$AA@ 000000018001d450     libucrt:nlsdata.obj
 0002:00002458       ??_C@_17HCHCOKMG@?$AAS?$AAe?$AAp?$AA?$AA@ 000000018001d458     libucrt:nlsdata.obj
 0002:00002460       ??_C@_17FNLKOI@?$AAO?$AAc?$AAt?$AA?$AA@ 000000018001d460     libucrt:nlsdata.obj
 0002:00002468       ??_C@_17BBDMLCIG@?$AAN?$AAo?$AAv?$AA?$AA@ 000000018001d468     libucrt:nlsdata.obj
 0002:00002470       ??_C@_17EGKACKIF@?$AAD?$AAe?$AAc?$AA?$AA@ 000000018001d470     libucrt:nlsdata.obj
 0002:00002478       ??_C@_1BA@EFMEIEBA@?$AAJ?$AAa?$AAn?$AAu?$AAa?$AAr?$AAy?$AA?$AA@ 000000018001d478     libucrt:nlsdata.obj
 0002:00002488       ??_C@_1BC@JGDDFFAM@?$AAF?$AAe?$AAb?$AAr?$AAu?$AAa?$AAr?$AAy?$AA?$AA@ 000000018001d488     libucrt:nlsdata.obj
 0002:000024a0       ??_C@_1M@IKEENEDF@?$AAM?$AAa?$AAr?$AAc?$AAh?$AA?$AA@ 000000018001d4a0     libucrt:nlsdata.obj
 0002:000024b0       ??_C@_1M@GJNLMHFD@?$AAA?$AAp?$AAr?$AAi?$AAl?$AA?$AA@ 000000018001d4b0     libucrt:nlsdata.obj
 0002:000024c0       ??_C@_19EPFLPGAP@?$AAJ?$AAu?$AAn?$AAe?$AA?$AA@ 000000018001d4c0     libucrt:nlsdata.obj
 0002:000024d0       ??_C@_19BIFMLPCD@?$AAJ?$AAu?$AAl?$AAy?$AA?$AA@ 000000018001d4d0     libucrt:nlsdata.obj
 0002:000024e0       ??_C@_1O@PAHLKOAC@?$AAA?$AAu?$AAg?$AAu?$AAs?$AAt?$AA?$AA@ 000000018001d4e0     libucrt:nlsdata.obj
 0002:000024f0       ??_C@_1BE@DKAAMBJL@?$AAS?$AAe?$AAp?$AAt?$AAe?$AAm?$AAb?$AAe?$AAr?$AA?$AA@ 000000018001d4f0     libucrt:nlsdata.obj
 0002:00002508       ??_C@_1BA@EPANDLNG@?$AAO?$AAc?$AAt?$AAo?$AAb?$AAe?$AAr?$AA?$AA@ 000000018001d508     libucrt:nlsdata.obj
 0002:00002518       ??_C@_1BC@BGLIFPF@?$AAN?$AAo?$AAv?$AAe?$AAm?$AAb?$AAe?$AAr?$AA?$AA@ 000000018001d518     libucrt:nlsdata.obj
 0002:00002530       ??_C@_1BC@FEMKIFH@?$AAD?$AAe?$AAc?$AAe?$AAm?$AAb?$AAe?$AAr?$AA?$AA@ 000000018001d530     libucrt:nlsdata.obj
 0002:00002544       ??_C@_15ODEHAHHF@?$AAA?$AAM?$AA?$AA@ 000000018001d544     libucrt:nlsdata.obj
 0002:0000254c       ??_C@_15CLMNNGEL@?$AAP?$AAM?$AA?$AA@ 000000018001d54c     libucrt:nlsdata.obj
 0002:00002558       ??_C@_1BC@IEBCMHCM@?$AAM?$AAM?$AA?1?$AAd?$AAd?$AA?1?$AAy?$AAy?$AA?$AA@ 000000018001d558     libucrt:nlsdata.obj
 0002:00002570       ??_C@_1CI@KNAKOEBC@?$AAd?$AAd?$AAd?$AAd?$AA?0?$AA?5?$AAM?$AAM?$AAM?$AAM?$AA?5?$AAd?$AAd?$AA?0?$AA?5?$AAy?$AAy?$AAy?$AAy?$AA?$AA@ 000000018001d570     libucrt:nlsdata.obj
 0002:00002598       ??_C@_1BC@GDGBMEMK@?$AAH?$AAH?$AA?3?$AAm?$AAm?$AA?3?$AAs?$AAs?$AA?$AA@ 000000018001d598     libucrt:nlsdata.obj
 0002:000025b0       ??_C@_1M@BMHNFIME@?$AAe?$AAn?$AA?9?$AAU?$AAS?$AA?$AA@ 000000018001d5b0     libucrt:nlsdata.obj
 0002:000025bc       ?ccs@?BL@???$__acrt_stdio_parse_mode@D@@YA?AU__acrt_stdio_stream_mode@@QEBD@Z@4QBDB 000000018001d5bc     libucrt:openfile.obj
 0002:000025c0       ?utf8_encoding@?BL@???$__acrt_stdio_parse_mode@D@@YA?AU__acrt_stdio_stream_mode@@QEBD@Z@4QBDB 000000018001d5c0     libucrt:openfile.obj
 0002:000025c8       ?utf16_encoding@?BL@???$__acrt_stdio_parse_mode@D@@YA?AU__acrt_stdio_stream_mode@@QEBD@Z@4QBDB 000000018001d5c8     libucrt:openfile.obj
 0002:000025d0       ?unicode_encoding@?BL@???$__acrt_stdio_parse_mode@D@@YA?AU__acrt_stdio_stream_mode@@QEBD@Z@4QBDB 000000018001d5d0     libucrt:openfile.obj
 0002:000025e0       _sys_errlist               000000018001d5e0     libucrt:syserr.obj
 0002:00002740       ??_C@_08INEPGKHH@No?5error?$AA@ 000000018001d740     libucrt:syserr.obj
 0002:00002750       ??_C@_0BI@BJFCGOHL@Operation?5not?5permitted?$AA@ 000000018001d750     libucrt:syserr.obj
 0002:00002768       ??_C@_0BK@FMDHKPNF@No?5such?5file?5or?5directory?$AA@ 000000018001d768     libucrt:syserr.obj
 0002:00002788       ??_C@_0BA@FKIAIBGA@No?5such?5process?$AA@ 000000018001d788     libucrt:syserr.obj
 0002:00002798       ??_C@_0BK@FJBOAFDK@Interrupted?5function?5call?$AA@ 000000018001d798     libucrt:syserr.obj
 0002:000027b8       ??_C@_0BD@KKNFOBBD@Input?1output?5error?$AA@ 000000018001d7b8     libucrt:syserr.obj
 0002:000027d0       ??_C@_0BK@DPKMCKJ@No?5such?5device?5or?5address?$AA@ 000000018001d7d0     libucrt:syserr.obj
 0002:000027f0       ??_C@_0BC@MFFGCDFL@Arg?5list?5too?5long?$AA@ 000000018001d7f0     libucrt:syserr.obj
 0002:00002808       ??_C@_0BC@HKPNECK@Exec?5format?5error?$AA@ 000000018001d808     libucrt:syserr.obj
 0002:00002820       ??_C@_0BE@NFGDDCEF@Bad?5file?5descriptor?$AA@ 000000018001d820     libucrt:syserr.obj
 0002:00002838       ??_C@_0BD@LOHELEP@No?5child?5processes?$AA@ 000000018001d838     libucrt:syserr.obj
 0002:00002850       ??_C@_0CB@EPFKGNAK@Resource?5temporarily?5unavailable@ 000000018001d850     libucrt:syserr.obj
 0002:00002878       ??_C@_0BB@IMDKMPFB@Not?5enough?5space?$AA@ 000000018001d878     libucrt:syserr.obj
 0002:00002890       ??_C@_0BC@HFNFNKAI@Permission?5denied?$AA@ 000000018001d890     libucrt:syserr.obj
 0002:000028a8       ??_C@_0M@LOEHLCJD@Bad?5address?$AA@ 000000018001d8a8     libucrt:syserr.obj
 0002:000028b8       ??_C@_0O@NIPGCINC@Unknown?5error?$AA@ 000000018001d8b8     libucrt:syserr.obj
 0002:000028c8       ??_C@_0BA@BIBLIOEK@Resource?5device?$AA@ 000000018001d8c8     libucrt:syserr.obj
 0002:000028d8       ??_C@_0M@NAAJNNGH@File?5exists?$AA@ 000000018001d8d8     libucrt:syserr.obj
 0002:000028e8       ??_C@_0O@OAMDNOCP@Improper?5link?$AA@ 000000018001d8e8     libucrt:syserr.obj
 0002:000028f8       ??_C@_0P@NLEIANHE@No?5such?5device?$AA@ 000000018001d8f8     libucrt:syserr.obj
 0002:00002908       ??_C@_0BA@CJBACOOL@Not?5a?5directory?$AA@ 000000018001d908     libucrt:syserr.obj
 0002:00002918       ??_C@_0P@NDHGCGKE@Is?5a?5directory?$AA@ 000000018001d918     libucrt:syserr.obj
 0002:00002928       ??_C@_0BB@HMGGCEBG@Invalid?5argument?$AA@ 000000018001d928     libucrt:syserr.obj
 0002:00002940       ??_C@_0BO@IIFBODJE@Too?5many?5open?5files?5in?5system?$AA@ 000000018001d940     libucrt:syserr.obj
 0002:00002960       ??_C@_0BE@INBJMKGG@Too?5many?5open?5files?$AA@ 000000018001d960     libucrt:syserr.obj
 0002:00002978       ??_C@_0CE@ONOKNLPF@Inappropriate?5I?1O?5control?5operat@ 000000018001d978     libucrt:syserr.obj
 0002:000029a0       ??_C@_0P@LFMMIPAE@File?5too?5large?$AA@ 000000018001d9a0     libucrt:syserr.obj
 0002:000029b0       ??_C@_0BI@FEALHKLD@No?5space?5left?5on?5device?$AA@ 000000018001d9b0     libucrt:syserr.obj
 0002:000029c8       ??_C@_0N@FEHLOILP@Invalid?5seek?$AA@ 000000018001d9c8     libucrt:syserr.obj
 0002:000029d8       ??_C@_0BG@DDBFNKBH@Read?9only?5file?5system?$AA@ 000000018001d9d8     libucrt:syserr.obj
 0002:000029f0       ??_C@_0P@PKCJJLLM@Too?5many?5links?$AA@ 000000018001d9f0     libucrt:syserr.obj
 0002:00002a00       ??_C@_0M@LHEPIIOM@Broken?5pipe?$AA@ 000000018001da00     libucrt:syserr.obj
 0002:00002a10       ??_C@_0N@MMJPGLJK@Domain?5error?$AA@ 000000018001da10     libucrt:syserr.obj
 0002:00002a20       ??_C@_0BB@FCBJFCAJ@Result?5too?5large?$AA@ 000000018001da20     libucrt:syserr.obj
 0002:00002a38       ??_C@_0BK@JAEBMJJM@Resource?5deadlock?5avoided?$AA@ 000000018001da38     libucrt:syserr.obj
 0002:00002a58       ??_C@_0BC@BEDIHIDK@Filename?5too?5long?$AA@ 000000018001da58     libucrt:syserr.obj
 0002:00002a70       ??_C@_0BD@CLHBCGPB@No?5locks?5available?$AA@ 000000018001da70     libucrt:syserr.obj
 0002:00002a88       ??_C@_0BJ@IHEHINLI@Function?5not?5implemented?$AA@ 000000018001da88     libucrt:syserr.obj
 0002:00002aa8       ??_C@_0BE@ICMCHPHH@Directory?5not?5empty?$AA@ 000000018001daa8     libucrt:syserr.obj
 0002:00002ac0       ??_C@_0BG@KLEAJEFJ@Illegal?5byte?5sequence?$AA@ 000000018001dac0     libucrt:syserr.obj
 0002:00002ad8       _sys_nerr                  000000018001dad8     libucrt:syserr.obj
 0002:00002b80       ??_C@_1EG@CNNIPFIM@?$AAa?$AAp?$AAi?$AA?9?$AAm?$AAs?$AA?9?$AAw?$AAi?$AAn?$AA?9?$AAa?$AAp?$AAp?$AAm?$AAo?$AAd?$AAe?$AAl?$AA?9?$AAr?$AAu?$AAn?$AAt?$AAi?$AAm?$AAe?$AA?9?$AAl?$AA1?$AA?9?$AA1@ 000000018001db80     libucrt:winapi_thunks.obj
 0002:00002bd0       ??_C@_1EA@JGEFHKEI@?$AAa?$AAp?$AAi?$AA?9?$AAm?$AAs?$AA?9?$AAw?$AAi?$AAn?$AA?9?$AAc?$AAo?$AAr?$AAe?$AA?9?$AAd?$AAa?$AAt?$AAe?$AAt?$AAi?$AAm?$AAe?$AA?9?$AAl?$AA1?$AA?9?$AA1?$AA?9?$AA1?$AA?$AA@ 000000018001dbd0     libucrt:winapi_thunks.obj
 0002:00002c10       ??_C@_1DI@GCIAAENM@?$AAa?$AAp?$AAi?$AA?9?$AAm?$AAs?$AA?9?$AAw?$AAi?$AAn?$AA?9?$AAc?$AAo?$AAr?$AAe?$AA?9?$AAf?$AAi?$AAl?$AAe?$AA?9?$AAl?$AA2?$AA?9?$AA1?$AA?9?$AA1?$AA?$AA@ 000000018001dc10     libucrt:winapi_thunks.obj
 0002:00002c50       ??_C@_1EI@MPIAOHOC@?$AAa?$AAp?$AAi?$AA?9?$AAm?$AAs?$AA?9?$AAw?$AAi?$AAn?$AA?9?$AAc?$AAo?$AAr?$AAe?$AA?9?$AAl?$AAo?$AAc?$AAa?$AAl?$AAi?$AAz?$AAa?$AAt?$AAi?$AAo?$AAn?$AA?9?$AAl?$AA1?$AA?9@ 000000018001dc50     libucrt:winapi_thunks.obj
 0002:00002ca0       ??_C@_1FK@FPHCKFIE@?$AAa?$AAp?$AAi?$AA?9?$AAm?$AAs?$AA?9?$AAw?$AAi?$AAn?$AA?9?$AAc?$AAo?$AAr?$AAe?$AA?9?$AAl?$AAo?$AAc?$AAa?$AAl?$AAi?$AAz?$AAa?$AAt?$AAi?$AAo?$AAn?$AA?9?$AAo?$AAb?$AAs@ 000000018001dca0     libucrt:winapi_thunks.obj
 0002:00002d00       ??_C@_1EM@DILCGIIO@?$AAa?$AAp?$AAi?$AA?9?$AAm?$AAs?$AA?9?$AAw?$AAi?$AAn?$AA?9?$AAc?$AAo?$AAr?$AAe?$AA?9?$AAp?$AAr?$AAo?$AAc?$AAe?$AAs?$AAs?$AAt?$AAh?$AAr?$AAe?$AAa?$AAd?$AAs?$AA?9?$AAl@ 000000018001dd00     libucrt:winapi_thunks.obj
 0002:00002d50       ??_C@_1DM@LNCGDDPN@?$AAa?$AAp?$AAi?$AA?9?$AAm?$AAs?$AA?9?$AAw?$AAi?$AAn?$AA?9?$AAc?$AAo?$AAr?$AAe?$AA?9?$AAs?$AAt?$AAr?$AAi?$AAn?$AAg?$AA?9?$AAl?$AA1?$AA?9?$AA1?$AA?9?$AA0?$AA?$AA@ 000000018001dd50     libucrt:winapi_thunks.obj
 0002:00002d90       ??_C@_1DO@FPAPJEMD@?$AAa?$AAp?$AAi?$AA?9?$AAm?$AAs?$AA?9?$AAw?$AAi?$AAn?$AA?9?$AAc?$AAo?$AAr?$AAe?$AA?9?$AAs?$AAy?$AAs?$AAi?$AAn?$AAf?$AAo?$AA?9?$AAl?$AA1?$AA?9?$AA2?$AA?9?$AA1?$AA?$AA@ 000000018001dd90     libucrt:winapi_thunks.obj
 0002:00002dd0       ??_C@_1DK@NDHNAHIO@?$AAa?$AAp?$AAi?$AA?9?$AAm?$AAs?$AA?9?$AAw?$AAi?$AAn?$AA?9?$AAc?$AAo?$AAr?$AAe?$AA?9?$AAw?$AAi?$AAn?$AAr?$AAt?$AA?9?$AAl?$AA1?$AA?9?$AA1?$AA?9?$AA0?$AA?$AA@ 000000018001ddd0     libucrt:winapi_thunks.obj
 0002:00002e10       ??_C@_1DM@KGHDGBCM@?$AAa?$AAp?$AAi?$AA?9?$AAm?$AAs?$AA?9?$AAw?$AAi?$AAn?$AA?9?$AAc?$AAo?$AAr?$AAe?$AA?9?$AAx?$AAs?$AAt?$AAa?$AAt?$AAe?$AA?9?$AAl?$AA2?$AA?9?$AA1?$AA?9?$AA0?$AA?$AA@ 000000018001de10     libucrt:winapi_thunks.obj
 0002:00002e50       ??_C@_1EO@IJIOEFOH@?$AAa?$AAp?$AAi?$AA?9?$AAm?$AAs?$AA?9?$AAw?$AAi?$AAn?$AA?9?$AAr?$AAt?$AAc?$AAo?$AAr?$AAe?$AA?9?$AAn?$AAt?$AAu?$AAs?$AAe?$AAr?$AA?9?$AAw?$AAi?$AAn?$AAd?$AAo?$AAw?$AA?9@ 000000018001de50     libucrt:winapi_thunks.obj
 0002:00002ea0       ??_C@_1FG@HHGEKANL@?$AAa?$AAp?$AAi?$AA?9?$AAm?$AAs?$AA?9?$AAw?$AAi?$AAn?$AA?9?$AAs?$AAe?$AAc?$AAu?$AAr?$AAi?$AAt?$AAy?$AA?9?$AAs?$AAy?$AAs?$AAt?$AAe?$AAm?$AAf?$AAu?$AAn?$AAc?$AAt?$AAi@ 000000018001dea0     libucrt:winapi_thunks.obj
 0002:00002f00       ??_C@_1FG@NCKKOLKO@?$AAe?$AAx?$AAt?$AA?9?$AAm?$AAs?$AA?9?$AAw?$AAi?$AAn?$AA?9?$AAk?$AAe?$AAr?$AAn?$AAe?$AAl?$AA3?$AA2?$AA?9?$AAp?$AAa?$AAc?$AAk?$AAa?$AAg?$AAe?$AA?9?$AAc?$AAu?$AAr?$AAr@ 000000018001df00     libucrt:winapi_thunks.obj
 0002:00002f60       ??_C@_1EG@DBIOJECG@?$AAe?$AAx?$AAt?$AA?9?$AAm?$AAs?$AA?9?$AAw?$AAi?$AAn?$AA?9?$AAn?$AAt?$AAu?$AAs?$AAe?$AAr?$AA?9?$AAd?$AAi?$AAa?$AAl?$AAo?$AAg?$AAb?$AAo?$AAx?$AA?9?$AAl?$AA1?$AA?9?$AA1@ 000000018001df60     libucrt:winapi_thunks.obj
 0002:00002fb0       ??_C@_1EO@FIHMJCLF@?$AAe?$AAx?$AAt?$AA?9?$AAm?$AAs?$AA?9?$AAw?$AAi?$AAn?$AA?9?$AAn?$AAt?$AAu?$AAs?$AAe?$AAr?$AA?9?$AAw?$AAi?$AAn?$AAd?$AAo?$AAw?$AAs?$AAt?$AAa?$AAt?$AAi?$AAo?$AAn?$AA?9@ 000000018001dfb0     libucrt:winapi_thunks.obj
 0002:00003000       ??_C@_1O@BCCLBEOE@?$AAu?$AAs?$AAe?$AAr?$AA3?$AA2?$AA?$AA@ 000000018001e000     libucrt:winapi_thunks.obj
 0002:00003018       ??_C@_0BA@FHFNEAED@AreFileApisANSI?$AA@ 000000018001e018     libucrt:winapi_thunks.obj
 0002:00003050       ??_C@_0BA@HNOPNCHB@GetActiveWindow?$AA@ 000000018001e050     libucrt:winapi_thunks.obj
 0002:00003068       ??_C@_0BE@JOGNEJCI@GetCurrentPackageId?$AA@ 000000018001e068     libucrt:winapi_thunks.obj
 0002:00003088       ??_C@_0BD@HHGDFDBJ@GetLastActivePopup?$AA@ 000000018001e088     libucrt:winapi_thunks.obj
 0002:000030a8       ??_C@_0BI@DFKBFLJE@GetProcessWindowStation?$AA@ 000000018001e0a8     libucrt:winapi_thunks.obj
 0002:000030c8       ??_C@_0BK@DEKFELLI@GetUserObjectInformationW?$AA@ 000000018001e0c8     libucrt:winapi_thunks.obj
 0002:000030f8       ??_C@_0O@KKBNKAPF@LCMapStringEx?$AA@ 000000018001e0f8     libucrt:winapi_thunks.obj
 0002:00003110       ??_C@_0BB@HBDEELFH@LocaleNameToLCID?$AA@ 000000018001e110     libucrt:winapi_thunks.obj
 0002:00003130       ??_C@_0M@CHKKJDAI@MessageBoxA?$AA@ 000000018001e130     libucrt:winapi_thunks.obj
 0002:00003148       ??_C@_0M@DLDCCGNP@MessageBoxW?$AA@ 000000018001e148     libucrt:winapi_thunks.obj
 0002:00003178       ??_C@_1M@HPNHIDJI@?$AAj?$AAa?$AA?9?$AAJ?$AAP?$AA?$AA@ 000000018001e178     libucrt:mbctype.obj
 0002:00003188       ??_C@_1M@BIBDDEMK@?$AAz?$AAh?$AA?9?$AAC?$AAN?$AA?$AA@ 000000018001e188     libucrt:mbctype.obj
 0002:00003198       ??_C@_1M@JLOOOEGK@?$AAk?$AAo?$AA?9?$AAK?$AAR?$AA?$AA@ 000000018001e198     libucrt:mbctype.obj
 0002:000031a8       ??_C@_1M@CLNBBOPM@?$AAz?$AAh?$AA?9?$AAT?$AAW?$AA?$AA@ 000000018001e1a8     libucrt:mbctype.obj
 0002:000031b4       ??_C@_03OEIAHPBN@INF?$AA@  000000018001e1b4     libucrt:cvt.obj
 0002:000031b8       ??_C@_03OJHLLCGB@inf?$AA@  000000018001e1b8     libucrt:cvt.obj
 0002:000031bc       ??_C@_03LKNCIKJB@NAN?$AA@  000000018001e1bc     libucrt:cvt.obj
 0002:000031c0       ??_C@_03LHCJEHON@nan?$AA@  000000018001e1c0     libucrt:cvt.obj
 0002:000031c8       ??_C@_09OFJJIMPC@NAN?$CISNAN?$CJ?$AA@ 000000018001e1c8     libucrt:cvt.obj
 0002:000031d8       ??_C@_09IPFBKMDL@nan?$CIsnan?$CJ?$AA@ 000000018001e1d8     libucrt:cvt.obj
 0002:000031e8       ??_C@_08IKHNHAJ@NAN?$CIIND?$CJ?$AA@ 000000018001e1e8     libucrt:cvt.obj
 0002:000031f8       ??_C@_08OFCDMILK@nan?$CIind?$CJ?$AA@ 000000018001e1f8     libucrt:cvt.obj
 0002:00003204       ??_C@_05KLBDPFGC@e?$CL000?$AA@ 000000018001e204     libucrt:cvt.obj
 0002:0000320c       ??_C@_15PJPFLCCM@?$AAu?$AAk?$AA?$AA@ 000000018001e20c     libucrt:get_qualified_locale.obj
 0002:00004060       ??_C@_15EMKDOKLE@?$AAa?$AAr?$AA?$AA@ 000000018001f060     libucrt:lcidtoname_downlevel.obj
 0002:00004068       ??_C@_15KNPADPLH@?$AAb?$AAg?$AA?$AA@ 000000018001f068     libucrt:lcidtoname_downlevel.obj
 0002:00004070       ??_C@_15EDMHLDMO@?$AAc?$AAa?$AA?$AA@ 000000018001f070     libucrt:lcidtoname_downlevel.obj
 0002:00004078       ??_C@_1O@BPEAJADD@?$AAz?$AAh?$AA?9?$AAC?$AAH?$AAS?$AA?$AA@ 000000018001f078     libucrt:lcidtoname_downlevel.obj
 0002:00004088       ??_C@_15LJNHCMNK@?$AAc?$AAs?$AA?$AA@ 000000018001f088     libucrt:lcidtoname_downlevel.obj
 0002:00004090       ??_C@_15FOMCIDHG@?$AAd?$AAa?$AA?$AA@ 000000018001f090     libucrt:lcidtoname_downlevel.obj
 0002:00004098       ??_C@_15NBKABECB@?$AAd?$AAe?$AA?$AA@ 000000018001f098     libucrt:lcidtoname_downlevel.obj
 0002:000040a0       ??_C@_15GHPEIIAO@?$AAe?$AAl?$AA?$AA@ 000000018001f0a0     libucrt:lcidtoname_downlevel.obj
 0002:000040a8       ??_C@_15MNPNEAIF@?$AAe?$AAn?$AA?$AA@ 000000018001f0a8     libucrt:lcidtoname_downlevel.obj
 0002:000040b0       ??_C@_15GPIOMPMH@?$AAe?$AAs?$AA?$AA@ 000000018001f0b0     libucrt:lcidtoname_downlevel.obj
 0002:000040b8       ??_C@_15NGLOAKJC@?$AAf?$AAi?$AA?$AA@ 000000018001f0b8     libucrt:lcidtoname_downlevel.obj
 0002:000040c0       ??_C@_15FBKGNKAM@?$AAf?$AAr?$AA?$AA@ 000000018001f0c0     libucrt:lcidtoname_downlevel.obj
 0002:000040c8       ??_C@_15KGGCNEFK@?$AAh?$AAe?$AA?$AA@ 000000018001f0c8     libucrt:lcidtoname_downlevel.obj
 0002:000040d0       ??_C@_15PGHLIDMF@?$AAh?$AAu?$AA?$AA@ 000000018001f0d0     libucrt:lcidtoname_downlevel.obj
 0002:000040d8       ??_C@_15BIEMAPLM@?$AAi?$AAs?$AA?$AA@ 000000018001f0d8     libucrt:lcidtoname_downlevel.obj
 0002:000040e0       ??_C@_15IFJLDHAF@?$AAi?$AAt?$AA?$AA@ 000000018001f0e0     libucrt:lcidtoname_downlevel.obj
 0002:000040e8       ??_C@_15GEMIOCAG@?$AAj?$AAa?$AA?$AA@ 000000018001f0e8     libucrt:lcidtoname_downlevel.obj
 0002:000040f0       ??_C@_15EPELEGJA@?$AAk?$AAo?$AA?$AA@ 000000018001f0f0     libucrt:lcidtoname_downlevel.obj
 0002:000040f8       ??_C@_15NDDHIMN@?$AAn?$AAl?$AA?$AA@ 000000018001f0f8     libucrt:lcidtoname_downlevel.obj
 0002:00004100       ??_C@_15BPIGNHCD@?$AAn?$AAo?$AA?$AA@ 000000018001f100     libucrt:lcidtoname_downlevel.obj
 0002:00004108       ??_C@_15DEOPBLCG@?$AAp?$AAl?$AA?$AA@ 000000018001f108     libucrt:lcidtoname_downlevel.obj
 0002:00004110       ??_C@_15KBECGEFG@?$AAp?$AAt?$AA?$AA@ 000000018001f110     libucrt:lcidtoname_downlevel.obj
 0002:00004118       ??_C@_15GLJCBFMD@?$AAr?$AAo?$AA?$AA@ 000000018001f118     libucrt:lcidtoname_downlevel.obj
 0002:00004120       ??_C@_15FEDGKCDI@?$AAr?$AAu?$AA?$AA@ 000000018001f120     libucrt:lcidtoname_downlevel.obj
 0002:00004128       ??_C@_15GLKMLLHM@?$AAh?$AAr?$AA?$AA@ 000000018001f128     libucrt:lcidtoname_downlevel.obj
 0002:00004130       ??_C@_15CPKMFBDB@?$AAs?$AAk?$AA?$AA@ 000000018001f130     libucrt:lcidtoname_downlevel.obj
 0002:00004138       ??_C@_15BAAIOGMK@?$AAs?$AAq?$AA?$AA@ 000000018001f138     libucrt:lcidtoname_downlevel.obj
 0002:00004140       ??_C@_15INNPNOHD@?$AAs?$AAv?$AA?$AA@ 000000018001f140     libucrt:lcidtoname_downlevel.obj
 0002:00004148       ??_C@_15CABMMOGH@?$AAt?$AAh?$AA?$AA@ 000000018001f148     libucrt:lcidtoname_downlevel.obj
 0002:00004150       ??_C@_15BPLIHJJM@?$AAt?$AAr?$AA?$AA@ 000000018001f150     libucrt:lcidtoname_downlevel.obj
 0002:00004158       ??_C@_15NEOEKKDJ@?$AAu?$AAr?$AA?$AA@ 000000018001f158     libucrt:lcidtoname_downlevel.obj
 0002:00004160       ??_C@_15NFICGAJK@?$AAi?$AAd?$AA?$AA@ 000000018001f160     libucrt:lcidtoname_downlevel.obj
 0002:00004168       ??_C@_15HPJPHDM@?$AAb?$AAe?$AA?$AA@ 000000018001f168     libucrt:lcidtoname_downlevel.obj
 0002:00004170       ??_C@_15LCHLGJII@?$AAs?$AAl?$AA?$AA@ 000000018001f170     libucrt:lcidtoname_downlevel.obj
 0002:00004178       ??_C@_15PCFJPHHO@?$AAe?$AAt?$AA?$AA@ 000000018001f178     libucrt:lcidtoname_downlevel.obj
 0002:00004180       ??_C@_15HPFPGODN@?$AAl?$AAv?$AA?$AA@ 000000018001f180     libucrt:lcidtoname_downlevel.obj
 0002:00004188       ??_C@_15NFFGKGLG@?$AAl?$AAt?$AA?$AA@ 000000018001f188     libucrt:lcidtoname_downlevel.obj
 0002:00004190       ??_C@_15BDAKCCHN@?$AAf?$AAa?$AA?$AA@ 000000018001f190     libucrt:lcidtoname_downlevel.obj
 0002:00004198       ??_C@_15NFGIAIAJ@?$AAv?$AAi?$AA?$AA@ 000000018001f198     libucrt:lcidtoname_downlevel.obj
 0002:000041a0       ??_C@_15LMKNDMHN@?$AAh?$AAy?$AA?$AA@ 000000018001f1a0     libucrt:lcidtoname_downlevel.obj
 0002:000041a8       ??_C@_15IJBHMCFL@?$AAa?$AAz?$AA?$AA@ 000000018001f1a8     libucrt:lcidtoname_downlevel.obj
 0002:000041b0       ??_C@_15EKOFJABL@?$AAe?$AAu?$AA?$AA@ 000000018001f1b0     libucrt:lcidtoname_downlevel.obj
 0002:000041b8       ??_C@_15BGHADCNK@?$AAm?$AAk?$AA?$AA@ 000000018001f1b8     libucrt:lcidtoname_downlevel.obj
 0002:000041c0       ??_C@_15JDNICKHM@?$AAa?$AAf?$AA?$AA@ 000000018001f1c0     libucrt:lcidtoname_downlevel.obj
 0002:000041c8       ??_C@_15KPJEDBKD@?$AAk?$AAa?$AA?$AA@ 000000018001f1c8     libucrt:lcidtoname_downlevel.obj
 0002:000041d0       ??_C@_15PDNFFFEO@?$AAf?$AAo?$AA?$AA@ 000000018001f1d0     libucrt:lcidtoname_downlevel.obj
 0002:000041d8       ??_C@_15OMLEGLOC@?$AAh?$AAi?$AA?$AA@ 000000018001f1d8     libucrt:lcidtoname_downlevel.obj
 0002:000041e0       ??_C@_15IDNNENKK@?$AAm?$AAs?$AA?$AA@ 000000018001f1e0     libucrt:lcidtoname_downlevel.obj
 0002:000041e8       ??_C@_15MACJNBMH@?$AAk?$AAk?$AA?$AA@ 000000018001f1e8     libucrt:lcidtoname_downlevel.obj
 0002:000041f0       ??_C@_15DKDJEOND@?$AAk?$AAy?$AA?$AA@ 000000018001f1f0     libucrt:lcidtoname_downlevel.obj
 0002:000041f8       ??_C@_15DFGDLJBG@?$AAs?$AAw?$AA?$AA@ 000000018001f1f8     libucrt:lcidtoname_downlevel.obj
 0002:00004200       ??_C@_15BBFAICNG@?$AAu?$AAz?$AA?$AA@ 000000018001f200     libucrt:lcidtoname_downlevel.obj
 0002:00004208       ??_C@_15DKNDCGEA@?$AAt?$AAt?$AA?$AA@ 000000018001f208     libucrt:lcidtoname_downlevel.obj
 0002:00004210       ??_C@_15MGIFMDPL@?$AAp?$AAa?$AA?$AA@ 000000018001f210     libucrt:lcidtoname_downlevel.obj
 0002:00004218       ??_C@_15HCNDBBA@?$AAg?$AAu?$AA?$AA@ 000000018001f218     libucrt:lcidtoname_downlevel.obj
 0002:00004220       ??_C@_15FNBEIBON@?$AAt?$AAa?$AA?$AA@ 000000018001f220     libucrt:lcidtoname_downlevel.obj
 0002:00004228       ??_C@_15NCHGBGLK@?$AAt?$AAe?$AA?$AA@ 000000018001f228     libucrt:lcidtoname_downlevel.obj
 0002:00004230       ??_C@_15PHPHCBPF@?$AAk?$AAn?$AA?$AA@ 000000018001f230     libucrt:lcidtoname_downlevel.obj
 0002:00004238       ??_C@_15DLGBCKMP@?$AAm?$AAr?$AA?$AA@ 000000018001f238     libucrt:lcidtoname_downlevel.obj
 0002:00004240       ??_C@_15EABBLBFF@?$AAs?$AAa?$AA?$AA@ 000000018001f240     libucrt:lcidtoname_downlevel.obj
 0002:00004248       ??_C@_15CBKOMCOI@?$AAm?$AAn?$AA?$AA@ 000000018001f248     libucrt:lcidtoname_downlevel.obj
 0002:00004250       ??_C@_15CKDMCJAF@?$AAg?$AAl?$AA?$AA@ 000000018001f250     libucrt:lcidtoname_downlevel.obj
 0002:00004258       ??_C@_17CNJFBPG@?$AAk?$AAo?$AAk?$AA?$AA@ 000000018001f258     libucrt:lcidtoname_downlevel.obj
 0002:00004260       ??_C@_17FFBJICPL@?$AAs?$AAy?$AAr?$AA?$AA@ 000000018001f260     libucrt:lcidtoname_downlevel.obj
 0002:00004268       ??_C@_17KPNDCPAF@?$AAd?$AAi?$AAv?$AA?$AA@ 000000018001f268     libucrt:lcidtoname_downlevel.obj
 0002:00004270       ??_C@_11LOCGONAA@?$AA?$AA@ 000000018001f270     libucrt:lcidtoname_downlevel.obj
 0002:00004278       ??_C@_1M@OKAHONE@?$AAa?$AAr?$AA?9?$AAS?$AAA?$AA?$AA@ 000000018001f278     libucrt:lcidtoname_downlevel.obj
 0002:00004288       ??_C@_1M@FFFIGIGK@?$AAb?$AAg?$AA?9?$AAB?$AAG?$AA?$AA@ 000000018001f288     libucrt:lcidtoname_downlevel.obj
 0002:00004298       ??_C@_1M@BJNKEDC@?$AAc?$AAa?$AA?9?$AAE?$AAS?$AA?$AA@ 000000018001f298     libucrt:lcidtoname_downlevel.obj
 0002:000042a8       ??_C@_1M@IJJHFJHA@?$AAc?$AAs?$AA?9?$AAC?$AAZ?$AA?$AA@ 000000018001f2a8     libucrt:lcidtoname_downlevel.obj
 0002:000042b8       ??_C@_1M@CLPEOBGI@?$AAd?$AAa?$AA?9?$AAD?$AAK?$AA?$AA@ 000000018001f2b8     libucrt:lcidtoname_downlevel.obj
 0002:000042c8       ??_C@_1M@MCMADGCB@?$AAd?$AAe?$AA?9?$AAD?$AAE?$AA?$AA@ 000000018001f2c8     libucrt:lcidtoname_downlevel.obj
 0002:000042d8       ??_C@_1M@OOCKEMAM@?$AAe?$AAl?$AA?9?$AAG?$AAR?$AA?$AA@ 000000018001f2d8     libucrt:lcidtoname_downlevel.obj
 0002:000042e8       ??_C@_1M@DDNJFGID@?$AAf?$AAi?$AA?9?$AAF?$AAI?$AA?$AA@ 000000018001f2e8     libucrt:lcidtoname_downlevel.obj
 0002:000042f8       ??_C@_1M@GLIPPMAC@?$AAf?$AAr?$AA?9?$AAF?$AAR?$AA?$AA@ 000000018001f2f8     libucrt:lcidtoname_downlevel.obj
 0002:00004308       ??_C@_1M@GFMCHPE@?$AAh?$AAe?$AA?9?$AAI?$AAL?$AA?$AA@ 000000018001f308     libucrt:lcidtoname_downlevel.obj
 0002:00004318       ??_C@_1M@MHLPGNKM@?$AAh?$AAu?$AA?9?$AAH?$AAU?$AA?$AA@ 000000018001f318     libucrt:lcidtoname_downlevel.obj
 0002:00004328       ??_C@_1M@LPDDNNPN@?$AAi?$AAs?$AA?9?$AAI?$AAS?$AA?$AA@ 000000018001f328     libucrt:lcidtoname_downlevel.obj
 0002:00004338       ??_C@_1M@MADIPODN@?$AAi?$AAt?$AA?9?$AAI?$AAT?$AA?$AA@ 000000018001f338     libucrt:lcidtoname_downlevel.obj
 0002:00004348       ??_C@_1M@IHBJJGG@?$AAn?$AAl?$AA?9?$AAN?$AAL?$AA?$AA@ 000000018001f348     libucrt:lcidtoname_downlevel.obj
 0002:00004358       ??_C@_1M@EANAGDL@?$AAn?$AAb?$AA?9?$AAN?$AAO?$AA?$AA@ 000000018001f358     libucrt:lcidtoname_downlevel.obj
 0002:00004368       ??_C@_1M@NEIEMEGP@?$AAp?$AAl?$AA?9?$AAP?$AAL?$AA?$AA@ 000000018001f368     libucrt:lcidtoname_downlevel.obj
 0002:00004378       ??_C@_1M@BOCFIGEP@?$AAp?$AAt?$AA?9?$AAB?$AAR?$AA?$AA@ 000000018001f378     libucrt:lcidtoname_downlevel.obj
 0002:00004388       ??_C@_1M@IMPFOPBG@?$AAr?$AAo?$AA?9?$AAR?$AAO?$AA?$AA@ 000000018001f388     libucrt:lcidtoname_downlevel.obj
 0002:00004398       ??_C@_1M@IDNNEJMM@?$AAr?$AAu?$AA?9?$AAR?$AAU?$AA?$AA@ 000000018001f398     libucrt:lcidtoname_downlevel.obj
 0002:000043a8       ??_C@_1M@LILEEOGM@?$AAh?$AAr?$AA?9?$AAH?$AAR?$AA?$AA@ 000000018001f3a8     libucrt:lcidtoname_downlevel.obj
 0002:000043b8       ??_C@_1M@FKIFEHPB@?$AAs?$AAk?$AA?9?$AAS?$AAK?$AA?$AA@ 000000018001f3b8     libucrt:lcidtoname_downlevel.obj
 0002:000043c8       ??_C@_1M@LJMAMNPJ@?$AAs?$AAq?$AA?9?$AAA?$AAL?$AA?$AA@ 000000018001f3c8     libucrt:lcidtoname_downlevel.obj
 0002:000043d8       ??_C@_1M@GIAKDKJK@?$AAs?$AAv?$AA?9?$AAS?$AAE?$AA?$AA@ 000000018001f3d8     libucrt:lcidtoname_downlevel.obj
 0002:000043e8       ??_C@_1M@MKJKIKCL@?$AAt?$AAh?$AA?9?$AAT?$AAH?$AA?$AA@ 000000018001f3e8     libucrt:lcidtoname_downlevel.obj
 0002:000043f8       ??_C@_1M@MFLCCMPB@?$AAt?$AAr?$AA?9?$AAT?$AAR?$AA?$AA@ 000000018001f3f8     libucrt:lcidtoname_downlevel.obj
 0002:00004408       ??_C@_1M@OIJHDKJN@?$AAu?$AAr?$AA?9?$AAP?$AAK?$AA?$AA@ 000000018001f408     libucrt:lcidtoname_downlevel.obj
 0002:00004418       ??_C@_1M@LHIPCIEK@?$AAi?$AAd?$AA?9?$AAI?$AAD?$AA?$AA@ 000000018001f418     libucrt:lcidtoname_downlevel.obj
 0002:00004428       ??_C@_1M@MFMOBGI@?$AAu?$AAk?$AA?9?$AAU?$AAA?$AA?$AA@ 000000018001f428     libucrt:lcidtoname_downlevel.obj
 0002:00004438       ??_C@_1M@OBGLJIPL@?$AAb?$AAe?$AA?9?$AAB?$AAY?$AA?$AA@ 000000018001f438     libucrt:lcidtoname_downlevel.obj
 0002:00004448       ??_C@_1M@BCFAJEAD@?$AAs?$AAl?$AA?9?$AAS?$AAI?$AA?$AA@ 000000018001f448     libucrt:lcidtoname_downlevel.obj
 0002:00004458       ??_C@_1M@FKFFEDDN@?$AAe?$AAt?$AA?9?$AAE?$AAE?$AA?$AA@ 000000018001f458     libucrt:lcidtoname_downlevel.obj
 0002:00004468       ??_C@_1M@KGKKAACI@?$AAl?$AAv?$AA?9?$AAL?$AAV?$AA?$AA@ 000000018001f468     libucrt:lcidtoname_downlevel.obj
 0002:00004478       ??_C@_1M@IFGBIJO@?$AAl?$AAt?$AA?9?$AAL?$AAT?$AA?$AA@ 000000018001f478     libucrt:lcidtoname_downlevel.obj
 0002:00004488       ??_C@_1M@FGEAHEDM@?$AAf?$AAa?$AA?9?$AAI?$AAR?$AA?$AA@ 000000018001f488     libucrt:lcidtoname_downlevel.obj
 0002:00004498       ??_C@_1M@KBMAIBFN@?$AAv?$AAi?$AA?9?$AAV?$AAN?$AA?$AA@ 000000018001f498     libucrt:lcidtoname_downlevel.obj
 0002:000044a8       ??_C@_1M@GPCBKDJK@?$AAh?$AAy?$AA?9?$AAA?$AAM?$AA?$AA@ 000000018001f4a8     libucrt:lcidtoname_downlevel.obj
 0002:000044b8       ??_C@_1BG@BECMDDJB@?$AAa?$AAz?$AA?9?$AAA?$AAZ?$AA?9?$AAL?$AAa?$AAt?$AAn?$AA?$AA@ 000000018001f4b8     libucrt:lcidtoname_downlevel.obj
 0002:000044d0       ??_C@_1M@MAOFCAEA@?$AAe?$AAu?$AA?9?$AAE?$AAS?$AA?$AA@ 000000018001f4d0     libucrt:lcidtoname_downlevel.obj
 0002:000044e0       ??_C@_1M@IGHABKPI@?$AAm?$AAk?$AA?9?$AAM?$AAK?$AA?$AA@ 000000018001f4e0     libucrt:lcidtoname_downlevel.obj
 0002:000044f0       ??_C@_1M@IAIGNEJG@?$AAt?$AAn?$AA?9?$AAZ?$AAA?$AA?$AA@ 000000018001f4f0     libucrt:lcidtoname_downlevel.obj
 0002:00004500       ??_C@_1M@IIJCOJFA@?$AAx?$AAh?$AA?9?$AAZ?$AAA?$AA?$AA@ 000000018001f500     libucrt:lcidtoname_downlevel.obj
 0002:00004510       ??_C@_1M@LGPJHNJH@?$AAz?$AAu?$AA?9?$AAZ?$AAA?$AA?$AA@ 000000018001f510     libucrt:lcidtoname_downlevel.obj
 0002:00004520       ??_C@_1M@HOKAOIO@?$AAa?$AAf?$AA?9?$AAZ?$AAA?$AA?$AA@ 000000018001f520     libucrt:lcidtoname_downlevel.obj
 0002:00004530       ??_C@_1M@DPCLHLIE@?$AAk?$AAa?$AA?9?$AAG?$AAE?$AA?$AA@ 000000018001f530     libucrt:lcidtoname_downlevel.obj
 0002:00004540       ??_C@_1M@BLKMHJBI@?$AAf?$AAo?$AA?9?$AAF?$AAO?$AA?$AA@ 000000018001f540     libucrt:lcidtoname_downlevel.obj
 0002:00004550       ??_C@_1M@LGGJAPPB@?$AAh?$AAi?$AA?9?$AAI?$AAN?$AA?$AA@ 000000018001f550     libucrt:lcidtoname_downlevel.obj
 0002:00004560       ??_C@_1M@FIKPIHFE@?$AAm?$AAt?$AA?9?$AAM?$AAT?$AA?$AA@ 000000018001f560     libucrt:lcidtoname_downlevel.obj
 0002:00004570       ??_C@_1M@HEGGPBFA@?$AAs?$AAe?$AA?9?$AAN?$AAO?$AA?$AA@ 000000018001f570     libucrt:lcidtoname_downlevel.obj
 0002:00004580       ??_C@_1M@EIBJEEPA@?$AAm?$AAs?$AA?9?$AAM?$AAY?$AA?$AA@ 000000018001f580     libucrt:lcidtoname_downlevel.obj
 0002:00004590       ??_C@_1M@FHLBGMPP@?$AAk?$AAk?$AA?9?$AAK?$AAZ?$AA?$AA@ 000000018001f590     libucrt:lcidtoname_downlevel.obj
 0002:000045a0       ??_C@_1M@NGJJLCGI@?$AAk?$AAy?$AA?9?$AAK?$AAG?$AA?$AA@ 000000018001f5a0     libucrt:lcidtoname_downlevel.obj
 0002:000045b0       ??_C@_1M@GIENNBFC@?$AAs?$AAw?$AA?9?$AAK?$AAE?$AA?$AA@ 000000018001f5b0     libucrt:lcidtoname_downlevel.obj
 0002:000045c0       ??_C@_1BG@NDGMJIMJ@?$AAu?$AAz?$AA?9?$AAU?$AAZ?$AA?9?$AAL?$AAa?$AAt?$AAn?$AA?$AA@ 000000018001f5c0     libucrt:lcidtoname_downlevel.obj
 0002:000045d8       ??_C@_1M@IDCCIHBC@?$AAt?$AAt?$AA?9?$AAR?$AAU?$AA?$AA@ 000000018001f5d8     libucrt:lcidtoname_downlevel.obj
 0002:000045e8       ??_C@_1M@LOICPMOJ@?$AAb?$AAn?$AA?9?$AAI?$AAN?$AA?$AA@ 000000018001f5e8     libucrt:lcidtoname_downlevel.obj
 0002:000045f8       ??_C@_1M@KPKKNEAH@?$AAp?$AAa?$AA?9?$AAI?$AAN?$AA?$AA@ 000000018001f5f8     libucrt:lcidtoname_downlevel.obj
 0002:00004608       ??_C@_1M@PJGPPBOG@?$AAg?$AAu?$AA?9?$AAI?$AAN?$AA?$AA@ 000000018001f608     libucrt:lcidtoname_downlevel.obj
 0002:00004618       ??_C@_1M@KMKMOPHI@?$AAt?$AAa?$AA?9?$AAI?$AAN?$AA?$AA@ 000000018001f618     libucrt:lcidtoname_downlevel.obj
 0002:00004628       ??_C@_1M@KFEHEPAC@?$AAt?$AAe?$AA?9?$AAI?$AAN?$AA?$AA@ 000000018001f628     libucrt:lcidtoname_downlevel.obj
 0002:00004638       ??_C@_1M@CDCLMGHI@?$AAk?$AAn?$AA?9?$AAI?$AAN?$AA?$AA@ 000000018001f638     libucrt:lcidtoname_downlevel.obj
 0002:00004648       ??_C@_1M@MIODLDKF@?$AAm?$AAl?$AA?9?$AAI?$AAN?$AA?$AA@ 000000018001f648     libucrt:lcidtoname_downlevel.obj
 0002:00004658       ??_C@_1M@PBIEACPO@?$AAm?$AAr?$AA?9?$AAI?$AAN?$AA?$AA@ 000000018001f658     libucrt:lcidtoname_downlevel.obj
 0002:00004668       ??_C@_1M@NIDEAGPH@?$AAs?$AAa?$AA?9?$AAI?$AAN?$AA?$AA@ 000000018001f668     libucrt:lcidtoname_downlevel.obj
 0002:00004678       ??_C@_1M@FHIHCBIO@?$AAm?$AAn?$AA?9?$AAM?$AAN?$AA?$AA@ 000000018001f678     libucrt:lcidtoname_downlevel.obj
 0002:00004688       ??_C@_1M@JAIJPENP@?$AAc?$AAy?$AA?9?$AAG?$AAB?$AA?$AA@ 000000018001f688     libucrt:lcidtoname_downlevel.obj
 0002:00004698       ??_C@_1M@PHGFBEPN@?$AAg?$AAl?$AA?9?$AAE?$AAS?$AA?$AA@ 000000018001f698     libucrt:lcidtoname_downlevel.obj
 0002:000046a8       ??_C@_1O@KPIPDNCP@?$AAk?$AAo?$AAk?$AA?9?$AAI?$AAN?$AA?$AA@ 000000018001f6a8     libucrt:lcidtoname_downlevel.obj
 0002:000046b8       ??_C@_1O@KNHJLDJA@?$AAs?$AAy?$AAr?$AA?9?$AAS?$AAY?$AA?$AA@ 000000018001f6b8     libucrt:lcidtoname_downlevel.obj
 0002:000046c8       ??_C@_1O@MKEKBLAH@?$AAd?$AAi?$AAv?$AA?9?$AAM?$AAV?$AA?$AA@ 000000018001f6c8     libucrt:lcidtoname_downlevel.obj
 0002:000046d8       ??_C@_1O@OHDCKDDF@?$AAq?$AAu?$AAz?$AA?9?$AAB?$AAO?$AA?$AA@ 000000018001f6d8     libucrt:lcidtoname_downlevel.obj
 0002:000046e8       ??_C@_1M@LEPJNLFD@?$AAn?$AAs?$AA?9?$AAZ?$AAA?$AA?$AA@ 000000018001f6e8     libucrt:lcidtoname_downlevel.obj
 0002:000046f8       ??_C@_1M@OMLEIIJB@?$AAm?$AAi?$AA?9?$AAN?$AAZ?$AA?$AA@ 000000018001f6f8     libucrt:lcidtoname_downlevel.obj
 0002:00004708       ??_C@_1M@PMPEAILG@?$AAa?$AAr?$AA?9?$AAI?$AAQ?$AA?$AA@ 000000018001f708     libucrt:lcidtoname_downlevel.obj
 0002:00004718       ??_C@_1M@CNKPNOEE@?$AAd?$AAe?$AA?9?$AAC?$AAH?$AA?$AA@ 000000018001f718     libucrt:lcidtoname_downlevel.obj
 0002:00004728       ??_C@_1M@LKMGMLKO@?$AAe?$AAn?$AA?9?$AAG?$AAB?$AA?$AA@ 000000018001f728     libucrt:lcidtoname_downlevel.obj
 0002:00004738       ??_C@_1M@PGKJFFGL@?$AAe?$AAs?$AA?9?$AAM?$AAX?$AA?$AA@ 000000018001f738     libucrt:lcidtoname_downlevel.obj
 0002:00004748       ??_C@_1M@DNNANBDC@?$AAf?$AAr?$AA?9?$AAB?$AAE?$AA?$AA@ 000000018001f748     libucrt:lcidtoname_downlevel.obj
 0002:00004758       ??_C@_1M@HLGMDFHM@?$AAi?$AAt?$AA?9?$AAC?$AAH?$AA?$AA@ 000000018001f758     libucrt:lcidtoname_downlevel.obj
 0002:00004768       ??_C@_1M@CLLBGJH@?$AAn?$AAl?$AA?9?$AAB?$AAE?$AA?$AA@ 000000018001f768     libucrt:lcidtoname_downlevel.obj
 0002:00004778       ??_C@_1M@BODBOGLF@?$AAn?$AAn?$AA?9?$AAN?$AAO?$AA?$AA@ 000000018001f778     libucrt:lcidtoname_downlevel.obj
 0002:00004788       ??_C@_1M@HFFAHKAD@?$AAp?$AAt?$AA?9?$AAP?$AAT?$AA?$AA@ 000000018001f788     libucrt:lcidtoname_downlevel.obj
 0002:00004798       ??_C@_1BG@LNOAKHIE@?$AAs?$AAr?$AA?9?$AAS?$AAP?$AA?9?$AAL?$AAa?$AAt?$AAn?$AA?$AA@ 000000018001f798     libucrt:lcidtoname_downlevel.obj
 0002:000047b0       ??_C@_1M@HBMHBGAK@?$AAs?$AAv?$AA?9?$AAF?$AAI?$AA?$AA@ 000000018001f7b0     libucrt:lcidtoname_downlevel.obj
 0002:000047c0       ??_C@_1BG@DGCJGJBE@?$AAa?$AAz?$AA?9?$AAA?$AAZ?$AA?9?$AAC?$AAy?$AAr?$AAl?$AA?$AA@ 000000018001f7c0     libucrt:lcidtoname_downlevel.obj
 0002:000047d8       ??_C@_1M@KEJDAAHB@?$AAs?$AAe?$AA?9?$AAS?$AAE?$AA?$AA@ 000000018001f7d8     libucrt:lcidtoname_downlevel.obj
 0002:000047e8       ??_C@_1M@HEIBJJAD@?$AAm?$AAs?$AA?9?$AAB?$AAN?$AA?$AA@ 000000018001f7e8     libucrt:lcidtoname_downlevel.obj
 0002:000047f8       ??_C@_1BG@PBGJMCEM@?$AAu?$AAz?$AA?9?$AAU?$AAZ?$AA?9?$AAC?$AAy?$AAr?$AAl?$AA?$AA@ 000000018001f7f8     libucrt:lcidtoname_downlevel.obj
 0002:00004810       ??_C@_1O@LAOBCMDF@?$AAq?$AAu?$AAz?$AA?9?$AAE?$AAC?$AA?$AA@ 000000018001f810     libucrt:lcidtoname_downlevel.obj
 0002:00004820       ??_C@_1M@POEEMAIO@?$AAa?$AAr?$AA?9?$AAE?$AAG?$AA?$AA@ 000000018001f820     libucrt:lcidtoname_downlevel.obj
 0002:00004830       ??_C@_1M@EFAKDEDL@?$AAz?$AAh?$AA?9?$AAH?$AAK?$AA?$AA@ 000000018001f830     libucrt:lcidtoname_downlevel.obj
 0002:00004840       ??_C@_1M@HKKIJHGI@?$AAd?$AAe?$AA?9?$AAA?$AAT?$AA?$AA@ 000000018001f840     libucrt:lcidtoname_downlevel.obj
 0002:00004850       ??_C@_1M@KBFBEHJF@?$AAe?$AAn?$AA?9?$AAA?$AAU?$AA?$AA@ 000000018001f850     libucrt:lcidtoname_downlevel.obj
 0002:00004860       ??_C@_1M@MNPLFAAH@?$AAe?$AAs?$AA?9?$AAE?$AAS?$AA?$AA@ 000000018001f860     libucrt:lcidtoname_downlevel.obj
 0002:00004870       ??_C@_1M@HJOOJFMA@?$AAf?$AAr?$AA?9?$AAC?$AAA?$AA?$AA@ 000000018001f870     libucrt:lcidtoname_downlevel.obj
 0002:00004880       ??_C@_1BG@JPOFPNAB@?$AAs?$AAr?$AA?9?$AAS?$AAP?$AA?9?$AAC?$AAy?$AAr?$AAl?$AA?$AA@ 000000018001f880     libucrt:lcidtoname_downlevel.obj
 0002:00004898       ??_C@_1M@LNFOCMOB@?$AAs?$AAe?$AA?9?$AAF?$AAI?$AA?$AA@ 000000018001f898     libucrt:lcidtoname_downlevel.obj
 0002:000048a8       ??_C@_1O@MGJBOAMB@?$AAq?$AAu?$AAz?$AA?9?$AAP?$AAE?$AA?$AA@ 000000018001f8a8     libucrt:lcidtoname_downlevel.obj
 0002:000048b8       ??_C@_1M@GJINLBOK@?$AAa?$AAr?$AA?9?$AAL?$AAY?$AA?$AA@ 000000018001f8b8     libucrt:lcidtoname_downlevel.obj
 0002:000048c8       ??_C@_1M@GGMNHJNL@?$AAz?$AAh?$AA?9?$AAS?$AAG?$AA?$AA@ 000000018001f8c8     libucrt:lcidtoname_downlevel.obj
 0002:000048d8       ??_C@_1M@HOIKODND@?$AAd?$AAe?$AA?9?$AAL?$AAU?$AA?$AA@ 000000018001f8d8     libucrt:lcidtoname_downlevel.obj
 0002:000048e8       ??_C@_1M@DDOCCGFG@?$AAe?$AAn?$AA?9?$AAC?$AAA?$AA?$AA@ 000000018001f8e8     libucrt:lcidtoname_downlevel.obj
 0002:000048f8       ??_C@_1M@BNOEMJLF@?$AAe?$AAs?$AA?9?$AAG?$AAT?$AA?$AA@ 000000018001f8f8     libucrt:lcidtoname_downlevel.obj
 0002:00004908       ??_C@_1M@EOGNKEK@?$AAf?$AAr?$AA?9?$AAC?$AAH?$AA?$AA@ 000000018001f908     libucrt:lcidtoname_downlevel.obj
 0002:00004918       ??_C@_1M@FLIDJFHL@?$AAh?$AAr?$AA?9?$AAB?$AAA?$AA?$AA@ 000000018001f918     libucrt:lcidtoname_downlevel.obj
 0002:00004928       ??_C@_1O@FMCELNAJ@?$AAs?$AAm?$AAj?$AA?9?$AAN?$AAO?$AA?$AA@ 000000018001f928     libucrt:lcidtoname_downlevel.obj
 0002:00004938       ??_C@_1M@JHGLJMGJ@?$AAa?$AAr?$AA?9?$AAD?$AAZ?$AA?$AA@ 000000018001f938     libucrt:lcidtoname_downlevel.obj
 0002:00004948       ??_C@_1M@JKKFDCNP@?$AAz?$AAh?$AA?9?$AAM?$AAO?$AA?$AA@ 000000018001f948     libucrt:lcidtoname_downlevel.obj
 0002:00004958       ??_C@_1M@GEEFALPE@?$AAd?$AAe?$AA?9?$AAL?$AAI?$AA?$AA@ 000000018001f958     libucrt:lcidtoname_downlevel.obj
 0002:00004968       ??_C@_1M@IGEOFBG@?$AAe?$AAn?$AA?9?$AAN?$AAZ?$AA?$AA@ 000000018001f968     libucrt:lcidtoname_downlevel.obj
 0002:00004978       ??_C@_1M@KDBONEHP@?$AAe?$AAs?$AA?9?$AAC?$AAR?$AA?$AA@ 000000018001f978     libucrt:lcidtoname_downlevel.obj
 0002:00004988       ??_C@_1M@FHMDOHNN@?$AAf?$AAr?$AA?9?$AAL?$AAU?$AA?$AA@ 000000018001f988     libucrt:lcidtoname_downlevel.obj
 0002:00004998       ??_C@_1BG@NFKKMAFG@?$AAb?$AAs?$AA?9?$AAB?$AAA?$AA?9?$AAL?$AAa?$AAt?$AAn?$AA?$AA@ 000000018001f998     libucrt:lcidtoname_downlevel.obj
 0002:000049b0       ??_C@_1O@IMNBEMCI@?$AAs?$AAm?$AAj?$AA?9?$AAS?$AAE?$AA?$AA@ 000000018001f9b0     libucrt:lcidtoname_downlevel.obj
 0002:000049c0       ??_C@_1M@DHHMBNDP@?$AAa?$AAr?$AA?9?$AAM?$AAA?$AA?$AA@ 000000018001f9c0     libucrt:lcidtoname_downlevel.obj
 0002:000049d0       ??_C@_1M@BNBLJCGH@?$AAe?$AAn?$AA?9?$AAI?$AAE?$AA?$AA@ 000000018001f9d0     libucrt:lcidtoname_downlevel.obj
 0002:000049e0       ??_C@_1M@GEPAFMDL@?$AAe?$AAs?$AA?9?$AAP?$AAA?$AA?$AA@ 000000018001f9e0     libucrt:lcidtoname_downlevel.obj
 0002:000049f0       ??_C@_1M@OJONDMDL@?$AAf?$AAr?$AA?9?$AAM?$AAC?$AA?$AA@ 000000018001f9f0     libucrt:lcidtoname_downlevel.obj
 0002:00004a00       ??_C@_1BG@OBCNFJB@?$AAs?$AAr?$AA?9?$AAB?$AAA?$AA?9?$AAL?$AAa?$AAt?$AAn?$AA?$AA@ 000000018001fa00     libucrt:lcidtoname_downlevel.obj
 0002:00004a18       ??_C@_1O@KEMEEGPO@?$AAs?$AAm?$AAa?$AA?9?$AAN?$AAO?$AA?$AA@ 000000018001fa18     libucrt:lcidtoname_downlevel.obj
 0002:00004a28       ??_C@_1M@ELMGFODK@?$AAa?$AAr?$AA?9?$AAT?$AAN?$AA?$AA@ 000000018001fa28     libucrt:lcidtoname_downlevel.obj
 0002:00004a38       ??_C@_1M@BHDLHFAF@?$AAe?$AAn?$AA?9?$AAZ?$AAA?$AA?$AA@ 000000018001fa38     libucrt:lcidtoname_downlevel.obj
 0002:00004a48       ??_C@_1M@BMGIGLIF@?$AAe?$AAs?$AA?9?$AAD?$AAO?$AA?$AA@ 000000018001fa48     libucrt:lcidtoname_downlevel.obj
 0002:00004a58       ??_C@_1BG@CMBHIPBE@?$AAs?$AAr?$AA?9?$AAB?$AAA?$AA?9?$AAC?$AAy?$AAr?$AAl?$AA?$AA@ 000000018001fa58     libucrt:lcidtoname_downlevel.obj
 0002:00004a70       ??_C@_1O@HEDBLHNP@?$AAs?$AAm?$AAa?$AA?9?$AAS?$AAE?$AA?$AA@ 000000018001fa70     libucrt:lcidtoname_downlevel.obj
 0002:00004a80       ??_C@_1M@DAGCADIM@?$AAa?$AAr?$AA?9?$AAO?$AAM?$AA?$AA@ 000000018001fa80     libucrt:lcidtoname_downlevel.obj
 0002:00004a90       ??_C@_1M@FODLMICG@?$AAe?$AAn?$AA?9?$AAJ?$AAM?$AA?$AA@ 000000018001fa90     libucrt:lcidtoname_downlevel.obj
 0002:00004aa0       ??_C@_1M@DNMLCIHB@?$AAe?$AAs?$AA?9?$AAV?$AAE?$AA?$AA@ 000000018001faa0     libucrt:lcidtoname_downlevel.obj
 0002:00004ab0       ??_C@_1O@EOKHMKJK@?$AAs?$AAm?$AAs?$AA?9?$AAF?$AAI?$AA?$AA@ 000000018001fab0     libucrt:lcidtoname_downlevel.obj
 0002:00004ac0       ??_C@_1M@CAFJMKOF@?$AAa?$AAr?$AA?9?$AAY?$AAE?$AA?$AA@ 000000018001fac0     libucrt:lcidtoname_downlevel.obj
 0002:00004ad0       ??_C@_1M@CBFHIJLI@?$AAe?$AAn?$AA?9?$AAC?$AAB?$AA?$AA@ 000000018001fad0     libucrt:lcidtoname_downlevel.obj
 0002:00004ae0       ??_C@_1M@BGNFLDN@?$AAe?$AAs?$AA?9?$AAC?$AAO?$AA?$AA@ 000000018001fae0     libucrt:lcidtoname_downlevel.obj
 0002:00004af0       ??_C@_1O@JMPHMAMC@?$AAs?$AAm?$AAn?$AA?9?$AAF?$AAI?$AA?$AA@ 000000018001faf0     libucrt:lcidtoname_downlevel.obj
 0002:00004b00       ??_C@_1M@JLANABKE@?$AAa?$AAr?$AA?9?$AAS?$AAY?$AA?$AA@ 000000018001fb00     libucrt:lcidtoname_downlevel.obj
 0002:00004b10       ??_C@_1M@HPKGCFGN@?$AAe?$AAn?$AA?9?$AAB?$AAZ?$AA?$AA@ 000000018001fb10     libucrt:lcidtoname_downlevel.obj
 0002:00004b20       ??_C@_1M@OLJCMLGM@?$AAe?$AAs?$AA?9?$AAP?$AAE?$AA?$AA@ 000000018001fb20     libucrt:lcidtoname_downlevel.obj
 0002:00004b30       ??_C@_1M@MKKGFKLE@?$AAa?$AAr?$AA?9?$AAJ?$AAO?$AA?$AA@ 000000018001fb30     libucrt:lcidtoname_downlevel.obj
 0002:00004b40       ??_C@_1M@EKPGLDNI@?$AAe?$AAn?$AA?9?$AAT?$AAT?$AA?$AA@ 000000018001fb40     libucrt:lcidtoname_downlevel.obj
 0002:00004b50       ??_C@_1M@OONGHFHE@?$AAe?$AAs?$AA?9?$AAA?$AAR?$AA?$AA@ 000000018001fb50     libucrt:lcidtoname_downlevel.obj
 0002:00004b60       ??_C@_1M@OOJFGBHE@?$AAa?$AAr?$AA?9?$AAL?$AAB?$AA?$AA@ 000000018001fb60     libucrt:lcidtoname_downlevel.obj
 0002:00004b70       ??_C@_1M@GCEJHNEG@?$AAe?$AAn?$AA?9?$AAZ?$AAW?$AA?$AA@ 000000018001fb70     libucrt:lcidtoname_downlevel.obj
 0002:00004b80       ??_C@_1M@JNOCAHJI@?$AAe?$AAs?$AA?9?$AAE?$AAC?$AA?$AA@ 000000018001fb80     libucrt:lcidtoname_downlevel.obj
 0002:00004b90       ??_C@_1M@JEFHPGGB@?$AAa?$AAr?$AA?9?$AAK?$AAW?$AA?$AA@ 000000018001fb90     libucrt:lcidtoname_downlevel.obj
 0002:00004ba0       ??_C@_1M@MLKIBJOJ@?$AAe?$AAn?$AA?9?$AAP?$AAH?$AA?$AA@ 000000018001fba0     libucrt:lcidtoname_downlevel.obj
 0002:00004bb0       ??_C@_1M@BDNIPEND@?$AAe?$AAs?$AA?9?$AAC?$AAL?$AA?$AA@ 000000018001fbb0     libucrt:lcidtoname_downlevel.obj
 0002:00004bc0       ??_C@_1M@MPNMEKBD@?$AAa?$AAr?$AA?9?$AAA?$AAE?$AA?$AA@ 000000018001fbc0     libucrt:lcidtoname_downlevel.obj
 0002:00004bd0       ??_C@_1M@KBJALCPI@?$AAe?$AAs?$AA?9?$AAU?$AAY?$AA?$AA@ 000000018001fbd0     libucrt:lcidtoname_downlevel.obj
 0002:00004be0       ??_C@_1M@LLCCOAGA@?$AAa?$AAr?$AA?9?$AAB?$AAH?$AA?$AA@ 000000018001fbe0     libucrt:lcidtoname_downlevel.obj
 0002:00004bf0       ??_C@_1M@PBFNCDEL@?$AAe?$AAs?$AA?9?$AAP?$AAY?$AA?$AA@ 000000018001fbf0     libucrt:lcidtoname_downlevel.obj
 0002:00004c00       ??_C@_1M@EDGINPNP@?$AAa?$AAr?$AA?9?$AAQ?$AAA?$AA?$AA@ 000000018001fc00     libucrt:lcidtoname_downlevel.obj
 0002:00004c10       ??_C@_1M@MKDBIIJI@?$AAe?$AAs?$AA?9?$AAB?$AAO?$AA?$AA@ 000000018001fc10     libucrt:lcidtoname_downlevel.obj
 0002:00004c20       ??_C@_1M@CPKKEBLD@?$AAe?$AAs?$AA?9?$AAS?$AAV?$AA?$AA@ 000000018001fc20     libucrt:lcidtoname_downlevel.obj
 0002:00004c30       ??_C@_1M@NDBGMMJL@?$AAe?$AAs?$AA?9?$AAH?$AAN?$AA?$AA@ 000000018001fc30     libucrt:lcidtoname_downlevel.obj
 0002:00004c40       ??_C@_1M@JIJIBHDP@?$AAe?$AAs?$AA?9?$AAN?$AAI?$AA?$AA@ 000000018001fc40     libucrt:lcidtoname_downlevel.obj
 0002:00004c50       ??_C@_1M@CGFMKEEK@?$AAe?$AAs?$AA?9?$AAP?$AAR?$AA?$AA@ 000000018001fc50     libucrt:lcidtoname_downlevel.obj
 0002:00004c60       ??_C@_1O@ICJHKIIK@?$AAz?$AAh?$AA?9?$AAC?$AAH?$AAT?$AA?$AA@ 000000018001fc60     libucrt:lcidtoname_downlevel.obj
 0002:00004c70       ??_C@_15CLNEJCE@?$AAs?$AAr?$AA?$AA@ 000000018001fc70     libucrt:lcidtoname_downlevel.obj
 0002:00005ac0       ??_C@_1M@KAHEKEIG@?$AAa?$AAf?$AA?9?$AAz?$AAa?$AA?$AA@ 0000000180020ac0     libucrt:lcidtoname_downlevel.obj
 0002:00005ad0       ??_C@_1M@GIECOABL@?$AAa?$AAr?$AA?9?$AAa?$AAe?$AA?$AA@ 0000000180020ad0     libucrt:lcidtoname_downlevel.obj
 0002:00005ae0       ??_C@_1M@BMLMEKGI@?$AAa?$AAr?$AA?9?$AAb?$AAh?$AA?$AA@ 0000000180020ae0     libucrt:lcidtoname_downlevel.obj
 0002:00005af0       ??_C@_1M@DAPFDGGB@?$AAa?$AAr?$AA?9?$AAd?$AAz?$AA?$AA@ 0000000180020af0     libucrt:lcidtoname_downlevel.obj
 0002:00005b00       ??_C@_1M@FJNKGKIG@?$AAa?$AAr?$AA?9?$AAe?$AAg?$AA?$AA@ 0000000180020b00     libucrt:lcidtoname_downlevel.obj
 0002:00005b10       ??_C@_1M@FLGKKCLO@?$AAa?$AAr?$AA?9?$AAi?$AAq?$AA?$AA@ 0000000180020b10     libucrt:lcidtoname_downlevel.obj
 0002:00005b20       ??_C@_1M@GNDIPALM@?$AAa?$AAr?$AA?9?$AAj?$AAo?$AA?$AA@ 0000000180020b20     libucrt:lcidtoname_downlevel.obj
 0002:00005b30       ??_C@_1M@DDMJFMGJ@?$AAa?$AAr?$AA?9?$AAk?$AAw?$AA?$AA@ 0000000180020b30     libucrt:lcidtoname_downlevel.obj
 0002:00005b40       ??_C@_1M@EJALMLHM@?$AAa?$AAr?$AA?9?$AAl?$AAb?$AA?$AA@ 0000000180020b40     libucrt:lcidtoname_downlevel.obj
 0002:00005b50       ??_C@_1M@MOBDBLOC@?$AAa?$AAr?$AA?9?$AAl?$AAy?$AA?$AA@ 0000000180020b50     libucrt:lcidtoname_downlevel.obj
 0002:00005b60       ??_C@_1M@JAOCLHDH@?$AAa?$AAr?$AA?9?$AAm?$AAa?$AA?$AA@ 0000000180020b60     libucrt:lcidtoname_downlevel.obj
 0002:00005b70       ??_C@_1M@JHPMKJIE@?$AAa?$AAr?$AA?9?$AAo?$AAm?$AA?$AA@ 0000000180020b70     libucrt:lcidtoname_downlevel.obj
 0002:00005b80       ??_C@_1M@OEPGHFNH@?$AAa?$AAr?$AA?9?$AAq?$AAa?$AA?$AA@ 0000000180020b80     libucrt:lcidtoname_downlevel.obj
 0002:00005b90       ??_C@_1M@KJDONENM@?$AAa?$AAr?$AA?9?$AAs?$AAa?$AA?$AA@ 0000000180020b90     libucrt:lcidtoname_downlevel.obj
 0002:00005ba0       ??_C@_1M@DMJDKLKM@?$AAa?$AAr?$AA?9?$AAs?$AAy?$AA?$AA@ 0000000180020ba0     libucrt:lcidtoname_downlevel.obj
 0002:00005bb0       ??_C@_1M@OMFIPEDC@?$AAa?$AAr?$AA?9?$AAt?$AAn?$AA?$AA@ 0000000180020bb0     libucrt:lcidtoname_downlevel.obj
 0002:00005bc0       ??_C@_1M@IHMHGAON@?$AAa?$AAr?$AA?9?$AAy?$AAe?$AA?$AA@ 0000000180020bc0     libucrt:lcidtoname_downlevel.obj
 0002:00005bd0       ??_C@_1BG@KDCPGJGB@?$AAa?$AAz?$AA?9?$AAa?$AAz?$AA?9?$AAc?$AAy?$AAr?$AAl?$AA?$AA@ 0000000180020bd0     libucrt:lcidtoname_downlevel.obj
 0002:00005be8       ??_C@_1BG@IBCKDDOE@?$AAa?$AAz?$AA?9?$AAa?$AAz?$AA?9?$AAl?$AAa?$AAt?$AAn?$AA?$AA@ 0000000180020be8     libucrt:lcidtoname_downlevel.obj
 0002:00005c00       ??_C@_1M@EGPFDCPD@?$AAb?$AAe?$AA?9?$AAb?$AAy?$AA?$AA@ 0000000180020c00     libucrt:lcidtoname_downlevel.obj
 0002:00005c10       ??_C@_1M@PCMGMCGC@?$AAb?$AAg?$AA?9?$AAb?$AAg?$AA?$AA@ 0000000180020c10     libucrt:lcidtoname_downlevel.obj
 0002:00005c20       ??_C@_1M@BJBMFGOB@?$AAb?$AAn?$AA?9?$AAi?$AAn?$AA?$AA@ 0000000180020c20     libucrt:lcidtoname_downlevel.obj
 0002:00005c30       ??_C@_1BG@EAKMMACD@?$AAb?$AAs?$AA?9?$AAb?$AAa?$AA?9?$AAl?$AAa?$AAt?$AAn?$AA?$AA@ 0000000180020c30     libucrt:lcidtoname_downlevel.obj
 0002:00005c48       ??_C@_1M@KGADAODK@?$AAc?$AAa?$AA?9?$AAe?$AAs?$AA?$AA@ 0000000180020c48     libucrt:lcidtoname_downlevel.obj
 0002:00005c58       ??_C@_1M@COAJPDHI@?$AAc?$AAs?$AA?9?$AAc?$AAz?$AA?$AA@ 0000000180020c58     libucrt:lcidtoname_downlevel.obj
 0002:00005c68       ??_C@_1M@DHBHFONH@?$AAc?$AAy?$AA?9?$AAg?$AAb?$AA?$AA@ 0000000180020c68     libucrt:lcidtoname_downlevel.obj
 0002:00005c78       ??_C@_1M@IMGKELGA@?$AAd?$AAa?$AA?9?$AAd?$AAk?$AA?$AA@ 0000000180020c78     libucrt:lcidtoname_downlevel.obj
 0002:00005c88       ??_C@_1M@NNDGDNGA@?$AAd?$AAe?$AA?9?$AAa?$AAt?$AA?$AA@ 0000000180020c88     libucrt:lcidtoname_downlevel.obj
 0002:00005c98       ??_C@_1M@IKDBHEEM@?$AAd?$AAe?$AA?9?$AAc?$AAh?$AA?$AA@ 0000000180020c98     libucrt:lcidtoname_downlevel.obj
 0002:00005ca8       ??_C@_1M@GFFOJMCJ@?$AAd?$AAe?$AA?9?$AAd?$AAe?$AA?$AA@ 0000000180020ca8     libucrt:lcidtoname_downlevel.obj
 0002:00005cb8       ??_C@_1M@MDNLKBPM@?$AAd?$AAe?$AA?9?$AAl?$AAi?$AA?$AA@ 0000000180020cb8     libucrt:lcidtoname_downlevel.obj
 0002:00005cc8       ??_C@_1M@NJBEEJNL@?$AAd?$AAe?$AA?9?$AAl?$AAu?$AA?$AA@ 0000000180020cc8     libucrt:lcidtoname_downlevel.obj
 0002:00005cd8       ??_C@_1O@GNNELBAP@?$AAd?$AAi?$AAv?$AA?9?$AAm?$AAv?$AA?$AA@ 0000000180020cd8     libucrt:lcidtoname_downlevel.obj
 0002:00005ce8       ??_C@_1M@EJLEOGAE@?$AAe?$AAl?$AA?9?$AAg?$AAr?$AA?$AA@ 0000000180020ce8     libucrt:lcidtoname_downlevel.obj
 0002:00005cf8       ??_C@_1M@GMPONJN@?$AAe?$AAn?$AA?9?$AAa?$AAu?$AA?$AA@ 0000000180020cf8     libucrt:lcidtoname_downlevel.obj
 0002:00005d08       ??_C@_1M@NIDIIPGF@?$AAe?$AAn?$AA?9?$AAb?$AAz?$AA?$AA@ 0000000180020d08     libucrt:lcidtoname_downlevel.obj
 0002:00005d18       ??_C@_1M@JEHMIMFO@?$AAe?$AAn?$AA?9?$AAc?$AAa?$AA?$AA@ 0000000180020d18     libucrt:lcidtoname_downlevel.obj
 0002:00005d28       ??_C@_1M@IGMJCDLA@?$AAe?$AAn?$AA?9?$AAc?$AAb?$AA?$AA@ 0000000180020d28     libucrt:lcidtoname_downlevel.obj
 0002:00005d38       ??_C@_1M@BNFIGBKG@?$AAe?$AAn?$AA?9?$AAg?$AAb?$AA?$AA@ 0000000180020d38     libucrt:lcidtoname_downlevel.obj
 0002:00005d48       ??_C@_1M@LKIFDIGP@?$AAe?$AAn?$AA?9?$AAi?$AAe?$AA?$AA@ 0000000180020d48     libucrt:lcidtoname_downlevel.obj
 0002:00005d58       ??_C@_1M@PJKFGCCO@?$AAe?$AAn?$AA?9?$AAj?$AAm?$AA?$AA@ 0000000180020d58     libucrt:lcidtoname_downlevel.obj
 0002:00005d68       ??_C@_1M@KPPKEPBO@?$AAe?$AAn?$AA?9?$AAn?$AAz?$AA?$AA@ 0000000180020d68     libucrt:lcidtoname_downlevel.obj
 0002:00005d78       ??_C@_1M@GMDGLDOB@?$AAe?$AAn?$AA?9?$AAp?$AAh?$AA?$AA@ 0000000180020d78     libucrt:lcidtoname_downlevel.obj
 0002:00005d88       ??_C@_1M@ONGIBJNA@?$AAe?$AAn?$AA?9?$AAt?$AAt?$AA?$AA@ 0000000180020d88     libucrt:lcidtoname_downlevel.obj
 0002:00005d98       ??_C@_1M@LLODPCMM@?$AAe?$AAn?$AA?9?$AAu?$AAs?$AA?$AA@ 0000000180020d98     libucrt:lcidtoname_downlevel.obj
 0002:00005da8       ??_C@_1M@LAKFNPAN@?$AAe?$AAn?$AA?9?$AAz?$AAa?$AA?$AA@ 0000000180020da8     libucrt:lcidtoname_downlevel.obj
 0002:00005db8       ??_C@_1M@MFNHNHEO@?$AAe?$AAn?$AA?9?$AAz?$AAw?$AA?$AA@ 0000000180020db8     libucrt:lcidtoname_downlevel.obj
 0002:00005dc8       ??_C@_1M@EJEINPHM@?$AAe?$AAs?$AA?9?$AAa?$AAr?$AA?$AA@ 0000000180020dc8     libucrt:lcidtoname_downlevel.obj
 0002:00005dd8       ??_C@_1M@GNKPCCJA@?$AAe?$AAs?$AA?9?$AAb?$AAo?$AA?$AA@ 0000000180020dd8     libucrt:lcidtoname_downlevel.obj
 0002:00005de8       ??_C@_1M@LEEGFONL@?$AAe?$AAs?$AA?9?$AAc?$AAl?$AA?$AA@ 0000000180020de8     libucrt:lcidtoname_downlevel.obj
 0002:00005df8       ??_C@_1M@KGPDPBDF@?$AAe?$AAs?$AA?9?$AAc?$AAo?$AA?$AA@ 0000000180020df8     libucrt:lcidtoname_downlevel.obj
 0002:00005e08       ??_C@_1M@EIAHOHH@?$AAe?$AAs?$AA?9?$AAc?$AAr?$AA?$AA@ 0000000180020e08     libucrt:lcidtoname_downlevel.obj
 0002:00005e18       ??_C@_1M@LLPGMBIN@?$AAe?$AAs?$AA?9?$AAd?$AAo?$AA?$AA@ 0000000180020e18     libucrt:lcidtoname_downlevel.obj
 0002:00005e28       ??_C@_1M@DKHMKNJA@?$AAe?$AAs?$AA?9?$AAe?$AAc?$AA?$AA@ 0000000180020e28     libucrt:lcidtoname_downlevel.obj
 0002:00005e38       ??_C@_1M@GKGFPKAP@?$AAe?$AAs?$AA?9?$AAe?$AAs?$AA?$AA@ 0000000180020e38     libucrt:lcidtoname_downlevel.obj
 0002:00005e48       ??_C@_1M@LKHKGDLN@?$AAe?$AAs?$AA?9?$AAg?$AAt?$AA?$AA@ 0000000180020e48     libucrt:lcidtoname_downlevel.obj
 0002:00005e58       ??_C@_1M@HEIIGGJD@?$AAe?$AAs?$AA?9?$AAh?$AAn?$AA?$AA@ 0000000180020e58     libucrt:lcidtoname_downlevel.obj
 0002:00005e68       ??_C@_1M@FBDHPPGD@?$AAe?$AAs?$AA?9?$AAm?$AAx?$AA?$AA@ 0000000180020e68     libucrt:lcidtoname_downlevel.obj
 0002:00005e78       ??_C@_1M@DPAGLNDH@?$AAe?$AAs?$AA?9?$AAn?$AAi?$AA?$AA@ 0000000180020e78     libucrt:lcidtoname_downlevel.obj
 0002:00005e88       ??_C@_1M@MDGOPGDD@?$AAe?$AAs?$AA?9?$AAp?$AAa?$AA?$AA@ 0000000180020e88     libucrt:lcidtoname_downlevel.obj
 0002:00005e98       ??_C@_1M@EMAMGBGE@?$AAe?$AAs?$AA?9?$AAp?$AAe?$AA?$AA@ 0000000180020e98     libucrt:lcidtoname_downlevel.obj
 0002:00005ea8       ??_C@_1M@IBMCAOEC@?$AAe?$AAs?$AA?9?$AAp?$AAr?$AA?$AA@ 0000000180020ea8     libucrt:lcidtoname_downlevel.obj
 0002:00005eb8       ??_C@_1M@FGMDIJED@?$AAe?$AAs?$AA?9?$AAp?$AAy?$AA?$AA@ 0000000180020eb8     libucrt:lcidtoname_downlevel.obj
 0002:00005ec8       ??_C@_1M@IIDEOLLL@?$AAe?$AAs?$AA?9?$AAs?$AAv?$AA?$AA@ 0000000180020ec8     libucrt:lcidtoname_downlevel.obj
 0002:00005ed8       ??_C@_1M@GAOBIPA@?$AAe?$AAs?$AA?9?$AAu?$AAy?$AA?$AA@ 0000000180020ed8     libucrt:lcidtoname_downlevel.obj
 0002:00005ee8       ??_C@_1M@JKFFICHJ@?$AAe?$AAs?$AA?9?$AAv?$AAe?$AA?$AA@ 0000000180020ee8     libucrt:lcidtoname_downlevel.obj
 0002:00005ef8       ??_C@_1M@PNMLOJDF@?$AAe?$AAt?$AA?9?$AAe?$AAe?$AA?$AA@ 0000000180020ef8     libucrt:lcidtoname_downlevel.obj
 0002:00005f08       ??_C@_1M@GHHLIKEI@?$AAe?$AAu?$AA?9?$AAe?$AAs?$AA?$AA@ 0000000180020f08     libucrt:lcidtoname_downlevel.obj
 0002:00005f18       ??_C@_1M@PBNONODE@?$AAf?$AAa?$AA?9?$AAi?$AAr?$AA?$AA@ 0000000180020f18     libucrt:lcidtoname_downlevel.obj
 0002:00005f28       ??_C@_1M@JEEHPMIL@?$AAf?$AAi?$AA?9?$AAf?$AAi?$AA?$AA@ 0000000180020f28     libucrt:lcidtoname_downlevel.obj
 0002:00005f38       ??_C@_1M@LMDCNDBA@?$AAf?$AAo?$AA?9?$AAf?$AAo?$AA?$AA@ 0000000180020f38     libucrt:lcidtoname_downlevel.obj
 0002:00005f48       ??_C@_1M@JKEOHLDK@?$AAf?$AAr?$AA?9?$AAb?$AAe?$AA?$AA@ 0000000180020f48     libucrt:lcidtoname_downlevel.obj
 0002:00005f58       ??_C@_1M@NOHADPMI@?$AAf?$AAr?$AA?9?$AAc?$AAa?$AA?$AA@ 0000000180020f58     libucrt:lcidtoname_downlevel.obj
 0002:00005f68       ??_C@_1M@KDHIHAEC@?$AAf?$AAr?$AA?9?$AAc?$AAh?$AA?$AA@ 0000000180020f68     libucrt:lcidtoname_downlevel.obj
 0002:00005f78       ??_C@_1M@MMBBFGAK@?$AAf?$AAr?$AA?9?$AAf?$AAr?$AA?$AA@ 0000000180020f78     libucrt:lcidtoname_downlevel.obj
 0002:00005f88       ??_C@_1M@PAFNENNF@?$AAf?$AAr?$AA?9?$AAl?$AAu?$AA?$AA@ 0000000180020f88     libucrt:lcidtoname_downlevel.obj
 0002:00005f98       ??_C@_1M@EOHDJGDD@?$AAf?$AAr?$AA?9?$AAm?$AAc?$AA?$AA@ 0000000180020f98     libucrt:lcidtoname_downlevel.obj
 0002:00005fa8       ??_C@_1M@FAPLLOPF@?$AAg?$AAl?$AA?9?$AAe?$AAs?$AA?$AA@ 0000000180020fa8     libucrt:lcidtoname_downlevel.obj
 0002:00005fb8       ??_C@_1M@FOPBFLOO@?$AAg?$AAu?$AA?9?$AAi?$AAn?$AA?$AA@ 0000000180020fb8     libucrt:lcidtoname_downlevel.obj
 0002:00005fc8       ??_C@_1M@KBMCINPM@?$AAh?$AAe?$AA?9?$AAi?$AAl?$AA?$AA@ 0000000180020fc8     libucrt:lcidtoname_downlevel.obj
 0002:00005fd8       ??_C@_1M@BBPHKFPJ@?$AAh?$AAi?$AA?9?$AAi?$AAn?$AA?$AA@ 0000000180020fd8     libucrt:lcidtoname_downlevel.obj
 0002:00005fe8       ??_C@_1M@PMBNDPHD@?$AAh?$AAr?$AA?9?$AAb?$AAa?$AA?$AA@ 0000000180020fe8     libucrt:lcidtoname_downlevel.obj
 0002:00005ff8       ??_C@_1M@BPCKOEGE@?$AAh?$AAr?$AA?9?$AAh?$AAr?$AA?$AA@ 0000000180020ff8     libucrt:lcidtoname_downlevel.obj
 0002:00006008       ??_C@_1M@GACBMHKE@?$AAh?$AAu?$AA?9?$AAh?$AAu?$AA?$AA@ 0000000180021008     libucrt:lcidtoname_downlevel.obj
 0002:00006018       ??_C@_1M@MILPAJJC@?$AAh?$AAy?$AA?9?$AAa?$AAm?$AA?$AA@ 0000000180021018     libucrt:lcidtoname_downlevel.obj
 0002:00006028       ??_C@_1M@BABBICEC@?$AAi?$AAd?$AA?9?$AAi?$AAd?$AA?$AA@ 0000000180021028     libucrt:lcidtoname_downlevel.obj
 0002:00006038       ??_C@_1M@BIKNHHPF@?$AAi?$AAs?$AA?9?$AAi?$AAs?$AA?$AA@ 0000000180021038     libucrt:lcidtoname_downlevel.obj
 0002:00006048       ??_C@_1M@NMPCJPHE@?$AAi?$AAt?$AA?9?$AAc?$AAh?$AA?$AA@ 0000000180021048     libucrt:lcidtoname_downlevel.obj
 0002:00006058       ??_C@_1M@GHKGFEDF@?$AAi?$AAt?$AA?9?$AAi?$AAt?$AA?$AA@ 0000000180021058     libucrt:lcidtoname_downlevel.obj
 0002:00006068       ??_C@_1M@NIEJCJJA@?$AAj?$AAa?$AA?9?$AAj?$AAp?$AA?$AA@ 0000000180021068     libucrt:lcidtoname_downlevel.obj
 0002:00006078       ??_C@_1M@JILFNBIM@?$AAk?$AAa?$AA?9?$AAg?$AAe?$AA?$AA@ 0000000180021078     libucrt:lcidtoname_downlevel.obj
 0002:00006088       ??_C@_1M@PACPMGPH@?$AAk?$AAk?$AA?9?$AAk?$AAz?$AA?$AA@ 0000000180021088     libucrt:lcidtoname_downlevel.obj
 0002:00006098       ??_C@_1M@IELFGMHA@?$AAk?$AAn?$AA?9?$AAi?$AAn?$AA?$AA@ 0000000180021098     libucrt:lcidtoname_downlevel.obj
 0002:000060a8       ??_C@_1O@IBBJHCH@?$AAk?$AAo?$AAk?$AA?9?$AAi?$AAn?$AA?$AA@ 00000001800210a8     libucrt:lcidtoname_downlevel.obj
 0002:000060b8       ??_C@_1M@DMHAEOGC@?$AAk?$AAo?$AA?9?$AAk?$AAr?$AA?$AA@ 00000001800210b8     libucrt:lcidtoname_downlevel.obj
 0002:000060c8       ??_C@_1M@HBAHBIGA@?$AAk?$AAy?$AA?9?$AAk?$AAg?$AA?$AA@ 00000001800210c8     libucrt:lcidtoname_downlevel.obj
 0002:000060d8       ??_C@_1M@KPMILCJG@?$AAl?$AAt?$AA?9?$AAl?$AAt?$AA?$AA@ 00000001800210d8     libucrt:lcidtoname_downlevel.obj
 0002:000060e8       ??_C@_1M@BDEKKCA@?$AAl?$AAv?$AA?9?$AAl?$AAv?$AA?$AA@ 00000001800210e8     libucrt:lcidtoname_downlevel.obj
 0002:000060f8       ??_C@_1M@ELCKCCJJ@?$AAm?$AAi?$AA?9?$AAn?$AAz?$AA?$AA@ 00000001800210f8     libucrt:lcidtoname_downlevel.obj
 0002:00006108       ??_C@_1M@CBOOLAPA@?$AAm?$AAk?$AA?9?$AAm?$AAk?$AA?$AA@ 0000000180021108     libucrt:lcidtoname_downlevel.obj
 0002:00006118       ??_C@_1M@GPHNBJKN@?$AAm?$AAl?$AA?9?$AAi?$AAn?$AA?$AA@ 0000000180021118     libucrt:lcidtoname_downlevel.obj
 0002:00006128       ??_C@_1M@PABJILIG@?$AAm?$AAn?$AA?9?$AAm?$AAn?$AA?$AA@ 0000000180021128     libucrt:lcidtoname_downlevel.obj
 0002:00006138       ??_C@_1M@FGBKKIPG@?$AAm?$AAr?$AA?9?$AAi?$AAn?$AA?$AA@ 0000000180021138     libucrt:lcidtoname_downlevel.obj
 0002:00006148       ??_C@_1M@NDBPDDAL@?$AAm?$AAs?$AA?9?$AAb?$AAn?$AA?$AA@ 0000000180021148     libucrt:lcidtoname_downlevel.obj
 0002:00006158       ??_C@_1M@OPIHOOPI@?$AAm?$AAs?$AA?9?$AAm?$AAy?$AA?$AA@ 0000000180021158     libucrt:lcidtoname_downlevel.obj
 0002:00006168       ??_C@_1M@PPDBCNFM@?$AAm?$AAt?$AA?9?$AAm?$AAt?$AA?$AA@ 0000000180021168     libucrt:lcidtoname_downlevel.obj
 0002:00006178       ??_C@_1M@KDJDKMDD@?$AAn?$AAb?$AA?9?$AAn?$AAo?$AA?$AA@ 0000000180021178     libucrt:lcidtoname_downlevel.obj
 0002:00006188       ??_C@_1M@KFCFLMJP@?$AAn?$AAl?$AA?9?$AAb?$AAe?$AA?$AA@ 0000000180021188     libucrt:lcidtoname_downlevel.obj
 0002:00006198       ??_C@_1M@KPOPDDGO@?$AAn?$AAl?$AA?9?$AAn?$AAl?$AA?$AA@ 0000000180021198     libucrt:lcidtoname_downlevel.obj
 0002:000061a8       ??_C@_1M@LJKPEMLN@?$AAn?$AAn?$AA?9?$AAn?$AAo?$AA?$AA@ 00000001800211a8     libucrt:lcidtoname_downlevel.obj
 0002:000061b8       ??_C@_1M@BDGHHBFL@?$AAn?$AAs?$AA?9?$AAz?$AAa?$AA?$AA@ 00000001800211b8     libucrt:lcidtoname_downlevel.obj
 0002:000061c8       ??_C@_1M@IDEHOAP@?$AAp?$AAa?$AA?9?$AAi?$AAn?$AA?$AA@ 00000001800211c8     libucrt:lcidtoname_downlevel.obj
 0002:000061d8       ??_C@_1M@HDBKGOGH@?$AAp?$AAl?$AA?9?$AAp?$AAl?$AA?$AA@ 00000001800211d8     libucrt:lcidtoname_downlevel.obj
 0002:000061e8       ??_C@_1M@LJLLCMEH@?$AAp?$AAt?$AA?9?$AAb?$AAr?$AA?$AA@ 00000001800211e8     libucrt:lcidtoname_downlevel.obj
 0002:000061f8       ??_C@_1M@NCMONAAL@?$AAp?$AAt?$AA?9?$AAp?$AAt?$AA?$AA@ 00000001800211f8     libucrt:lcidtoname_downlevel.obj
 0002:00006208       ??_C@_1O@EAKMAJDN@?$AAq?$AAu?$AAz?$AA?9?$AAb?$AAo?$AA?$AA@ 0000000180021208     libucrt:lcidtoname_downlevel.obj
 0002:00006218       ??_C@_1O@BHHPIGDN@?$AAq?$AAu?$AAz?$AA?9?$AAe?$AAc?$AA?$AA@ 0000000180021218     libucrt:lcidtoname_downlevel.obj
 0002:00006228       ??_C@_1O@GBAPEKMJ@?$AAq?$AAu?$AAz?$AA?9?$AAp?$AAe?$AA?$AA@ 0000000180021228     libucrt:lcidtoname_downlevel.obj
 0002:00006238       ??_C@_1M@CLGLEFBO@?$AAr?$AAo?$AA?9?$AAr?$AAo?$AA?$AA@ 0000000180021238     libucrt:lcidtoname_downlevel.obj
 0002:00006248       ??_C@_1M@CEEDODME@?$AAr?$AAu?$AA?9?$AAr?$AAu?$AA?$AA@ 0000000180021248     libucrt:lcidtoname_downlevel.obj
 0002:00006258       ??_C@_1M@HPKKKMPP@?$AAs?$AAa?$AA?9?$AAi?$AAn?$AA?$AA@ 0000000180021258     libucrt:lcidtoname_downlevel.obj
 0002:00006268       ??_C@_1M@BKMAIGOJ@?$AAs?$AAe?$AA?9?$AAf?$AAi?$AA?$AA@ 0000000180021268     libucrt:lcidtoname_downlevel.obj
 0002:00006278       ??_C@_1M@NDPIFLFI@?$AAs?$AAe?$AA?9?$AAn?$AAo?$AA?$AA@ 0000000180021278     libucrt:lcidtoname_downlevel.obj
 0002:00006288       ??_C@_1M@DANKKHJ@?$AAs?$AAe?$AA?9?$AAs?$AAe?$AA?$AA@ 0000000180021288     libucrt:lcidtoname_downlevel.obj
 0002:00006298       ??_C@_1M@PNBLONPJ@?$AAs?$AAk?$AA?9?$AAs?$AAk?$AA?$AA@ 0000000180021298     libucrt:lcidtoname_downlevel.obj
 0002:000062a8       ??_C@_1M@LFMODOAL@?$AAs?$AAl?$AA?9?$AAs?$AAi?$AA?$AA@ 00000001800212a8     libucrt:lcidtoname_downlevel.obj
 0002:000062b8       ??_C@_1O@DFKOMPG@?$AAs?$AAm?$AAa?$AA?9?$AAn?$AAo?$AA?$AA@ 00000001800212b8     libucrt:lcidtoname_downlevel.obj
 0002:000062c8       ??_C@_1O@NDKPBNNH@?$AAs?$AAm?$AAa?$AA?9?$AAs?$AAe?$AA?$AA@ 00000001800212c8     libucrt:lcidtoname_downlevel.obj
 0002:000062d8       ??_C@_1O@PLLKBHAB@?$AAs?$AAm?$AAj?$AA?9?$AAn?$AAo?$AA?$AA@ 00000001800212d8     libucrt:lcidtoname_downlevel.obj
 0002:000062e8       ??_C@_1O@CLEPOGCA@?$AAs?$AAm?$AAj?$AA?9?$AAs?$AAe?$AA?$AA@ 00000001800212e8     libucrt:lcidtoname_downlevel.obj
 0002:000062f8       ??_C@_1O@DLGJGKMK@?$AAs?$AAm?$AAn?$AA?9?$AAf?$AAi?$AA?$AA@ 00000001800212f8     libucrt:lcidtoname_downlevel.obj
 0002:00006308       ??_C@_1O@OJDJGAJC@?$AAs?$AAm?$AAs?$AA?9?$AAf?$AAi?$AA?$AA@ 0000000180021308     libucrt:lcidtoname_downlevel.obj
 0002:00006318       ??_C@_1M@BOFOGHPB@?$AAs?$AAq?$AA?9?$AAa?$AAl?$AA?$AA@ 0000000180021318     libucrt:lcidtoname_downlevel.obj
 0002:00006328       ??_C@_1BG@LJBBIPGB@?$AAs?$AAr?$AA?9?$AAb?$AAa?$AA?9?$AAc?$AAy?$AAr?$AAl?$AA?$AA@ 0000000180021328     libucrt:lcidtoname_downlevel.obj
 0002:00006340       ??_C@_1BG@JLBENFOE@?$AAs?$AAr?$AA?9?$AAb?$AAa?$AA?9?$AAl?$AAa?$AAt?$AAn?$AA?$AA@ 0000000180021340     libucrt:lcidtoname_downlevel.obj
 0002:00006358       ??_C@_1BG@KODPNHE@?$AAs?$AAr?$AA?9?$AAs?$AAp?$AA?9?$AAc?$AAy?$AAr?$AAl?$AA?$AA@ 0000000180021358     libucrt:lcidtoname_downlevel.obj
 0002:00006370       ??_C@_1BG@CIOGKHPB@?$AAs?$AAr?$AA?9?$AAs?$AAp?$AA?9?$AAl?$AAa?$AAt?$AAn?$AA?$AA@ 0000000180021370     libucrt:lcidtoname_downlevel.obj
 0002:00006388       ??_C@_1M@NGFJLMAC@?$AAs?$AAv?$AA?9?$AAf?$AAi?$AA?$AA@ 0000000180021388     libucrt:lcidtoname_downlevel.obj
 0002:00006398       ??_C@_1M@MPJEJAJC@?$AAs?$AAv?$AA?9?$AAs?$AAe?$AA?$AA@ 0000000180021398     libucrt:lcidtoname_downlevel.obj
 0002:000063a8       ??_C@_1M@MPNDHLFK@?$AAs?$AAw?$AA?9?$AAk?$AAe?$AA?$AA@ 00000001800213a8     libucrt:lcidtoname_downlevel.obj
 0002:000063b8       ??_C@_1O@KOHBJJI@?$AAs?$AAy?$AAr?$AA?9?$AAs?$AAy?$AA?$AA@ 00000001800213b8     libucrt:lcidtoname_downlevel.obj
 0002:000063c8       ??_C@_1M@LDCEFHA@?$AAt?$AAa?$AA?9?$AAi?$AAn?$AA?$AA@ 00000001800213c8     libucrt:lcidtoname_downlevel.obj
 0002:000063d8       ??_C@_1M@CNJOFAK@?$AAt?$AAe?$AA?9?$AAi?$AAn?$AA?$AA@ 00000001800213d8     libucrt:lcidtoname_downlevel.obj
 0002:000063e8       ??_C@_1M@GNAECACD@?$AAt?$AAh?$AA?9?$AAt?$AAh?$AA?$AA@ 00000001800213e8     libucrt:lcidtoname_downlevel.obj
 0002:000063f8       ??_C@_1M@CHBIHOJO@?$AAt?$AAn?$AA?9?$AAz?$AAa?$AA?$AA@ 00000001800213f8     libucrt:lcidtoname_downlevel.obj
 0002:00006408       ??_C@_1M@GCCMIGPJ@?$AAt?$AAr?$AA?9?$AAt?$AAr?$AA?$AA@ 0000000180021408     libucrt:lcidtoname_downlevel.obj
 0002:00006418       ??_C@_1M@CELMCNBK@?$AAt?$AAt?$AA?9?$AAr?$AAu?$AA?$AA@ 0000000180021418     libucrt:lcidtoname_downlevel.obj
 0002:00006428       ??_C@_1M@KLMCELGA@?$AAu?$AAk?$AA?9?$AAu?$AAa?$AA?$AA@ 0000000180021428     libucrt:lcidtoname_downlevel.obj
 0002:00006438       ??_C@_1M@EPAJJAJF@?$AAu?$AAr?$AA?9?$AAp?$AAk?$AA?$AA@ 0000000180021438     libucrt:lcidtoname_downlevel.obj
 0002:00006448       ??_C@_1BG@GEGPMCDJ@?$AAu?$AAz?$AA?9?$AAu?$AAz?$AA?9?$AAc?$AAy?$AAr?$AAl?$AA?$AA@ 0000000180021448     libucrt:lcidtoname_downlevel.obj
 0002:00006460       ??_C@_1BG@EGGKJILM@?$AAu?$AAz?$AA?9?$AAu?$AAz?$AA?9?$AAl?$AAa?$AAt?$AAn?$AA?$AA@ 0000000180021460     libucrt:lcidtoname_downlevel.obj
 0002:00006478       ??_C@_1M@GFOCLFF@?$AAv?$AAi?$AA?9?$AAv?$AAn?$AA?$AA@ 0000000180021478     libucrt:lcidtoname_downlevel.obj
 0002:00006488       ??_C@_1M@CPAMEDFI@?$AAx?$AAh?$AA?9?$AAz?$AAa?$AA?$AA@ 0000000180021488     libucrt:lcidtoname_downlevel.obj
 0002:00006498       ??_C@_1O@EBKIFIGN@?$AAz?$AAh?$AA?9?$AAc?$AAh?$AAs?$AA?$AA@ 0000000180021498     libucrt:lcidtoname_downlevel.obj
 0002:000064a8       ??_C@_1O@NMHPGANE@?$AAz?$AAh?$AA?9?$AAc?$AAh?$AAt?$AA?$AA@ 00000001800214a8     libucrt:lcidtoname_downlevel.obj
 0002:000064b8       ??_C@_1M@LPINJOMC@?$AAz?$AAh?$AA?9?$AAc?$AAn?$AA?$AA@ 00000001800214b8     libucrt:lcidtoname_downlevel.obj
 0002:000064c8       ??_C@_1M@OCJEJODD@?$AAz?$AAh?$AA?9?$AAh?$AAk?$AA?$AA@ 00000001800214c8     libucrt:lcidtoname_downlevel.obj
 0002:000064d8       ??_C@_1M@DNDLJINH@?$AAz?$AAh?$AA?9?$AAm?$AAo?$AA?$AA@ 00000001800214d8     libucrt:lcidtoname_downlevel.obj
 0002:000064e8       ??_C@_1M@MBFDNDND@?$AAz?$AAh?$AA?9?$AAs?$AAg?$AA?$AA@ 00000001800214e8     libucrt:lcidtoname_downlevel.obj
 0002:000064f8       ??_C@_1M@IMEPLEPE@?$AAz?$AAh?$AA?9?$AAt?$AAw?$AA?$AA@ 00000001800214f8     libucrt:lcidtoname_downlevel.obj
 0002:00006508       ??_C@_1M@BBGHNHJP@?$AAz?$AAu?$AA?9?$AAz?$AAa?$AA?$AA@ 0000000180021508     libucrt:lcidtoname_downlevel.obj
 0002:00006520       ?large_power_data@?1??multiply_by_power_of_ten@__crt_strtox@@YA_NAEAUbig_integer@2@I@Z@4QBIB 0000000180021520     libucrt:cfout.obj
 0002:00006e30       ?large_power_indices@?1??multiply_by_power_of_ten@__crt_strtox@@YA_NAEAUbig_integer@2@I@Z@4QBUunpack_index@?1??12@YA_N0I@Z@B 0000000180021e30     libucrt:cfout.obj
 0002:00006ec8       ?small_powers_of_ten@?6??multiply_by_power_of_ten@__crt_strtox@@YA_NAEAUbig_integer@2@I@Z@4QBIB 0000000180021ec8     libucrt:cfout.obj
 0002:00006eec       ??_C@_01GBGANLPD@0?$AA@    0000000180021eec     libucrt:cfout.obj
 0002:00006ef0       ??_C@_05DNEBIAHO@1?$CDINF?$AA@ 0000000180021ef0     libucrt:cfout.obj
 0002:00006ef8       ??_C@_06IMKFLFPG@1?$CDQNAN?$AA@ 0000000180021ef8     libucrt:cfout.obj
 0002:00006f00       ??_C@_06PGGFOGJG@1?$CDSNAN?$AA@ 0000000180021f00     libucrt:cfout.obj
 0002:00006f08       ??_C@_05PHHOCPM@1?$CDIND?$AA@ 0000000180021f08     libucrt:cfout.obj
 0002:00006f10       ??_C@_1BA@BALFACEM@?$AAC?$AAO?$AAN?$AAO?$AAU?$AAT?$AA$?$AA?$AA@ 0000000180021f10     libucrt:initcon.obj
 0002:00006f20       __real@3ff0000000000000    0000000180021f20     libucrt:ceil.obj
 0002:00007180       __log10_256_lead           0000000180022180     libucrt:log10_256_lead_tail_table.obj
 0002:00007990       __log10_256_tail           0000000180022990     libucrt:log10_256_lead_tail_table.obj
 0002:000081a0       __log_F_inv_qword          00000001800231a0     libucrt:log_f_inv_qword_table.obj
 0002:000089b0       ??_C@_05HGHHAHAP@log10?$AA@ 00000001800239b0     libucrt:log_special.obj
 0002:000089d0       ??_C@_00CNPNBAHC@?$AA@     00000001800239d0     readtags.obj
 0002:000089d4       ??_C@_02EBCELKB@?$CB_?$AA@ 00000001800239d4     readtags.obj
 0002:000089d8       ??_C@_0BB@FNDFPIFB@string?5too?5large?$AA@ 00000001800239d8     readtags.obj
 0002:000089f0       ??_C@_0M@DKMAFCOB@readTagLine?$AA@ 00000001800239f0     readtags.obj
 0002:00008a00       ??_C@_0BK@INHALBI@too?5many?5extension?5fields?$AA@ 0000000180023a00     readtags.obj
 0002:00008a1c       ??_C@_04NCMJLOLO@kind?$AA@ 0000000180023a1c     readtags.obj
 0002:00008a24       ??_C@_04DAMGJPCA@file?$AA@ 0000000180023a24     readtags.obj
 0002:00008a2c       ??_C@_04HJPCFDOP@line?$AA@ 0000000180023a2c     readtags.obj
 0002:00008a34       ??_C@_02IPDCGKLM@?$DL?$CC?$AA@ 0000000180023a34     readtags.obj
 0002:00008a38       ??_C@_0BA@JALHNADI@TAG_FILE_SORTED?$AA@ 0000000180023a38     readtags.obj
 0002:00008a48       ??_C@_0BA@MFILMBMJ@TAG_FILE_FORMAT?$AA@ 0000000180023a48     readtags.obj
 0002:00008a58       ??_C@_0BD@EGKBGLOJ@TAG_PROGRAM_AUTHOR?$AA@ 0000000180023a58     readtags.obj
 0002:00008a70       ??_C@_0BB@BPNAMCMK@TAG_PROGRAM_NAME?$AA@ 0000000180023a70     readtags.obj
 0002:00008a88       ??_C@_0BA@IMJEONDK@TAG_PROGRAM_URL?$AA@ 0000000180023a88     readtags.obj
 0002:00008a98       ??_C@_0BE@FGDGBHLB@TAG_PROGRAM_VERSION?$AA@ 0000000180023a98     readtags.obj
 0002:00008aac       ??_C@_01KDCPPGHE@r?$AA@    0000000180023aac     readtags.obj
 0002:00008ab0       PseudoTagPrefix            0000000180023ab0     readtags.obj
 0002:00008ab8       EmptyString                0000000180023ab8     readtags.obj
 0002:00008ac0       ??_C@_1JO@PHINAIIK@?$AAC?$AA?3?$AA?2?$AAU?$AAs?$AAe?$AAr?$AAs?$AA?2?$AAa?$AAp?$AAp?$AAv?$AAe?$AAy?$AAo?$AAr?$AA?2?$AA?4?$AAa?$AAt?$AAo?$AAm?$AA?2?$AA?4?$AAn?$AAo?$AAd?$AAe?$AA?9?$AAg?$AAy@ 0000000180023ac0     tags.obj
 0002:00008b60       ??_C@_1DG@OKCGPKIB@?$AAp?$AAe?$AAr?$AAs?$AAi?$AAs?$AAt?$AAe?$AAn?$AAt?$AA?$CI?$AA?$CJ?$AA?4?$AAI?$AAs?$AAN?$AAe?$AAa?$AAr?$AAD?$AAe?$AAa?$AAt?$AAh?$AA?$CI?$AA?$CJ?$AA?$AA@ 0000000180023b60     tags.obj
 0002:00008b98       ??_C@_1CO@EGNPJLKI@?$AAp?$AAe?$AAr?$AAs?$AAi?$AAs?$AAt?$AAe?$AAn?$AAt?$AA?$CI?$AA?$CJ?$AA?4?$AAI?$AAs?$AAE?$AAm?$AAp?$AAt?$AAy?$AA?$CI?$AA?$CJ?$AA?$AA@ 0000000180023b98     tags.obj
 0002:00008bd0       ??_C@_1EC@NOLNIHNJ@?$AAh?$AAa?$AAn?$AAd?$AAl?$AAe?$AA?9?$AA?$DO?$AAI?$AAn?$AAt?$AAe?$AAr?$AAn?$AAa?$AAl?$AAF?$AAi?$AAe?$AAl?$AAd?$AAC?$AAo?$AAu?$AAn?$AAt?$AA?$CI?$AA?$CJ?$AA?5?$AA?$DO?$AA?5?$AA0@ 0000000180023bd0     tags.obj
 0002:00008c18       ??_C@_1DA@FBGAEOIO@?$AA?$CB?$AAp?$AAe?$AAr?$AAs?$AAi?$AAs?$AAt?$AAe?$AAn?$AAt?$AA?$CI?$AA?$CJ?$AA?4?$AAI?$AAs?$AAE?$AAm?$AAp?$AAt?$AAy?$AA?$CI?$AA?$CJ?$AA?$AA@ 0000000180023c18     tags.obj
 0002:00008c48       ??_C@_1CO@JCKLEFMA@?$AA?$CB?$AAp?$AAe?$AAr?$AAs?$AAi?$AAs?$AAt?$AAe?$AAn?$AAt?$AA?$CI?$AA?$CJ?$AA?4?$AAI?$AAs?$AAW?$AAe?$AAa?$AAk?$AA?$CI?$AA?$CJ?$AA?$AA@ 0000000180023c48     tags.obj
 0002:00008c78       ??_C@_1BE@GMLLOIPJ@?$AAr?$AAe?$AAf?$AAs?$AA_?$AA?5?$AA?$DO?$AA?5?$AA0?$AA?$AA@ 0000000180023c78     tags.obj
 0002:00008c90       ??_C@_1CC@GBFLAAPF@?$AAw?$AAr?$AAa?$AAp?$AA?9?$AA?$DO?$AAr?$AAe?$AAf?$AAs?$AA_?$AA?5?$AA?$DN?$AA?$DN?$AA?5?$AA0?$AA?$AA@ 0000000180023c90     tags.obj
 0002:00008cb8       ??_C@_0BA@JFNIOLAK@string?5too?5long?$AA@ 0000000180023cb8     tags.obj
 0002:00008cc8       ??_C@_04DOFOAGBP@Tags?$AA@ 0000000180023cc8     tags.obj
 0002:00008cd0       ??_C@_03JBJLGPFL@end?$AA@  0000000180023cd0     tags.obj
 0002:00008cd4       ??_C@_06OGCODMJI@exists?$AA@ 0000000180023cd4     tags.obj
 0002:00008ce0       ??_C@_08LGEENMOG@findTags?$AA@ 0000000180023ce0     tags.obj
 0002:00008cf0       ??_C@_07OENKLFM@getTags?$AA@ 0000000180023cf0     tags.obj
 0002:00008cf8       ??_C@_0P@GJINCENA@?4?4?2src?2tags?4cc?$AA@ 0000000180023cf8     tags.obj
 0002:00008d08       ??_C@_05GBPACFB@ctags?$AA@ 0000000180023d08     tags.obj
 0002:00008d10       ??_C@_0BI@CFPLBAOH@invalid?5string?5position?$AA@ 0000000180023d10     tags.obj
 0002:00008d28       ??_C@_1CE@IAEMMFJ@?$AA?$CB?$AAh?$AAa?$AAn?$AAd?$AAl?$AAe?$AA?4?$AAI?$AAs?$AAE?$AAm?$AAp?$AAt?$AAy?$AA?$CI?$AA?$CJ?$AA?$AA@ 0000000180023d28     tags.obj
 0002:00008d50       ??_7ObjectWrap@node@@6B@   0000000180023d50     tags.obj
 0002:00008d68       ??_7AsyncWorker@Nan@@6B@   0000000180023d68     tags.obj
 0002:00008d98       ??_7TagReader@@6B@         0000000180023d98     tags.obj
 0002:00008dc8       ??_7Tags@@6B@              0000000180023dc8     tags.obj
 0002:00008de0       ??_7TagFinder@@6B@         0000000180023de0     tags.obj
 0002:00008e10       ??_C@_04MEMAJGDJ@name?$AA@ 0000000180023e10     tag-finder.obj
 0002:00008e18       ??_C@_0L@DKNJNCC@lineNumber?$AA@ 0000000180023e18     tag-finder.obj
 0002:00008e28       ??_C@_07CHFOACKJ@pattern?$AA@ 0000000180023e28     tag-finder.obj
 0002:00008e30       ??_C@_0BD@OLBABOEK@vector?$DMT?$DO?5too?5long?$AA@ 0000000180023e30     tag-finder.obj
 0002:00008eb0       _load_config_used          0000000180023eb0     LIBCMT:loadcfg.obj
 0002:00008f48       ??_R4exception@std@@6B@    0000000180023f48     LIBCMT:throw_bad_alloc.obj
 0002:00008f70       ??_R3exception@std@@8      0000000180023f70     LIBCMT:throw_bad_alloc.obj
 0002:00008f88       ??_R2exception@std@@8      0000000180023f88     LIBCMT:throw_bad_alloc.obj
 0002:00008f98       ??_R1A@?0A@EA@exception@std@@8 0000000180023f98     LIBCMT:throw_bad_alloc.obj
 0002:00008fc0       ??_R4bad_alloc@std@@6B@    0000000180023fc0     LIBCMT:throw_bad_alloc.obj
 0002:00008fe8       ??_R3bad_alloc@std@@8      0000000180023fe8     LIBCMT:throw_bad_alloc.obj
 0002:00009000       ??_R2bad_alloc@std@@8      0000000180024000     LIBCMT:throw_bad_alloc.obj
 0002:00009018       ??_R1A@?0A@EA@bad_alloc@std@@8 0000000180024018     LIBCMT:throw_bad_alloc.obj
 0002:00009040       ??_R4bad_array_new_length@std@@6B@ 0000000180024040     LIBCMT:throw_bad_alloc.obj
 0002:00009068       ??_R3bad_array_new_length@std@@8 0000000180024068     LIBCMT:throw_bad_alloc.obj
 0002:00009080       ??_R2bad_array_new_length@std@@8 0000000180024080     LIBCMT:throw_bad_alloc.obj
 0002:000090a0       ??_R1A@?0A@EA@bad_array_new_length@std@@8 00000001800240a0     LIBCMT:throw_bad_alloc.obj
 0002:000090c8       ??_R4type_info@@6B@        00000001800240c8     LIBCMT:std_type_info_static.obj
 0002:000090f0       ??_R3type_info@@8          00000001800240f0     LIBCMT:std_type_info_static.obj
 0002:00009108       ??_R2type_info@@8          0000000180024108     LIBCMT:std_type_info_static.obj
 0002:00009118       ??_R1A@?0A@EA@type_info@@8 0000000180024118     LIBCMT:std_type_info_static.obj
 0002:00009140       ??_R4logic_error@std@@6B@  0000000180024140     libcpmt:xthrow.obj
 0002:00009168       ??_R3logic_error@std@@8    0000000180024168     libcpmt:xthrow.obj
 0002:00009180       ??_R2logic_error@std@@8    0000000180024180     libcpmt:xthrow.obj
 0002:00009198       ??_R1A@?0A@EA@logic_error@std@@8 0000000180024198     libcpmt:xthrow.obj
 0002:000091c0       ??_R4length_error@std@@6B@ 00000001800241c0     libcpmt:xthrow.obj
 0002:000091e8       ??_R3length_error@std@@8   00000001800241e8     libcpmt:xthrow.obj
 0002:00009200       ??_R2length_error@std@@8   0000000180024200     libcpmt:xthrow.obj
 0002:00009220       ??_R1A@?0A@EA@length_error@std@@8 0000000180024220     libcpmt:xthrow.obj
 0002:00009248       ??_R4out_of_range@std@@6B@ 0000000180024248     libcpmt:xthrow.obj
 0002:00009270       ??_R3out_of_range@std@@8   0000000180024270     libcpmt:xthrow.obj
 0002:00009288       ??_R2out_of_range@std@@8   0000000180024288     libcpmt:xthrow.obj
 0002:000092a8       ??_R1A@?0A@EA@out_of_range@std@@8 00000001800242a8     libcpmt:xthrow.obj
 0002:00009628       __rtc_iaa                  0000000180024628     LIBCMT:_initsect_.obj
 0002:00009630       __rtc_izz                  0000000180024630     LIBCMT:_initsect_.obj
 0002:00009638       __rtc_taa                  0000000180024638     LIBCMT:_initsect_.obj
 0002:00009640       __rtc_tzz                  0000000180024640     LIBCMT:_initsect_.obj
 0002:0000ac70       _TI2?AVbad_alloc@std@@     0000000180025c70     LIBCMT:throw_bad_alloc.obj
 0002:0000ac90       _CTA2?AVbad_alloc@std@@    0000000180025c90     LIBCMT:throw_bad_alloc.obj
 0002:0000aca8       _CT??_R0?AVbad_alloc@std@@@8??0bad_alloc@std@@QEAA@AEBV01@@Z24 0000000180025ca8     LIBCMT:throw_bad_alloc.obj
 0002:0000acd0       _CT??_R0?AVexception@std@@@8??0exception@std@@QEAA@AEBV01@@Z24 0000000180025cd0     LIBCMT:throw_bad_alloc.obj
 0002:0000acf8       _TI3?AVbad_array_new_length@std@@ 0000000180025cf8     LIBCMT:throw_bad_alloc.obj
 0002:0000ad18       _CTA3?AVbad_array_new_length@std@@ 0000000180025d18     LIBCMT:throw_bad_alloc.obj
 0002:0000ad38       _CT??_R0?AVbad_array_new_length@std@@@8??0bad_array_new_length@std@@QEAA@AEBV01@@Z24 0000000180025d38     LIBCMT:throw_bad_alloc.obj
 0002:0000ad60       _CT??_R0?AVlogic_error@std@@@8??0logic_error@std@@QEAA@AEBV01@@Z24 0000000180025d60     libcpmt:xthrow.obj
 0002:0000ad88       _TI3?AVlength_error@std@@  0000000180025d88     libcpmt:xthrow.obj
 0002:0000ada8       _CTA3?AVlength_error@std@@ 0000000180025da8     libcpmt:xthrow.obj
 0002:0000adc8       _CT??_R0?AVlength_error@std@@@8??0length_error@std@@QEAA@AEBV01@@Z24 0000000180025dc8     libcpmt:xthrow.obj
 0002:0000adf0       _TI3?AVout_of_range@std@@  0000000180025df0     libcpmt:xthrow.obj
 0002:0000ae10       _CTA3?AVout_of_range@std@@ 0000000180025e10     libcpmt:xthrow.obj
 0002:0000ae30       _CT??_R0?AVout_of_range@std@@@8??0out_of_range@std@@QEAA@AEBV01@@Z24 0000000180025e30     libcpmt:xthrow.obj
 0002:0000aeb0       __IMPORT_DESCRIPTOR_KERNEL32 0000000180025eb0     kernel32:KERNEL32.dll
 0002:0000aec4       __IMPORT_DESCRIPTOR_node   0000000180025ec4     iojs:node.dll
 0002:0000aed8       __NULL_IMPORT_DESCRIPTOR   0000000180025ed8     kernel32:KERNEL32.dll
 0003:00000000       __security_cookie          0000000180028000     LIBCMT:gs_cookie.obj
 0003:00000008       __security_cookie_complement 0000000180028008     LIBCMT:gs_cookie.obj
 0003:00000010       __scrt_native_dllmain_reason 0000000180028010     LIBCMT:utility.obj
 0003:00000018       __isa_available            0000000180028018     LIBCMT:_cpu_disp_.obj
 0003:0000001c       __isa_enabled              000000018002801c     LIBCMT:_cpu_disp_.obj
 0003:00000020       __memcpy_nt_iters          0000000180028020     LIBCMT:_cpu_disp_.obj
 0003:00000048       __abort_behavior           0000000180028048     libucrt:abort.obj
 0003:00000050       _iob                       0000000180028050     libucrt:_file.obj
 0003:00000160       _lookuptrailbytes          0000000180028160     libucrt:read.obj
 0003:00000260       __badioinfo                0000000180028260     libucrt:ioinit.obj
 0003:000002a0       _pwctype                   00000001800282a0     libucrt:ctype.obj
 0003:000002b0       __acrt_initial_locale_data 00000001800282b0     libucrt:nlsdata.obj
 0003:00000408       __acrt_initial_locale_pointers 0000000180028408     libucrt:nlsdata.obj
 0003:00000418       __acrt_wide_c_locale_string 0000000180028418     libucrt:nlsdata.obj
 0003:00000420       __acrt_initial_multibyte_data 0000000180028420     libucrt:mbctype.obj
 0003:00000648       __acrt_current_multibyte_data 0000000180028648     libucrt:mbctype.obj
 0003:00000750       _mbctype                   0000000180028750     libucrt:mbctype.obj
 0003:00000860       _mbcasemap                 0000000180028860     libucrt:mbctype.obj
 0003:00000960       __globallocalestatus       0000000180028960     libucrt:glstatus.obj
 0003:00000970       __acrt_lconv_c             0000000180028970     libucrt:localeconv.obj
 0003:00000a08       __acrt_lconv_static_decimal 0000000180028a08     libucrt:localeconv.obj
 0003:00000a0c       __acrt_lconv_static_W_decimal 0000000180028a0c     libucrt:localeconv.obj
 0003:00000a10       __dcrt_lowio_console_output_handle 0000000180028a10     libucrt:initcon.obj
 0003:00000a40       _fltused                   0000000180028a40     LIBCMT:fltused.obj
 0003:00000a90       ??_R0?AVbad_alloc@std@@@8  0000000180028a90     LIBCMT:throw_bad_alloc.obj
 0003:00000ab8       ??_R0?AVexception@std@@@8  0000000180028ab8     LIBCMT:throw_bad_alloc.obj
 0003:00000ae0       ??_R0?AVbad_array_new_length@std@@@8 0000000180028ae0     LIBCMT:throw_bad_alloc.obj
 0003:00000b10       ??_R0?AVtype_info@@@8      0000000180028b10     LIBCMT:std_type_info_static.obj
 0003:00000b30       ??_R0?AVlogic_error@std@@@8 0000000180028b30     libcpmt:xthrow.obj
 0003:00000b58       ??_R0?AVlength_error@std@@@8 0000000180028b58     libcpmt:xthrow.obj
 0003:00000b80       ??_R0?AVout_of_range@std@@@8 0000000180028b80     libcpmt:xthrow.obj
 0003:00001130       __scrt_current_native_startup_state 0000000180029130     LIBCMT:utility.obj
 0003:00001138       __scrt_native_startup_lock 0000000180029138     LIBCMT:utility.obj
 0003:00001180       ?__type_info_root_node@@3U__type_info_node@@A 0000000180029180     LIBCMT:tncleanup.obj
 0003:00001190       ?_OptionsStorage@?1??__local_stdio_printf_options@@9@4_KA 0000000180029190     LIBCMT:default_local_stdio_options.obj
 0003:00001198       ?_OptionsStorage@?1??__local_stdio_scanf_options@@9@4_KA 0000000180029198     LIBCMT:default_local_stdio_options.obj
 0003:000011a0       __scrt_debugger_hook_flag  00000001800291a0     LIBCMT:utility_desktop.obj
 0003:000011a4       __favor                    00000001800291a4     LIBCMT:_cpu_disp_.obj
 0003:000011a8       __pPurecall                00000001800291a8     libvcruntime:purevirt_data.obj
 0003:000012c8       ?pArgList@UnDecorator@@0PEAVReplicator@@EA 00000001800292c8     libvcruntime:undname.obj
 0003:000012d0       ?pZNameList@UnDecorator@@0PEAVReplicator@@EA 00000001800292d0     libvcruntime:undname.obj
 0003:000012d8       ?pTemplateArgList@UnDecorator@@0PEAVReplicator@@EA 00000001800292d8     libvcruntime:undname.obj
 0003:000012e0       ?gName@UnDecorator@@0PEBDEB 00000001800292e0     libvcruntime:undname.obj
 0003:000012e8       ?name@UnDecorator@@0PEBDEB 00000001800292e8     libvcruntime:undname.obj
 0003:000012f0       ?outputString@UnDecorator@@0PEADEA 00000001800292f0     libvcruntime:undname.obj
 0003:000012f8       ?maxStringLength@UnDecorator@@0HA 00000001800292f8     libvcruntime:undname.obj
 0003:000012fc       ?disableFlags@UnDecorator@@0KA 00000001800292fc     libvcruntime:undname.obj
 0003:00001300       ?fExplicitTemplateParams@UnDecorator@@0_NA 0000000180029300     libvcruntime:undname.obj
 0003:00001301       ?fGetTemplateArgumentList@UnDecorator@@0_NA 0000000180029301     libvcruntime:undname.obj
 0003:00001308       ?m_pGetParameter@UnDecorator@@0P6APEADJ@ZEA 0000000180029308     libvcruntime:undname.obj
 0003:00001468       _environ_table             0000000180029468     libucrt:environment_initialization.obj
 0003:00001470       _wenviron_table            0000000180029470     libucrt:environment_initialization.obj
 0003:00001478       __dcrt_initial_wide_environment 0000000180029478     libucrt:environment_initialization.obj
 0003:00001480       __dcrt_initial_narrow_environment 0000000180029480     libucrt:environment_initialization.obj
 0003:00001488       __acrt_atexit_table        0000000180029488     libucrt:onexit.obj
 0003:000014a0       __acrt_at_quick_exit_table 00000001800294a0     libucrt:onexit.obj
 0003:000014b8       _nstream                   00000001800294b8     libucrt:_file.obj
 0003:000014c0       __piob                     00000001800294c0     libucrt:_file.obj
 0003:000014c8       _cflush                    00000001800294c8     libucrt:_file.obj
 0003:000014d0       __pioinfo                  00000001800294d0     libucrt:ioinit.obj
 0003:000018d0       _nhandle                   00000001800298d0     libucrt:ioinit.obj
 0003:000018d4       __acrt_locale_changed_data 00000001800298d4     libucrt:wsetlocale.obj
 0003:000018d8       __acrt_current_locale_data 00000001800298d8     libucrt:nlsdata.obj
 0003:00001cc4       __mbcodepage               0000000180029cc4     libucrt:mbctype.obj
 0003:00001cc8       __ismbcodepage             0000000180029cc8     libucrt:mbctype.obj
 0003:00001cd0       __mbulinfo                 0000000180029cd0     libucrt:mbctype.obj
 0003:00001ce0       __mblocalename             0000000180029ce0     libucrt:mbctype.obj
 0003:00001cec       __argc                     0000000180029cec     libucrt:argv_data.obj
 0003:00001cf0       __argv                     0000000180029cf0     libucrt:argv_data.obj
 0003:00001cf8       __wargv                    0000000180029cf8     libucrt:argv_data.obj
 0003:00001d00       _acmdln                    0000000180029d00     libucrt:argv_data.obj
 0003:00001d08       _wcmdln                    0000000180029d08     libucrt:argv_data.obj
 0003:00001d10       _pgmptr                    0000000180029d10     libucrt:argv_data.obj
 0003:00001d18       __acrt_heap                0000000180029d18     libucrt:heap_handle.obj
 0003:00001d28       __acrt_stdout_buffer       0000000180029d28     libucrt:_sftbuf.obj
 0003:00001d30       __acrt_stderr_buffer       0000000180029d30     libucrt:_sftbuf.obj
 0003:00001d48       __acrt_lconv_static_null   0000000180029d48     libucrt:localeconv.obj
 0003:00001d4c       __acrt_lconv_static_W_null 0000000180029d4c     libucrt:localeconv.obj
 0003:00001d50       _commode                   0000000180029d50     libucrt:ncommode.obj
 0003:00001d54       _umaskval                  0000000180029d54     libucrt:umask.obj
 0003:00001d58       _fmode                     0000000180029d58     libucrt:txtmode.obj
 0003:00001d5c       __fma3_is_available        0000000180029d5c     libucrt:fma3_available.obj
 0003:00001d60       __use_fma3_lib             0000000180029d60     libucrt:fma3_available.obj
 0003:00001d64       __scrt_ucrt_dll_is_in_use  0000000180029d64     <common>
 0003:00001d68       __dyn_tls_init_callback    0000000180029d68     <common>
 0003:00001d70       _pDestructExceptionObject  0000000180029d70     <common>

 entry point at        0001:000048cc

 Static symbols

 0000:fffd1000       .debug$S                   0000000180000000     kernel32:KERNEL32.dll
 0000:fffd1000       .debug$S                   0000000180000000     kernel32:KERNEL32.dll
 0000:fffd1000       .debug$S                   0000000180000000     kernel32:KERNEL32.dll
 0000:fffd1000       .debug$S                   0000000180000000     kernel32:KERNEL32.dll
 0000:fffd1000       .debug$S                   0000000180000000     kernel32:KERNEL32.dll
 0000:fffd1000       .debug$S                   0000000180000000     kernel32:KERNEL32.dll
 0000:fffd1000       .debug$S                   0000000180000000     kernel32:KERNEL32.dll
 0000:fffd1000       .debug$S                   0000000180000000     kernel32:KERNEL32.dll
 0000:fffd1000       .debug$S                   0000000180000000     kernel32:KERNEL32.dll
 0000:fffd1000       .debug$S                   0000000180000000     kernel32:KERNEL32.dll
 0000:fffd1000       .debug$S                   0000000180000000     kernel32:KERNEL32.dll
 0000:fffd1000       .debug$S                   0000000180000000     kernel32:KERNEL32.dll
 0000:fffd1000       .debug$S                   0000000180000000     kernel32:KERNEL32.dll
 0000:fffd1000       .debug$S                   0000000180000000     kernel32:KERNEL32.dll
 0000:fffd1000       .debug$S                   0000000180000000     kernel32:KERNEL32.dll
 0000:fffd1000       .debug$S                   0000000180000000     kernel32:KERNEL32.dll
 0000:fffd1000       .debug$S                   0000000180000000     kernel32:KERNEL32.dll
 0000:fffd1000       .debug$S                   0000000180000000     kernel32:KERNEL32.dll
 0000:fffd1000       .debug$S                   0000000180000000     kernel32:KERNEL32.dll
 0000:fffd1000       .debug$S                   0000000180000000     kernel32:KERNEL32.dll
 0000:fffd1000       .debug$S                   0000000180000000     kernel32:KERNEL32.dll
 0000:fffd1000       .debug$S                   0000000180000000     kernel32:KERNEL32.dll
 0000:fffd1000       .debug$S                   0000000180000000     kernel32:KERNEL32.dll
 0000:fffd1000       .debug$S                   0000000180000000     kernel32:KERNEL32.dll
 0000:fffd1000       .debug$S                   0000000180000000     kernel32:KERNEL32.dll
 0000:fffd1000       .debug$S                   0000000180000000     kernel32:KERNEL32.dll
 0000:fffd1000       .debug$S                   0000000180000000     kernel32:KERNEL32.dll
 0000:fffd1000       .debug$S                   0000000180000000     kernel32:KERNEL32.dll
 0000:fffd1000       .debug$S                   0000000180000000     kernel32:KERNEL32.dll
 0000:fffd1000       .debug$S                   0000000180000000     kernel32:KERNEL32.dll
 0000:fffd1000       .debug$S                   0000000180000000     kernel32:KERNEL32.dll
 0000:fffd1000       .debug$S                   0000000180000000     kernel32:KERNEL32.dll
 0000:fffd1000       .debug$S                   0000000180000000     kernel32:KERNEL32.dll
 0000:fffd1000       .debug$S                   0000000180000000     kernel32:KERNEL32.dll
 0000:fffd1000       .debug$S                   0000000180000000     kernel32:KERNEL32.dll
 0000:fffd1000       .debug$S                   0000000180000000     kernel32:KERNEL32.dll
 0000:fffd1000       .debug$S                   0000000180000000     kernel32:KERNEL32.dll
 0000:fffd1000       .debug$S                   0000000180000000     kernel32:KERNEL32.dll
 0000:fffd1000       .debug$S                   0000000180000000     kernel32:KERNEL32.dll
 0000:fffd1000       .debug$S                   0000000180000000     kernel32:KERNEL32.dll
 0000:fffd1000       .debug$S                   0000000180000000     kernel32:KERNEL32.dll
 0000:fffd1000       .debug$S                   0000000180000000     kernel32:KERNEL32.dll
 0000:fffd1000       .debug$S                   0000000180000000     kernel32:KERNEL32.dll
 0000:fffd1000       .debug$S                   0000000180000000     kernel32:KERNEL32.dll
 0000:fffd1000       .debug$S                   0000000180000000     kernel32:KERNEL32.dll
 0000:fffd1000       .debug$S                   0000000180000000     ctags.exp
 0000:fffd1000       .debug$S                   0000000180000000     kernel32:KERNEL32.dll
 0000:fffd1000       .debug$S                   0000000180000000     kernel32:KERNEL32.dll
 0000:fffd1000       .debug$S                   0000000180000000     kernel32:KERNEL32.dll
 0000:fffd1000       .debug$S                   0000000180000000     kernel32:KERNEL32.dll
 0000:fffd1000       .debug$S                   0000000180000000     kernel32:KERNEL32.dll
 0000:fffd1000       .debug$S                   0000000180000000     kernel32:KERNEL32.dll
 0000:fffd1000       .debug$S                   0000000180000000     kernel32:KERNEL32.dll
 0000:fffd1000       .debug$S                   0000000180000000     kernel32:KERNEL32.dll
 0000:fffd1000       .debug$S                   0000000180000000     kernel32:KERNEL32.dll
 0000:fffd1000       .debug$S                   0000000180000000     kernel32:KERNEL32.dll
 0000:fffd1000       .debug$S                   0000000180000000     kernel32:KERNEL32.dll
 0000:fffd1000       .debug$S                   0000000180000000     kernel32:KERNEL32.dll
 0000:fffd1000       .debug$S                   0000000180000000     kernel32:KERNEL32.dll
 0000:fffd1000       .debug$S                   0000000180000000     kernel32:KERNEL32.dll
 0000:fffd1000       .debug$S                   0000000180000000     kernel32:KERNEL32.dll
 0000:fffd1000       .debug$S                   0000000180000000     kernel32:KERNEL32.dll
 0000:fffd1000       .debug$S                   0000000180000000     kernel32:KERNEL32.dll
 0000:fffd1000       .debug$S                   0000000180000000     kernel32:KERNEL32.dll
 0000:fffd1000       .debug$S                   0000000180000000     kernel32:KERNEL32.dll
 0000:fffd1000       .debug$S                   0000000180000000     kernel32:KERNEL32.dll
 0000:fffd1000       .debug$S                   0000000180000000     kernel32:KERNEL32.dll
 0000:fffd1000       .debug$S                   0000000180000000     kernel32:KERNEL32.dll
 0000:fffd1000       .debug$S                   0000000180000000     kernel32:KERNEL32.dll
 0000:fffd1000       .debug$S                   0000000180000000     kernel32:KERNEL32.dll
 0000:fffd1000       .debug$S                   0000000180000000     kernel32:KERNEL32.dll
 0000:fffd1000       .debug$S                   0000000180000000     kernel32:KERNEL32.dll
 0000:fffd1000       .debug$S                   0000000180000000     kernel32:KERNEL32.dll
 0000:fffd1000       .debug$S                   0000000180000000     kernel32:KERNEL32.dll
 0000:fffd1000       .debug$S                   0000000180000000     kernel32:KERNEL32.dll
 0000:fffd1000       .debug$S                   0000000180000000     kernel32:KERNEL32.dll
 0000:fffd1000       .debug$S                   0000000180000000     kernel32:KERNEL32.dll
 0000:fffd1000       .debug$S                   0000000180000000     kernel32:KERNEL32.dll
 0000:fffd1000       .debug$S                   0000000180000000     kernel32:KERNEL32.dll
 0000:fffd1000       .debug$S                   0000000180000000     kernel32:KERNEL32.dll
 0000:fffd1000       .debug$S                   0000000180000000     kernel32:KERNEL32.dll
 0000:fffd1000       .debug$S                   0000000180000000     kernel32:KERNEL32.dll
 0000:fffd1000       .debug$S                   0000000180000000     kernel32:KERNEL32.dll
 0000:fffd1000       .debug$S                   0000000180000000     kernel32:KERNEL32.dll
 0000:fffd1000       .debug$S                   0000000180000000     iojs:node.dll
 0000:fffd1000       .debug$S                   0000000180000000     kernel32:KERNEL32.dll
 0000:fffd1000       .debug$S                   0000000180000000     iojs:node.dll
 0000:fffd1000       .debug$S                   0000000180000000     iojs:node.dll
 0000:fffd1000       .debug$S                   0000000180000000     iojs:node.dll
 0000:fffd1000       .debug$S                   0000000180000000     iojs:node.dll
 0000:fffd1000       .debug$S                   0000000180000000     iojs:node.dll
 0000:fffd1000       .debug$S                   0000000180000000     iojs:node.dll
 0000:fffd1000       .debug$S                   0000000180000000     iojs:node.dll
 0000:fffd1000       .debug$S                   0000000180000000     iojs:node.dll
 0000:fffd1000       .debug$S                   0000000180000000     iojs:node.dll
 0000:fffd1000       .debug$S                   0000000180000000     iojs:node.dll
 0000:fffd1000       .debug$S                   0000000180000000     iojs:node.dll
 0000:fffd1000       .debug$S                   0000000180000000     iojs:node.dll
 0000:fffd1000       .debug$S                   0000000180000000     kernel32:KERNEL32.dll
 0000:fffd1000       .debug$S                   0000000180000000     iojs:node.dll
 0000:fffd1000       .debug$S                   0000000180000000     kernel32:KERNEL32.dll
 0000:fffd1000       .debug$S                   0000000180000000     iojs:node.dll
 0000:fffd1000       .debug$S                   0000000180000000     iojs:node.dll
 0000:fffd1000       .debug$S                   0000000180000000     iojs:node.dll
 0000:fffd1000       .debug$S                   0000000180000000     kernel32:KERNEL32.dll
 0000:fffd1000       .debug$S                   0000000180000000     iojs:node.dll
 0000:fffd1000       .debug$S                   0000000180000000     kernel32:KERNEL32.dll
 0000:fffd1000       .debug$S                   0000000180000000     iojs:node.dll
 0000:fffd1000       .debug$S                   0000000180000000     iojs:node.dll
 0000:fffd1000       .debug$S                   0000000180000000     iojs:node.dll
 0000:fffd1000       .debug$S                   0000000180000000     iojs:node.dll
 0000:fffd1000       .debug$S                   0000000180000000     iojs:node.dll
 0000:fffd1000       .debug$S                   0000000180000000     kernel32:KERNEL32.dll
 0000:fffd1000       .debug$S                   0000000180000000     iojs:node.dll
 0000:fffd1000       .debug$S                   0000000180000000     iojs:node.dll
 0000:fffd1000       .debug$S                   0000000180000000     iojs:node.dll
 0000:fffd1000       .debug$S                   0000000180000000     iojs:node.dll
 0000:fffd1000       .debug$S                   0000000180000000     iojs:node.dll
 0000:fffd1000       .debug$S                   0000000180000000     iojs:node.dll
 0000:fffd1000       .debug$S                   0000000180000000     iojs:node.dll
 0000:fffd1000       .debug$S                   0000000180000000     iojs:node.dll
 0000:fffd1000       .debug$S                   0000000180000000     iojs:node.dll
 0000:fffd1000       .debug$S                   0000000180000000     iojs:node.dll
 0000:fffd1000       .debug$S                   0000000180000000     iojs:node.dll
 0000:fffd1000       .debug$S                   0000000180000000     iojs:node.dll
 0000:fffd1000       .debug$S                   0000000180000000     iojs:node.dll
 0000:fffd1000       .debug$S                   0000000180000000     iojs:node.dll
 0000:fffd1000       .debug$S                   0000000180000000     iojs:node.dll
 0000:fffd1000       .debug$S                   0000000180000000     iojs:node.dll
 0000:fffd1000       .debug$S                   0000000180000000     iojs:node.dll
 0000:fffd1000       .debug$S                   0000000180000000     iojs:node.dll
 0000:fffd1000       .debug$S                   0000000180000000     iojs:node.dll
 0000:fffd1000       .debug$S                   0000000180000000     iojs:node.dll
 0000:fffd1000       .debug$S                   0000000180000000     iojs:node.dll
 0000:fffd1000       .debug$S                   0000000180000000     iojs:node.dll
 0000:fffd1000       .debug$S                   0000000180000000     iojs:node.dll
 0000:fffd1000       .debug$S                   0000000180000000     iojs:node.dll
 0000:fffd1000       .debug$S                   0000000180000000     iojs:node.dll
 0000:fffd1000       .debug$S                   0000000180000000     iojs:node.dll
 0000:fffd1000       .debug$S                   0000000180000000     iojs:node.dll
 0000:fffd1000       .debug$S                   0000000180000000     iojs:node.dll
 0000:fffd1000       .debug$S                   0000000180000000     iojs:node.dll
 0000:fffd1000       .debug$S                   0000000180000000     iojs:node.dll
 0000:fffd1000       .debug$S                   0000000180000000     iojs:node.dll
 0000:fffd1000       .debug$S                   0000000180000000     kernel32:KERNEL32.dll
 0001:00000000       copyName                   0000000180001000 f   readtags.obj
 0001:000000f0       readTagLine                00000001800010f0 f   readtags.obj
 0001:00000240       parseExtensionFields       0000000180001240 f   readtags.obj
 0001:00000400       parseTagLine               0000000180001400 f   readtags.obj
 0001:000005c0       readPseudoTags             00000001800015c0 f   readtags.obj
 0001:00000810       initialize                 0000000180001810 f   readtags.obj
 0001:00000980       terminate                  0000000180001980 f   readtags.obj
 0001:00000a20       nameComparison             0000000180001a20 f   readtags.obj
 0001:00000b40       findFirstNonMatchBefore    0000000180001b40 f   readtags.obj
 0001:00000bd0       findFirstMatchBefore       0000000180001bd0 f   readtags.obj
 0001:00000c50       findBinary                 0000000180001c50 f   readtags.obj
 0001:00000d90       find                       0000000180001d90 f   readtags.obj
 0001:00001180       ?FunctionCallbackWrapper@imp@Nan@@YAXAEBV?$FunctionCallbackInfo@VValue@v8@@@v8@@@Z 0000000180002180 f   tags.obj
 0001:00001f10       _register_ctags            0000000180002f10 f   tags.obj
 0001:00004500       $$000000                   0000000180005500     LIBCMT:_amdsecgs_.obj
 0001:00004580       ?dllmain_crt_dispatch@@YAHQEAUHINSTANCE__@@KQEAX@Z 0000000180005580 f   LIBCMT:dll_dllmain.obj
 0001:000045d0       ?dllmain_crt_process_attach@@YAHQEAUHINSTANCE__@@QEAX@Z 00000001800055d0 f   LIBCMT:dll_dllmain.obj
 0001:000046fc       ?dllmain_crt_process_detach@@YAH_N@Z 00000001800056fc f   LIBCMT:dll_dllmain.obj
 0001:00004780       ?dllmain_dispatch@@YAHQEAUHINSTANCE__@@KQEAX@Z 0000000180005780 f   LIBCMT:dll_dllmain.obj
 0001:00004878       ?dllmain_raw@@YAHQEAUHINSTANCE__@@KQEAX@Z 0000000180005878 f   LIBCMT:dll_dllmain.obj
 0001:00004ac4       capture_current_context    0000000180005ac4 f   LIBCMT:gs_report.obj
 0001:00004b34       capture_previous_context   0000000180005b34 f   LIBCMT:gs_report.obj
 0001:00005860       $$000000                   0000000180006860     libvcruntime:memcpy.obj
 0001:00005907       MoveSmall                  0000000180006907     libvcruntime:memcpy.obj
 0001:00006130       $$000000                   0000000180007130     libvcruntime:memset.obj
 0001:0000621c       MsetTab                    000000018000721c     libvcruntime:memset.obj
 0001:00006310       $$000000                   0000000180007310     libvcruntime:_jmpuwind_.obj
 0001:00006590       ?try_get_function@@YAPEAXW4function_id@?A0x679b24ab@@QEBDQEBW4module_id@2@2@Z 0000000180007590 f   libvcruntime:winapi_downlevel.obj
 0001:000069c0       ??$common_ftell@J@@YAJV__crt_stdio_stream@@@Z 00000001800079c0 f   libucrt:ftell.obj
 0001:00006a2c       ??$common_ftell@_J@@YA_JV__crt_stdio_stream@@@Z 0000000180007a2c f   libucrt:ftell.obj
 0001:00006a80       ??$common_ftell_nolock@_J@@YA_JV__crt_stdio_stream@@@Z 0000000180007a80 f   libucrt:ftell.obj
 0001:00006bf8       ?common_ftell_read_mode_nolock@@YA_JV__crt_stdio_stream@@_J1@Z 0000000180007bf8 f   libucrt:ftell.obj
 0001:00006d70       ?common_ftell_translated_utf8_nolock@@YA_JV__crt_stdio_stream@@_J@Z 0000000180007d70 f   libucrt:ftell.obj
 0001:00006f98       ?internal_islower_l@@YA_NHQEAU__crt_locale_pointers@@@Z 0000000180007f98 f   libucrt:tolower_toupper.obj
 0001:00006fe8       ?internal_isupper_l@@YA_NHQEAU__crt_locale_pointers@@@Z 0000000180007fe8 f   libucrt:tolower_toupper.obj
 0001:00007310       ??$common_fsopen@D@@YAPEAU_iobuf@@QEBD0H@Z 0000000180008310 f   libucrt:fopen.obj
 0001:000075a4       ?common_fseek@@YAHV__crt_stdio_stream@@_JH@Z 00000001800085a4 f   libucrt:fseek.obj
 0001:00007610       ?common_fseek_binary_mode_read_only_fast_track_nolock@@YA_NV__crt_stdio_stream@@_JH@Z 0000000180008610 f   libucrt:fseek.obj
 0001:00007720       ?common_fseek_nolock@@YAHV__crt_stdio_stream@@_JH@Z 0000000180008720 f   libucrt:fseek.obj
 0001:00007830       $$000000                   0000000180008830     libucrt:strncpy.obj
 0001:000079a4       ??$common_fgets@D@@YAPEADQEADHV__crt_stdio_stream@@@Z 00000001800089a4 f   libucrt:fgets.obj
 0001:00007b20       $$000000                   0000000180008b20     libucrt:strncmp.obj
 0001:000088c8       ??$common_assert_to_message_box@_W@@YAXQEB_W0IQEAX@Z 00000001800098c8 f   libucrt:assert.obj
 0001:0000898c       ??$common_assert_to_message_box_build_string@_W@@YAXQEA_W_KQEB_W2IQEAX@Z 000000018000998c f   libucrt:assert.obj
 0001:00009160       ??$common_assert_to_stderr@_W@@YAXQEB_W0I@Z 000000018000a160 f   libucrt:assert.obj
 0001:000092d0       ?get_assert_format@@YAPEB_W_W@Z 000000018000a2d0 f   libucrt:assert.obj
 0001:0000997c       ?atexit_exception_filter@@YAHK@Z 000000018000a97c f   libucrt:exit.obj
 0001:00009988       ?common_exit@@YAXHW4_crt_exit_cleanup_mode@@W4_crt_exit_return_mode@@@Z 000000018000a988 f   libucrt:exit.obj
 0001:00009af4       ?exit_or_terminate_process@@YAXI@Z 000000018000aaf4 f   libucrt:exit.obj
 0001:00009b40       ?try_cor_exit_process@@YAXI@Z 000000018000ab40 f   libucrt:exit.obj
 0001:00009bd8       ??$parse_command_line@D@@YAXPEADPEAPEAD0PEA_K2@Z 000000018000abd8 f   libucrt:argv_parsing.obj
 0001:00009f70       ??$common_initialize_environment_nolock@D@@YAHXZ 000000018000af70 f   libucrt:environment_initialization.obj
 0001:00009fdc       ??$create_environment@D@@YAQEAPEADQEAD@Z 000000018000afdc f   libucrt:environment_initialization.obj
 0001:0000a0d8       ??$free_environment@D@@YAXQEAPEAD@Z 000000018000b0d8 f   libucrt:environment_initialization.obj
 0001:0000a0d8       ??$free_environment@_W@@YAXQEAPEA_W@Z 000000018000b0d8 f   libucrt:environment_initialization.obj
 0001:0000a11c       ??$uninitialize_environment_internal@D@@YAXAEAPEAPEAD@Z 000000018000b11c f   libucrt:environment_initialization.obj
 0001:0000a138       ??$uninitialize_environment_internal@_W@@YAXAEAPEAPEA_W@Z 000000018000b138 f   libucrt:environment_initialization.obj
 0001:0000a370       ??R<lambda_4e60a939b0d047cfe11ddc22648dfba9>@@QEBAHXZ 000000018000b370 f   libucrt:onexit.obj
 0001:0000a620       initialize_global_variables 000000018000b620 f   libucrt:initialization.obj
 0001:0000a634       initialize_c               000000018000b634 f   libucrt:initialization.obj
 0001:0000a658       uninitialize_global_state_isolation 000000018000b658 f   libucrt:initialization.obj
 0001:0000a658       initialize_global_state_isolation 000000018000b658 f   libucrt:initialization.obj
 0001:0000a658       uninitialize_c             000000018000b658 f   libucrt:initialization.obj
 0001:0000a658       report_memory_leaks        000000018000b658 f   libucrt:initialization.obj
 0001:0000a658       initialize_environment     000000018000b658 f   libucrt:initialization.obj
 0001:0000a65c       uninitialize_environment   000000018000b65c f   libucrt:initialization.obj
 0001:0000a66c       initialize_pointers        000000018000b66c f   libucrt:initialization.obj
 0001:0000a6c0       uninitialize_vcruntime     000000018000b6c0 f   libucrt:initialization.obj
 0001:0000a6c8       uninitialize_allocated_memory 000000018000b6c8 f   libucrt:initialization.obj
 0001:0000ae0c       ??R<lambda_dd75445284c072d0bd3768540cc698fa>@@QEBAHXZ 000000018000be0c f   libucrt:output.obj
 0001:0000cadc       ??$common_lseek@J@@YAJHJH@Z 000000018000dadc f   libucrt:lseek.obj
 0001:0000cbc8       ??$common_lseek@_J@@YA_JH_JH@Z 000000018000dbc8 f   libucrt:lseek.obj
 0001:0000ccb8       ??$common_lseek_nolock@J@@YAJHJH@Z 000000018000dcb8 f   libucrt:lseek.obj
 0001:0000cd34       ??$common_lseek_nolock@_J@@YA_JH_JH@Z 000000018000dd34 f   libucrt:lseek.obj
 0001:0000cdd0       ?common_lseek_do_seek_nolock@@YAJQEAXJH@Z 000000018000ddd0 f   libucrt:lseek.obj
 0001:0000d068       ??$translate_text_mode_nolock@_W@@YAHHQEA_W_K@Z 000000018000e068 f   libucrt:read.obj
 0001:0000d298       ?translate_ansi_or_utf8_nolock@@YAHHQEAD_KQEA_W1@Z 000000018000e298 f   libucrt:read.obj
 0001:0000db18       ?initialize_inherited_file_handles_nolock@@YAXXZ 000000018000eb18 f   libucrt:ioinit.obj
 0001:0000dc04       ?initialize_stdio_handles_nolock@@YAXXZ 000000018000ec04 f   libucrt:ioinit.obj
 0001:0000defc       ?__acrt_LCMapStringA_stat@@YAHPEAU__crt_locale_pointers@@PEB_WKPEBDHPEADHHH@Z 000000018000eefc f   libucrt:lcmapstringa.obj
 0001:0000e418       ?construct_ptd_array@@YAXQEAU__acrt_ptd@@@Z 000000018000f418 f   libucrt:per_thread_data.obj
 0001:0000e4e8       ?destroy_fls@@YAXPEAX@Z    000000018000f4e8 f   libucrt:per_thread_data.obj
 0001:0000e508       ?destroy_ptd_array@@YAXQEAU__acrt_ptd@@@Z 000000018000f508 f   libucrt:per_thread_data.obj
 0001:0000e600       ?replace_current_thread_locale_nolock@@YAXQEAU__acrt_ptd@@QEAU__crt_locale_data@@@Z 000000018000f600 f   libucrt:per_thread_data.obj
 0001:0000e99c       ?find_or_allocate_unused_stream_nolock@@YA?AV__crt_stdio_stream@@XZ 000000018000f99c f   libucrt:stream.obj
 0001:0000f0a4       common_flush_all           00000001800100a4 f   libucrt:fflush.obj
 0001:0000f6e8       ?write_double_translated_ansi_nolock@@YA?AUwrite_result@?A0x9c548279@@HQEBDI@Z 00000001800106e8 f   libucrt:write.obj
 0001:0000f8f0       ?write_text_ansi_nolock@@YA?AUwrite_result@?A0x9c548279@@HQEBDI@Z 00000001800108f0 f   libucrt:write.obj
 0001:0000f9f8       ?write_text_utf16le_nolock@@YA?AUwrite_result@?A0x9c548279@@HQEBDI@Z 00000001800109f8 f   libucrt:write.obj
 0001:0000fb14       ?write_text_utf8_nolock@@YA?AUwrite_result@?A0x9c548279@@HQEBDI@Z 0000000180010b14 f   libucrt:write.obj
 0001:000101a0       ??$common_xtox@K_W@@YAHKQEA_W_KI_N@Z 00000001800111a0 f   libucrt:xtoa.obj
 0001:0001024c       ??$common_xtox_s@K_W@@YAHKQEA_W_KI_N@Z 000000018001124c f   libucrt:xtoa.obj
 0001:00010510       ??$message_box_wait_thread@_W@@YAKQEAX@Z 0000000180011510 f   libucrt:crtmbox.obj
 0001:00010694       ??R<lambda_b721fa326cdb32351d23dfa67958c160>@@QEBAHXZ 0000000180011694 f   libucrt:setvbuf.obj
 0001:00010c10       ?try_get_function@@YAPEAXW4function_id@?A0x63058377@@QEBDQEBW4module_id@2@2@Z 0000000180011c10 f   libucrt:winapi_thunks.obj
 0001:00011488       ?<helper_func_cdecl>@<lambda_2feae5270eb4d0d5532525f423405775>@@CAHPEBX0@Z 0000000180012488 f   libucrt:argv_wildcards.obj
 0001:0001149c       ??$common_expand_argv_wildcards@D@@YAHQEAPEADQEAPEAPEAD@Z 000000018001249c f   libucrt:argv_wildcards.obj
 0001:000116a8       ??$copy_and_add_argument_to_buffer@D@@YAHQEBD0_KAEAV?$argument_list@D@?A0xca0879c4@@@Z 00000001800126a8 f   libucrt:argv_wildcards.obj
 0001:000117b8       ??$expand_argument_wildcards@D@@YAHQEAD0AEAV?$argument_list@D@?A0xca0879c4@@@Z 00000001800127b8 f   libucrt:argv_wildcards.obj
 0001:00011a6c       ??R<lambda_ad1ced32f4ac17aa236e5ef05d6b3b7c>@@QEBAXXZ 0000000180012a6c f   libucrt:mbctype.obj
 0001:00011c84       ?getSystemCP@@YAHH@Z       0000000180012c84 f   libucrt:mbctype.obj
 0001:00011d04       ?setSBCS@@YAXPEAU__crt_multibyte_data@@@Z 0000000180012d04 f   libucrt:mbctype.obj
 0001:00011d94       ?setSBUpLow@@YAXPEAU__crt_multibyte_data@@@Z 0000000180012d94 f   libucrt:mbctype.obj
 0001:00011f78       ?setmbcp_internal@@YAHH_N@Z 0000000180012f78 f   libucrt:mbctype.obj
 0001:000124c0       ?x_ismbbtype_l@@YAHPEAU__crt_locale_pointers@@IHH@Z 00000001800134c0 f   libucrt:ismbbyte.obj
 0001:00012f2c       ?fp_format_a@@YAHQEBNPEAD_KQEAD2H_NIQEAU__crt_locale_pointers@@@Z 0000000180013f2c f   libucrt:cvt.obj
 0001:0001328c       ?fp_format_e@@YAHQEBNQEAD_K12H_NIQEAU__crt_locale_pointers@@@Z 000000018001428c f   libucrt:cvt.obj
 0001:0001335c       ?fp_format_e_internal@@YAHQEAD_KH_NIQEAU_strflt@@2QEAU__crt_locale_pointers@@@Z 000000018001435c f   libucrt:cvt.obj
 0001:00013538       ?fp_format_f_internal@@YAHQEAD_KHQEAU_strflt@@_NQEAU__crt_locale_pointers@@@Z 0000000180014538 f   libucrt:cvt.obj
 0001:00013680       ?fp_format_g@@YAHQEBNQEAD_K12H_NIQEAU__crt_locale_pointers@@@Z 0000000180014680 f   libucrt:cvt.obj
 0001:000137b8       ?fp_format_nan_or_infinity@@YAHW4__acrt_fp_class@@_NPEAD_K1@Z 00000001800147b8 f   libucrt:cvt.obj
 0001:00014550       ?free_crt_array_internal@@YAXQEAPEBX_K@Z 0000000180015550 f   libucrt:inittime.obj
 0001:00014824       ??$common_sopen_dispatch@D@@YAHQEBDHHHQEAHH@Z 0000000180015824 f   libucrt:open.obj
 0001:00014904       ?configure_text_mode@@YAHHUfile_options@?A0x656cf9f4@@HAEAW4__crt_lowio_text_mode@@@Z 0000000180015904 f   libucrt:open.obj
 0001:00014b98       ?decode_options@@YA?AUfile_options@?A0x656cf9f4@@HHH@Z 0000000180015b98 f   libucrt:open.obj
 0001:00014da4       ?truncate_ctrl_z_if_present@@YAHH@Z 0000000180015da4 f   libucrt:open.obj
 0001:00015498       ??$common_refill_and_read_nolock@D@@YAHV__crt_stdio_stream@@@Z 0000000180016498 f   libucrt:_filbuf.obj
 0001:00015648       ?GetTableIndexFromLocaleName@@YAHPEB_W@Z 0000000180016648 f   libucrt:lcidtoname_downlevel.obj
 0001:00015750       ?shortsort@@YAXPEAD0_KP6AHPEBX2@Z@Z 0000000180016750 f   libucrt:qsort.obj
 0001:00015d68       ?initialize_multibyte@@YAHXZ 0000000180016d68 f   libucrt:multibyte_initializer.obj
 0001:000176bc       memcpy_s                   00000001800186bc f   libucrt:cfout.obj
 0001:00017744       ??$write_buffer_nolock@D@@YA_NDV__crt_stdio_stream@@@Z 0000000180018744 f   libucrt:_flsbuf.obj
 0001:00017848       ??$write_buffer_nolock@_W@@YA_N_WV__crt_stdio_stream@@@Z 0000000180018848 f   libucrt:_flsbuf.obj
 0001:000180f0       $$000000                   00000001800190f0     libucrt:log10.obj
 0001:000187cc       common_control87           00000001800197cc f   libucrt:ieee.obj
 0001:00018a64       _call_matherr              0000000180019a64 f   libucrt:libm_error.obj
 0001:00018acc       _exception_enabled         0000000180019acc f   libucrt:libm_error.obj
 0001:00018d60       _log_special_common        0000000180019d60 f   libucrt:log_special.obj
 0001:00018e00       $$000000                   0000000180019e00     libucrt:fpsr.obj
 0001:000193f0       $$000000                   000000018001a3f0     LIBCMT:_chkstk_.obj
 0001:00019460       $$000000                   000000018001a460     libvcruntime:memcmp.obj
 0001:00019680       $$000000                   000000018001a680     libucrt:strcmp.obj
 0001:00019700       $$000000                   000000018001a700     LIBCMT:_guard_dispatch_.obj
 0001:00019720       ?fin$0@?0??dllmain_crt_process_attach@@YAHQEAUHINSTANCE__@@QEAX@Z@4HA 000000018001a720 f   LIBCMT:dll_dllmain.obj
 0001:00019737       ?fin$0@?0??dllmain_crt_process_detach@@YAH_N@Z@4HA 000000018001a737 f   LIBCMT:dll_dllmain.obj
 0001:00019753       ?filt$0@?0??dllmain_dispatch@@YAHQEAUHINSTANCE__@@KQEAX@Z@4HA 000000018001a753 f   LIBCMT:dll_dllmain.obj
 0001:00019789       __scrt_is_nonwritable_in_current_image$filt$0 000000018001a789 f   LIBCMT:utility.obj
 0001:000197a1       ?fin$0@?0???$common_fsopen@D@@YAPEAU_iobuf@@QEBD0H@Z@4HA 000000018001a7a1 f   libucrt:fopen.obj
 0001:000197cc       fclose$fin$0               000000018001a7cc f   libucrt:fclose.obj
 0001:000197cc       fflush$fin$0               000000018001a7cc f   libucrt:fflush.obj
 0001:000197cc       rewind$fin$0               000000018001a7cc f   libucrt:rewind.obj
 0001:000197e4       perror$fin$0               000000018001a7e4 f   libucrt:perror.obj
 0001:000197fd       ?fin$0@?0???$common_ftell@J@@YAJV__crt_stdio_stream@@@Z@4HA 000000018001a7fd f   libucrt:ftell.obj
 0001:000197fd       ?fin$0@?0???$common_ftell@_J@@YA_JV__crt_stdio_stream@@@Z@4HA 000000018001a7fd f   libucrt:ftell.obj
 0001:000197fd       ?fin$0@?0??common_fseek@@YAHV__crt_stdio_stream@@_JH@Z@4HA 000000018001a7fd f   libucrt:fseek.obj
 0001:00019817       ?fin$0@?0???$common_fgets@D@@YAPEADQEADHV__crt_stdio_stream@@@Z@4HA 000000018001a817 f   libucrt:fgets.obj
 0001:00019831       _query_new_handler$fin$0   000000018001a831 f   libucrt:new_handler.obj
 0001:00019847       ?filt$0@?0??common_exit@@YAXHW4_crt_exit_cleanup_mode@@W4_crt_exit_return_mode@@@Z@4HA 000000018001a847 f   libucrt:exit.obj
 0001:00019862       ?fin$1@?0??common_exit@@YAXHW4_crt_exit_cleanup_mode@@W4_crt_exit_return_mode@@@Z@4HA 000000018001a862 f   libucrt:exit.obj
 0001:0001987b       ?fin$0@?0???$?RV<lambda_e24bbb7b643b32fcea6fa61b31d4c984>@@AEAV<lambda_275893d493268fdec8709772e3fcec0e>@@V<lambda_9d71df4d7cf3f480f8d633942495c3b0>@@@?$__crt_seh_guarded_call@H@@QEAAH$$QEAV<lambda_e24bbb7b643b32fcea6fa61b31d4c984>@@AEAV<lambda_275893d493268fdec8709772e3fcec0e>@@$$QEAV<lambda_9d71df4d7cf3f480f8d633942495c3b0>@@@Z@4HA 000000018001a87b f   libucrt:onexit.obj
 0001:00019898       ?fin$0@?0???$?RV<lambda_72d1df2b273a38828b1ce30cbf4cdab5>@@AEAV<lambda_876a65b173b8412d3a47c70a915b0cf4>@@V<lambda_41932305e351933ebe8f8be3ed8bb5dc>@@@?$__crt_seh_guarded_call@X@@QEAAX$$QEAV<lambda_72d1df2b273a38828b1ce30cbf4cdab5>@@AEAV<lambda_876a65b173b8412d3a47c70a915b0cf4>@@$$QEAV<lambda_41932305e351933ebe8f8be3ed8bb5dc>@@@Z@4HA 000000018001a898 f   libucrt:per_thread_data.obj
 0001:00019898       ?fin$0@?0???$?RV<lambda_99476a1ad63dd22509b5d3e65b0ffc95>@@AEAV<lambda_ad1ced32f4ac17aa236e5ef05d6b3b7c>@@V<lambda_f7424dd8d45958661754dc4f2697e9c3>@@@?$__crt_seh_guarded_call@X@@QEAAX$$QEAV<lambda_99476a1ad63dd22509b5d3e65b0ffc95>@@AEAV<lambda_ad1ced32f4ac17aa236e5ef05d6b3b7c>@@$$QEAV<lambda_f7424dd8d45958661754dc4f2697e9c3>@@@Z@4HA 000000018001a898 f   libucrt:mbctype.obj
 0001:00019898       ?fin$0@?0???$?RV<lambda_46352004c1216016012b18bd6f87e700>@@AEAV<lambda_3bd07e1a1191394380780325891bf33f>@@V<lambda_334532d3f185bcaa59b5be82d7d22bff>@@@?$__crt_seh_guarded_call@X@@QEAAX$$QEAV<lambda_46352004c1216016012b18bd6f87e700>@@AEAV<lambda_3bd07e1a1191394380780325891bf33f>@@$$QEAV<lambda_334532d3f185bcaa59b5be82d7d22bff>@@@Z@4HA 000000018001a898 f   libucrt:per_thread_data.obj
 0001:00019898       ?fin$0@?0???$?RV<lambda_fb3a7dec4e47f37f22dae91bb15c9095>@@AEAV<lambda_698284760c8add0bfb0756c19673e34b>@@V<lambda_dfb8eca1e75fef3034a8fb18dd509707>@@@?$__crt_seh_guarded_call@X@@QEAAX$$QEAV<lambda_fb3a7dec4e47f37f22dae91bb15c9095>@@AEAV<lambda_698284760c8add0bfb0756c19673e34b>@@$$QEAV<lambda_dfb8eca1e75fef3034a8fb18dd509707>@@@Z@4HA 000000018001a898 f   libucrt:per_thread_data.obj
 0001:00019898       ?fin$0@?0???$?RV<lambda_b8c45f8f788dd370798f47cfe8ac3a86>@@AEAV<lambda_4e60a939b0d047cfe11ddc22648dfba9>@@V<lambda_332c3edc96d0294ec56c57d38c1cdfd5>@@@?$__crt_seh_guarded_call@H@@QEAAH$$QEAV<lambda_b8c45f8f788dd370798f47cfe8ac3a86>@@AEAV<lambda_4e60a939b0d047cfe11ddc22648dfba9>@@$$QEAV<lambda_332c3edc96d0294ec56c57d38c1cdfd5>@@@Z@4HA 000000018001a898 f   libucrt:onexit.obj
 0001:00019898       ?fin$0@?0???$?RV<lambda_c36588078e9f5dfd39652860aa6b3aaf>@@AEAV<lambda_ec61778202f4f5fc7e7711acc23c3bca>@@V<lambda_dc9d2797ccde5d239b4a0efae8ebd7db>@@@?$__crt_seh_guarded_call@P6AXH@Z@@QEAAP6AXH@Z$$QEAV<lambda_c36588078e9f5dfd39652860aa6b3aaf>@@AEAV<lambda_ec61778202f4f5fc7e7711acc23c3bca>@@$$QEAV<lambda_dc9d2797ccde5d239b4a0efae8ebd7db>@@@Z@4HA 000000018001a898 f   libucrt:signal.obj
 0001:00019898       ?fin$0@?0???$?RV<lambda_5e887d1dcbef67a5eb4283622ba103bf>@@AEAV<lambda_4466841279450cc726390878d4a41900>@@V<lambda_341c25c0346d94847f1f3c463c57e077>@@@?$__crt_seh_guarded_call@X@@QEAAX$$QEAV<lambda_5e887d1dcbef67a5eb4283622ba103bf>@@AEAV<lambda_4466841279450cc726390878d4a41900>@@$$QEAV<lambda_341c25c0346d94847f1f3c463c57e077>@@@Z@4HA 000000018001a898 f   libucrt:per_thread_data.obj
 0001:000198b2       __acrt_update_thread_locale_data$fin$0 000000018001a8b2 f   libucrt:locale_refcounting.obj
 0001:000198b2       __acrt_uninitialize_locale$fin$0 000000018001a8b2 f   libucrt:wsetlocale.obj
 0001:000198cb       ?fin$0@?0??__acrt_stdio_allocate_stream@@YA?AV__crt_stdio_stream@@XZ@4HA 000000018001a8cb f   libucrt:stream.obj
 0001:000198cb       _fcloseall$fin$0           000000018001a8cb f   libucrt:closeall.obj
 0001:000198e4       common_flush_all$fin$0     000000018001a8e4 f   libucrt:fflush.obj
 0001:000198fe       common_flush_all$fin$1     000000018001a8fe f   libucrt:fflush.obj
 0001:00019917       __acrt_initialize_lowio$fin$0 000000018001a917 f   libucrt:ioinit.obj
 0001:00019917       __acrt_lowio_ensure_fh_exists$fin$0 000000018001a917 f   libucrt:osfinfo.obj
 0001:00019917       _alloc_osfhnd$fin$0        000000018001a917 f   libucrt:osfinfo.obj
 0001:00019930       ?fin$0@?0???$common_lseek@_J@@YA_JH_JH@Z@4HA 000000018001a930 f   libucrt:lseek.obj
 0001:00019930       ?fin$0@?0???$common_lseek@J@@YAJHJH@Z@4HA 000000018001a930 f   libucrt:lseek.obj
 0001:00019930       _write$fin$0               000000018001a930 f   libucrt:write.obj
 0001:00019930       _read$fin$0                000000018001a930 f   libucrt:read.obj
 0001:00019947       ?fin$0@?0???$?RV<lambda_7b91131dde12e1c3dfc74ff76b3f2eac>@@AEAV<lambda_dd75445284c072d0bd3768540cc698fa>@@V<lambda_16bc4ecb55b4718497c16bceaea2ceaf>@@@?$__crt_seh_guarded_call@H@@QEAAH$$QEAV<lambda_7b91131dde12e1c3dfc74ff76b3f2eac>@@AEAV<lambda_dd75445284c072d0bd3768540cc698fa>@@$$QEAV<lambda_16bc4ecb55b4718497c16bceaea2ceaf>@@@Z@4HA 000000018001a947 f   libucrt:output.obj
 0001:00019947       ?fin$0@?0???$?RV<lambda_7a5ef57ff966f610505f1d28a3d40618>@@AEAV<lambda_b721fa326cdb32351d23dfa67958c160>@@V<lambda_5e0fb27672408a07956fe59e48ccb2aa>@@@?$__crt_seh_guarded_call@H@@QEAAH$$QEAV<lambda_7a5ef57ff966f610505f1d28a3d40618>@@AEAV<lambda_b721fa326cdb32351d23dfa67958c160>@@$$QEAV<lambda_5e0fb27672408a07956fe59e48ccb2aa>@@@Z@4HA 000000018001a947 f   libucrt:setvbuf.obj
 0001:00019962       raise$fin$0                000000018001a962 f   libucrt:signal.obj
 0001:00019986       __acrt_update_thread_multibyte_data$fin$0 000000018001a986 f   libucrt:mbctype.obj
 0001:0001999f       ?fin$0@?0???$common_sopen_dispatch@D@@YAHQEBDHHHQEAHH@Z@4HA 000000018001a99f f   libucrt:open.obj
 0001:000199f2       ?fin$0@?0???$?RV<lambda_b521505b218e5242e90febf6bfebc422>@@AEAV<lambda_6978c1fb23f02e42e1d9e99668cc68aa>@@V<lambda_314360699dd331753a4119843814e9a7>@@@?$__crt_seh_guarded_call@H@@QEAAH$$QEAV<lambda_b521505b218e5242e90febf6bfebc422>@@AEAV<lambda_6978c1fb23f02e42e1d9e99668cc68aa>@@$$QEAV<lambda_314360699dd331753a4119843814e9a7>@@@Z@4HA 000000018001a9f2 f   libucrt:commit.obj
 0001:000199f2       ?fin$0@?0???$?RV<lambda_bfedae4ebbf01fab1bb6dcc6a9e276e0>@@AEAV<lambda_2fe9b910cf3cbf4a0ab98a02ba45b3ec>@@V<lambda_237c231691f317818eb88cc1d5d642d6>@@@?$__crt_seh_guarded_call@H@@QEAAH$$QEAV<lambda_bfedae4ebbf01fab1bb6dcc6a9e276e0>@@AEAV<lambda_2fe9b910cf3cbf4a0ab98a02ba45b3ec>@@$$QEAV<lambda_237c231691f317818eb88cc1d5d642d6>@@@Z@4HA 000000018001a9f2 f   libucrt:close.obj
 0001:00019a0c       common_control87$filt$0    000000018001aa0c f   libucrt:ieee.obj
 0001:00019a0c       _ctrlfp$filt$0             000000018001aa0c f   libucrt:fpctrl.obj
 0001:00019a40       _IsNonwritableInCurrentImage$filt$0 000000018001aa40 f   LIBCMT:pesect.obj
 0002:00000468       GS_ExceptionPointers       000000018001b468     LIBCMT:gs_report.obj
 0002:00000560       ?ExceptionTemplate@?1??_CxxThrowException@@9@4UEHExceptionRecord@@B 000000018001b560     libvcruntime:throw.obj
 0002:000005a0       ?module_names@?A0x679b24ab@@3QBQEB_WB 000000018001b5a0     libvcruntime:winapi_downlevel.obj
 0002:00000670       ?candidate_modules@?1??try_get_FlsAlloc@@YAP6AKP6AXPEAX@Z@ZXZ@4QBW4module_id@?A0x679b24ab@@B 000000018001b670     libvcruntime:winapi_downlevel.obj
 0002:00000688       ?candidate_modules@?1??try_get_FlsFree@@YAP6AHK@ZXZ@4QBW4module_id@?A0x679b24ab@@B 000000018001b688     libvcruntime:winapi_downlevel.obj
 0002:00000698       ?candidate_modules@?1??try_get_FlsGetValue@@YAP6APEAXK@ZXZ@4QBW4module_id@?A0x679b24ab@@B 000000018001b698     libvcruntime:winapi_downlevel.obj
 0002:000006b0       ?candidate_modules@?1??try_get_FlsSetValue@@YAP6AHKPEAX@ZXZ@4QBW4module_id@?A0x679b24ab@@B 000000018001b6b0     libvcruntime:winapi_downlevel.obj
 0002:000006c8       ?candidate_modules@?1??try_get_InitializeCriticalSectionEx@@YAP6AHPEAU_RTL_CRITICAL_SECTION@@KK@ZXZ@4QBW4module_id@?A0x679b24ab@@B 000000018001b6c8     libvcruntime:winapi_downlevel.obj
 0002:000006f0       ?tokenTable@@3QBQEBDB      000000018001b6f0     libvcruntime:undname.obj
 0002:00000760       ?nameTable@@3QBQEBDB       000000018001b760     libvcruntime:undname.obj
 0002:000009e8       ?rttiTable@@3QBQEBDB       000000018001b9e8     libvcruntime:undname.obj
 0002:00001070       errtable                   000000018001c070     libucrt:errno.obj
 0002:000015c0       __acrt_initializers        000000018001c5c0     libucrt:initialization.obj
 0002:00002ae0       module_names               000000018001dae0     libucrt:winapi_thunks.obj
 0002:00003010       ?candidate_modules@?1??try_get_AreFileApisANSI@@YAP6AHXZXZ@4QBW4module_id@?A0x63058377@@B 000000018001e010     libucrt:winapi_thunks.obj
 0002:00003028       ?candidate_modules@?1??try_get_FlsAlloc@@YAP6AKP6AXPEAX@Z@ZXZ@4QBW4module_id@?A0x63058377@@B 000000018001e028     libucrt:winapi_thunks.obj
 0002:00003030       ?candidate_modules@?1??try_get_FlsFree@@YAP6AHK@ZXZ@4QBW4module_id@?A0x63058377@@B 000000018001e030     libucrt:winapi_thunks.obj
 0002:00003038       ?candidate_modules@?1??try_get_FlsGetValue@@YAP6APEAXK@ZXZ@4QBW4module_id@?A0x63058377@@B 000000018001e038     libucrt:winapi_thunks.obj
 0002:00003040       ?candidate_modules@?1??try_get_FlsSetValue@@YAP6AHKPEAX@ZXZ@4QBW4module_id@?A0x63058377@@B 000000018001e040     libucrt:winapi_thunks.obj
 0002:00003048       ?candidate_modules@?1??try_get_GetActiveWindow@@YAP6APEAUHWND__@@XZXZ@4QBW4module_id@?A0x63058377@@B 000000018001e048     libucrt:winapi_thunks.obj
 0002:00003060       ?candidate_modules@?1??try_get_GetCurrentPackageId@@YAP6AJPEAIPEAE@ZXZ@4QBW4module_id@?A0x63058377@@B 000000018001e060     libucrt:winapi_thunks.obj
 0002:00003080       ?candidate_modules@?1??try_get_GetLastActivePopup@@YAP6APEAUHWND__@@PEAU2@@ZXZ@4QBW4module_id@?A0x63058377@@B 000000018001e080     libucrt:winapi_thunks.obj
 0002:000030a0       ?candidate_modules@?1??try_get_GetProcessWindowStation@@YAP6APEAUHWINSTA__@@XZXZ@4QBW4module_id@?A0x63058377@@B 000000018001e0a0     libucrt:winapi_thunks.obj
 0002:000030c0       ?candidate_modules@?1??try_get_GetUserObjectInformationW@@YAP6AHPEAXH0KPEAK@ZXZ@4QBW4module_id@?A0x63058377@@B 000000018001e0c0     libucrt:winapi_thunks.obj
 0002:000030e8       ?candidate_modules@?1??try_get_InitializeCriticalSectionEx@@YAP6AHPEAU_RTL_CRITICAL_SECTION@@KK@ZXZ@4QBW4module_id@?A0x63058377@@B 000000018001e0e8     libucrt:winapi_thunks.obj
 0002:000030f0       ?candidate_modules@?1??try_get_LCMapStringEx@@YAP6AHPEB_WK0HPEA_WHPEAU_nlsversioninfo@@PEAX_J@ZXZ@4QBW4module_id@?A0x63058377@@B 000000018001e0f0     libucrt:winapi_thunks.obj
 0002:00003108       ?candidate_modules@?1??try_get_LocaleNameToLCID@@YAP6AKPEB_WK@ZXZ@4QBW4module_id@?A0x63058377@@B 000000018001e108     libucrt:winapi_thunks.obj
 0002:00003128       ?candidate_modules@?1??try_get_MessageBoxA@@YAP6AHPEAUHWND__@@PEBD1I@ZXZ@4QBW4module_id@?A0x63058377@@B 000000018001e128     libucrt:winapi_thunks.obj
 0002:00003140       ?candidate_modules@?1??try_get_MessageBoxW@@YAP6AHPEAUHWND__@@PEB_W1I@ZXZ@4QBW4module_id@?A0x63058377@@B 000000018001e140     libucrt:winapi_thunks.obj
 0002:00003158       _mb_locale_names           000000018001e158     libucrt:mbctype.obj
 0002:00003220       LcidToLocaleNameTable      000000018001e220     libucrt:lcidtoname_downlevel.obj
 0002:00004c80       LocaleNameToIndexTable     000000018001fc80     libucrt:lcidtoname_downlevel.obj
 0002:00006f30       __real_ninf                0000000180021f30     libucrt:log10.obj
 0002:00006f40       __real_inf                 0000000180021f40     libucrt:log10.obj
 0002:00006f50       __real_neg_qnan            0000000180021f50     libucrt:log10.obj
 0002:00006f60       __real_qnanbit             0000000180021f60     libucrt:log10.obj
 0002:00006f70       __int_1023                 0000000180021f70     libucrt:log10.obj
 0002:00006f80       __mask_001                 0000000180021f80     libucrt:log10.obj
 0002:00006f90       __mask_mant                0000000180021f90     libucrt:log10.obj
 0002:00006fa0       __mask_mant_top8           0000000180021fa0     libucrt:log10.obj
 0002:00006fb0       __mask_mant9               0000000180021fb0     libucrt:log10.obj
 0002:00006fc0       __real_log10_e             0000000180021fc0     libucrt:log10.obj
 0002:00006fd0       __real_log10_e_lead        0000000180021fd0     libucrt:log10.obj
 0002:00006fe0       __real_log10_e_tail        0000000180021fe0     libucrt:log10.obj
 0002:00006ff0       __real_log10_2_lead        0000000180021ff0     libucrt:log10.obj
 0002:00007000       __real_log10_2_tail        0000000180022000     libucrt:log10.obj
 0002:00007010       __real_two                 0000000180022010     libucrt:log10.obj
 0002:00007020       __real_one                 0000000180022020     libucrt:log10.obj
 0002:00007030       __real_half                0000000180022030     libucrt:log10.obj
 0002:00007040       __mask_100                 0000000180022040     libucrt:log10.obj
 0002:00007050       __real_1_over_512          0000000180022050     libucrt:log10.obj
 0002:00007060       __real_1_over_2            0000000180022060     libucrt:log10.obj
 0002:00007070       __real_1_over_3            0000000180022070     libucrt:log10.obj
 0002:00007080       __real_1_over_4            0000000180022080     libucrt:log10.obj
 0002:00007090       __real_1_over_5            0000000180022090     libucrt:log10.obj
 0002:000070a0       __real_1_over_6            00000001800220a0     libucrt:log10.obj
 0002:000070b0       __real_neg_1023            00000001800220b0     libucrt:log10.obj
 0002:000070c0       __mask_2045                00000001800220c0     libucrt:log10.obj
 0002:000070d0       __real_threshold           00000001800220d0     libucrt:log10.obj
 0002:000070e0       __real_near_one_lt         00000001800220e0     libucrt:log10.obj
 0002:000070f0       __real_near_one_gt         00000001800220f0     libucrt:log10.obj
 0002:00007100       __real_min_norm            0000000180022100     libucrt:log10.obj
 0002:00007110       __real_notsign             0000000180022110     libucrt:log10.obj
 0002:00007120       __real_ca1                 0000000180022120     libucrt:log10.obj
 0002:00007130       __real_ca2                 0000000180022130     libucrt:log10.obj
 0002:00007140       __real_ca3                 0000000180022140     libucrt:log10.obj
 0002:00007150       __real_ca4                 0000000180022150     libucrt:log10.obj
 0002:00007160       __mask_lower               0000000180022160     libucrt:log10.obj
 0002:00007170       __flag_x_zero              0000000180022170     libucrt:log10.obj
 0002:00007174       __flag_x_neg               0000000180022174     libucrt:log10.obj
 0002:00007178       __flag_x_nan               0000000180022178     libucrt:log10.obj
 0002:000089c0       __real@433fffffffffffff    00000001800239c0     libucrt:fpsr.obj
 0002:000089c8       __real@c33fffffffffffff    00000001800239c8     libucrt:fpsr.obj
 0002:00009648       $unwind$iswctype           0000000180024648     libucrt:iswctype.obj
 0002:00009648       $unwind$__acrt_is_packaged_app 0000000180024648     libucrt:winapi_thunks.obj
 0002:00009648       $unwind$copyName           0000000180024648     readtags.obj
 0002:00009654       $chain$0$copyName          0000000180024654     readtags.obj
 0002:00009668       $chain$1$copyName          0000000180024668     readtags.obj
 0002:00009678       $unwind$__acrt_execute_initializers 0000000180024678     libucrt:shared_initialization.obj
 0002:00009678       $unwind$?find_or_allocate_unused_stream_nolock@@YA?AV__crt_stdio_stream@@XZ 0000000180024678     libucrt:stream.obj
 0002:00009678       $unwind$?setSBCS@@YAXPEAU__crt_multibyte_data@@@Z 0000000180024678     libucrt:mbctype.obj
 0002:00009678       $unwind$_recalloc_base     0000000180024678     libucrt:recalloc.obj
 0002:00009678       $unwind$_wassert           0000000180024678     libucrt:assert.obj
 0002:00009678       $unwind$readTagLine        0000000180024678     readtags.obj
 0002:00009678       $unwind$findFirstNonMatchBefore 0000000180024678     readtags.obj
 0002:00009678       $unwind$__acrt_lowio_create_handle_array 0000000180024678     libucrt:osfinfo.obj
 0002:00009678       $unwind$__acrt_free_locale 0000000180024678     libucrt:locale_refcounting.obj
 0002:00009678       $unwind$?expand_if_necessary@?$argument_list@D@?A0xca0879c4@@AEAAHXZ 0000000180024678     libucrt:argv_wildcards.obj
 0002:00009678       $unwind$??$ensure_buffer_is_big_enough@D@formatting_buffer@__crt_stdio_output@@QEAA_N_K@Z 0000000180024678     libucrt:output.obj
 0002:00009678       $unwind$_seh_filter_exe    0000000180024678     libucrt:exception_filter.obj
 0002:00009678       $unwind$?dllmain_raw@@YAHQEAUHINSTANCE__@@KQEAX@Z 0000000180024678     LIBCMT:dll_dllmain.obj
 0002:00009678       $unwind$__vcrt_InitializeCriticalSectionEx 0000000180024678     libvcruntime:winapi_downlevel.obj
 0002:00009678       $unwind$__scrt_dllmain_exception_filter 0000000180024678     LIBCMT:utility.obj
 0002:00009678       $unwind$__acrt_InitializeCriticalSectionEx 0000000180024678     libucrt:winapi_thunks.obj
 0002:0000968c       $unwind$parseExtensionFields 000000018002468c     readtags.obj
 0002:00009698       $chain$4$parseExtensionFields 0000000180024698     readtags.obj
 0002:000096bc       $chain$5$parseExtensionFields 00000001800246bc     readtags.obj
 0002:000096cc       $unwind$parseTagLine       00000001800246cc     readtags.obj
 0002:000096d8       $chain$1$parseTagLine      00000001800246d8     readtags.obj
 0002:000096f0       $chain$2$parseTagLine      00000001800246f0     readtags.obj
 0002:00009704       $chain$3$parseTagLine      0000000180024704     readtags.obj
 0002:00009714       $chain$4$parseTagLine      0000000180024714     readtags.obj
 0002:00009728       $chain$5$parseTagLine      0000000180024728     readtags.obj
 0002:00009738       $unwind$readPseudoTags     0000000180024738     readtags.obj
 0002:00009748       $chain$0$readPseudoTags    0000000180024748     readtags.obj
 0002:0000975c       $chain$1$readPseudoTags    000000018002475c     readtags.obj
 0002:0000976c       $unwind$initialize         000000018002476c     readtags.obj
 0002:0000977c       $chain$1$initialize        000000018002477c     readtags.obj
 0002:00009794       $chain$2$initialize        0000000180024794     readtags.obj
 0002:000097a8       $chain$3$initialize        00000001800247a8     readtags.obj
 0002:000097b8       $unwind$?Ref@ObjectWrap@node@@MEAAXXZ 00000001800247b8     tags.obj
 0002:000097b8       $unwind$?WeakCallback@ObjectWrap@node@@CAXAEBV?$WeakCallbackInfo@VObjectWrap@node@@@v8@@@Z 00000001800247b8     tags.obj
 0002:000097b8       $unwind$?Unref@ObjectWrap@node@@MEAAXXZ 00000001800247b8     tags.obj
 0002:000097b8       $unwind$?type_case_integer@?$output_processor@_WV?$string_output_adapter@_W@__crt_stdio_output@@V?$standard_base@_WV?$string_output_adapter@_W@__crt_stdio_output@@@2@@__crt_stdio_output@@AEAA_NI_N@Z 00000001800247b8     libucrt:output.obj
 0002:000097b8       $unwind$??_Gtype_info@@UEAAPEAXI@Z 00000001800247b8     LIBCMT:std_type_info_static.obj
 0002:000097b8       $unwind$__vcrt_freeptd     00000001800247b8     libvcruntime:per_thread_data.obj
 0002:000097b8       $unwind$__raise_securityfailure 00000001800247b8     LIBCMT:gs_report.obj
 0002:000097b8       $unwind$??2@YAPEAX_K@Z     00000001800247b8     LIBCMT:new_scalar.obj
 0002:000097b8       $unwind$??0exception@std@@QEAA@AEBV01@@Z 00000001800247b8     LIBCMT:throw_bad_alloc.obj
 0002:000097b8       $unwind$_purecall          00000001800247b8     libvcruntime:purevirt.obj
 0002:000097b8       $unwind$??0bad_alloc@std@@QEAA@AEBV01@@Z 00000001800247b8     LIBCMT:throw_bad_alloc.obj
 0002:000097b8       $unwind$__vcrt_uninitialize_locks 00000001800247b8     libvcruntime:locks.obj
 0002:000097b8       $unwind$__vcrt_initialize_locks 00000001800247b8     libvcruntime:locks.obj
 0002:000097b8       $unwind$??0bad_array_new_length@std@@QEAA@AEBV01@@Z 00000001800247b8     LIBCMT:throw_bad_alloc.obj
 0002:000097b8       $unwind$??0?$output_processor@_WV?$string_output_adapter@_W@__crt_stdio_output@@V?$standard_base@_WV?$string_output_adapter@_W@__crt_stdio_output@@@2@@__crt_stdio_output@@QEAA@AEBV?$string_output_adapter@_W@1@_KQEB_WQEAU__crt_locale_pointers@@QEAD@Z 00000001800247b8     libucrt:output.obj
 0002:000097b8       $unwind$__acrt_uninitialize_winapi_thunks 00000001800247b8     libucrt:winapi_thunks.obj
 0002:000097b8       $unwind$_clearfp           00000001800247b8     libucrt:ieee.obj
 0002:000097b8       $unwind$_clrfp             00000001800247b8     libucrt:fpctrl.obj
 0002:000097b8       $unwind$__acrt_AreFileApisANSI 00000001800247b8     libucrt:winapi_thunks.obj
 0002:000097b8       $unwind$_set_statfp        00000001800247b8     libucrt:fpctrl.obj
 0002:000097b8       $unwind$__acrt_stdio_free_buffer_nolock 00000001800247b8     libucrt:_freebuf.obj
 0002:000097b8       $unwind$?exit_or_terminate_process@@YAXI@Z 00000001800247b8     libucrt:exit.obj
 0002:000097b8       $unwind$__acrt_stdio_allocate_buffer_nolock 00000001800247b8     libucrt:_getbuf.obj
 0002:000097b8       $unwind$_onexit            00000001800247b8     LIBCMT:utility.obj
 0002:000097b8       $unwind$__acrt_uninitialize_stdio 00000001800247b8     libucrt:_file.obj
 0002:000097b8       $unwind$terminate          00000001800247b8     readtags.obj
 0002:000097b8       $unwind$__std_type_info_destroy_list 00000001800247b8     libvcruntime:std_type_info.obj
 0002:000097b8       $unwind$initialize_pointers 00000001800247b8     libucrt:initialization.obj
 0002:000097b8       $unwind$__std_exception_destroy 00000001800247b8     libvcruntime:std_exception.obj
 0002:000097b8       $unwind$uninitialize_allocated_memory 00000001800247b8     libucrt:initialization.obj
 0002:000097b8       $unwind$_fflush_nolock     00000001800247b8     libucrt:fflush.obj
 0002:000097b8       $unwind$__scrt_release_startup_lock 00000001800247b8     LIBCMT:utility.obj
 0002:000097b8       $unwind$__acrt_can_show_message_box 00000001800247b8     libucrt:winapi_thunks.obj
 0002:000097b8       $unwind$__scrt_initialize_crt 00000001800247b8     LIBCMT:utility.obj
 0002:000097b8       $unwind$??0?$output_processor@_WV?$stream_output_adapter@_W@__crt_stdio_output@@V?$standard_base@_WV?$stream_output_adapter@_W@__crt_stdio_output@@@2@@__crt_stdio_output@@QEAA@AEBV?$stream_output_adapter@_W@1@_KQEB_WQEAU__crt_locale_pointers@@QEAD@Z 00000001800247b8     libucrt:output.obj
 0002:000097b8       $unwind$__scrt_uninitialize_crt 00000001800247b8     LIBCMT:utility.obj
 0002:000097b8       $unwind$?_Tidy@?$vector@VTag@@V?$allocator@VTag@@@std@@@std@@IEAAXXZ 00000001800247b8     tags.obj
 0002:000097b8       $unwind$?_Reserve@?$vector@VTag@@V?$allocator@VTag@@@std@@@std@@IEAAX_K@Z 00000001800247b8     tag-finder.obj
 0002:000097b8       $unwind$strcpy_s           00000001800247b8     libucrt:strcpy_s.obj
 0002:000097b8       $unwind$??1?$basic_string@DU?$char_traits@D@std@@V?$allocator@D@2@@std@@QEAA@XZ 00000001800247b8     tags.obj
 0002:000097b8       $unwind$?End@Tags@@CAXAEBV?$FunctionCallbackInfo@VValue@v8@@@Nan@@@Z 00000001800247b8     tags.obj
 0002:000097b8       $unwind$?Exists@Tags@@CAXAEBV?$FunctionCallbackInfo@VValue@v8@@@Nan@@@Z 00000001800247b8     tags.obj
 0002:000097b8       $unwind$wcscat_s           00000001800247b8     libucrt:wcscat_s.obj
 0002:000097b8       $unwind$__acrt_fp_strflt_to_string 00000001800247b8     libucrt:_fptostr.obj
 0002:000097b8       $unwind$_setfpstatusword   00000001800247b8     libucrt:_fenvutils.obj
 0002:000097b8       $unwind$__acrt_initialize_locks 00000001800247b8     libucrt:locks.obj
 0002:000097b8       $unwind$__acrt_freeptd     00000001800247b8     libucrt:per_thread_data.obj
 0002:000097b8       $unwind$?type_case_integer@?$output_processor@_WV?$stream_output_adapter@_W@__crt_stdio_output@@V?$standard_base@_WV?$stream_output_adapter@_W@__crt_stdio_output@@@2@@__crt_stdio_output@@AEAA_NI_N@Z 00000001800247b8     libucrt:output.obj
 0002:000097b8       $unwind$wcscpy_s           00000001800247b8     libucrt:wcscpy_s.obj
 0002:000097b8       $unwind$?New@Tags@@CAXAEBV?$FunctionCallbackInfo@VValue@v8@@@Nan@@@Z 00000001800247b8     tags.obj
 0002:000097b8       $unwind$fegetenv           00000001800247b8     libucrt:fegetenv.obj
 0002:000097b8       $unwind$feholdexcept       00000001800247b8     libucrt:feholdexcept.obj
 0002:000097b8       $unwind$??0out_of_range@std@@QEAA@AEBV01@@Z 00000001800247b8     libcpmt:xthrow.obj
 0002:000097b8       $unwind$_malloc_base       00000001800247b8     libucrt:malloc_base.obj
 0002:000097b8       $unwind$fesetenv           00000001800247b8     libucrt:fesetenv.obj
 0002:000097b8       $unwind$__acrt_update_locale_info 00000001800247b8     libucrt:locale_update.obj
 0002:000097b8       $unwind$__acrt_update_multibyte_info 00000001800247b8     libucrt:locale_update.obj
 0002:000097b8       $unwind$_calloc_base       00000001800247b8     libucrt:calloc_base.obj
 0002:000097b8       $unwind$__acrt_allocate_buffer_for_argv 00000001800247b8     libucrt:argv_parsing.obj
 0002:000097b8       $unwind$??0length_error@std@@QEAA@AEBV01@@Z 00000001800247b8     libcpmt:xthrow.obj
 0002:000097b8       $unwind$??1Tags@@EEAA@XZ   00000001800247b8     tags.obj
 0002:000097b8       $unwind$__acrt_uninitialize_locks 00000001800247b8     libucrt:locks.obj
 0002:000097b8       $unwind$??0logic_error@std@@QEAA@AEBV01@@Z 00000001800247b8     libcpmt:xthrow.obj
 0002:000097b8       $unwind$?AsyncExecuteComplete@Nan@@YAXPEAUuv_work_s@@@Z 00000001800247b8     tags.obj
 0002:000097b8       $unwind$??$message_box_wait_thread@_W@@YAKQEAX@Z 00000001800247b8     libucrt:crtmbox.obj
 0002:000097c0       $unwind$??$uninitialize_environment_internal@D@@YAXAEAPEAPEAD@Z 00000001800247c0     libucrt:environment_initialization.obj
 0002:000097c0       $unwind$_set_errno_from_matherr 00000001800247c0     libucrt:fpexcept.obj
 0002:000097c0       $unwind$__doserrno         00000001800247c0     libucrt:errno.obj
 0002:000097c0       $unwind$_errno             00000001800247c0     libucrt:errno.obj
 0002:000097c0       $unwind$_fileno            00000001800247c0     libucrt:fileno.obj
 0002:000097c0       $unwind$_msize             00000001800247c0     libucrt:msize.obj
 0002:000097c0       $unwind$_invoke_watson     00000001800247c0     libucrt:invalid_parameter.obj
 0002:000097c0       $unwind$?state_case_size@?$output_processor@_WV?$stream_output_adapter@_W@__crt_stdio_output@@V?$standard_base@_WV?$stream_output_adapter@_W@__crt_stdio_output@@@2@@__crt_stdio_output@@AEAA_NXZ 00000001800247c0     libucrt:output.obj
 0002:000097c0       $unwind$?validate_stream_is_ansi_if_required@?$__acrt_stdio_char_traits@D@@SA_NQEAU_iobuf@@@Z 00000001800247c0     libucrt:fgets.obj
 0002:000097c0       $unwind$_set_error_mode    00000001800247c0     libucrt:set_error_mode.obj
 0002:000097c0       $unwind$fsetpos            00000001800247c0     libucrt:fsetpos.obj
 0002:000097c0       $unwind$_getfpstatusword   00000001800247c0     libucrt:_fenvutils.obj
 0002:000097c0       $unwind$__scrt_dllmain_crt_thread_detach 00000001800247c0     LIBCMT:utility.obj
 0002:000097c0       $unwind$_getfpcontrolword  00000001800247c0     libucrt:_fenvutils.obj
 0002:000097c0       $unwind$__scrt_dllmain_crt_thread_attach 00000001800247c0     LIBCMT:utility.obj
 0002:000097c0       $unwind$abort              00000001800247c0     libucrt:abort.obj
 0002:000097c0       $unwind$__dcrt_terminate_console_output 00000001800247c0     libucrt:initcon.obj
 0002:000097c0       $unwind$__scrt_dllmain_uninitialize_critical 00000001800247c0     LIBCMT:utility.obj
 0002:000097c0       $unwind$__acrt_initialize_command_line 00000001800247c0     libucrt:argv_data.obj
 0002:000097c0       $unwind$??$uninitialize_environment_internal@_W@@YAXAEAPEAPEA_W@Z 00000001800247c0     libucrt:environment_initialization.obj
 0002:000097c0       $unwind$_strnicmp          00000001800247c0     libucrt:strnicmp.obj
 0002:000097c0       $unwind$_fgetc_nolock      00000001800247c0     libucrt:fgetc.obj
 0002:000097c0       $unwind$__scrt_dllmain_uninitialize_c 00000001800247c0     LIBCMT:utility.obj
 0002:000097c0       $unwind$toupper            00000001800247c0     libucrt:tolower_toupper.obj
 0002:000097c0       $unwind$__scrt_dllmain_after_initialize_c 00000001800247c0     LIBCMT:utility.obj
 0002:000097c0       $unwind$__scrt_dllmain_before_initialize_c 00000001800247c0     LIBCMT:utility.obj
 0002:000097c0       $unwind$__acrt_uninitialize_ptd 00000001800247c0     libucrt:per_thread_data.obj
 0002:000097c0       $unwind$__dcrt_uninitialize_environments_nolock 00000001800247c0     libucrt:environment_initialization.obj
 0002:000097c0       $unwind$tolower            00000001800247c0     libucrt:tolower_toupper.obj
 0002:000097c0       $unwind$__acrt_initialize_ptd 00000001800247c0     libucrt:per_thread_data.obj
 0002:000097c0       $unwind$__acrt_initialize_multibyte 00000001800247c0     libucrt:mbctype.obj
 0002:000097c0       $unwind$__acrt_release_locale_ref 00000001800247c0     libucrt:locale_refcounting.obj
 0002:000097c0       $unwind$_isatty            00000001800247c0     libucrt:isatty.obj
 0002:000097c0       $unwind$__scrt_acquire_startup_lock 00000001800247c0     LIBCMT:utility.obj
 0002:000097c0       $unwind$?initialize_multibyte@@YAHXZ 00000001800247c0     libucrt:multibyte_initializer.obj
 0002:000097c0       $unwind$_statfp            00000001800247c0     libucrt:fpctrl.obj
 0002:000097c0       $unwind$?state_case_size@?$output_processor@_WV?$string_output_adapter@_W@__crt_stdio_output@@V?$standard_base@_WV?$string_output_adapter@_W@__crt_stdio_output@@@2@@__crt_stdio_output@@AEAA_NXZ 00000001800247c0     libucrt:output.obj
 0002:000097c0       $unwind$__acrt_initialize_heap 00000001800247c0     libucrt:heap_handle.obj
 0002:000097c0       $unwind$__GSHandlerCheck   00000001800247c0     LIBCMT:_gshandler_.obj
 0002:000097c0       $unwind$uninitialize_environment 00000001800247c0     libucrt:initialization.obj
 0002:000097c0       $unwind$nameComparison     00000001800247c0     readtags.obj
 0002:000097c0       $unwind$__vcrt_initialize  00000001800247c0     libvcruntime:initialization.obj
 0002:000097c0       $unwind$atexit             00000001800247c0     LIBCMT:utility.obj
 0002:000097c0       $unwind$__vcrt_uninitialize 00000001800247c0     libvcruntime:initialization.obj
 0002:000097c0       $unwind$feof               00000001800247c0     libucrt:feoferr.obj
 0002:000097c0       $unwind$__vcrt_uninitialize_critical 00000001800247c0     libvcruntime:initialization.obj
 0002:000097c0       $unwind$initialize_c       00000001800247c0     libucrt:initialization.obj
 0002:000097c0       $unwind$__vcrt_thread_attach 00000001800247c0     libvcruntime:initialization.obj
 0002:000097c0       $unwind$__acrt_thread_detach 00000001800247c0     libucrt:initialization.obj
 0002:000097c0       $unwind$__vcrt_thread_detach 00000001800247c0     libvcruntime:initialization.obj
 0002:000097c0       $unwind$__acrt_thread_attach 00000001800247c0     libucrt:initialization.obj
 0002:000097c0       $unwind$__report_rangecheckfailure 00000001800247c0     LIBCMT:gs_report.obj
 0002:000097c0       $unwind$__acrt_uninitialize_critical 00000001800247c0     libucrt:initialization.obj
 0002:000097c0       $unwind$__acrt_DownlevelLocaleNameToLCID 00000001800247c0     libucrt:lcidtoname_downlevel.obj
 0002:000097c0       $unwind$__scrt_initialize_default_local_stdio_options 00000001800247c0     LIBCMT:default_local_stdio_options.obj
 0002:000097c0       $unwind$?dllmain_crt_dispatch@@YAHQEAUHINSTANCE__@@KQEAX@Z 00000001800247c0     LIBCMT:dll_dllmain.obj
 0002:000097c0       $unwind$__pctype_func      00000001800247c0     libucrt:ctype.obj
 0002:000097c0       $unwind$_get_fmode         00000001800247c0     libucrt:setmode.obj
 0002:000097c0       $unwind$_get_osfhandle     00000001800247c0     libucrt:osfinfo.obj
 0002:000097c0       $unwind$__vcrt_initialize_ptd 00000001800247c0     libvcruntime:per_thread_data.obj
 0002:000097c0       $unwind$__vcrt_freefls     00000001800247c0     libvcruntime:per_thread_data.obj
 0002:000097c0       $unwind$__vcrt_uninitialize_ptd 00000001800247c0     libvcruntime:per_thread_data.obj
 0002:000097c8       $chain$2$nameComparison    00000001800247c8     readtags.obj
 0002:000097e4       $chain$3$nameComparison    00000001800247e4     readtags.obj
 0002:000097f8       $chain$4$nameComparison    00000001800247f8     readtags.obj
 0002:00009808       $chain$6$nameComparison    0000000180024808     readtags.obj
 0002:00009824       $chain$7$nameComparison    0000000180024824     readtags.obj
 0002:00009834       $unwind$findFirstMatchBefore 0000000180024834     readtags.obj
 0002:00009834       $unwind$?GetTags@Tags@@CAXAEBV?$FunctionCallbackInfo@VValue@v8@@@Nan@@@Z 0000000180024834     tags.obj
 0002:0000984c       $unwind$findBinary         000000018002484c     readtags.obj
 0002:00009868       $unwind$_chsize_nolock     0000000180024868     libucrt:chsize.obj
 0002:00009868       $unwind$find               0000000180024868     readtags.obj
 0002:00009868       $unwind$??0Tag@@QEAA@UtagEntry@@@Z 0000000180024868     tag-finder.obj
 0002:00009880       $unwind$??$free_environment@_W@@YAXQEAPEA_W@Z 0000000180024880     libucrt:environment_initialization.obj
 0002:00009880       $unwind$??$free_environment@D@@YAXQEAPEAD@Z 0000000180024880     libucrt:environment_initialization.obj
 0002:00009880       $unwind$?Wrap@ObjectWrap@node@@IEAAXV?$Local@VObject@v8@@@v8@@@Z 0000000180024880     tags.obj
 0002:0000988c       $unwind$__vcrt_FlsGetValue 000000018002488c     libvcruntime:winapi_downlevel.obj
 0002:0000988c       $unwind$__acrt_invoke_user_matherr 000000018002488c     libucrt:matherr.obj
 0002:0000988c       $unwind$_callnewh          000000018002488c     libucrt:new_handler.obj
 0002:0000988c       $unwind$??_Gout_of_range@std@@UEAAPEAXI@Z 000000018002488c     libcpmt:xthrow.obj
 0002:0000988c       $unwind$__acrt_FlsGetValue 000000018002488c     libucrt:winapi_thunks.obj
 0002:0000988c       $unwind$fgetpos            000000018002488c     libucrt:fgetpos.obj
 0002:0000988c       $unwind$__acrt_FlsAlloc    000000018002488c     libucrt:winapi_thunks.obj
 0002:0000988c       $unwind$??_Gbad_array_new_length@std@@UEAAPEAXI@Z 000000018002488c     LIBCMT:throw_bad_alloc.obj
 0002:0000988c       $unwind$wcsncat_s          000000018002488c     libucrt:wcsncat_s.obj
 0002:0000988c       $unwind$??0?$basic_string@DU?$char_traits@D@std@@V?$allocator@D@2@@std@@QEAA@$$QEAV01@@Z 000000018002488c     tag-finder.obj
 0002:0000988c       $unwind$__acrt_getptd      000000018002488c     libucrt:per_thread_data.obj
 0002:0000988c       $unwind$__vcrt_FlsAlloc    000000018002488c     libvcruntime:winapi_downlevel.obj
 0002:0000988c       $unwind$__vcrt_FlsFree     000000018002488c     libvcruntime:winapi_downlevel.obj
 0002:0000988c       $unwind$__acrt_FlsFree     000000018002488c     libucrt:winapi_thunks.obj
 0002:0000988c       $unwind$??_Gbad_alloc@std@@UEAAPEAXI@Z 000000018002488c     LIBCMT:throw_bad_alloc.obj
 0002:0000988c       $unwind$??_GAsyncWorker@Nan@@UEAAPEAXI@Z 000000018002488c     tags.obj
 0002:0000988c       $unwind$??$common_initialize_environment_nolock@D@@YAHXZ 000000018002488c     libucrt:environment_initialization.obj
 0002:0000988c       $unwind$??_Gexception@std@@UEAAPEAXI@Z 000000018002488c     LIBCMT:throw_bad_alloc.obj
 0002:0000988c       $unwind$_fclose_nolock     000000018002488c     libucrt:fclose.obj
 0002:0000988c       $unwind$?try_cor_exit_process@@YAXI@Z 000000018002488c     libucrt:exit.obj
 0002:0000988c       $unwind$??_GObjectWrap@node@@UEAAPEAXI@Z 000000018002488c     tags.obj
 0002:0000988c       $unwind$??_GTagFinder@@UEAAPEAXI@Z 000000018002488c     tags.obj
 0002:0000988c       $unwind$_realloc_base      000000018002488c     libucrt:realloc_base.obj
 0002:0000988c       $unwind$strncpy_s          000000018002488c     libucrt:strncpy_s.obj
 0002:0000988c       $unwind$??_GTags@@EEAAPEAXI@Z 000000018002488c     tags.obj
 0002:0000988c       $unwind$__acrt_errno_map_os_error 000000018002488c     libucrt:errno.obj
 0002:0000988c       $unwind$??_Glength_error@std@@UEAAPEAXI@Z 000000018002488c     libcpmt:xthrow.obj
 0002:0000988c       $unwind$__acrt_stdio_begin_temporary_buffering_nolock 000000018002488c     libucrt:_sftbuf.obj
 0002:0000988c       $unwind$__acrt_get_parent_window 000000018002488c     libucrt:winapi_thunks.obj
 0002:0000988c       $unwind$??_GTagReader@@UEAAPEAXI@Z 000000018002488c     tags.obj
 0002:0000988c       $unwind$??_Glogic_error@std@@UEAAPEAXI@Z 000000018002488c     libcpmt:xthrow.obj
 0002:0000988c       $unwind$??0_LocaleUpdate@@QEAA@QEAU__crt_locale_pointers@@@Z 000000018002488c     libucrt:tolower_toupper.obj
 0002:0000988c       $unwind$??$common_xtox@K_W@@YAHKQEA_W_KI_N@Z 000000018002488c     libucrt:xtoa.obj
 0002:0000988c       $unwind$_updatetlocinfoEx_nolock 000000018002488c     libucrt:locale_refcounting.obj
 0002:0000988c       $unwind$?internal_islower_l@@YA_NHQEAU__crt_locale_pointers@@@Z 000000018002488c     libucrt:tolower_toupper.obj
 0002:0000988c       $unwind$_close_nolock      000000018002488c     libucrt:close.obj
 0002:0000988c       $unwind$?replace_current_thread_locale_nolock@@YAXQEAU__acrt_ptd@@QEAU__crt_locale_data@@@Z 000000018002488c     libucrt:per_thread_data.obj
 0002:0000988c       $unwind$?force_decimal_point@__crt_stdio_output@@YAXPEADQEAU__crt_locale_pointers@@@Z 000000018002488c     libucrt:output.obj
 0002:0000988c       $unwind$?internal_isupper_l@@YA_NHQEAU__crt_locale_pointers@@@Z 000000018002488c     libucrt:tolower_toupper.obj
 0002:0000988c       $unwind$__acrt_uninitialize_lowio 000000018002488c     libucrt:ioinit.obj
 0002:0000988c       $unwind$?erase@?$basic_string@DU?$char_traits@D@std@@V?$allocator@D@2@@std@@QEAAAEAV12@_K0@Z 000000018002488c     tags.obj
 0002:00009898       $unwind$?FunctionCallbackWrapper@imp@Nan@@YAXAEBV?$FunctionCallbackInfo@VValue@v8@@@v8@@@Z 0000000180024898     tags.obj
 0002:000098a8       $unwind$?New@?$Factory@VFunctionTemplate@v8@@@imp@Nan@@SA?AV?$Local@VFunctionTemplate@v8@@@v8@@P6AXAEBV?$FunctionCallbackInfo@VValue@v8@@@3@@ZV?$Local@VValue@v8@@@5@V?$Local@VSignature@v8@@@5@@Z 00000001800248a8     tags.obj
 0002:000098b8       $chain$0$?New@?$Factory@VFunctionTemplate@v8@@@imp@Nan@@SA?AV?$Local@VFunctionTemplate@v8@@@v8@@P6AXAEBV?$FunctionCallbackInfo@VValue@v8@@@3@@ZV?$Local@VValue@v8@@@5@V?$Local@VSignature@v8@@@5@@Z 00000001800248b8     tags.obj
 0002:000098cc       $chain$1$?New@?$Factory@VFunctionTemplate@v8@@@imp@Nan@@SA?AV?$Local@VFunctionTemplate@v8@@@v8@@P6AXAEBV?$FunctionCallbackInfo@VValue@v8@@@3@@ZV?$Local@VValue@v8@@@5@V?$Local@VSignature@v8@@@5@@Z 00000001800248cc     tags.obj
 0002:000098e0       $chain$2$?New@?$Factory@VFunctionTemplate@v8@@@imp@Nan@@SA?AV?$Local@VFunctionTemplate@v8@@@v8@@P6AXAEBV?$FunctionCallbackInfo@VValue@v8@@@3@@ZV?$Local@VValue@v8@@@5@V?$Local@VSignature@v8@@@5@@Z 00000001800248e0     tags.obj
 0002:000098f0       $chain$3$?New@?$Factory@VFunctionTemplate@v8@@@imp@Nan@@SA?AV?$Local@VFunctionTemplate@v8@@@v8@@P6AXAEBV?$FunctionCallbackInfo@VValue@v8@@@3@@ZV?$Local@VValue@v8@@@5@V?$Local@VSignature@v8@@@5@@Z 00000001800248f0     tags.obj
 0002:00009900       $unwind$?Call@Callback@Nan@@QEBA?AV?$Local@VValue@v8@@@v8@@HQEAV34@@Z 0000000180024900     tags.obj
 0002:00009914       $unwind$??0AsyncWorker@Nan@@QEAA@PEAVCallback@1@@Z 0000000180024914     tags.obj
 0002:00009920       $unwind$?WorkComplete@AsyncWorker@Nan@@UEAAXXZ 0000000180024920     tags.obj
 0002:00009920       $unwind$??1AsyncWorker@Nan@@UEAA@XZ 0000000180024920     tags.obj
 0002:00009920       $unwind$_mbsdec_l          0000000180024920     libucrt:mbsdec.obj
 0002:0000992c       $unwind$isdigit            000000018002492c     libucrt:_ctype.obj
 0002:0000992c       $unwind$?HandleOKCallback@AsyncWorker@Nan@@MEAAXXZ 000000018002492c     tags.obj
 0002:0000992c       $unwind$?getSystemCP@@YAHH@Z 000000018002492c     libucrt:mbctype.obj
 0002:0000992c       $unwind$_isleadbyte_l      000000018002492c     libucrt:_wctype.obj
 0002:00009934       $unwind$?HandleErrorCallback@AsyncWorker@Nan@@MEAAXXZ 0000000180024934     tags.obj
 0002:00009944       $unwind$??0TagFinder@@QEAA@PEAVCallback@Nan@@V?$basic_string@DU?$char_traits@D@std@@V?$allocator@D@2@@std@@HPEAUsTagFile@@@Z 0000000180024944     tags.obj
 0002:00009954       $unwind$?Init@Tags@@SAXV?$Local@VObject@v8@@@v8@@@Z 0000000180024954     tags.obj
 0002:00009960       $unwind$?FindTags@Tags@@CAXAEBV?$FunctionCallbackInfo@VValue@v8@@@Nan@@@Z 0000000180024960     tags.obj
 0002:00009984       $unwind$??0Tags@@AEAA@V?$Local@VString@v8@@@v8@@@Z 0000000180024984     tags.obj
 0002:0000999c       $unwind$__vcrt_getptd_noexit 000000018002499c     libvcruntime:per_thread_data.obj
 0002:0000999c       $unwind$_exception_enabled 000000018002499c     libucrt:libm_error.obj
 0002:0000999c       $unwind$memcpy_s           000000018002499c     libucrt:cfout.obj
 0002:0000999c       $unwind$__acrt_execute_uninitializers 000000018002499c     libucrt:shared_initialization.obj
 0002:0000999c       $unwind$?type_case_Z@?$output_processor@_WV?$string_output_adapter@_W@__crt_stdio_output@@V?$standard_base@_WV?$string_output_adapter@_W@__crt_stdio_output@@@2@@__crt_stdio_output@@AEAA_NXZ 000000018002499c     libucrt:output.obj
 0002:0000999c       $unwind$__acrt_FlsSetValue 000000018002499c     libucrt:winapi_thunks.obj
 0002:0000999c       $unwind$??$common_lseek_nolock@_J@@YA_JH_JH@Z 000000018002499c     libucrt:lseek.obj
 0002:0000999c       $unwind$_RTC_Initialize    000000018002499c     LIBCMT:_initsect_.obj
 0002:0000999c       $unwind$?push_back@?$vector@VTag@@V?$allocator@VTag@@@std@@@std@@QEAAX$$QEAVTag@@@Z 000000018002499c     tag-finder.obj
 0002:0000999c       $unwind$_DllMainCRTStartup 000000018002499c     LIBCMT:dll_dllmain.obj
 0002:0000999c       $unwind$__acrt_LocaleNameToLCID 000000018002499c     libucrt:winapi_thunks.obj
 0002:0000999c       $unwind$__acrt_stdio_flush_and_write_wide_nolock 000000018002499c     libucrt:_flsbuf.obj
 0002:0000999c       $unwind$?type_case_Z@?$output_processor@_WV?$stream_output_adapter@_W@__crt_stdio_output@@V?$standard_base@_WV?$stream_output_adapter@_W@__crt_stdio_output@@@2@@__crt_stdio_output@@AEAA_NXZ 000000018002499c     libucrt:output.obj
 0002:0000999c       $unwind$??$common_lseek_nolock@J@@YAJHJH@Z 000000018002499c     libucrt:lseek.obj
 0002:0000999c       $unwind$_RTC_Terminate     000000018002499c     LIBCMT:_initsect_.obj
 0002:0000999c       $unwind$?assign@?$basic_string@DU?$char_traits@D@std@@V?$allocator@D@2@@std@@QEAAAEAV12@PEBD_K@Z 000000018002499c     tags.obj
 0002:0000999c       $unwind$??R<lambda_ad1ced32f4ac17aa236e5ef05d6b3b7c>@@QEBAXXZ 000000018002499c     libucrt:mbctype.obj
 0002:0000999c       $unwind$_initterm_e        000000018002499c     libucrt:initterm.obj
 0002:0000999c       $unwind$__vcrt_FlsSetValue 000000018002499c     libvcruntime:winapi_downlevel.obj
 0002:0000999c       $unwind$__acrt_stdio_flush_and_write_narrow_nolock 000000018002499c     libucrt:_flsbuf.obj
 0002:0000999c       $unwind$__acrt_stdio_flush_nolock 000000018002499c     libucrt:fflush.obj
 0002:0000999c       $unwind$?type_case_s@?$output_processor@_WV?$string_output_adapter@_W@__crt_stdio_output@@V?$standard_base@_WV?$string_output_adapter@_W@__crt_stdio_output@@@2@@__crt_stdio_output@@AEAA_NXZ 000000018002499c     libucrt:output.obj
 0002:0000999c       $unwind$?type_case_s@?$output_processor@_WV?$stream_output_adapter@_W@__crt_stdio_output@@V?$standard_base@_WV?$stream_output_adapter@_W@__crt_stdio_output@@@2@@__crt_stdio_output@@AEAA_NXZ 000000018002499c     libucrt:output.obj
 0002:0000999c       $unwind$?type_case_n@?$output_processor@_WV?$stream_output_adapter@_W@__crt_stdio_output@@V?$standard_base@_WV?$stream_output_adapter@_W@__crt_stdio_output@@@2@@__crt_stdio_output@@AEAA_NXZ 000000018002499c     libucrt:output.obj
 0002:0000999c       $unwind$?type_case_n@?$output_processor@_WV?$string_output_adapter@_W@__crt_stdio_output@@V?$standard_base@_WV?$string_output_adapter@_W@__crt_stdio_output@@@2@@__crt_stdio_output@@AEAA_NXZ 000000018002499c     libucrt:output.obj
 0002:0000999c       $unwind$?free_crt_array_internal@@YAXQEAPEBX_K@Z 000000018002499c     libucrt:inittime.obj
 0002:0000999c       $unwind$__acrt_getptd_noexit 000000018002499c     libucrt:per_thread_data.obj
 0002:000099ac       $unwind$__std_exception_copy 00000001800249ac     libvcruntime:std_exception.obj
 0002:000099ac       $unwind$_free_osfhnd       00000001800249ac     libucrt:osfinfo.obj
 0002:000099ac       $unwind$?initialize_stdio_handles_nolock@@YAXXZ 00000001800249ac     libucrt:ioinit.obj
 0002:000099ac       $unwind$?assign@?$basic_string@DU?$char_traits@D@std@@V?$allocator@D@2@@std@@QEAAAEAV12@AEBV12@_K1@Z 00000001800249ac     tags.obj
 0002:000099c0       $unwind$?_Copy@?$basic_string@DU?$char_traits@D@std@@V?$allocator@D@2@@std@@QEAAX_K0@Z 00000001800249c0     tags.obj
 0002:000099d4       $unwind$??$Unwrap@VTags@@@ObjectWrap@node@@SAPEAVTags@@V?$Local@VObject@v8@@@v8@@@Z 00000001800249d4     tags.obj
 0002:000099dc       $unwind$??$_Destroy_range1@V?$allocator@VTag@@@std@@PEAVTag@@@std@@YAXPEAVTag@@0AEAU?$_Wrap_alloc@V?$allocator@VTag@@@std@@@0@U?$integral_constant@_N$0A@@0@@Z 00000001800249dc     tags.obj
 0002:000099e4       $chain$1$??$_Destroy_range1@V?$allocator@VTag@@@std@@PEAVTag@@@std@@YAXPEAVTag@@0AEAU?$_Wrap_alloc@V?$allocator@VTag@@@std@@@0@U?$integral_constant@_N$0A@@0@@Z 00000001800249e4     tags.obj
 0002:000099fc       $chain$2$??$_Destroy_range1@V?$allocator@VTag@@@std@@PEAVTag@@@std@@YAXPEAVTag@@0AEAU?$_Wrap_alloc@V?$allocator@VTag@@@std@@@0@U?$integral_constant@_N$0A@@0@@Z 00000001800249fc     tags.obj
 0002:00009a0c       $chain$3$??$_Destroy_range1@V?$allocator@VTag@@@std@@PEAVTag@@@std@@YAXPEAVTag@@0AEAU?$_Wrap_alloc@V?$allocator@VTag@@@std@@@0@U?$integral_constant@_N$0A@@0@@Z 0000000180024a0c     tags.obj
 0002:00009a24       $unwind$?Execute@TagFinder@@UEAAXXZ 0000000180024a24     tag-finder.obj
 0002:00009a38       $chain$3$?Execute@TagFinder@@UEAAXXZ 0000000180024a38     tag-finder.obj
 0002:00009a58       $chain$4$?Execute@TagFinder@@UEAAXXZ 0000000180024a58     tag-finder.obj
 0002:00009a68       $chain$5$?Execute@TagFinder@@UEAAXXZ 0000000180024a68     tag-finder.obj
 0002:00009a88       $unwind$?HandleOKCallback@TagFinder@@UEAAXXZ 0000000180024a88     tag-finder.obj
 0002:00009a88       $unwind$?HandleOKCallback@TagReader@@UEAAXXZ 0000000180024a88     tag-reader.obj
 0002:00009aa0       $unwind$?_Reallocate@?$vector@VTag@@V?$allocator@VTag@@@std@@@std@@IEAAX_K@Z 0000000180024aa0     tag-finder.obj
 0002:00009ab0       $chain$1$?_Reallocate@?$vector@VTag@@V?$allocator@VTag@@@std@@@std@@IEAAX_K@Z 0000000180024ab0     tag-finder.obj
 0002:00009ac8       $chain$2$?_Reallocate@?$vector@VTag@@V?$allocator@VTag@@@std@@@std@@IEAAX_K@Z 0000000180024ac8     tag-finder.obj
 0002:00009ad8       $chain$3$?_Reallocate@?$vector@VTag@@V?$allocator@VTag@@@std@@@std@@IEAAX_K@Z 0000000180024ad8     tag-finder.obj
 0002:00009af0       $unwind$??$_Uninitialized_move_al_unchecked@PEAVTag@@PEAV1@V?$allocator@VTag@@@std@@@std@@YAPEAVTag@@PEAV1@00AEAU?$_Wrap_alloc@V?$allocator@VTag@@@std@@@0@@Z 0000000180024af0     tag-finder.obj
 0002:00009afc       $chain$1$??$_Uninitialized_move_al_unchecked@PEAVTag@@PEAV1@V?$allocator@VTag@@@std@@@std@@YAPEAVTag@@PEAV1@00AEAU?$_Wrap_alloc@V?$allocator@VTag@@@std@@@0@@Z 0000000180024afc     tag-finder.obj
 0002:00009b14       $chain$2$??$_Uninitialized_move_al_unchecked@PEAVTag@@PEAV1@V?$allocator@VTag@@@std@@@std@@YAPEAVTag@@PEAV1@00AEAU?$_Wrap_alloc@V?$allocator@VTag@@@std@@@0@@Z 0000000180024b14     tag-finder.obj
 0002:00009b24       $unwind$?Execute@TagReader@@UEAAXXZ 0000000180024b24     tag-reader.obj
 0002:00009b44       $chain$0$?Execute@TagReader@@UEAAXXZ 0000000180024b44     tag-reader.obj
 0002:00009b58       $chain$1$?Execute@TagReader@@UEAAXXZ 0000000180024b58     tag-reader.obj
 0002:00009b68       $chain$2$?Execute@TagReader@@UEAAXXZ 0000000180024b68     tag-reader.obj
 0002:00009b80       $xdatasym                  0000000180024b80     LIBCMT:_amdsecgs_.obj
 0002:00009b84       $unwind$?dllmain_crt_process_attach@@YAHQEAUHINSTANCE__@@QEAX@Z 0000000180024b84     LIBCMT:dll_dllmain.obj
 0002:00009bb0       $unwind$?dllmain_crt_process_detach@@YAH_N@Z 0000000180024bb0     LIBCMT:dll_dllmain.obj
 0002:00009bd8       $unwind$?dllmain_dispatch@@YAHQEAUHINSTANCE__@@KQEAX@Z 0000000180024bd8     LIBCMT:dll_dllmain.obj
 0002:00009c00       $unwind$?filt$0@?0??dllmain_dispatch@@YAHQEAUHINSTANCE__@@KQEAX@Z@4HA 0000000180024c00     LIBCMT:dll_dllmain.obj
 0002:00009c08       $unwind$__report_securityfailure 0000000180024c08     LIBCMT:gs_report.obj
 0002:00009c10       $unwind$capture_current_context 0000000180024c10     LIBCMT:gs_report.obj
 0002:00009c1c       $unwind$capture_previous_context 0000000180024c1c     LIBCMT:gs_report.obj
 0002:00009c28       $unwind$__scrt_is_nonwritable_in_current_image 0000000180024c28     LIBCMT:utility.obj
 0002:00009c48       $unwind$__scrt_is_nonwritable_in_current_image$filt$0 0000000180024c48     LIBCMT:utility.obj
 0002:00009c50       $unwind$__scrt_initialize_onexit_tables 0000000180024c50     LIBCMT:utility.obj
 0002:00009c5c       $unwind$__security_init_cookie 0000000180024c5c     LIBCMT:gs_support.obj
 0002:00009c68       $unwind$__scrt_fastfail    0000000180024c68     LIBCMT:utility_desktop.obj
 0002:00009c78       $unwind$__isa_available_init 0000000180024c78     LIBCMT:_cpu_disp_.obj
 0002:00009c88       $xdatasym                  0000000180024c88     LIBCMT:_guard_dispatch_.obj
 0002:00009c90       $xdatasym                  0000000180024c90     libvcruntime:memcpy.obj
 0002:00009c94       $unwind$__C_specific_handler 0000000180024c94     libvcruntime:_chandler_.obj
 0002:00009cb0       $unwind$_CxxThrowException 0000000180024cb0     libvcruntime:throw.obj
 0002:00009cc8       $xdatasym                  0000000180024cc8     libvcruntime:memset.obj
 0002:00009cd0       $xdatasym                  0000000180024cd0     libvcruntime:_jmpuwind_.obj
 0002:00009ce4       $unwind$__acrt_stdio_end_temporary_buffering_nolock 0000000180024ce4     libucrt:_sftbuf.obj
 0002:00009ce4       $unwind$__vcrt_uninitialize_winapi_thunks 0000000180024ce4     libvcruntime:winapi_downlevel.obj
 0002:00009cec       $unwind$?try_get_function@@YAPEAXW4function_id@?A0x679b24ab@@QEBDQEBW4module_id@2@2@Z 0000000180024cec     libvcruntime:winapi_downlevel.obj
 0002:00009cec       $unwind$?write_string@?$string_output_adapter@_W@__crt_stdio_output@@QEBAXQEB_WHQEAH1@Z 0000000180024cec     libucrt:output.obj
 0002:00009cec       $unwind$?try_get_function@@YAPEAXW4function_id@?A0x63058377@@QEBDQEBW4module_id@2@2@Z 0000000180024cec     libucrt:winapi_thunks.obj
 0002:00009d08       $unwind$?common_ftell_translated_utf8_nolock@@YA_JV__crt_stdio_stream@@_J@Z 0000000180024d08     libucrt:ftell.obj
 0002:00009d2c       $unwind$?common_ftell_read_mode_nolock@@YA_JV__crt_stdio_stream@@_J1@Z 0000000180024d2c     libucrt:ftell.obj
 0002:00009d48       $unwind$??$common_ftell_nolock@_J@@YA_JV__crt_stdio_stream@@@Z 0000000180024d48     libucrt:ftell.obj
 0002:00009d54       $unwind$??$common_ftell@J@@YAJV__crt_stdio_stream@@@Z 0000000180024d54     libucrt:ftell.obj
 0002:00009d74       $unwind$??$common_ftell@_J@@YA_JV__crt_stdio_stream@@@Z 0000000180024d74     libucrt:ftell.obj
 0002:00009d94       $unwind$_tolower_l         0000000180024d94     libucrt:tolower_toupper.obj
 0002:00009d94       $unwind$_toupper_l         0000000180024d94     libucrt:tolower_toupper.obj
 0002:00009da4       $unwind$??$common_fsopen@D@@YAPEAU_iobuf@@QEBD0H@Z 0000000180024da4     libucrt:fopen.obj
 0002:00009dcc       $unwind$fclose             0000000180024dcc     libucrt:fclose.obj
 0002:00009df0       $unwind$perror             0000000180024df0     libucrt:perror.obj
 0002:00009e18       $unwind$?common_fseek_binary_mode_read_only_fast_track_nolock@@YA_NV__crt_stdio_stream@@_JH@Z 0000000180024e18     libucrt:fseek.obj
 0002:00009e24       $unwind$?common_fseek@@YAHV__crt_stdio_stream@@_JH@Z 0000000180024e24     libucrt:fseek.obj
 0002:00009e48       $xdatasym                  0000000180024e48     libucrt:strncpy.obj
 0002:00009e4c       $unwind$??$common_fgets@D@@YAPEADQEADHV__crt_stdio_stream@@@Z 0000000180024e4c     libucrt:fgets.obj
 0002:00009e78       $xdatasym                  0000000180024e78     libucrt:strncmp.obj
 0002:00009e7c       $unwind$rewind             0000000180024e7c     libucrt:rewind.obj
 0002:00009ea0       $unwind$??$parse_integer@KV?$c_string_character_source@D@__crt_strtox@@@__crt_strtox@@YAKQEAU__crt_locale_pointers@@V?$c_string_character_source@D@0@H_N@Z 0000000180024ea0     libucrt:atox.obj
 0002:00009ebc       $unwind$??$parse_integer@KV?$c_string_character_source@_W@__crt_strtox@@@__crt_strtox@@YAKQEAU__crt_locale_pointers@@V?$c_string_character_source@_W@0@H_N@Z 0000000180024ebc     libucrt:atox.obj
 0002:00009ed8       $unwind$fwprintf           0000000180024ed8     libucrt:assert.obj
 0002:00009ee4       $unwind$swprintf           0000000180024ee4     libucrt:assert.obj
 0002:00009ef4       $unwind$??$common_assert_to_stderr@_W@@YAXQEB_W0I@Z 0000000180024ef4     libucrt:assert.obj
 0002:00009f10       $unwind$??$common_assert_to_message_box@_W@@YAXQEB_W0IQEAX@Z 0000000180024f10     libucrt:assert.obj
 0002:00009f2c       $unwind$??$common_assert_to_message_box_build_string@_W@@YAXQEA_W_KQEB_W2IQEAX@Z 0000000180024f2c     libucrt:assert.obj
 0002:00009f4c       $unwind$__acrt_call_reportfault 0000000180024f4c     libucrt:invalid_parameter.obj
 0002:00009f6c       $unwind$_invalid_parameter 0000000180024f6c     libucrt:invalid_parameter.obj
 0002:00009f84       $unwind$_query_new_handler 0000000180024f84     libucrt:new_handler.obj
 0002:00009fa4       $unwind$__acrt_initialize_stdio 0000000180024fa4     libucrt:_file.obj
 0002:00009fa4       $unwind$?process@?$output_processor@_WV?$string_output_adapter@_W@__crt_stdio_output@@V?$standard_base@_WV?$string_output_adapter@_W@__crt_stdio_output@@@2@@__crt_stdio_output@@QEAAHXZ 0000000180024fa4     libucrt:output.obj
 0002:00009fa4       $unwind$__acrt_MessageBoxW 0000000180024fa4     libucrt:winapi_thunks.obj
 0002:00009fa4       $unwind$__acrt_lowio_set_os_handle 0000000180024fa4     libucrt:osfinfo.obj
 0002:00009fa4       $unwind$_initterm          0000000180024fa4     libucrt:initterm.obj
 0002:00009fbc       $unwind$?common_exit@@YAXHW4_crt_exit_cleanup_mode@@W4_crt_exit_return_mode@@@Z 0000000180024fbc     libucrt:exit.obj
 0002:00009ffc       $unwind$_configure_narrow_argv 0000000180024ffc     libucrt:argv_parsing.obj
 0002:0000a010       $unwind$_register_onexit_function 0000000180025010     libucrt:onexit.obj
 0002:0000a018       $unwind$_execute_onexit_table 0000000180025018     libucrt:onexit.obj
 0002:0000a020       $unwind$??R<lambda_4e60a939b0d047cfe11ddc22648dfba9>@@QEBAHXZ 0000000180025020     libucrt:onexit.obj
 0002:0000a020       $unwind$??$parse_command_line@D@@YAXPEADPEAPEAD0PEA_K2@Z 0000000180025020     libucrt:argv_parsing.obj
 0002:0000a03c       $unwind$??$?RV<lambda_b8c45f8f788dd370798f47cfe8ac3a86>@@AEAV<lambda_4e60a939b0d047cfe11ddc22648dfba9>@@V<lambda_332c3edc96d0294ec56c57d38c1cdfd5>@@@?$__crt_seh_guarded_call@H@@QEAAH$$QEAV<lambda_b8c45f8f788dd370798f47cfe8ac3a86>@@AEAV<lambda_4e60a939b0d047cfe11ddc22648dfba9>@@$$QEAV<lambda_332c3edc96d0294ec56c57d38c1cdfd5>@@@Z 000000018002503c     libucrt:onexit.obj
 0002:0000a060       $unwind$??$?RV<lambda_e24bbb7b643b32fcea6fa61b31d4c984>@@AEAV<lambda_275893d493268fdec8709772e3fcec0e>@@V<lambda_9d71df4d7cf3f480f8d633942495c3b0>@@@?$__crt_seh_guarded_call@H@@QEAAH$$QEAV<lambda_e24bbb7b643b32fcea6fa61b31d4c984>@@AEAV<lambda_275893d493268fdec8709772e3fcec0e>@@$$QEAV<lambda_9d71df4d7cf3f480f8d633942495c3b0>@@@Z 0000000180025060     libucrt:onexit.obj
 0002:0000a090       $unwind$terminate          0000000180025090     libucrt:terminate.obj
 0002:0000a0b0       $unwind$_strdup            00000001800250b0     libucrt:strdup.obj
 0002:0000a0c0       $unwind$__stdio_common_vfwprintf 00000001800250c0     libucrt:output.obj
 0002:0000a0c8       $unwind$__stdio_common_vswprintf 00000001800250c8     libucrt:output.obj
 0002:0000a0ec       $unwind$?write_string@?$stream_output_adapter@_W@__crt_stdio_output@@QEBAXQEB_WHQEAH1@Z 00000001800250ec     libucrt:output.obj
 0002:0000a104       $unwind$?process@?$output_processor@_WV?$stream_output_adapter@_W@__crt_stdio_output@@V?$standard_base@_WV?$stream_output_adapter@_W@__crt_stdio_output@@@2@@__crt_stdio_output@@QEAAHXZ 0000000180025104     libucrt:output.obj
 0002:0000a11c       $unwind$?truncate_ctrl_z_if_present@@YAHH@Z 000000018002511c     libucrt:open.obj
 0002:0000a11c       $unwind$?type_case_c_tchar@?$output_processor@_WV?$stream_output_adapter@_W@__crt_stdio_output@@V?$standard_base@_WV?$stream_output_adapter@_W@__crt_stdio_output@@@2@@__crt_stdio_output@@AEAA_N_W@Z 000000018002511c     libucrt:output.obj
 0002:0000a11c       $unwind$??R<lambda_b721fa326cdb32351d23dfa67958c160>@@QEBAHXZ 000000018002511c     libucrt:setvbuf.obj
 0002:0000a11c       $unwind$?type_case_c_tchar@?$output_processor@_WV?$string_output_adapter@_W@__crt_stdio_output@@V?$standard_base@_WV?$string_output_adapter@_W@__crt_stdio_output@@@2@@__crt_stdio_output@@AEAA_N_W@Z 000000018002511c     libucrt:output.obj
 0002:0000a12c       $unwind$?write_stored_string_tchar@?$output_processor@_WV?$stream_output_adapter@_W@__crt_stdio_output@@V?$standard_base@_WV?$stream_output_adapter@_W@__crt_stdio_output@@@2@@__crt_stdio_output@@AEAA_N_W@Z 000000018002512c     libucrt:output.obj
 0002:0000a140       $unwind$??R<lambda_dd75445284c072d0bd3768540cc698fa>@@QEBAHXZ 0000000180025140     libucrt:output.obj
 0002:0000a15c       $unwind$?parse_int_from_format_string@?$output_processor@_WV?$stream_output_adapter@_W@__crt_stdio_output@@V?$standard_base@_WV?$stream_output_adapter@_W@__crt_stdio_output@@@2@@__crt_stdio_output@@AEAA_NQEAH@Z 000000018002515c     libucrt:output.obj
 0002:0000a15c       $unwind$?parse_int_from_format_string@?$output_processor@_WV?$string_output_adapter@_W@__crt_stdio_output@@V?$standard_base@_WV?$string_output_adapter@_W@__crt_stdio_output@@@2@@__crt_stdio_output@@AEAA_NQEAH@Z 000000018002515c     libucrt:output.obj
 0002:0000a170       $unwind$?state_case_type@?$output_processor@_WV?$stream_output_adapter@_W@__crt_stdio_output@@V?$standard_base@_WV?$stream_output_adapter@_W@__crt_stdio_output@@@2@@__crt_stdio_output@@AEAA_NXZ 0000000180025170     libucrt:output.obj
 0002:0000a170       $unwind$?state_case_type@?$output_processor@_WV?$string_output_adapter@_W@__crt_stdio_output@@V?$standard_base@_WV?$string_output_adapter@_W@__crt_stdio_output@@@2@@__crt_stdio_output@@AEAA_NXZ 0000000180025170     libucrt:output.obj
 0002:0000a194       $unwind$?type_case_a@?$output_processor@_WV?$stream_output_adapter@_W@__crt_stdio_output@@V?$standard_base@_WV?$stream_output_adapter@_W@__crt_stdio_output@@@2@@__crt_stdio_output@@AEAA_NXZ 0000000180025194     libucrt:output.obj
 0002:0000a194       $unwind$?type_case_a@?$output_processor@_WV?$string_output_adapter@_W@__crt_stdio_output@@V?$standard_base@_WV?$string_output_adapter@_W@__crt_stdio_output@@@2@@__crt_stdio_output@@AEAA_NXZ 0000000180025194     libucrt:output.obj
 0002:0000a1a4       $unwind$?write_stored_string_tchar@?$output_processor@_WV?$string_output_adapter@_W@__crt_stdio_output@@V?$standard_base@_WV?$string_output_adapter@_W@__crt_stdio_output@@@2@@__crt_stdio_output@@AEAA_N_W@Z 00000001800251a4     libucrt:output.obj
 0002:0000a1b8       $unwind$??$write_multiple_characters@V?$stream_output_adapter@_W@__crt_stdio_output@@D@__crt_stdio_output@@YAXAEBV?$stream_output_adapter@_W@0@DHQEAH@Z 00000001800251b8     libucrt:output.obj
 0002:0000a1d0       $unwind$??$write_multiple_characters@V?$string_output_adapter@_W@__crt_stdio_output@@D@__crt_stdio_output@@YAXAEBV?$string_output_adapter@_W@0@DHQEAH@Z 00000001800251d0     libucrt:output.obj
 0002:0000a1dc       $unwind$??$type_case_integer_parse_into_buffer@I@?$output_processor@_WV?$string_output_adapter@_W@__crt_stdio_output@@V?$standard_base@_WV?$string_output_adapter@_W@__crt_stdio_output@@@2@@__crt_stdio_output@@AEAAXII_N@Z 00000001800251dc     libucrt:output.obj
 0002:0000a1dc       $unwind$??$type_case_integer_parse_into_buffer@_K@?$output_processor@_WV?$string_output_adapter@_W@__crt_stdio_output@@V?$standard_base@_WV?$string_output_adapter@_W@__crt_stdio_output@@@2@@__crt_stdio_output@@AEAAX_KI_N@Z 00000001800251dc     libucrt:output.obj
 0002:0000a1dc       $unwind$??$type_case_integer_parse_into_buffer@I@?$output_processor@_WV?$stream_output_adapter@_W@__crt_stdio_output@@V?$standard_base@_WV?$stream_output_adapter@_W@__crt_stdio_output@@@2@@__crt_stdio_output@@AEAAXII_N@Z 00000001800251dc     libucrt:output.obj
 0002:0000a1dc       $unwind$??$type_case_integer_parse_into_buffer@_K@?$output_processor@_WV?$stream_output_adapter@_W@__crt_stdio_output@@V?$standard_base@_WV?$stream_output_adapter@_W@__crt_stdio_output@@@2@@__crt_stdio_output@@AEAAX_KI_N@Z 00000001800251dc     libucrt:output.obj
 0002:0000a1e4       $unwind$??$?RV<lambda_7b91131dde12e1c3dfc74ff76b3f2eac>@@AEAV<lambda_dd75445284c072d0bd3768540cc698fa>@@V<lambda_16bc4ecb55b4718497c16bceaea2ceaf>@@@?$__crt_seh_guarded_call@H@@QEAAH$$QEAV<lambda_7b91131dde12e1c3dfc74ff76b3f2eac>@@AEAV<lambda_dd75445284c072d0bd3768540cc698fa>@@$$QEAV<lambda_16bc4ecb55b4718497c16bceaea2ceaf>@@@Z 00000001800251e4     libucrt:output.obj
 0002:0000a208       $unwind$?common_lseek_do_seek_nolock@@YAJQEAXJH@Z 0000000180025208     libucrt:lseek.obj
 0002:0000a218       $unwind$??$common_lseek@J@@YAJHJH@Z 0000000180025218     libucrt:lseek.obj
 0002:0000a248       $unwind$??$common_lseek@_J@@YA_JH_JH@Z 0000000180025248     libucrt:lseek.obj
 0002:0000a278       $unwind$_read              0000000180025278     libucrt:read.obj
 0002:0000a2a4       $unwind$_read_nolock       00000001800252a4     libucrt:read.obj
 0002:0000a2bc       $unwind$?translate_ansi_or_utf8_nolock@@YAHHQEAD_KQEA_W1@Z 00000001800252bc     libucrt:read.obj
 0002:0000a2d4       $unwind$??$translate_text_mode_nolock@_W@@YAHHQEA_W_K@Z 00000001800252d4     libucrt:read.obj
 0002:0000a2ec       $unwind$__acrt_initialize_lowio 00000001800252ec     libucrt:ioinit.obj
 0002:0000a30c       $unwind$?initialize_inherited_file_handles_nolock@@YAXXZ 000000018002530c     libucrt:ioinit.obj
 0002:0000a328       $unwind$_isctype_l         0000000180025328     libucrt:isctype.obj
 0002:0000a344       $unwind$__acrt_LCMapStringA 0000000180025344     libucrt:lcmapstringa.obj
 0002:0000a354       $unwind$?__acrt_LCMapStringA_stat@@YAHPEAU__crt_locale_pointers@@PEB_WKPEBDHPEADHHH@Z 0000000180025354     libucrt:lcmapstringa.obj
 0002:0000a37c       $unwind$?construct_ptd_array@@YAXQEAU__acrt_ptd@@@Z 000000018002537c     libucrt:per_thread_data.obj
 0002:0000a384       $unwind$?destroy_ptd_array@@YAXQEAU__acrt_ptd@@@Z 0000000180025384     libucrt:per_thread_data.obj
 0002:0000a38c       $unwind$??$?RV<lambda_72d1df2b273a38828b1ce30cbf4cdab5>@@AEAV<lambda_876a65b173b8412d3a47c70a915b0cf4>@@V<lambda_41932305e351933ebe8f8be3ed8bb5dc>@@@?$__crt_seh_guarded_call@X@@QEAAX$$QEAV<lambda_72d1df2b273a38828b1ce30cbf4cdab5>@@AEAV<lambda_876a65b173b8412d3a47c70a915b0cf4>@@$$QEAV<lambda_41932305e351933ebe8f8be3ed8bb5dc>@@@Z 000000018002538c     libucrt:per_thread_data.obj
 0002:0000a3b0       $unwind$??$?RV<lambda_5e887d1dcbef67a5eb4283622ba103bf>@@AEAV<lambda_4466841279450cc726390878d4a41900>@@V<lambda_341c25c0346d94847f1f3c463c57e077>@@@?$__crt_seh_guarded_call@X@@QEAAX$$QEAV<lambda_5e887d1dcbef67a5eb4283622ba103bf>@@AEAV<lambda_4466841279450cc726390878d4a41900>@@$$QEAV<lambda_341c25c0346d94847f1f3c463c57e077>@@@Z 00000001800253b0     libucrt:per_thread_data.obj
 0002:0000a3d4       $unwind$??$?RV<lambda_46352004c1216016012b18bd6f87e700>@@AEAV<lambda_3bd07e1a1191394380780325891bf33f>@@V<lambda_334532d3f185bcaa59b5be82d7d22bff>@@@?$__crt_seh_guarded_call@X@@QEAAX$$QEAV<lambda_46352004c1216016012b18bd6f87e700>@@AEAV<lambda_3bd07e1a1191394380780325891bf33f>@@$$QEAV<lambda_334532d3f185bcaa59b5be82d7d22bff>@@@Z 00000001800253d4     libucrt:per_thread_data.obj
 0002:0000a3f8       $unwind$??$?RV<lambda_fb3a7dec4e47f37f22dae91bb15c9095>@@AEAV<lambda_698284760c8add0bfb0756c19673e34b>@@V<lambda_dfb8eca1e75fef3034a8fb18dd509707>@@@?$__crt_seh_guarded_call@X@@QEAAX$$QEAV<lambda_fb3a7dec4e47f37f22dae91bb15c9095>@@AEAV<lambda_698284760c8add0bfb0756c19673e34b>@@$$QEAV<lambda_dfb8eca1e75fef3034a8fb18dd509707>@@@Z 00000001800253f8     libucrt:per_thread_data.obj
 0002:0000a41c       $unwind$__acrt_uninitialize_locale 000000018002541c     libucrt:wsetlocale.obj
 0002:0000a43c       $unwind$?__acrt_stdio_allocate_stream@@YA?AV__crt_stdio_stream@@XZ 000000018002543c     libucrt:stream.obj
 0002:0000a45c       $unwind$_openfile          000000018002545c     libucrt:openfile.obj
 0002:0000a470       $unwind$??$__acrt_stdio_parse_mode@D@@YA?AU__acrt_stdio_stream_mode@@QEBD@Z 0000000180025470     libucrt:openfile.obj
 0002:0000a47c       $unwind$_close             000000018002547c     libucrt:close.obj
 0002:0000a47c       $unwind$_commit            000000018002547c     libucrt:commit.obj
 0002:0000a484       $unwind$??$?RV<lambda_bfedae4ebbf01fab1bb6dcc6a9e276e0>@@AEAV<lambda_2fe9b910cf3cbf4a0ab98a02ba45b3ec>@@V<lambda_237c231691f317818eb88cc1d5d642d6>@@@?$__crt_seh_guarded_call@H@@QEAAH$$QEAV<lambda_bfedae4ebbf01fab1bb6dcc6a9e276e0>@@AEAV<lambda_2fe9b910cf3cbf4a0ab98a02ba45b3ec>@@$$QEAV<lambda_237c231691f317818eb88cc1d5d642d6>@@@Z 0000000180025484     libucrt:close.obj
 0002:0000a4a8       $unwind$fflush             00000001800254a8     libucrt:fflush.obj
 0002:0000a4cc       $unwind$common_flush_all   00000001800254cc     libucrt:fflush.obj
 0002:0000a508       $unwind$_alloc_osfhnd      0000000180025508     libucrt:osfinfo.obj
 0002:0000a538       $unwind$__acrt_lowio_destroy_handle_array 0000000180025538     libucrt:osfinfo.obj
 0002:0000a548       $unwind$__acrt_lowio_ensure_fh_exists 0000000180025548     libucrt:osfinfo.obj
 0002:0000a574       $unwind$_write             0000000180025574     libucrt:write.obj
 0002:0000a5a4       $unwind$_write_nolock      00000001800255a4     libucrt:write.obj
 0002:0000a5bc       $unwind$?write_double_translated_ansi_nolock@@YA?AUwrite_result@?A0x9c548279@@HQEBDI@Z 00000001800255bc     libucrt:write.obj
 0002:0000a5dc       $unwind$?write_text_ansi_nolock@@YA?AUwrite_result@?A0x9c548279@@HQEBDI@Z 00000001800255dc     libucrt:write.obj
 0002:0000a5dc       $unwind$?write_text_utf16le_nolock@@YA?AUwrite_result@?A0x9c548279@@HQEBDI@Z 00000001800255dc     libucrt:write.obj
 0002:0000a5fc       $unwind$?write_text_utf8_nolock@@YA?AUwrite_result@?A0x9c548279@@HQEBDI@Z 00000001800255fc     libucrt:write.obj
 0002:0000a620       $unwind$setvbuf            0000000180025620     libucrt:setvbuf.obj
 0002:0000a628       $unwind$??$?RV<lambda_7a5ef57ff966f610505f1d28a3d40618>@@AEAV<lambda_b721fa326cdb32351d23dfa67958c160>@@V<lambda_5e0fb27672408a07956fe59e48ccb2aa>@@@?$__crt_seh_guarded_call@H@@QEAAH$$QEAV<lambda_7a5ef57ff966f610505f1d28a3d40618>@@AEAV<lambda_b721fa326cdb32351d23dfa67958c160>@@$$QEAV<lambda_5e0fb27672408a07956fe59e48ccb2aa>@@@Z 0000000180025628     libucrt:setvbuf.obj
 0002:0000a64c       $unwind$__acrt_get_sigabrt_handler 000000018002564c     libucrt:signal.obj
 0002:0000a654       $unwind$raise              0000000180025654     libucrt:signal.obj
 0002:0000a680       $unwind$??$?RV<lambda_c36588078e9f5dfd39652860aa6b3aaf>@@AEAV<lambda_ec61778202f4f5fc7e7711acc23c3bca>@@V<lambda_dc9d2797ccde5d239b4a0efae8ebd7db>@@@?$__crt_seh_guarded_call@P6AXH@Z@@QEAAP6AXH@Z$$QEAV<lambda_c36588078e9f5dfd39652860aa6b3aaf>@@AEAV<lambda_ec61778202f4f5fc7e7711acc23c3bca>@@$$QEAV<lambda_dc9d2797ccde5d239b4a0efae8ebd7db>@@@Z 0000000180025680     libucrt:signal.obj
 0002:0000a6a4       $unwind$__acrt_initialize_winapi_thunks 00000001800256a4     libucrt:winapi_thunks.obj
 0002:0000a6ac       $unwind$__acrt_show_wide_message_box 00000001800256ac     libucrt:crtmbox.obj
 0002:0000a6ac       $unwind$__acrt_LCMapStringEx 00000001800256ac     libucrt:winapi_thunks.obj
 0002:0000a6ac       $unwind$_mbtowc_l          00000001800256ac     libucrt:mbtowc.obj
 0002:0000a6c4       $unwind$__acrt_is_interactive 00000001800256c4     libucrt:winapi_thunks.obj
 0002:0000a6d8       $unwind$??$common_expand_argv_wildcards@D@@YAHQEAPEADQEAPEAPEAD@Z 00000001800256d8     libucrt:argv_wildcards.obj
 0002:0000a6f0       $unwind$??$copy_and_add_argument_to_buffer@D@@YAHQEBD0_KAEAV?$argument_list@D@?A0xca0879c4@@@Z 00000001800256f0     libucrt:argv_wildcards.obj
 0002:0000a70c       $unwind$??$expand_argument_wildcards@D@@YAHQEAD0AEAV?$argument_list@D@?A0xca0879c4@@@Z 000000018002570c     libucrt:argv_wildcards.obj
 0002:0000a72c       $unwind$__acrt_update_thread_multibyte_data 000000018002572c     libucrt:mbctype.obj
 0002:0000a750       $unwind$?fin$0@?0??dllmain_crt_process_detach@@YAH_N@Z@4HA 0000000180025750     LIBCMT:dll_dllmain.obj
 0002:0000a750       $unwind$?fin$0@?0???$?RV<lambda_5e887d1dcbef67a5eb4283622ba103bf>@@AEAV<lambda_4466841279450cc726390878d4a41900>@@V<lambda_341c25c0346d94847f1f3c463c57e077>@@@?$__crt_seh_guarded_call@X@@QEAAX$$QEAV<lambda_5e887d1dcbef67a5eb4283622ba103bf>@@AEAV<lambda_4466841279450cc726390878d4a41900>@@$$QEAV<lambda_341c25c0346d94847f1f3c463c57e077>@@@Z@4HA 0000000180025750     libucrt:per_thread_data.obj
 0002:0000a750       $unwind$?fin$0@?0???$?RV<lambda_c36588078e9f5dfd39652860aa6b3aaf>@@AEAV<lambda_ec61778202f4f5fc7e7711acc23c3bca>@@V<lambda_dc9d2797ccde5d239b4a0efae8ebd7db>@@@?$__crt_seh_guarded_call@P6AXH@Z@@QEAAP6AXH@Z$$QEAV<lambda_c36588078e9f5dfd39652860aa6b3aaf>@@AEAV<lambda_ec61778202f4f5fc7e7711acc23c3bca>@@$$QEAV<lambda_dc9d2797ccde5d239b4a0efae8ebd7db>@@@Z@4HA 0000000180025750     libucrt:signal.obj
 0002:0000a750       $unwind$?fin$0@?0??dllmain_crt_process_attach@@YAHQEAUHINSTANCE__@@QEAX@Z@4HA 0000000180025750     LIBCMT:dll_dllmain.obj
 0002:0000a750       $unwind$fflush$fin$0       0000000180025750     libucrt:fflush.obj
 0002:0000a750       $unwind$?fin$0@?0???$?RV<lambda_72d1df2b273a38828b1ce30cbf4cdab5>@@AEAV<lambda_876a65b173b8412d3a47c70a915b0cf4>@@V<lambda_41932305e351933ebe8f8be3ed8bb5dc>@@@?$__crt_seh_guarded_call@X@@QEAAX$$QEAV<lambda_72d1df2b273a38828b1ce30cbf4cdab5>@@AEAV<lambda_876a65b173b8412d3a47c70a915b0cf4>@@$$QEAV<lambda_41932305e351933ebe8f8be3ed8bb5dc>@@@Z@4HA 0000000180025750     libucrt:per_thread_data.obj
 0002:0000a750       $unwind$?fin$0@?0???$?RV<lambda_46352004c1216016012b18bd6f87e700>@@AEAV<lambda_3bd07e1a1191394380780325891bf33f>@@V<lambda_334532d3f185bcaa59b5be82d7d22bff>@@@?$__crt_seh_guarded_call@X@@QEAAX$$QEAV<lambda_46352004c1216016012b18bd6f87e700>@@AEAV<lambda_3bd07e1a1191394380780325891bf33f>@@$$QEAV<lambda_334532d3f185bcaa59b5be82d7d22bff>@@@Z@4HA 0000000180025750     libucrt:per_thread_data.obj
 0002:0000a750       $unwind$_query_new_handler$fin$0 0000000180025750     libucrt:new_handler.obj
 0002:0000a750       $unwind$?fin$0@?0???$?RV<lambda_b8c45f8f788dd370798f47cfe8ac3a86>@@AEAV<lambda_4e60a939b0d047cfe11ddc22648dfba9>@@V<lambda_332c3edc96d0294ec56c57d38c1cdfd5>@@@?$__crt_seh_guarded_call@H@@QEAAH$$QEAV<lambda_b8c45f8f788dd370798f47cfe8ac3a86>@@AEAV<lambda_4e60a939b0d047cfe11ddc22648dfba9>@@$$QEAV<lambda_332c3edc96d0294ec56c57d38c1cdfd5>@@@Z@4HA 0000000180025750     libucrt:onexit.obj
 0002:0000a750       $unwind$_fcloseall$fin$0   0000000180025750     libucrt:closeall.obj
 0002:0000a750       $unwind$__acrt_initialize_lowio$fin$0 0000000180025750     libucrt:ioinit.obj
 0002:0000a750       $unwind$?fin$0@?0???$common_fgets@D@@YAPEADQEADHV__crt_stdio_stream@@@Z@4HA 0000000180025750     libucrt:fgets.obj
 0002:0000a750       $unwind$?fin$0@?0???$?RV<lambda_e24bbb7b643b32fcea6fa61b31d4c984>@@AEAV<lambda_275893d493268fdec8709772e3fcec0e>@@V<lambda_9d71df4d7cf3f480f8d633942495c3b0>@@@?$__crt_seh_guarded_call@H@@QEAAH$$QEAV<lambda_e24bbb7b643b32fcea6fa61b31d4c984>@@AEAV<lambda_275893d493268fdec8709772e3fcec0e>@@$$QEAV<lambda_9d71df4d7cf3f480f8d633942495c3b0>@@@Z@4HA 0000000180025750     libucrt:onexit.obj
 0002:0000a750       $unwind$_IsNonwritableInCurrentImage$filt$0 0000000180025750     LIBCMT:pesect.obj
 0002:0000a750       $unwind$_read$fin$0        0000000180025750     libucrt:read.obj
 0002:0000a750       $unwind$?fin$0@?0???$common_lseek@_J@@YA_JH_JH@Z@4HA 0000000180025750     libucrt:lseek.obj
 0002:0000a750       $unwind$?fin$0@?0???$common_fsopen@D@@YAPEAU_iobuf@@QEBD0H@Z@4HA 0000000180025750     libucrt:fopen.obj
 0002:0000a750       $unwind$?fin$0@?0???$common_lseek@J@@YAJHJH@Z@4HA 0000000180025750     libucrt:lseek.obj
 0002:0000a750       $unwind$?fin$0@?0???$?RV<lambda_99476a1ad63dd22509b5d3e65b0ffc95>@@AEAV<lambda_ad1ced32f4ac17aa236e5ef05d6b3b7c>@@V<lambda_f7424dd8d45958661754dc4f2697e9c3>@@@?$__crt_seh_guarded_call@X@@QEAAX$$QEAV<lambda_99476a1ad63dd22509b5d3e65b0ffc95>@@AEAV<lambda_ad1ced32f4ac17aa236e5ef05d6b3b7c>@@$$QEAV<lambda_f7424dd8d45958661754dc4f2697e9c3>@@@Z@4HA 0000000180025750     libucrt:mbctype.obj
 0002:0000a750       $unwind$?filt$0@?0??common_exit@@YAXHW4_crt_exit_cleanup_mode@@W4_crt_exit_return_mode@@@Z@4HA 0000000180025750     libucrt:exit.obj
 0002:0000a750       $unwind$?fin$0@?0??common_fseek@@YAHV__crt_stdio_stream@@_JH@Z@4HA 0000000180025750     libucrt:fseek.obj
 0002:0000a750       $unwind$?fin$1@?0??common_exit@@YAXHW4_crt_exit_cleanup_mode@@W4_crt_exit_return_mode@@@Z@4HA 0000000180025750     libucrt:exit.obj
 0002:0000a750       $unwind$raise$fin$0        0000000180025750     libucrt:signal.obj
 0002:0000a750       $unwind$perror$fin$0       0000000180025750     libucrt:perror.obj
 0002:0000a750       $unwind$?fin$0@?0???$?RV<lambda_7b91131dde12e1c3dfc74ff76b3f2eac>@@AEAV<lambda_dd75445284c072d0bd3768540cc698fa>@@V<lambda_16bc4ecb55b4718497c16bceaea2ceaf>@@@?$__crt_seh_guarded_call@H@@QEAAH$$QEAV<lambda_7b91131dde12e1c3dfc74ff76b3f2eac>@@AEAV<lambda_dd75445284c072d0bd3768540cc698fa>@@$$QEAV<lambda_16bc4ecb55b4718497c16bceaea2ceaf>@@@Z@4HA 0000000180025750     libucrt:output.obj
 0002:0000a750       $unwind$_write$fin$0       0000000180025750     libucrt:write.obj
 0002:0000a750       $unwind$fclose$fin$0       0000000180025750     libucrt:fclose.obj
 0002:0000a750       $unwind$?fin$0@?0???$common_ftell@_J@@YA_JV__crt_stdio_stream@@@Z@4HA 0000000180025750     libucrt:ftell.obj
 0002:0000a750       $unwind$?fin$0@?0???$?RV<lambda_b521505b218e5242e90febf6bfebc422>@@AEAV<lambda_6978c1fb23f02e42e1d9e99668cc68aa>@@V<lambda_314360699dd331753a4119843814e9a7>@@@?$__crt_seh_guarded_call@H@@QEAAH$$QEAV<lambda_b521505b218e5242e90febf6bfebc422>@@AEAV<lambda_6978c1fb23f02e42e1d9e99668cc68aa>@@$$QEAV<lambda_314360699dd331753a4119843814e9a7>@@@Z@4HA 0000000180025750     libucrt:commit.obj
 0002:0000a750       $unwind$?fin$0@?0???$?RV<lambda_bfedae4ebbf01fab1bb6dcc6a9e276e0>@@AEAV<lambda_2fe9b910cf3cbf4a0ab98a02ba45b3ec>@@V<lambda_237c231691f317818eb88cc1d5d642d6>@@@?$__crt_seh_guarded_call@H@@QEAAH$$QEAV<lambda_bfedae4ebbf01fab1bb6dcc6a9e276e0>@@AEAV<lambda_2fe9b910cf3cbf4a0ab98a02ba45b3ec>@@$$QEAV<lambda_237c231691f317818eb88cc1d5d642d6>@@@Z@4HA 0000000180025750     libucrt:close.obj
 0002:0000a750       $unwind$?fin$0@?0???$?RV<lambda_fb3a7dec4e47f37f22dae91bb15c9095>@@AEAV<lambda_698284760c8add0bfb0756c19673e34b>@@V<lambda_dfb8eca1e75fef3034a8fb18dd509707>@@@?$__crt_seh_guarded_call@X@@QEAAX$$QEAV<lambda_fb3a7dec4e47f37f22dae91bb15c9095>@@AEAV<lambda_698284760c8add0bfb0756c19673e34b>@@$$QEAV<lambda_dfb8eca1e75fef3034a8fb18dd509707>@@@Z@4HA 0000000180025750     libucrt:per_thread_data.obj
 0002:0000a750       $unwind$rewind$fin$0       0000000180025750     libucrt:rewind.obj
 0002:0000a750       $unwind$?fin$0@?0???$common_ftell@J@@YAJV__crt_stdio_stream@@@Z@4HA 0000000180025750     libucrt:ftell.obj
 0002:0000a750       $unwind$__acrt_update_thread_locale_data$fin$0 0000000180025750     libucrt:locale_refcounting.obj
 0002:0000a750       $unwind$_alloc_osfhnd$fin$0 0000000180025750     libucrt:osfinfo.obj
 0002:0000a750       $unwind$common_flush_all$fin$0 0000000180025750     libucrt:fflush.obj
 0002:0000a750       $unwind$_ctrlfp$filt$0     0000000180025750     libucrt:fpctrl.obj
 0002:0000a750       $unwind$?fin$0@?0??__acrt_stdio_allocate_stream@@YA?AV__crt_stdio_stream@@XZ@4HA 0000000180025750     libucrt:stream.obj
 0002:0000a750       $unwind$?fin$0@?0???$?RV<lambda_7a5ef57ff966f610505f1d28a3d40618>@@AEAV<lambda_b721fa326cdb32351d23dfa67958c160>@@V<lambda_5e0fb27672408a07956fe59e48ccb2aa>@@@?$__crt_seh_guarded_call@H@@QEAAH$$QEAV<lambda_7a5ef57ff966f610505f1d28a3d40618>@@AEAV<lambda_b721fa326cdb32351d23dfa67958c160>@@$$QEAV<lambda_5e0fb27672408a07956fe59e48ccb2aa>@@@Z@4HA 0000000180025750     libucrt:setvbuf.obj
 0002:0000a750       $unwind$__acrt_lowio_ensure_fh_exists$fin$0 0000000180025750     libucrt:osfinfo.obj
 0002:0000a750       $unwind$__acrt_update_thread_multibyte_data$fin$0 0000000180025750     libucrt:mbctype.obj
 0002:0000a750       $unwind$common_control87$filt$0 0000000180025750     libucrt:ieee.obj
 0002:0000a750       $unwind$common_flush_all$fin$1 0000000180025750     libucrt:fflush.obj
 0002:0000a750       $unwind$__acrt_uninitialize_locale$fin$0 0000000180025750     libucrt:wsetlocale.obj
 0002:0000a758       $unwind$_setmbcp_nolock    0000000180025758     libucrt:mbctype.obj
 0002:0000a778       $unwind$?setSBUpLow@@YAXPEAU__crt_multibyte_data@@@Z 0000000180025778     libucrt:mbctype.obj
 0002:0000a794       $unwind$?setmbcp_internal@@YAHH_N@Z 0000000180025794     libucrt:mbctype.obj
 0002:0000a7a4       $unwind$??$?RV<lambda_99476a1ad63dd22509b5d3e65b0ffc95>@@AEAV<lambda_ad1ced32f4ac17aa236e5ef05d6b3b7c>@@V<lambda_f7424dd8d45958661754dc4f2697e9c3>@@@?$__crt_seh_guarded_call@X@@QEAAX$$QEAV<lambda_99476a1ad63dd22509b5d3e65b0ffc95>@@AEAV<lambda_ad1ced32f4ac17aa236e5ef05d6b3b7c>@@$$QEAV<lambda_f7424dd8d45958661754dc4f2697e9c3>@@@Z 00000001800257a4     libucrt:mbctype.obj
 0002:0000a7c8       $unwind$?x_ismbbtype_l@@YAHPEAU__crt_locale_pointers@@IHH@Z 00000001800257c8     libucrt:ismbbyte.obj
 0002:0000a7d8       $unwind$??0length_error@std@@QEAA@PEBD@Z 00000001800257d8     libcpmt:xthrow.obj
 0002:0000a7d8       $unwind$??0out_of_range@std@@QEAA@PEBD@Z 00000001800257d8     libcpmt:xthrow.obj
 0002:0000a7d8       $unwind$wcstol             00000001800257d8     libucrt:strtox.obj
 0002:0000a7d8       $unwind$??$common_xtox_s@K_W@@YAHKQEA_W_KI_N@Z 00000001800257d8     libucrt:xtoa.obj
 0002:0000a7e0       $unwind$_wctomb_s_l        00000001800257e0     libucrt:wctomb.obj
 0002:0000a7f0       $unwind$wcsnlen            00000001800257f0     libucrt:strnlen.obj
 0002:0000a7f8       $unwind$__acrt_fp_format   00000001800257f8     libucrt:cvt.obj
 0002:0000a814       $unwind$?fp_format_nan_or_infinity@@YAHW4__acrt_fp_class@@_NPEAD_K1@Z 0000000180025814     libucrt:cvt.obj
 0002:0000a828       $unwind$?fp_format_e_internal@@YAHQEAD_KH_NIQEAU_strflt@@2QEAU__crt_locale_pointers@@@Z 0000000180025828     libucrt:cvt.obj
 0002:0000a840       $unwind$?fp_format_a@@YAHQEBNPEAD_KQEAD2H_NIQEAU__crt_locale_pointers@@@Z 0000000180025840     libucrt:cvt.obj
 0002:0000a85c       $unwind$?fp_format_f_internal@@YAHQEAD_KHQEAU_strflt@@_NQEAU__crt_locale_pointers@@@Z 000000018002585c     libucrt:cvt.obj
 0002:0000a85c       $unwind$__dcrt_get_narrow_environment_from_os 000000018002585c     libucrt:get_environment_from_os.obj
 0002:0000a874       $unwind$?fp_format_g@@YAHQEBNQEAD_K12H_NIQEAU__crt_locale_pointers@@@Z 0000000180025874     libucrt:cvt.obj
 0002:0000a888       $unwind$_fputwc_nolock     0000000180025888     libucrt:fputwc.obj
 0002:0000a8a4       $unwind$_fcloseall         00000001800258a4     libucrt:closeall.obj
 0002:0000a8c8       $unwind$__acrt_GetStringTypeA 00000001800258c8     libucrt:getstringtypea.obj
 0002:0000a8f0       $unwind$?destroy_fls@@YAXPEAX@Z 00000001800258f0     libucrt:per_thread_data.obj
 0002:0000a8f0       $unwind$__acrt_locale_free_numeric 00000001800258f0     libucrt:initnum.obj
 0002:0000a8f0       $unwind$__acrt_locale_free_lc_time_if_unreferenced 00000001800258f0     libucrt:locale_refcounting.obj
 0002:0000a8f0       $unwind$_free_base         00000001800258f0     libucrt:free_base.obj
 0002:0000a8f8       $unwind$__acrt_update_thread_locale_data 00000001800258f8     libucrt:locale_refcounting.obj
 0002:0000a91c       $unwind$__acrt_locale_free_monetary 000000018002591c     libucrt:initmon.obj
 0002:0000a924       $unwind$__acrt_locale_free_time 0000000180025924     libucrt:inittime.obj
 0002:0000a934       $unwind$_strnicmp_l        0000000180025934     libucrt:strnicmp.obj
 0002:0000a948       $unwind$_sopen_nolock      0000000180025948     libucrt:open.obj
 0002:0000a948       $unwind$?fp_format_e@@YAHQEBNQEAD_K12H_NIQEAU__crt_locale_pointers@@@Z 0000000180025948     libucrt:cvt.obj
 0002:0000a95c       $unwind$_wsopen_nolock     000000018002595c     libucrt:open.obj
 0002:0000a978       $unwind$??$common_sopen_dispatch@D@@YAHQEBDHHHQEAHH@Z 0000000180025978     libucrt:open.obj
 0002:0000a99c       $unwind$?fin$0@?0???$common_sopen_dispatch@D@@YAHQEBDHHHQEAHH@Z@4HA 000000018002599c     libucrt:open.obj
 0002:0000a9a4       $unwind$?decode_options@@YA?AUfile_options@?A0x656cf9f4@@HHH@Z 00000001800259a4     libucrt:open.obj
 0002:0000a9b8       $unwind$?configure_text_mode@@YAHHUfile_options@?A0x656cf9f4@@HAEAW4__crt_lowio_text_mode@@@Z 00000001800259b8     libucrt:open.obj
 0002:0000a9d0       $unwind$??$?RV<lambda_b521505b218e5242e90febf6bfebc422>@@AEAV<lambda_6978c1fb23f02e42e1d9e99668cc68aa>@@V<lambda_314360699dd331753a4119843814e9a7>@@@?$__crt_seh_guarded_call@H@@QEAAH$$QEAV<lambda_b521505b218e5242e90febf6bfebc422>@@AEAV<lambda_6978c1fb23f02e42e1d9e99668cc68aa>@@$$QEAV<lambda_314360699dd331753a4119843814e9a7>@@@Z 00000001800259d0     libucrt:commit.obj
 0002:0000a9f4       $unwind$_putwch_nolock     00000001800259f4     libucrt:putwch.obj
 0002:0000a9f4       $unwind$__report_gsfailure 00000001800259f4     LIBCMT:gs_report.obj
 0002:0000a9fc       $unwind$?GetTableIndexFromLocaleName@@YAHPEB_W@Z 00000001800259fc     libucrt:lcidtoname_downlevel.obj
 0002:0000aa14       $unwind$qsort              0000000180025a14     libucrt:qsort.obj
 0002:0000aa2c       $chain$4$qsort             0000000180025a2c     libucrt:qsort.obj
 0002:0000aa50       $chain$5$qsort             0000000180025a50     libucrt:qsort.obj
 0002:0000aa60       $unwind$?shortsort@@YAXPEAD0_KP6AHPEBX2@Z@Z 0000000180025a60     libucrt:qsort.obj
 0002:0000aa70       $chain$2$?shortsort@@YAXPEAD0_KP6AHPEBX2@Z@Z 0000000180025a70     libucrt:qsort.obj
 0002:0000aa8c       $chain$3$?shortsort@@YAXPEAD0_KP6AHPEBX2@Z@Z 0000000180025a8c     libucrt:qsort.obj
 0002:0000aa9c       $unwind$strpbrk            0000000180025a9c     libucrt:strpbrk.obj
 0002:0000aaac       $unwind$__acrt_fltout      0000000180025aac     libucrt:cfout.obj
 0002:0000aacc       $unwind$?divide@__crt_strtox@@YA_KAEAUbig_integer@1@AEBU21@@Z 0000000180025acc     libucrt:cfout.obj
 0002:0000aaec       $chain$5$?divide@__crt_strtox@@YA_KAEAUbig_integer@1@AEBU21@@Z 0000000180025aec     libucrt:cfout.obj
 0002:0000ab00       $chain$6$?divide@__crt_strtox@@YA_KAEAUbig_integer@1@AEBU21@@Z 0000000180025b00     libucrt:cfout.obj
 0002:0000ab10       $unwind$??$write_buffer_nolock@D@@YA_NDV__crt_stdio_stream@@@Z 0000000180025b10     libucrt:_flsbuf.obj
 0002:0000ab20       $unwind$??$write_buffer_nolock@_W@@YA_N_WV__crt_stdio_stream@@@Z 0000000180025b20     libucrt:_flsbuf.obj
 0002:0000ab30       $unwind$_setmode_nolock    0000000180025b30     libucrt:setmode.obj
 0002:0000ab40       $unwind$??$create_environment@D@@YAQEAPEADQEAD@Z 0000000180025b40     libucrt:environment_initialization.obj
 0002:0000ab40       $unwind$__acrt_copy_path_to_wide_string 0000000180025b40     libucrt:string_utilities.obj
 0002:0000ab58       $unwind$?_Xbad_alloc@std@@YAXXZ 0000000180025b58     libcpmt:xthrow.obj
 0002:0000ab58       $unwind$?_Xout_of_range@std@@YAXPEBD@Z 0000000180025b58     libcpmt:xthrow.obj
 0002:0000ab58       $unwind$__dcrt_lowio_initialize_console_output 0000000180025b58     libucrt:initcon.obj
 0002:0000ab58       $unwind$_raise_exc         0000000180025b58     libucrt:fpexcept.obj
 0002:0000ab58       $unwind$?__scrt_throw_std_bad_array_new_length@@YAXXZ 0000000180025b58     LIBCMT:throw_bad_alloc.obj
 0002:0000ab58       $unwind$?__scrt_throw_std_bad_alloc@@YAXXZ 0000000180025b58     LIBCMT:throw_bad_alloc.obj
 0002:0000ab58       $unwind$?_Xlength_error@std@@YAXPEBD@Z 0000000180025b58     libcpmt:xthrow.obj
 0002:0000ab60       $xdatasym                  0000000180025b60     libucrt:log10.obj
 0002:0000ab6c       $unwind$common_control87   0000000180025b6c     libucrt:ieee.obj
 0002:0000ab9c       $unwind$_call_matherr      0000000180025b9c     libucrt:libm_error.obj
 0002:0000aba4       $unwind$_handle_error      0000000180025ba4     libucrt:libm_error.obj
 0002:0000abc4       $unwind$__acrt_initialize_fma3 0000000180025bc4     libucrt:fma3_available.obj
 0002:0000abcc       $unwind$_log_special_common 0000000180025bcc     libucrt:log_special.obj
 0002:0000abd8       $unwind$_invalid_parameter_noinfo 0000000180025bd8     libucrt:invalid_parameter.obj
 0002:0000abd8       $unwind$_invalid_parameter_noinfo_noreturn 0000000180025bd8     libucrt:invalid_parameter.obj
 0002:0000abd8       $unwind$atoi               0000000180025bd8     libucrt:atox.obj
 0002:0000abd8       $unwind$_itow_s            0000000180025bd8     libucrt:xtoa.obj
 0002:0000abd8       $unwind$_sopen_s           0000000180025bd8     libucrt:open.obj
 0002:0000abd8       $unwind$_log10_special     0000000180025bd8     libucrt:log_special.obj
 0002:0000abd8       $unwind$wctomb_s           0000000180025bd8     libucrt:wctomb.obj
 0002:0000abd8       $unwind$atol               0000000180025bd8     libucrt:atox.obj
 0002:0000abe0       $xdatasym                  0000000180025be0     libucrt:fpsr.obj
 0002:0000abe8       $unwind$?common_fseek_nolock@@YAHV__crt_stdio_stream@@_JH@Z 0000000180025be8     libucrt:fseek.obj
 0002:0000abe8       $unwind$??$common_refill_and_read_nolock@D@@YAHV__crt_stdio_stream@@@Z 0000000180025be8     libucrt:_filbuf.obj
 0002:0000abe8       $unwind$_raise_exc_ex      0000000180025be8     libucrt:fpexcept.obj
 0002:0000abfc       $unwind$_ctrlfp            0000000180025bfc     libucrt:fpctrl.obj
 0002:0000ac24       $unwind$_IsNonwritableInCurrentImage 0000000180025c24     LIBCMT:pesect.obj
 0002:0000ac48       $unwind$__GSHandlerCheckCommon 0000000180025c48     LIBCMT:_gshandler_.obj
 0002:0000ac50       $xdatasym                  0000000180025c50     LIBCMT:_chkstk_.obj
 0002:0000ac58       $xdatasym                  0000000180025c58     libvcruntime:memcmp.obj
 0002:0000ac5c       $unwind$strrchr            0000000180025c5c     libvcruntime:strrchr.obj
 0002:0000ac5c       $unwind$strchr             0000000180025c5c     libvcruntime:strchr.obj
 0002:0000ac68       $xdatasym                  0000000180025c68     libucrt:strcmp.obj
 0002:0000ae60       .edata                     0000000180025e60     ctags.exp
 0002:0000ae88       rgpv                       0000000180025e88     ctags.exp
 0002:0000ae8c       rgszName                   0000000180025e8c     ctags.exp
 0002:0000ae90       rgwOrd                     0000000180025e90     ctags.exp
 0002:0000ae92       szName                     0000000180025e92     ctags.exp
 0002:0000ae9d       $N00001                    0000000180025e9d     ctags.exp
 0002:0000b2c0       .idata$6                   00000001800262c0     kernel32:KERNEL32.dll
 0002:0000bec4       .idata$6                   0000000180026ec4     iojs:node.dll
 0003:00000030       ?__vcrt_flsindex@@3KA      0000000180028030     libvcruntime:per_thread_data.obj
 0003:00000040       errno_no_memory            0000000180028040     libucrt:errno.obj
 0003:00000044       doserrno_no_memory         0000000180028044     libucrt:errno.obj
 0003:000002a8       __acrt_flsindex            00000001800282a8     libucrt:per_thread_data.obj
 0003:00000650       __rgctypeflag              0000000180028650     libucrt:mbctype.obj
 0003:00000660       __rgcode_page_info         0000000180028660     libucrt:mbctype.obj
 0003:00000a20       ?dazSupported@?1??common_control87@@9@9 0000000180028a20     libucrt:ieee.obj
 0003:00000a30       ?dazSupported@?1??_ctrlfp@@9@9 0000000180028a30     libucrt:fpctrl.obj
 0003:00000a50       _module                    0000000180028a50     tags.obj
 0003:00000bb0       ?__proc_attached@@3HA      0000000180028bb0     LIBCMT:dll_dllmain.obj
 0003:00000bc0       GS_ExceptionRecord         0000000180028bc0     LIBCMT:gs_report.obj
 0003:00000c60       GS_ContextRecord           0000000180028c60     LIBCMT:gs_report.obj
 0003:00001140       ?module_local_atexit_table@@3U_onexit_table_t@@A 0000000180029140     LIBCMT:utility.obj
 0003:00001158       ?module_local_at_quick_exit_table@@3U_onexit_table_t@@A 0000000180029158     LIBCMT:utility.obj
 0003:00001170       ?is_initialized_as_dll@@3_NA 0000000180029170     LIBCMT:utility.obj
 0003:000011b0       ?__vcrt_startup_thread_ptd@@3U__vcrt_ptd@@A 00000001800291b0     libvcruntime:per_thread_data.obj
 0003:00001228       __vcrt_lock_table          0000000180029228     libvcruntime:locks.obj
 0003:00001250       __vcrt_locks_initialized   0000000180029250     libvcruntime:locks.obj
 0003:00001260       ?module_handles@@3PAPEAUHINSTANCE__@@A 0000000180029260     libvcruntime:winapi_downlevel.obj
 0003:00001280       ?encoded_function_pointers@@3PAPEAXA 0000000180029280     libvcruntime:winapi_downlevel.obj
 0003:00001310       ?heap@@3V_HeapManager@@A   0000000180029310     libvcruntime:undname.obj
 0003:00001338       __acrt_invalid_parameter_handler 0000000180029338     libucrt:invalid_parameter.obj
 0003:00001340       __acrt_new_handler         0000000180029340     libucrt:new_handler.obj
 0003:00001348       c_termination_complete     0000000180029348     libucrt:exit.obj
 0003:00001350       thread_local_exit_callback_func 0000000180029350     libucrt:exit.obj
 0003:00001358       ?c_exit_complete@?5??common_exit@@YAXHW4_crt_exit_cleanup_mode@@W4_crt_exit_return_mode@@@Z@4_NA 0000000180029358     libucrt:exit.obj
 0003:00001360       ?program_name@?5???$common_configure_argv@D@@YAHW4_crt_argv_mode@@@Z@4PADA 0000000180029360     libucrt:argv_parsing.obj
 0003:000018e0       __acrt_app_type            00000001800298e0     libucrt:report_runtime_error.obj
 0003:000018e4       __acrt_error_mode          00000001800298e4     libucrt:set_error_mode.obj
 0003:000018e8       ctrlc_action               00000001800298e8     libucrt:signal.obj
 0003:000018f0       ctrlbreak_action           00000001800298f0     libucrt:signal.obj
 0003:000018f8       abort_action               00000001800298f8     libucrt:signal.obj
 0003:00001900       term_action                0000000180029900     libucrt:signal.obj
 0003:00001910       __acrt_lock_table          0000000180029910     libucrt:locks.obj
 0003:00001b18       __acrt_locks_initialized   0000000180029b18     libucrt:locks.obj
 0003:00001b20       module_handles             0000000180029b20     libucrt:winapi_thunks.obj
 0003:00001bc0       encoded_function_pointers  0000000180029bc0     libucrt:winapi_thunks.obj
 0003:00001cc0       ?state_cache@?1??__acrt_is_packaged_app@@9@4JA 0000000180029cc0     libucrt:winapi_thunks.obj
 0003:00001cdc       fSystemSet                 0000000180029cdc     libucrt:mbctype.obj
 0003:00001ce8       ?initialized@?1??__acrt_initialize_multibyte@@9@4_NA 0000000180029ce8     libucrt:mbctype.obj
 0003:00001d20       user_matherr               0000000180029d20     libucrt:matherr.obj
 0003:00001d38       __acrt_global_new_mode     0000000180029d38     libucrt:new_mode.obj
 0003:00001d40       enable_percent_n           0000000180029d40     libucrt:printf_count_output.obj
 0004:00000000       $pdata$copyName            000000018002a000     readtags.obj
 0004:0000000c       $pdata$0$copyName          000000018002a00c     readtags.obj
 0004:00000018       $pdata$1$copyName          000000018002a018     readtags.obj
 0004:00000024       $pdata$readTagLine         000000018002a024     readtags.obj
 0004:00000030       $pdata$parseExtensionFields 000000018002a030     readtags.obj
 0004:0000003c       $pdata$4$parseExtensionFields 000000018002a03c     readtags.obj
 0004:00000048       $pdata$5$parseExtensionFields 000000018002a048     readtags.obj
 0004:00000054       $pdata$parseTagLine        000000018002a054     readtags.obj
 0004:00000060       $pdata$1$parseTagLine      000000018002a060     readtags.obj
 0004:0000006c       $pdata$2$parseTagLine      000000018002a06c     readtags.obj
 0004:00000078       $pdata$3$parseTagLine      000000018002a078     readtags.obj
 0004:00000084       $pdata$4$parseTagLine      000000018002a084     readtags.obj
 0004:00000090       $pdata$5$parseTagLine      000000018002a090     readtags.obj
 0004:0000009c       $pdata$readPseudoTags      000000018002a09c     readtags.obj
 0004:000000a8       $pdata$0$readPseudoTags    000000018002a0a8     readtags.obj
 0004:000000b4       $pdata$1$readPseudoTags    000000018002a0b4     readtags.obj
 0004:000000c0       $pdata$initialize          000000018002a0c0     readtags.obj
 0004:000000cc       $pdata$1$initialize        000000018002a0cc     readtags.obj
 0004:000000d8       $pdata$2$initialize        000000018002a0d8     readtags.obj
 0004:000000e4       $pdata$3$initialize        000000018002a0e4     readtags.obj
 0004:000000f0       $pdata$terminate           000000018002a0f0     readtags.obj
 0004:000000fc       $pdata$nameComparison      000000018002a0fc     readtags.obj
 0004:00000108       $pdata$2$nameComparison    000000018002a108     readtags.obj
 0004:00000114       $pdata$3$nameComparison    000000018002a114     readtags.obj
 0004:00000120       $pdata$4$nameComparison    000000018002a120     readtags.obj
 0004:0000012c       $pdata$6$nameComparison    000000018002a12c     readtags.obj
 0004:00000138       $pdata$7$nameComparison    000000018002a138     readtags.obj
 0004:00000144       $pdata$findFirstNonMatchBefore 000000018002a144     readtags.obj
 0004:00000150       $pdata$findFirstMatchBefore 000000018002a150     readtags.obj
 0004:0000015c       $pdata$findBinary          000000018002a15c     readtags.obj
 0004:00000168       $pdata$find                000000018002a168     readtags.obj
 0004:00000174       $pdata$?Wrap@ObjectWrap@node@@IEAAXV?$Local@VObject@v8@@@v8@@@Z 000000018002a174     tags.obj
 0004:00000180       $pdata$?Ref@ObjectWrap@node@@MEAAXXZ 000000018002a180     tags.obj
 0004:0000018c       $pdata$?Unref@ObjectWrap@node@@MEAAXXZ 000000018002a18c     tags.obj
 0004:00000198       $pdata$?WeakCallback@ObjectWrap@node@@CAXAEBV?$WeakCallbackInfo@VObjectWrap@node@@@v8@@@Z 000000018002a198     tags.obj
 0004:000001a4       $pdata$??_GObjectWrap@node@@UEAAPEAXI@Z 000000018002a1a4     tags.obj
 0004:000001b0       $pdata$?FunctionCallbackWrapper@imp@Nan@@YAXAEBV?$FunctionCallbackInfo@VValue@v8@@@v8@@@Z 000000018002a1b0     tags.obj
 0004:000001bc       $pdata$?New@?$Factory@VFunctionTemplate@v8@@@imp@Nan@@SA?AV?$Local@VFunctionTemplate@v8@@@v8@@P6AXAEBV?$FunctionCallbackInfo@VValue@v8@@@3@@ZV?$Local@VValue@v8@@@5@V?$Local@VSignature@v8@@@5@@Z 000000018002a1bc     tags.obj
 0004:000001c8       $pdata$0$?New@?$Factory@VFunctionTemplate@v8@@@imp@Nan@@SA?AV?$Local@VFunctionTemplate@v8@@@v8@@P6AXAEBV?$FunctionCallbackInfo@VValue@v8@@@3@@ZV?$Local@VValue@v8@@@5@V?$Local@VSignature@v8@@@5@@Z 000000018002a1c8     tags.obj
 0004:000001d4       $pdata$1$?New@?$Factory@VFunctionTemplate@v8@@@imp@Nan@@SA?AV?$Local@VFunctionTemplate@v8@@@v8@@P6AXAEBV?$FunctionCallbackInfo@VValue@v8@@@3@@ZV?$Local@VValue@v8@@@5@V?$Local@VSignature@v8@@@5@@Z 000000018002a1d4     tags.obj
 0004:000001e0       $pdata$2$?New@?$Factory@VFunctionTemplate@v8@@@imp@Nan@@SA?AV?$Local@VFunctionTemplate@v8@@@v8@@P6AXAEBV?$FunctionCallbackInfo@VValue@v8@@@3@@ZV?$Local@VValue@v8@@@5@V?$Local@VSignature@v8@@@5@@Z 000000018002a1e0     tags.obj
 0004:000001ec       $pdata$3$?New@?$Factory@VFunctionTemplate@v8@@@imp@Nan@@SA?AV?$Local@VFunctionTemplate@v8@@@v8@@P6AXAEBV?$FunctionCallbackInfo@VValue@v8@@@3@@ZV?$Local@VValue@v8@@@5@V?$Local@VSignature@v8@@@5@@Z 000000018002a1ec     tags.obj
 0004:000001f8       $pdata$?Call@Callback@Nan@@QEBA?AV?$Local@VValue@v8@@@v8@@HQEAV34@@Z 000000018002a1f8     tags.obj
 0004:00000204       $pdata$??0AsyncWorker@Nan@@QEAA@PEAVCallback@1@@Z 000000018002a204     tags.obj
 0004:00000210       $pdata$??1AsyncWorker@Nan@@UEAA@XZ 000000018002a210     tags.obj
 0004:0000021c       $pdata$?WorkComplete@AsyncWorker@Nan@@UEAAXXZ 000000018002a21c     tags.obj
 0004:00000228       $pdata$?HandleOKCallback@AsyncWorker@Nan@@MEAAXXZ 000000018002a228     tags.obj
 0004:00000234       $pdata$?HandleErrorCallback@AsyncWorker@Nan@@MEAAXXZ 000000018002a234     tags.obj
 0004:00000240       $pdata$??_GAsyncWorker@Nan@@UEAAPEAXI@Z 000000018002a240     tags.obj
 0004:0000024c       $pdata$?AsyncExecuteComplete@Nan@@YAXPEAUuv_work_s@@@Z 000000018002a24c     tags.obj
 0004:00000258       $pdata$??1Tags@@EEAA@XZ    000000018002a258     tags.obj
 0004:00000264       $pdata$??_GTags@@EEAAPEAXI@Z 000000018002a264     tags.obj
 0004:00000270       $pdata$??0TagFinder@@QEAA@PEAVCallback@Nan@@V?$basic_string@DU?$char_traits@D@std@@V?$allocator@D@2@@std@@HPEAUsTagFile@@@Z 000000018002a270     tags.obj
 0004:0000027c       $pdata$??_GTagFinder@@UEAAPEAXI@Z 000000018002a27c     tags.obj
 0004:00000288       $pdata$??_GTagReader@@UEAAPEAXI@Z 000000018002a288     tags.obj
 0004:00000294       $pdata$?Init@Tags@@SAXV?$Local@VObject@v8@@@v8@@@Z 000000018002a294     tags.obj
 0004:000002a0       $pdata$?New@Tags@@CAXAEBV?$FunctionCallbackInfo@VValue@v8@@@Nan@@@Z 000000018002a2a0     tags.obj
 0004:000002ac       $pdata$?GetTags@Tags@@CAXAEBV?$FunctionCallbackInfo@VValue@v8@@@Nan@@@Z 000000018002a2ac     tags.obj
 0004:000002b8       $pdata$?FindTags@Tags@@CAXAEBV?$FunctionCallbackInfo@VValue@v8@@@Nan@@@Z 000000018002a2b8     tags.obj
 0004:000002c4       $pdata$??0Tags@@AEAA@V?$Local@VString@v8@@@v8@@@Z 000000018002a2c4     tags.obj
 0004:000002d0       $pdata$?Exists@Tags@@CAXAEBV?$FunctionCallbackInfo@VValue@v8@@@Nan@@@Z 000000018002a2d0     tags.obj
 0004:000002dc       $pdata$?End@Tags@@CAXAEBV?$FunctionCallbackInfo@VValue@v8@@@Nan@@@Z 000000018002a2dc     tags.obj
 0004:000002e8       $pdata$??1?$basic_string@DU?$char_traits@D@std@@V?$allocator@D@2@@std@@QEAA@XZ 000000018002a2e8     tags.obj
 0004:000002f4       $pdata$?_Tidy@?$vector@VTag@@V?$allocator@VTag@@@std@@@std@@IEAAXXZ 000000018002a2f4     tags.obj
 0004:00000300       $pdata$?assign@?$basic_string@DU?$char_traits@D@std@@V?$allocator@D@2@@std@@QEAAAEAV12@PEBD_K@Z 000000018002a300     tags.obj
 0004:0000030c       $pdata$?assign@?$basic_string@DU?$char_traits@D@std@@V?$allocator@D@2@@std@@QEAAAEAV12@AEBV12@_K1@Z 000000018002a30c     tags.obj
 0004:00000318       $pdata$?erase@?$basic_string@DU?$char_traits@D@std@@V?$allocator@D@2@@std@@QEAAAEAV12@_K0@Z 000000018002a318     tags.obj
 0004:00000324       $pdata$?_Copy@?$basic_string@DU?$char_traits@D@std@@V?$allocator@D@2@@std@@QEAAX_K0@Z 000000018002a324     tags.obj
 0004:00000330       $pdata$??$Unwrap@VTags@@@ObjectWrap@node@@SAPEAVTags@@V?$Local@VObject@v8@@@v8@@@Z 000000018002a330     tags.obj
 0004:0000033c       $pdata$??$_Destroy_range1@V?$allocator@VTag@@@std@@PEAVTag@@@std@@YAXPEAVTag@@0AEAU?$_Wrap_alloc@V?$allocator@VTag@@@std@@@0@U?$integral_constant@_N$0A@@0@@Z 000000018002a33c     tags.obj
 0004:00000348       $pdata$1$??$_Destroy_range1@V?$allocator@VTag@@@std@@PEAVTag@@@std@@YAXPEAVTag@@0AEAU?$_Wrap_alloc@V?$allocator@VTag@@@std@@@0@U?$integral_constant@_N$0A@@0@@Z 000000018002a348     tags.obj
 0004:00000354       $pdata$2$??$_Destroy_range1@V?$allocator@VTag@@@std@@PEAVTag@@@std@@YAXPEAVTag@@0AEAU?$_Wrap_alloc@V?$allocator@VTag@@@std@@@0@U?$integral_constant@_N$0A@@0@@Z 000000018002a354     tags.obj
 0004:00000360       $pdata$3$??$_Destroy_range1@V?$allocator@VTag@@@std@@PEAVTag@@@std@@YAXPEAVTag@@0AEAU?$_Wrap_alloc@V?$allocator@VTag@@@std@@@0@U?$integral_constant@_N$0A@@0@@Z 000000018002a360     tags.obj
 0004:0000036c       $pdata$??0Tag@@QEAA@UtagEntry@@@Z 000000018002a36c     tag-finder.obj
 0004:00000378       $pdata$?Execute@TagFinder@@UEAAXXZ 000000018002a378     tag-finder.obj
 0004:00000384       $pdata$3$?Execute@TagFinder@@UEAAXXZ 000000018002a384     tag-finder.obj
 0004:00000390       $pdata$4$?Execute@TagFinder@@UEAAXXZ 000000018002a390     tag-finder.obj
 0004:0000039c       $pdata$5$?Execute@TagFinder@@UEAAXXZ 000000018002a39c     tag-finder.obj
 0004:000003a8       $pdata$?HandleOKCallback@TagFinder@@UEAAXXZ 000000018002a3a8     tag-finder.obj
 0004:000003b4       $pdata$?push_back@?$vector@VTag@@V?$allocator@VTag@@@std@@@std@@QEAAX$$QEAVTag@@@Z 000000018002a3b4     tag-finder.obj
 0004:000003c0       $pdata$??0?$basic_string@DU?$char_traits@D@std@@V?$allocator@D@2@@std@@QEAA@$$QEAV01@@Z 000000018002a3c0     tag-finder.obj
 0004:000003cc       $pdata$?_Reserve@?$vector@VTag@@V?$allocator@VTag@@@std@@@std@@IEAAX_K@Z 000000018002a3cc     tag-finder.obj
 0004:000003d8       $pdata$?_Reallocate@?$vector@VTag@@V?$allocator@VTag@@@std@@@std@@IEAAX_K@Z 000000018002a3d8     tag-finder.obj
 0004:000003e4       $pdata$1$?_Reallocate@?$vector@VTag@@V?$allocator@VTag@@@std@@@std@@IEAAX_K@Z 000000018002a3e4     tag-finder.obj
 0004:000003f0       $pdata$2$?_Reallocate@?$vector@VTag@@V?$allocator@VTag@@@std@@@std@@IEAAX_K@Z 000000018002a3f0     tag-finder.obj
 0004:000003fc       $pdata$3$?_Reallocate@?$vector@VTag@@V?$allocator@VTag@@@std@@@std@@IEAAX_K@Z 000000018002a3fc     tag-finder.obj
 0004:00000408       $pdata$??$_Uninitialized_move_al_unchecked@PEAVTag@@PEAV1@V?$allocator@VTag@@@std@@@std@@YAPEAVTag@@PEAV1@00AEAU?$_Wrap_alloc@V?$allocator@VTag@@@std@@@0@@Z 000000018002a408     tag-finder.obj
 0004:00000414       $pdata$1$??$_Uninitialized_move_al_unchecked@PEAVTag@@PEAV1@V?$allocator@VTag@@@std@@@std@@YAPEAVTag@@PEAV1@00AEAU?$_Wrap_alloc@V?$allocator@VTag@@@std@@@0@@Z 000000018002a414     tag-finder.obj
 0004:00000420       $pdata$2$??$_Uninitialized_move_al_unchecked@PEAVTag@@PEAV1@V?$allocator@VTag@@@std@@@std@@YAPEAVTag@@PEAV1@00AEAU?$_Wrap_alloc@V?$allocator@VTag@@@std@@@0@@Z 000000018002a420     tag-finder.obj
 0004:0000042c       $pdata$?Execute@TagReader@@UEAAXXZ 000000018002a42c     tag-reader.obj
 0004:00000438       $pdata$0$?Execute@TagReader@@UEAAXXZ 000000018002a438     tag-reader.obj
 0004:00000444       $pdata$1$?Execute@TagReader@@UEAAXXZ 000000018002a444     tag-reader.obj
 0004:00000450       $pdata$2$?Execute@TagReader@@UEAAXXZ 000000018002a450     tag-reader.obj
 0004:0000045c       $pdata$?HandleOKCallback@TagReader@@UEAAXXZ 000000018002a45c     tag-reader.obj
 0004:00000474       $pdata$??2@YAPEAX_K@Z      000000018002a474     LIBCMT:new_scalar.obj
 0004:00000480       $pdata$?dllmain_crt_dispatch@@YAHQEAUHINSTANCE__@@KQEAX@Z 000000018002a480     LIBCMT:dll_dllmain.obj
 0004:0000048c       $pdata$?dllmain_crt_process_attach@@YAHQEAUHINSTANCE__@@QEAX@Z 000000018002a48c     LIBCMT:dll_dllmain.obj
 0004:00000498       $pdata$?dllmain_crt_process_detach@@YAH_N@Z 000000018002a498     LIBCMT:dll_dllmain.obj
 0004:000004a4       $pdata$?dllmain_dispatch@@YAHQEAUHINSTANCE__@@KQEAX@Z 000000018002a4a4     LIBCMT:dll_dllmain.obj
 0004:000004b0       $pdata$?dllmain_raw@@YAHQEAUHINSTANCE__@@KQEAX@Z 000000018002a4b0     LIBCMT:dll_dllmain.obj
 0004:000004bc       $pdata$_DllMainCRTStartup  000000018002a4bc     LIBCMT:dll_dllmain.obj
 0004:000004c8       $pdata$__raise_securityfailure 000000018002a4c8     LIBCMT:gs_report.obj
 0004:000004d4       $pdata$__report_gsfailure  000000018002a4d4     LIBCMT:gs_report.obj
 0004:000004e0       $pdata$__report_rangecheckfailure 000000018002a4e0     LIBCMT:gs_report.obj
 0004:000004ec       $pdata$__report_securityfailure 000000018002a4ec     LIBCMT:gs_report.obj
 0004:000004f8       $pdata$capture_current_context 000000018002a4f8     LIBCMT:gs_report.obj
 0004:00000504       $pdata$capture_previous_context 000000018002a504     LIBCMT:gs_report.obj
 0004:00000510       $pdata$??0bad_alloc@std@@QEAA@AEBV01@@Z 000000018002a510     LIBCMT:throw_bad_alloc.obj
 0004:0000051c       $pdata$??0bad_array_new_length@std@@QEAA@AEBV01@@Z 000000018002a51c     LIBCMT:throw_bad_alloc.obj
 0004:00000528       $pdata$??0exception@std@@QEAA@AEBV01@@Z 000000018002a528     LIBCMT:throw_bad_alloc.obj
 0004:00000534       $pdata$?_Xbad_alloc@std@@YAXXZ 000000018002a534     libcpmt:xthrow.obj
 0004:00000534       $pdata$?__scrt_throw_std_bad_alloc@@YAXXZ 000000018002a534     LIBCMT:throw_bad_alloc.obj
 0004:00000540       $pdata$?__scrt_throw_std_bad_array_new_length@@YAXXZ 000000018002a540     LIBCMT:throw_bad_alloc.obj
 0004:0000054c       $pdata$__scrt_acquire_startup_lock 000000018002a54c     LIBCMT:utility.obj
 0004:00000558       $pdata$__scrt_dllmain_after_initialize_c 000000018002a558     LIBCMT:utility.obj
 0004:00000564       $pdata$__scrt_dllmain_before_initialize_c 000000018002a564     LIBCMT:utility.obj
 0004:00000570       $pdata$__scrt_dllmain_crt_thread_attach 000000018002a570     LIBCMT:utility.obj
 0004:0000057c       $pdata$__scrt_dllmain_crt_thread_detach 000000018002a57c     LIBCMT:utility.obj
 0004:00000588       $pdata$__scrt_dllmain_exception_filter 000000018002a588     LIBCMT:utility.obj
 0004:00000594       $pdata$__scrt_dllmain_uninitialize_c 000000018002a594     LIBCMT:utility.obj
 0004:000005a0       $pdata$__scrt_dllmain_uninitialize_critical 000000018002a5a0     LIBCMT:utility.obj
 0004:000005ac       $pdata$__scrt_initialize_crt 000000018002a5ac     LIBCMT:utility.obj
 0004:000005b8       $pdata$__scrt_initialize_onexit_tables 000000018002a5b8     LIBCMT:utility.obj
 0004:000005c4       $pdata$__scrt_is_nonwritable_in_current_image 000000018002a5c4     LIBCMT:utility.obj
 0004:000005d0       $pdata$__scrt_release_startup_lock 000000018002a5d0     LIBCMT:utility.obj
 0004:000005dc       $pdata$__scrt_uninitialize_crt 000000018002a5dc     LIBCMT:utility.obj
 0004:000005e8       $pdata$_onexit             000000018002a5e8     LIBCMT:utility.obj
 0004:000005f4       $pdata$atexit              000000018002a5f4     LIBCMT:utility.obj
 0004:00000600       $pdata$__security_init_cookie 000000018002a600     LIBCMT:gs_support.obj
 0004:0000060c       $pdata$__scrt_initialize_default_local_stdio_options 000000018002a60c     LIBCMT:default_local_stdio_options.obj
 0004:00000618       $pdata$__scrt_fastfail     000000018002a618     LIBCMT:utility_desktop.obj
 0004:00000624       $pdata$_RTC_Initialize     000000018002a624     LIBCMT:_initsect_.obj
 0004:00000630       $pdata$_RTC_Terminate      000000018002a630     LIBCMT:_initsect_.obj
 0004:0000063c       $pdata$??_Gtype_info@@UEAAPEAXI@Z 000000018002a63c     LIBCMT:std_type_info_static.obj
 0004:00000648       $pdata$__isa_available_init 000000018002a648     LIBCMT:_cpu_disp_.obj
 0004:00000654       $pdata$??0length_error@std@@QEAA@AEBV01@@Z 000000018002a654     libcpmt:xthrow.obj
 0004:00000660       $pdata$??0length_error@std@@QEAA@PEBD@Z 000000018002a660     libcpmt:xthrow.obj
 0004:0000066c       $pdata$??0logic_error@std@@QEAA@AEBV01@@Z 000000018002a66c     libcpmt:xthrow.obj
 0004:00000678       $pdata$??0out_of_range@std@@QEAA@AEBV01@@Z 000000018002a678     libcpmt:xthrow.obj
 0004:00000684       $pdata$??0out_of_range@std@@QEAA@PEBD@Z 000000018002a684     libcpmt:xthrow.obj
 0004:00000690       $pdata$??_Gbad_alloc@std@@UEAAPEAXI@Z 000000018002a690     LIBCMT:throw_bad_alloc.obj
 0004:00000690       $pdata$??_Glength_error@std@@UEAAPEAXI@Z 000000018002a690     libcpmt:xthrow.obj
 0004:00000690       $pdata$??_Gout_of_range@std@@UEAAPEAXI@Z 000000018002a690     libcpmt:xthrow.obj
 0004:00000690       $pdata$??_Gexception@std@@UEAAPEAXI@Z 000000018002a690     LIBCMT:throw_bad_alloc.obj
 0004:00000690       $pdata$??_Gbad_array_new_length@std@@UEAAPEAXI@Z 000000018002a690     LIBCMT:throw_bad_alloc.obj
 0004:00000690       $pdata$??_Glogic_error@std@@UEAAPEAXI@Z 000000018002a690     libcpmt:xthrow.obj
 0004:0000069c       $pdata$?_Xlength_error@std@@YAXPEBD@Z 000000018002a69c     libcpmt:xthrow.obj
 0004:000006a8       $pdata$?_Xout_of_range@std@@YAXPEBD@Z 000000018002a6a8     libcpmt:xthrow.obj
 0004:000006b4       $pdata$strchr              000000018002a6b4     libvcruntime:strchr.obj
 0004:000006cc       $pdata$_purecall           000000018002a6cc     libvcruntime:purevirt.obj
 0004:000006d8       $pdata$__C_specific_handler 000000018002a6d8     libvcruntime:_chandler_.obj
 0004:000006e4       $pdata$__std_exception_copy 000000018002a6e4     libvcruntime:std_exception.obj
 0004:000006f0       $pdata$__std_exception_destroy 000000018002a6f0     libvcruntime:std_exception.obj
 0004:000006fc       $pdata$_CxxThrowException  000000018002a6fc     libvcruntime:throw.obj
 0004:00000708       $pdata$__vcrt_initialize   000000018002a708     libvcruntime:initialization.obj
 0004:00000714       $pdata$__vcrt_thread_attach 000000018002a714     libvcruntime:initialization.obj
 0004:00000720       $pdata$__vcrt_thread_detach 000000018002a720     libvcruntime:initialization.obj
 0004:0000072c       $pdata$__vcrt_uninitialize 000000018002a72c     libvcruntime:initialization.obj
 0004:00000738       $pdata$__vcrt_uninitialize_critical 000000018002a738     libvcruntime:initialization.obj
 0004:00000744       $pdata$__std_type_info_destroy_list 000000018002a744     libvcruntime:std_type_info.obj
 0004:0000078c       $pdata$__vcrt_freefls      000000018002a78c     libvcruntime:per_thread_data.obj
 0004:00000798       $pdata$__vcrt_freeptd      000000018002a798     libvcruntime:per_thread_data.obj
 0004:000007a4       $pdata$__vcrt_getptd_noexit 000000018002a7a4     libvcruntime:per_thread_data.obj
 0004:000007b0       $pdata$__vcrt_initialize_ptd 000000018002a7b0     libvcruntime:per_thread_data.obj
 0004:000007bc       $pdata$__vcrt_uninitialize_ptd 000000018002a7bc     libvcruntime:per_thread_data.obj
 0004:000007c8       $pdata$__vcrt_initialize_locks 000000018002a7c8     libvcruntime:locks.obj
 0004:000007d4       $pdata$__vcrt_uninitialize_locks 000000018002a7d4     libvcruntime:locks.obj
 0004:000007e0       $pdata$?try_get_function@@YAPEAXW4function_id@?A0x679b24ab@@QEBDQEBW4module_id@2@2@Z 000000018002a7e0     libvcruntime:winapi_downlevel.obj
 0004:000007ec       $pdata$__vcrt_FlsAlloc     000000018002a7ec     libvcruntime:winapi_downlevel.obj
 0004:000007f8       $pdata$__vcrt_FlsFree      000000018002a7f8     libvcruntime:winapi_downlevel.obj
 0004:00000804       $pdata$__vcrt_FlsGetValue  000000018002a804     libvcruntime:winapi_downlevel.obj
 0004:00000810       $pdata$__vcrt_FlsSetValue  000000018002a810     libvcruntime:winapi_downlevel.obj
 0004:0000081c       $pdata$__vcrt_InitializeCriticalSectionEx 000000018002a81c     libvcruntime:winapi_downlevel.obj
 0004:00000828       $pdata$__vcrt_uninitialize_winapi_thunks 000000018002a828     libvcruntime:winapi_downlevel.obj
 0004:00000834       $pdata$??$common_ftell@J@@YAJV__crt_stdio_stream@@@Z 000000018002a834     libucrt:ftell.obj
 0004:00000840       $pdata$??$common_ftell@_J@@YA_JV__crt_stdio_stream@@@Z 000000018002a840     libucrt:ftell.obj
 0004:0000084c       $pdata$??$common_ftell_nolock@_J@@YA_JV__crt_stdio_stream@@@Z 000000018002a84c     libucrt:ftell.obj
 0004:00000858       $pdata$?common_ftell_read_mode_nolock@@YA_JV__crt_stdio_stream@@_J1@Z 000000018002a858     libucrt:ftell.obj
 0004:00000864       $pdata$?common_ftell_translated_utf8_nolock@@YA_JV__crt_stdio_stream@@_J@Z 000000018002a864     libucrt:ftell.obj
 0004:00000870       $pdata$??0_LocaleUpdate@@QEAA@QEAU__crt_locale_pointers@@@Z 000000018002a870     libucrt:tolower_toupper.obj
 0004:0000087c       $pdata$?internal_islower_l@@YA_NHQEAU__crt_locale_pointers@@@Z 000000018002a87c     libucrt:tolower_toupper.obj
 0004:00000888       $pdata$?internal_isupper_l@@YA_NHQEAU__crt_locale_pointers@@@Z 000000018002a888     libucrt:tolower_toupper.obj
 0004:00000894       $pdata$_tolower_l          000000018002a894     libucrt:tolower_toupper.obj
 0004:000008a0       $pdata$_toupper_l          000000018002a8a0     libucrt:tolower_toupper.obj
 0004:000008ac       $pdata$tolower             000000018002a8ac     libucrt:tolower_toupper.obj
 0004:000008b8       $pdata$toupper             000000018002a8b8     libucrt:tolower_toupper.obj
 0004:000008c4       $pdata$??$common_fsopen@D@@YAPEAU_iobuf@@QEBD0H@Z 000000018002a8c4     libucrt:fopen.obj
 0004:000008d0       $pdata$_fclose_nolock      000000018002a8d0     libucrt:fclose.obj
 0004:000008dc       $pdata$fclose              000000018002a8dc     libucrt:fclose.obj
 0004:000008e8       $pdata$perror              000000018002a8e8     libucrt:perror.obj
 0004:000008f4       $pdata$?common_fseek@@YAHV__crt_stdio_stream@@_JH@Z 000000018002a8f4     libucrt:fseek.obj
 0004:00000900       $pdata$?common_fseek_binary_mode_read_only_fast_track_nolock@@YA_NV__crt_stdio_stream@@_JH@Z 000000018002a900     libucrt:fseek.obj
 0004:0000090c       $pdata$?common_fseek_nolock@@YAHV__crt_stdio_stream@@_JH@Z 000000018002a90c     libucrt:fseek.obj
 0004:00000924       $pdata$??$common_fgets@D@@YAPEADQEADHV__crt_stdio_stream@@@Z 000000018002a924     libucrt:fgets.obj
 0004:00000930       $pdata$?validate_stream_is_ansi_if_required@?$__acrt_stdio_char_traits@D@@SA_NQEAU_iobuf@@@Z 000000018002a930     libucrt:fgets.obj
 0004:00000948       $pdata$rewind              000000018002a948     libucrt:rewind.obj
 0004:00000954       $pdata$__acrt_errno_map_os_error 000000018002a954     libucrt:errno.obj
 0004:00000960       $pdata$__doserrno          000000018002a960     libucrt:errno.obj
 0004:0000096c       $pdata$_errno              000000018002a96c     libucrt:errno.obj
 0004:00000978       $pdata$fgetpos             000000018002a978     libucrt:fgetpos.obj
 0004:00000984       $pdata$??$parse_integer@KV?$c_string_character_source@D@__crt_strtox@@@__crt_strtox@@YAKQEAU__crt_locale_pointers@@V?$c_string_character_source@D@0@H_N@Z 000000018002a984     libucrt:atox.obj
 0004:00000990       $pdata$??$parse_integer@KV?$c_string_character_source@_W@__crt_strtox@@@__crt_strtox@@YAKQEAU__crt_locale_pointers@@V?$c_string_character_source@_W@0@H_N@Z 000000018002a990     libucrt:atox.obj
 0004:0000099c       $pdata$atol                000000018002a99c     libucrt:atox.obj
 0004:0000099c       $pdata$atoi                000000018002a99c     libucrt:atox.obj
 0004:000009a8       $pdata$feof                000000018002a9a8     libucrt:feoferr.obj
 0004:000009b4       $pdata$fsetpos             000000018002a9b4     libucrt:fsetpos.obj
 0004:000009c0       $pdata$isdigit             000000018002a9c0     libucrt:_ctype.obj
 0004:000009cc       $pdata$??$common_assert_to_message_box@_W@@YAXQEB_W0IQEAX@Z 000000018002a9cc     libucrt:assert.obj
 0004:000009d8       $pdata$??$common_assert_to_message_box_build_string@_W@@YAXQEA_W_KQEB_W2IQEAX@Z 000000018002a9d8     libucrt:assert.obj
 0004:000009e4       $pdata$??$common_assert_to_stderr@_W@@YAXQEB_W0I@Z 000000018002a9e4     libucrt:assert.obj
 0004:000009f0       $pdata$_wassert            000000018002a9f0     libucrt:assert.obj
 0004:000009fc       $pdata$fwprintf            000000018002a9fc     libucrt:assert.obj
 0004:00000a08       $pdata$swprintf            000000018002aa08     libucrt:assert.obj
 0004:00000a14       $pdata$__acrt_call_reportfault 000000018002aa14     libucrt:invalid_parameter.obj
 0004:00000a20       $pdata$_invalid_parameter  000000018002aa20     libucrt:invalid_parameter.obj
 0004:00000a2c       $pdata$_invalid_parameter_noinfo 000000018002aa2c     libucrt:invalid_parameter.obj
 0004:00000a38       $pdata$_invalid_parameter_noinfo_noreturn 000000018002aa38     libucrt:invalid_parameter.obj
 0004:00000a44       $pdata$_invoke_watson      000000018002aa44     libucrt:invalid_parameter.obj
 0004:00000a50       $pdata$_callnewh           000000018002aa50     libucrt:new_handler.obj
 0004:00000a5c       $pdata$_query_new_handler  000000018002aa5c     libucrt:new_handler.obj
 0004:00000a68       $pdata$_initterm           000000018002aa68     libucrt:initterm.obj
 0004:00000a74       $pdata$_initterm_e         000000018002aa74     libucrt:initterm.obj
 0004:00000a80       $pdata$_seh_filter_exe     000000018002aa80     libucrt:exception_filter.obj
 0004:00000a8c       $pdata$?common_exit@@YAXHW4_crt_exit_cleanup_mode@@W4_crt_exit_return_mode@@@Z 000000018002aa8c     libucrt:exit.obj
 0004:00000a98       $pdata$?exit_or_terminate_process@@YAXI@Z 000000018002aa98     libucrt:exit.obj
 0004:00000aa4       $pdata$?try_cor_exit_process@@YAXI@Z 000000018002aaa4     libucrt:exit.obj
 0004:00000ab0       $pdata$??$parse_command_line@D@@YAXPEADPEAPEAD0PEA_K2@Z 000000018002aab0     libucrt:argv_parsing.obj
 0004:00000abc       $pdata$__acrt_allocate_buffer_for_argv 000000018002aabc     libucrt:argv_parsing.obj
 0004:00000ac8       $pdata$_configure_narrow_argv 000000018002aac8     libucrt:argv_parsing.obj
 0004:00000ad4       $pdata$??$common_initialize_environment_nolock@D@@YAHXZ 000000018002aad4     libucrt:environment_initialization.obj
 0004:00000ae0       $pdata$??$create_environment@D@@YAQEAPEADQEAD@Z 000000018002aae0     libucrt:environment_initialization.obj
 0004:00000aec       $pdata$??$free_environment@_W@@YAXQEAPEA_W@Z 000000018002aaec     libucrt:environment_initialization.obj
 0004:00000aec       $pdata$??$free_environment@D@@YAXQEAPEAD@Z 000000018002aaec     libucrt:environment_initialization.obj
 0004:00000af8       $pdata$??$uninitialize_environment_internal@D@@YAXAEAPEAPEAD@Z 000000018002aaf8     libucrt:environment_initialization.obj
 0004:00000b04       $pdata$??$uninitialize_environment_internal@_W@@YAXAEAPEAPEA_W@Z 000000018002ab04     libucrt:environment_initialization.obj
 0004:00000b10       $pdata$__dcrt_uninitialize_environments_nolock 000000018002ab10     libucrt:environment_initialization.obj
 0004:00000b1c       $pdata$??$?RV<lambda_b8c45f8f788dd370798f47cfe8ac3a86>@@AEAV<lambda_4e60a939b0d047cfe11ddc22648dfba9>@@V<lambda_332c3edc96d0294ec56c57d38c1cdfd5>@@@?$__crt_seh_guarded_call@H@@QEAAH$$QEAV<lambda_b8c45f8f788dd370798f47cfe8ac3a86>@@AEAV<lambda_4e60a939b0d047cfe11ddc22648dfba9>@@$$QEAV<lambda_332c3edc96d0294ec56c57d38c1cdfd5>@@@Z 000000018002ab1c     libucrt:onexit.obj
 0004:00000b28       $pdata$??$?RV<lambda_e24bbb7b643b32fcea6fa61b31d4c984>@@AEAV<lambda_275893d493268fdec8709772e3fcec0e>@@V<lambda_9d71df4d7cf3f480f8d633942495c3b0>@@@?$__crt_seh_guarded_call@H@@QEAAH$$QEAV<lambda_e24bbb7b643b32fcea6fa61b31d4c984>@@AEAV<lambda_275893d493268fdec8709772e3fcec0e>@@$$QEAV<lambda_9d71df4d7cf3f480f8d633942495c3b0>@@@Z 000000018002ab28     libucrt:onexit.obj
 0004:00000b34       $pdata$??R<lambda_4e60a939b0d047cfe11ddc22648dfba9>@@QEBAHXZ 000000018002ab34     libucrt:onexit.obj
 0004:00000b40       $pdata$_execute_onexit_table 000000018002ab40     libucrt:onexit.obj
 0004:00000b4c       $pdata$_register_onexit_function 000000018002ab4c     libucrt:onexit.obj
 0004:00000b58       $pdata$initialize_c        000000018002ab58     libucrt:initialization.obj
 0004:00000b64       $pdata$uninitialize_environment 000000018002ab64     libucrt:initialization.obj
 0004:00000b70       $pdata$initialize_pointers 000000018002ab70     libucrt:initialization.obj
 0004:00000b7c       $pdata$uninitialize_allocated_memory 000000018002ab7c     libucrt:initialization.obj
 0004:00000b88       $pdata$__acrt_thread_attach 000000018002ab88     libucrt:initialization.obj
 0004:00000b94       $pdata$__acrt_thread_detach 000000018002ab94     libucrt:initialization.obj
 0004:00000ba0       $pdata$__acrt_uninitialize_critical 000000018002aba0     libucrt:initialization.obj
 0004:00000bac       $pdata$terminate           000000018002abac     libucrt:terminate.obj
 0004:00000bb8       $pdata$_strdup             000000018002abb8     libucrt:strdup.obj
 0004:00000bc4       $pdata$abort               000000018002abc4     libucrt:abort.obj
 0004:00000bd0       $pdata$strcpy_s            000000018002abd0     libucrt:strcpy_s.obj
 0004:00000bdc       $pdata$_free_base          000000018002abdc     libucrt:free_base.obj
 0004:00000be8       $pdata$_malloc_base        000000018002abe8     libucrt:malloc_base.obj
 0004:00000bf4       $pdata$_calloc_base        000000018002abf4     libucrt:calloc_base.obj
 0004:00000c00       $pdata$??$?RV<lambda_7b91131dde12e1c3dfc74ff76b3f2eac>@@AEAV<lambda_dd75445284c072d0bd3768540cc698fa>@@V<lambda_16bc4ecb55b4718497c16bceaea2ceaf>@@@?$__crt_seh_guarded_call@H@@QEAAH$$QEAV<lambda_7b91131dde12e1c3dfc74ff76b3f2eac>@@AEAV<lambda_dd75445284c072d0bd3768540cc698fa>@@$$QEAV<lambda_16bc4ecb55b4718497c16bceaea2ceaf>@@@Z 000000018002ac00     libucrt:output.obj
 0004:00000c0c       $pdata$??$ensure_buffer_is_big_enough@D@formatting_buffer@__crt_stdio_output@@QEAA_N_K@Z 000000018002ac0c     libucrt:output.obj
 0004:00000c18       $pdata$??$type_case_integer_parse_into_buffer@I@?$output_processor@_WV?$string_output_adapter@_W@__crt_stdio_output@@V?$standard_base@_WV?$string_output_adapter@_W@__crt_stdio_output@@@2@@__crt_stdio_output@@AEAAXII_N@Z 000000018002ac18     libucrt:output.obj
 0004:00000c18       $pdata$??$type_case_integer_parse_into_buffer@I@?$output_processor@_WV?$stream_output_adapter@_W@__crt_stdio_output@@V?$standard_base@_WV?$stream_output_adapter@_W@__crt_stdio_output@@@2@@__crt_stdio_output@@AEAAXII_N@Z 000000018002ac18     libucrt:output.obj
 0004:00000c24       $pdata$??$type_case_integer_parse_into_buffer@_K@?$output_processor@_WV?$string_output_adapter@_W@__crt_stdio_output@@V?$standard_base@_WV?$string_output_adapter@_W@__crt_stdio_output@@@2@@__crt_stdio_output@@AEAAX_KI_N@Z 000000018002ac24     libucrt:output.obj
 0004:00000c24       $pdata$??$type_case_integer_parse_into_buffer@_K@?$output_processor@_WV?$stream_output_adapter@_W@__crt_stdio_output@@V?$standard_base@_WV?$stream_output_adapter@_W@__crt_stdio_output@@@2@@__crt_stdio_output@@AEAAX_KI_N@Z 000000018002ac24     libucrt:output.obj
 0004:00000c30       $pdata$??$write_multiple_characters@V?$stream_output_adapter@_W@__crt_stdio_output@@D@__crt_stdio_output@@YAXAEBV?$stream_output_adapter@_W@0@DHQEAH@Z 000000018002ac30     libucrt:output.obj
 0004:00000c3c       $pdata$??$write_multiple_characters@V?$string_output_adapter@_W@__crt_stdio_output@@D@__crt_stdio_output@@YAXAEBV?$string_output_adapter@_W@0@DHQEAH@Z 000000018002ac3c     libucrt:output.obj
 0004:00000c48       $pdata$??0?$output_processor@_WV?$string_output_adapter@_W@__crt_stdio_output@@V?$standard_base@_WV?$string_output_adapter@_W@__crt_stdio_output@@@2@@__crt_stdio_output@@QEAA@AEBV?$string_output_adapter@_W@1@_KQEB_WQEAU__crt_locale_pointers@@QEAD@Z 000000018002ac48     libucrt:output.obj
 0004:00000c48       $pdata$??0?$output_processor@_WV?$stream_output_adapter@_W@__crt_stdio_output@@V?$standard_base@_WV?$stream_output_adapter@_W@__crt_stdio_output@@@2@@__crt_stdio_output@@QEAA@AEBV?$stream_output_adapter@_W@1@_KQEB_WQEAU__crt_locale_pointers@@QEAD@Z 000000018002ac48     libucrt:output.obj
 0004:00000c54       $pdata$??R<lambda_dd75445284c072d0bd3768540cc698fa>@@QEBAHXZ 000000018002ac54     libucrt:output.obj
 0004:00000c60       $pdata$?force_decimal_point@__crt_stdio_output@@YAXPEADQEAU__crt_locale_pointers@@@Z 000000018002ac60     libucrt:output.obj
 0004:00000c6c       $pdata$?parse_int_from_format_string@?$output_processor@_WV?$stream_output_adapter@_W@__crt_stdio_output@@V?$standard_base@_WV?$stream_output_adapter@_W@__crt_stdio_output@@@2@@__crt_stdio_output@@AEAA_NQEAH@Z 000000018002ac6c     libucrt:output.obj
 0004:00000c6c       $pdata$?parse_int_from_format_string@?$output_processor@_WV?$string_output_adapter@_W@__crt_stdio_output@@V?$standard_base@_WV?$string_output_adapter@_W@__crt_stdio_output@@@2@@__crt_stdio_output@@AEAA_NQEAH@Z 000000018002ac6c     libucrt:output.obj
 0004:00000c78       $pdata$?process@?$output_processor@_WV?$stream_output_adapter@_W@__crt_stdio_output@@V?$standard_base@_WV?$stream_output_adapter@_W@__crt_stdio_output@@@2@@__crt_stdio_output@@QEAAHXZ 000000018002ac78     libucrt:output.obj
 0004:00000c84       $pdata$?process@?$output_processor@_WV?$string_output_adapter@_W@__crt_stdio_output@@V?$standard_base@_WV?$string_output_adapter@_W@__crt_stdio_output@@@2@@__crt_stdio_output@@QEAAHXZ 000000018002ac84     libucrt:output.obj
 0004:00000c90       $pdata$?state_case_size@?$output_processor@_WV?$stream_output_adapter@_W@__crt_stdio_output@@V?$standard_base@_WV?$stream_output_adapter@_W@__crt_stdio_output@@@2@@__crt_stdio_output@@AEAA_NXZ 000000018002ac90     libucrt:output.obj
 0004:00000c9c       $pdata$?state_case_size@?$output_processor@_WV?$string_output_adapter@_W@__crt_stdio_output@@V?$standard_base@_WV?$string_output_adapter@_W@__crt_stdio_output@@@2@@__crt_stdio_output@@AEAA_NXZ 000000018002ac9c     libucrt:output.obj
 0004:00000ca8       $pdata$?state_case_type@?$output_processor@_WV?$stream_output_adapter@_W@__crt_stdio_output@@V?$standard_base@_WV?$stream_output_adapter@_W@__crt_stdio_output@@@2@@__crt_stdio_output@@AEAA_NXZ 000000018002aca8     libucrt:output.obj
 0004:00000cb4       $pdata$?state_case_type@?$output_processor@_WV?$string_output_adapter@_W@__crt_stdio_output@@V?$standard_base@_WV?$string_output_adapter@_W@__crt_stdio_output@@@2@@__crt_stdio_output@@AEAA_NXZ 000000018002acb4     libucrt:output.obj
 0004:00000cc0       $pdata$?type_case_Z@?$output_processor@_WV?$string_output_adapter@_W@__crt_stdio_output@@V?$standard_base@_WV?$string_output_adapter@_W@__crt_stdio_output@@@2@@__crt_stdio_output@@AEAA_NXZ 000000018002acc0     libucrt:output.obj
 0004:00000cc0       $pdata$?type_case_Z@?$output_processor@_WV?$stream_output_adapter@_W@__crt_stdio_output@@V?$standard_base@_WV?$stream_output_adapter@_W@__crt_stdio_output@@@2@@__crt_stdio_output@@AEAA_NXZ 000000018002acc0     libucrt:output.obj
 0004:00000ccc       $pdata$?type_case_a@?$output_processor@_WV?$string_output_adapter@_W@__crt_stdio_output@@V?$standard_base@_WV?$string_output_adapter@_W@__crt_stdio_output@@@2@@__crt_stdio_output@@AEAA_NXZ 000000018002accc     libucrt:output.obj
 0004:00000ccc       $pdata$?type_case_a@?$output_processor@_WV?$stream_output_adapter@_W@__crt_stdio_output@@V?$standard_base@_WV?$stream_output_adapter@_W@__crt_stdio_output@@@2@@__crt_stdio_output@@AEAA_NXZ 000000018002accc     libucrt:output.obj
 0004:00000cd8       $pdata$?type_case_c_tchar@?$output_processor@_WV?$stream_output_adapter@_W@__crt_stdio_output@@V?$standard_base@_WV?$stream_output_adapter@_W@__crt_stdio_output@@@2@@__crt_stdio_output@@AEAA_N_W@Z 000000018002acd8     libucrt:output.obj
 0004:00000cd8       $pdata$?type_case_c_tchar@?$output_processor@_WV?$string_output_adapter@_W@__crt_stdio_output@@V?$standard_base@_WV?$string_output_adapter@_W@__crt_stdio_output@@@2@@__crt_stdio_output@@AEAA_N_W@Z 000000018002acd8     libucrt:output.obj
 0004:00000ce4       $pdata$?type_case_integer@?$output_processor@_WV?$stream_output_adapter@_W@__crt_stdio_output@@V?$standard_base@_WV?$stream_output_adapter@_W@__crt_stdio_output@@@2@@__crt_stdio_output@@AEAA_NI_N@Z 000000018002ace4     libucrt:output.obj
 0004:00000ce4       $pdata$?type_case_integer@?$output_processor@_WV?$string_output_adapter@_W@__crt_stdio_output@@V?$standard_base@_WV?$string_output_adapter@_W@__crt_stdio_output@@@2@@__crt_stdio_output@@AEAA_NI_N@Z 000000018002ace4     libucrt:output.obj
 0004:00000cf0       $pdata$?type_case_n@?$output_processor@_WV?$string_output_adapter@_W@__crt_stdio_output@@V?$standard_base@_WV?$string_output_adapter@_W@__crt_stdio_output@@@2@@__crt_stdio_output@@AEAA_NXZ 000000018002acf0     libucrt:output.obj
 0004:00000cf0       $pdata$?type_case_n@?$output_processor@_WV?$stream_output_adapter@_W@__crt_stdio_output@@V?$standard_base@_WV?$stream_output_adapter@_W@__crt_stdio_output@@@2@@__crt_stdio_output@@AEAA_NXZ 000000018002acf0     libucrt:output.obj
 0004:00000cfc       $pdata$?type_case_s@?$output_processor@_WV?$string_output_adapter@_W@__crt_stdio_output@@V?$standard_base@_WV?$string_output_adapter@_W@__crt_stdio_output@@@2@@__crt_stdio_output@@AEAA_NXZ 000000018002acfc     libucrt:output.obj
 0004:00000cfc       $pdata$?type_case_s@?$output_processor@_WV?$stream_output_adapter@_W@__crt_stdio_output@@V?$standard_base@_WV?$stream_output_adapter@_W@__crt_stdio_output@@@2@@__crt_stdio_output@@AEAA_NXZ 000000018002acfc     libucrt:output.obj
 0004:00000d08       $pdata$?write_stored_string_tchar@?$output_processor@_WV?$stream_output_adapter@_W@__crt_stdio_output@@V?$standard_base@_WV?$stream_output_adapter@_W@__crt_stdio_output@@@2@@__crt_stdio_output@@AEAA_N_W@Z 000000018002ad08     libucrt:output.obj
 0004:00000d14       $pdata$?write_stored_string_tchar@?$output_processor@_WV?$string_output_adapter@_W@__crt_stdio_output@@V?$standard_base@_WV?$string_output_adapter@_W@__crt_stdio_output@@@2@@__crt_stdio_output@@AEAA_N_W@Z 000000018002ad14     libucrt:output.obj
 0004:00000d20       $pdata$?write_string@?$stream_output_adapter@_W@__crt_stdio_output@@QEBAXQEB_WHQEAH1@Z 000000018002ad20     libucrt:output.obj
 0004:00000d2c       $pdata$?write_string@?$string_output_adapter@_W@__crt_stdio_output@@QEBAXQEB_WHQEAH1@Z 000000018002ad2c     libucrt:output.obj
 0004:00000d38       $pdata$__stdio_common_vfwprintf 000000018002ad38     libucrt:output.obj
 0004:00000d44       $pdata$__stdio_common_vswprintf 000000018002ad44     libucrt:output.obj
 0004:00000d50       $pdata$??$common_lseek@J@@YAJHJH@Z 000000018002ad50     libucrt:lseek.obj
 0004:00000d5c       $pdata$??$common_lseek@_J@@YA_JH_JH@Z 000000018002ad5c     libucrt:lseek.obj
 0004:00000d68       $pdata$??$common_lseek_nolock@J@@YAJHJH@Z 000000018002ad68     libucrt:lseek.obj
 0004:00000d74       $pdata$??$common_lseek_nolock@_J@@YA_JH_JH@Z 000000018002ad74     libucrt:lseek.obj
 0004:00000d80       $pdata$?common_lseek_do_seek_nolock@@YAJQEAXJH@Z 000000018002ad80     libucrt:lseek.obj
 0004:00000d8c       $pdata$_fileno             000000018002ad8c     libucrt:fileno.obj
 0004:00000d98       $pdata$__acrt_initialize_stdio 000000018002ad98     libucrt:_file.obj
 0004:00000da4       $pdata$__acrt_uninitialize_stdio 000000018002ada4     libucrt:_file.obj
 0004:00000db0       $pdata$??$translate_text_mode_nolock@_W@@YAHHQEA_W_K@Z 000000018002adb0     libucrt:read.obj
 0004:00000dbc       $pdata$?translate_ansi_or_utf8_nolock@@YAHHQEAD_KQEA_W1@Z 000000018002adbc     libucrt:read.obj
 0004:00000dc8       $pdata$_read               000000018002adc8     libucrt:read.obj
 0004:00000dd4       $pdata$_read_nolock        000000018002add4     libucrt:read.obj
 0004:00000de0       $pdata$?initialize_inherited_file_handles_nolock@@YAXXZ 000000018002ade0     libucrt:ioinit.obj
 0004:00000dec       $pdata$?initialize_stdio_handles_nolock@@YAXXZ 000000018002adec     libucrt:ioinit.obj
 0004:00000df8       $pdata$__acrt_initialize_lowio 000000018002adf8     libucrt:ioinit.obj
 0004:00000e04       $pdata$__acrt_uninitialize_lowio 000000018002ae04     libucrt:ioinit.obj
 0004:00000e10       $pdata$__pctype_func       000000018002ae10     libucrt:ctype.obj
 0004:00000e1c       $pdata$_isleadbyte_l       000000018002ae1c     libucrt:_wctype.obj
 0004:00000e28       $pdata$_isctype_l          000000018002ae28     libucrt:isctype.obj
 0004:00000e34       $pdata$?__acrt_LCMapStringA_stat@@YAHPEAU__crt_locale_pointers@@PEB_WKPEBDHPEADHHH@Z 000000018002ae34     libucrt:lcmapstringa.obj
 0004:00000e40       $pdata$__acrt_LCMapStringA 000000018002ae40     libucrt:lcmapstringa.obj
 0004:00000e4c       $pdata$??$?RV<lambda_46352004c1216016012b18bd6f87e700>@@AEAV<lambda_3bd07e1a1191394380780325891bf33f>@@V<lambda_334532d3f185bcaa59b5be82d7d22bff>@@@?$__crt_seh_guarded_call@X@@QEAAX$$QEAV<lambda_46352004c1216016012b18bd6f87e700>@@AEAV<lambda_3bd07e1a1191394380780325891bf33f>@@$$QEAV<lambda_334532d3f185bcaa59b5be82d7d22bff>@@@Z 000000018002ae4c     libucrt:per_thread_data.obj
 0004:00000e58       $pdata$??$?RV<lambda_5e887d1dcbef67a5eb4283622ba103bf>@@AEAV<lambda_4466841279450cc726390878d4a41900>@@V<lambda_341c25c0346d94847f1f3c463c57e077>@@@?$__crt_seh_guarded_call@X@@QEAAX$$QEAV<lambda_5e887d1dcbef67a5eb4283622ba103bf>@@AEAV<lambda_4466841279450cc726390878d4a41900>@@$$QEAV<lambda_341c25c0346d94847f1f3c463c57e077>@@@Z 000000018002ae58     libucrt:per_thread_data.obj
 0004:00000e64       $pdata$??$?RV<lambda_72d1df2b273a38828b1ce30cbf4cdab5>@@AEAV<lambda_876a65b173b8412d3a47c70a915b0cf4>@@V<lambda_41932305e351933ebe8f8be3ed8bb5dc>@@@?$__crt_seh_guarded_call@X@@QEAAX$$QEAV<lambda_72d1df2b273a38828b1ce30cbf4cdab5>@@AEAV<lambda_876a65b173b8412d3a47c70a915b0cf4>@@$$QEAV<lambda_41932305e351933ebe8f8be3ed8bb5dc>@@@Z 000000018002ae64     libucrt:per_thread_data.obj
 0004:00000e70       $pdata$??$?RV<lambda_fb3a7dec4e47f37f22dae91bb15c9095>@@AEAV<lambda_698284760c8add0bfb0756c19673e34b>@@V<lambda_dfb8eca1e75fef3034a8fb18dd509707>@@@?$__crt_seh_guarded_call@X@@QEAAX$$QEAV<lambda_fb3a7dec4e47f37f22dae91bb15c9095>@@AEAV<lambda_698284760c8add0bfb0756c19673e34b>@@$$QEAV<lambda_dfb8eca1e75fef3034a8fb18dd509707>@@@Z 000000018002ae70     libucrt:per_thread_data.obj
 0004:00000e7c       $pdata$?construct_ptd_array@@YAXQEAU__acrt_ptd@@@Z 000000018002ae7c     libucrt:per_thread_data.obj
 0004:00000e88       $pdata$?destroy_fls@@YAXPEAX@Z 000000018002ae88     libucrt:per_thread_data.obj
 0004:00000e94       $pdata$?destroy_ptd_array@@YAXQEAU__acrt_ptd@@@Z 000000018002ae94     libucrt:per_thread_data.obj
 0004:00000ea0       $pdata$?replace_current_thread_locale_nolock@@YAXQEAU__acrt_ptd@@QEAU__crt_locale_data@@@Z 000000018002aea0     libucrt:per_thread_data.obj
 0004:00000eac       $pdata$__acrt_freeptd      000000018002aeac     libucrt:per_thread_data.obj
 0004:00000eb8       $pdata$__acrt_getptd       000000018002aeb8     libucrt:per_thread_data.obj
 0004:00000ec4       $pdata$__acrt_getptd_noexit 000000018002aec4     libucrt:per_thread_data.obj
 0004:00000ed0       $pdata$__acrt_initialize_ptd 000000018002aed0     libucrt:per_thread_data.obj
 0004:00000edc       $pdata$__acrt_uninitialize_ptd 000000018002aedc     libucrt:per_thread_data.obj
 0004:00000ee8       $pdata$__acrt_update_locale_info 000000018002aee8     libucrt:locale_update.obj
 0004:00000ef4       $pdata$__acrt_update_multibyte_info 000000018002aef4     libucrt:locale_update.obj
 0004:00000f00       $pdata$__acrt_uninitialize_locale 000000018002af00     libucrt:wsetlocale.obj
 0004:00000f0c       $pdata$?__acrt_stdio_allocate_stream@@YA?AV__crt_stdio_stream@@XZ 000000018002af0c     libucrt:stream.obj
 0004:00000f18       $pdata$?find_or_allocate_unused_stream_nolock@@YA?AV__crt_stdio_stream@@XZ 000000018002af18     libucrt:stream.obj
 0004:00000f24       $pdata$??$__acrt_stdio_parse_mode@D@@YA?AU__acrt_stdio_stream_mode@@QEBD@Z 000000018002af24     libucrt:openfile.obj
 0004:00000f30       $pdata$_openfile           000000018002af30     libucrt:openfile.obj
 0004:00000f3c       $pdata$??$?RV<lambda_bfedae4ebbf01fab1bb6dcc6a9e276e0>@@AEAV<lambda_2fe9b910cf3cbf4a0ab98a02ba45b3ec>@@V<lambda_237c231691f317818eb88cc1d5d642d6>@@@?$__crt_seh_guarded_call@H@@QEAAH$$QEAV<lambda_bfedae4ebbf01fab1bb6dcc6a9e276e0>@@AEAV<lambda_2fe9b910cf3cbf4a0ab98a02ba45b3ec>@@$$QEAV<lambda_237c231691f317818eb88cc1d5d642d6>@@@Z 000000018002af3c     libucrt:close.obj
 0004:00000f48       $pdata$_close              000000018002af48     libucrt:close.obj
 0004:00000f54       $pdata$_close_nolock       000000018002af54     libucrt:close.obj
 0004:00000f60       $pdata$__acrt_stdio_free_buffer_nolock 000000018002af60     libucrt:_freebuf.obj
 0004:00000f6c       $pdata$__acrt_stdio_flush_nolock 000000018002af6c     libucrt:fflush.obj
 0004:00000f78       $pdata$_fflush_nolock      000000018002af78     libucrt:fflush.obj
 0004:00000f84       $pdata$common_flush_all    000000018002af84     libucrt:fflush.obj
 0004:00000f90       $pdata$fflush              000000018002af90     libucrt:fflush.obj
 0004:00000f9c       $pdata$__acrt_lowio_create_handle_array 000000018002af9c     libucrt:osfinfo.obj
 0004:00000fa8       $pdata$__acrt_lowio_destroy_handle_array 000000018002afa8     libucrt:osfinfo.obj
 0004:00000fb4       $pdata$__acrt_lowio_ensure_fh_exists 000000018002afb4     libucrt:osfinfo.obj
 0004:00000fc0       $pdata$__acrt_lowio_set_os_handle 000000018002afc0     libucrt:osfinfo.obj
 0004:00000fcc       $pdata$_alloc_osfhnd       000000018002afcc     libucrt:osfinfo.obj
 0004:00000fd8       $pdata$_free_osfhnd        000000018002afd8     libucrt:osfinfo.obj
 0004:00000fe4       $pdata$_get_osfhandle      000000018002afe4     libucrt:osfinfo.obj
 0004:00000ff0       $pdata$?write_double_translated_ansi_nolock@@YA?AUwrite_result@?A0x9c548279@@HQEBDI@Z 000000018002aff0     libucrt:write.obj
 0004:00000ffc       $pdata$?write_text_ansi_nolock@@YA?AUwrite_result@?A0x9c548279@@HQEBDI@Z 000000018002affc     libucrt:write.obj
 0004:00001008       $pdata$?write_text_utf16le_nolock@@YA?AUwrite_result@?A0x9c548279@@HQEBDI@Z 000000018002b008     libucrt:write.obj
 0004:00001014       $pdata$?write_text_utf8_nolock@@YA?AUwrite_result@?A0x9c548279@@HQEBDI@Z 000000018002b014     libucrt:write.obj
 0004:00001020       $pdata$_write              000000018002b020     libucrt:write.obj
 0004:0000102c       $pdata$_write_nolock       000000018002b02c     libucrt:write.obj
 0004:00001038       $pdata$_realloc_base       000000018002b038     libucrt:realloc_base.obj
 0004:00001044       $pdata$_fgetc_nolock       000000018002b044     libucrt:fgetc.obj
 0004:00001050       $pdata$iswctype            000000018002b050     libucrt:iswctype.obj
 0004:0000105c       $pdata$??$common_xtox@K_W@@YAHKQEA_W_KI_N@Z 000000018002b05c     libucrt:xtoa.obj
 0004:00001068       $pdata$??$common_xtox_s@K_W@@YAHKQEA_W_KI_N@Z 000000018002b068     libucrt:xtoa.obj
 0004:00001074       $pdata$_itow_s             000000018002b074     libucrt:xtoa.obj
 0004:00001080       $pdata$_set_error_mode     000000018002b080     libucrt:set_error_mode.obj
 0004:0000108c       $pdata$wcscat_s            000000018002b08c     libucrt:wcscat_s.obj
 0004:00001098       $pdata$wcscpy_s            000000018002b098     libucrt:wcscpy_s.obj
 0004:000010a4       $pdata$wcsncat_s           000000018002b0a4     libucrt:wcsncat_s.obj
 0004:000010b0       $pdata$??$message_box_wait_thread@_W@@YAKQEAX@Z 000000018002b0b0     libucrt:crtmbox.obj
 0004:000010bc       $pdata$__acrt_show_wide_message_box 000000018002b0bc     libucrt:crtmbox.obj
 0004:000010c8       $pdata$??$?RV<lambda_7a5ef57ff966f610505f1d28a3d40618>@@AEAV<lambda_b721fa326cdb32351d23dfa67958c160>@@V<lambda_5e0fb27672408a07956fe59e48ccb2aa>@@@?$__crt_seh_guarded_call@H@@QEAAH$$QEAV<lambda_7a5ef57ff966f610505f1d28a3d40618>@@AEAV<lambda_b721fa326cdb32351d23dfa67958c160>@@$$QEAV<lambda_5e0fb27672408a07956fe59e48ccb2aa>@@@Z 000000018002b0c8     libucrt:setvbuf.obj
 0004:000010d4       $pdata$??R<lambda_b721fa326cdb32351d23dfa67958c160>@@QEBAHXZ 000000018002b0d4     libucrt:setvbuf.obj
 0004:000010e0       $pdata$setvbuf             000000018002b0e0     libucrt:setvbuf.obj
 0004:000010ec       $pdata$??$?RV<lambda_c36588078e9f5dfd39652860aa6b3aaf>@@AEAV<lambda_ec61778202f4f5fc7e7711acc23c3bca>@@V<lambda_dc9d2797ccde5d239b4a0efae8ebd7db>@@@?$__crt_seh_guarded_call@P6AXH@Z@@QEAAP6AXH@Z$$QEAV<lambda_c36588078e9f5dfd39652860aa6b3aaf>@@AEAV<lambda_ec61778202f4f5fc7e7711acc23c3bca>@@$$QEAV<lambda_dc9d2797ccde5d239b4a0efae8ebd7db>@@@Z 000000018002b0ec     libucrt:signal.obj
 0004:000010f8       $pdata$__acrt_get_sigabrt_handler 000000018002b0f8     libucrt:signal.obj
 0004:00001104       $pdata$raise               000000018002b104     libucrt:signal.obj
 0004:00001110       $pdata$__acrt_initialize_locks 000000018002b110     libucrt:locks.obj
 0004:0000111c       $pdata$__acrt_uninitialize_locks 000000018002b11c     libucrt:locks.obj
 0004:00001128       $pdata$?try_get_function@@YAPEAXW4function_id@?A0x63058377@@QEBDQEBW4module_id@2@2@Z 000000018002b128     libucrt:winapi_thunks.obj
 0004:00001134       $pdata$__acrt_AreFileApisANSI 000000018002b134     libucrt:winapi_thunks.obj
 0004:00001140       $pdata$__acrt_FlsAlloc     000000018002b140     libucrt:winapi_thunks.obj
 0004:0000114c       $pdata$__acrt_FlsFree      000000018002b14c     libucrt:winapi_thunks.obj
 0004:00001158       $pdata$__acrt_FlsGetValue  000000018002b158     libucrt:winapi_thunks.obj
 0004:00001164       $pdata$__acrt_FlsSetValue  000000018002b164     libucrt:winapi_thunks.obj
 0004:00001170       $pdata$__acrt_InitializeCriticalSectionEx 000000018002b170     libucrt:winapi_thunks.obj
 0004:0000117c       $pdata$__acrt_LCMapStringEx 000000018002b17c     libucrt:winapi_thunks.obj
 0004:00001188       $pdata$__acrt_LocaleNameToLCID 000000018002b188     libucrt:winapi_thunks.obj
 0004:00001194       $pdata$__acrt_MessageBoxW  000000018002b194     libucrt:winapi_thunks.obj
 0004:000011a0       $pdata$__acrt_can_show_message_box 000000018002b1a0     libucrt:winapi_thunks.obj
 0004:000011ac       $pdata$__acrt_get_parent_window 000000018002b1ac     libucrt:winapi_thunks.obj
 0004:000011b8       $pdata$__acrt_initialize_winapi_thunks 000000018002b1b8     libucrt:winapi_thunks.obj
 0004:000011c4       $pdata$__acrt_is_interactive 000000018002b1c4     libucrt:winapi_thunks.obj
 0004:000011d0       $pdata$__acrt_is_packaged_app 000000018002b1d0     libucrt:winapi_thunks.obj
 0004:000011dc       $pdata$__acrt_uninitialize_winapi_thunks 000000018002b1dc     libucrt:winapi_thunks.obj
 0004:000011e8       $pdata$??$common_expand_argv_wildcards@D@@YAHQEAPEADQEAPEAPEAD@Z 000000018002b1e8     libucrt:argv_wildcards.obj
 0004:000011f4       $pdata$??$copy_and_add_argument_to_buffer@D@@YAHQEBD0_KAEAV?$argument_list@D@?A0xca0879c4@@@Z 000000018002b1f4     libucrt:argv_wildcards.obj
 0004:00001200       $pdata$??$expand_argument_wildcards@D@@YAHQEAD0AEAV?$argument_list@D@?A0xca0879c4@@@Z 000000018002b200     libucrt:argv_wildcards.obj
 0004:0000120c       $pdata$?expand_if_necessary@?$argument_list@D@?A0xca0879c4@@AEAAHXZ 000000018002b20c     libucrt:argv_wildcards.obj
 0004:00001218       $pdata$??$?RV<lambda_99476a1ad63dd22509b5d3e65b0ffc95>@@AEAV<lambda_ad1ced32f4ac17aa236e5ef05d6b3b7c>@@V<lambda_f7424dd8d45958661754dc4f2697e9c3>@@@?$__crt_seh_guarded_call@X@@QEAAX$$QEAV<lambda_99476a1ad63dd22509b5d3e65b0ffc95>@@AEAV<lambda_ad1ced32f4ac17aa236e5ef05d6b3b7c>@@$$QEAV<lambda_f7424dd8d45958661754dc4f2697e9c3>@@@Z 000000018002b218     libucrt:mbctype.obj
 0004:00001224       $pdata$??R<lambda_ad1ced32f4ac17aa236e5ef05d6b3b7c>@@QEBAXXZ 000000018002b224     libucrt:mbctype.obj
 0004:00001230       $pdata$?getSystemCP@@YAHH@Z 000000018002b230     libucrt:mbctype.obj
 0004:0000123c       $pdata$?setSBCS@@YAXPEAU__crt_multibyte_data@@@Z 000000018002b23c     libucrt:mbctype.obj
 0004:00001248       $pdata$?setSBUpLow@@YAXPEAU__crt_multibyte_data@@@Z 000000018002b248     libucrt:mbctype.obj
 0004:00001254       $pdata$?setmbcp_internal@@YAHH_N@Z 000000018002b254     libucrt:mbctype.obj
 0004:00001260       $pdata$__acrt_initialize_multibyte 000000018002b260     libucrt:mbctype.obj
 0004:0000126c       $pdata$__acrt_update_thread_multibyte_data 000000018002b26c     libucrt:mbctype.obj
 0004:00001278       $pdata$_setmbcp_nolock     000000018002b278     libucrt:mbctype.obj
 0004:00001284       $pdata$?x_ismbbtype_l@@YAHPEAU__crt_locale_pointers@@IHH@Z 000000018002b284     libucrt:ismbbyte.obj
 0004:00001290       $pdata$__acrt_initialize_command_line 000000018002b290     libucrt:argv_data.obj
 0004:0000129c       $pdata$__dcrt_get_narrow_environment_from_os 000000018002b29c     libucrt:get_environment_from_os.obj
 0004:000012a8       $pdata$_recalloc_base      000000018002b2a8     libucrt:recalloc.obj
 0004:000012b4       $pdata$__acrt_initialize_heap 000000018002b2b4     libucrt:heap_handle.obj
 0004:000012c0       $pdata$__acrt_execute_initializers 000000018002b2c0     libucrt:shared_initialization.obj
 0004:000012cc       $pdata$__acrt_execute_uninitializers 000000018002b2cc     libucrt:shared_initialization.obj
 0004:000012d8       $pdata$__acrt_invoke_user_matherr 000000018002b2d8     libucrt:matherr.obj
 0004:000012e4       $pdata$__acrt_stdio_begin_temporary_buffering_nolock 000000018002b2e4     libucrt:_sftbuf.obj
 0004:000012f0       $pdata$__acrt_stdio_end_temporary_buffering_nolock 000000018002b2f0     libucrt:_sftbuf.obj
 0004:000012fc       $pdata$wcstol              000000018002b2fc     libucrt:strtox.obj
 0004:00001308       $pdata$_mbtowc_l           000000018002b308     libucrt:mbtowc.obj
 0004:00001314       $pdata$_wctomb_s_l         000000018002b314     libucrt:wctomb.obj
 0004:00001320       $pdata$wctomb_s            000000018002b320     libucrt:wctomb.obj
 0004:0000132c       $pdata$wcsnlen             000000018002b32c     libucrt:strnlen.obj
 0004:00001338       $pdata$?fp_format_a@@YAHQEBNPEAD_KQEAD2H_NIQEAU__crt_locale_pointers@@@Z 000000018002b338     libucrt:cvt.obj
 0004:00001344       $pdata$?fp_format_e@@YAHQEBNQEAD_K12H_NIQEAU__crt_locale_pointers@@@Z 000000018002b344     libucrt:cvt.obj
 0004:00001350       $pdata$?fp_format_e_internal@@YAHQEAD_KH_NIQEAU_strflt@@2QEAU__crt_locale_pointers@@@Z 000000018002b350     libucrt:cvt.obj
 0004:0000135c       $pdata$?fp_format_f_internal@@YAHQEAD_KHQEAU_strflt@@_NQEAU__crt_locale_pointers@@@Z 000000018002b35c     libucrt:cvt.obj
 0004:00001368       $pdata$?fp_format_g@@YAHQEBNQEAD_K12H_NIQEAU__crt_locale_pointers@@@Z 000000018002b368     libucrt:cvt.obj
 0004:00001374       $pdata$?fp_format_nan_or_infinity@@YAHW4__acrt_fp_class@@_NPEAD_K1@Z 000000018002b374     libucrt:cvt.obj
 0004:00001380       $pdata$__acrt_fp_format    000000018002b380     libucrt:cvt.obj
 0004:0000138c       $pdata$_fputwc_nolock      000000018002b38c     libucrt:fputwc.obj
 0004:00001398       $pdata$_fcloseall          000000018002b398     libucrt:closeall.obj
 0004:000013a4       $pdata$_isatty             000000018002b3a4     libucrt:isatty.obj
 0004:000013b0       $pdata$__acrt_GetStringTypeA 000000018002b3b0     libucrt:getstringtypea.obj
 0004:000013bc       $pdata$__acrt_free_locale  000000018002b3bc     libucrt:locale_refcounting.obj
 0004:000013c8       $pdata$__acrt_locale_free_lc_time_if_unreferenced 000000018002b3c8     libucrt:locale_refcounting.obj
 0004:000013d4       $pdata$__acrt_release_locale_ref 000000018002b3d4     libucrt:locale_refcounting.obj
 0004:000013e0       $pdata$__acrt_update_thread_locale_data 000000018002b3e0     libucrt:locale_refcounting.obj
 0004:000013ec       $pdata$_updatetlocinfoEx_nolock 000000018002b3ec     libucrt:locale_refcounting.obj
 0004:000013f8       $pdata$__acrt_locale_free_monetary 000000018002b3f8     libucrt:initmon.obj
 0004:00001404       $pdata$__acrt_locale_free_numeric 000000018002b404     libucrt:initnum.obj
 0004:00001410       $pdata$?free_crt_array_internal@@YAXQEAPEBX_K@Z 000000018002b410     libucrt:inittime.obj
 0004:0000141c       $pdata$__acrt_locale_free_time 000000018002b41c     libucrt:inittime.obj
 0004:00001428       $pdata$_strnicmp           000000018002b428     libucrt:strnicmp.obj
 0004:00001434       $pdata$_strnicmp_l         000000018002b434     libucrt:strnicmp.obj
 0004:00001440       $pdata$??$common_sopen_dispatch@D@@YAHQEBDHHHQEAHH@Z 000000018002b440     libucrt:open.obj
 0004:0000144c       $pdata$?configure_text_mode@@YAHHUfile_options@?A0x656cf9f4@@HAEAW4__crt_lowio_text_mode@@@Z 000000018002b44c     libucrt:open.obj
 0004:00001458       $pdata$?decode_options@@YA?AUfile_options@?A0x656cf9f4@@HHH@Z 000000018002b458     libucrt:open.obj
 0004:00001464       $pdata$?truncate_ctrl_z_if_present@@YAHH@Z 000000018002b464     libucrt:open.obj
 0004:00001470       $pdata$_sopen_nolock       000000018002b470     libucrt:open.obj
 0004:0000147c       $pdata$_sopen_s            000000018002b47c     libucrt:open.obj
 0004:00001488       $pdata$_wsopen_nolock      000000018002b488     libucrt:open.obj
 0004:00001494       $pdata$??$?RV<lambda_b521505b218e5242e90febf6bfebc422>@@AEAV<lambda_6978c1fb23f02e42e1d9e99668cc68aa>@@V<lambda_314360699dd331753a4119843814e9a7>@@@?$__crt_seh_guarded_call@H@@QEAAH$$QEAV<lambda_b521505b218e5242e90febf6bfebc422>@@AEAV<lambda_6978c1fb23f02e42e1d9e99668cc68aa>@@$$QEAV<lambda_314360699dd331753a4119843814e9a7>@@@Z 000000018002b494     libucrt:commit.obj
 0004:000014a0       $pdata$_commit             000000018002b4a0     libucrt:commit.obj
 0004:000014ac       $pdata$_putwch_nolock      000000018002b4ac     libucrt:putwch.obj
 0004:000014b8       $pdata$??$common_refill_and_read_nolock@D@@YAHV__crt_stdio_stream@@@Z 000000018002b4b8     libucrt:_filbuf.obj
 0004:000014c4       $pdata$?GetTableIndexFromLocaleName@@YAHPEB_W@Z 000000018002b4c4     libucrt:lcidtoname_downlevel.obj
 0004:000014d0       $pdata$__acrt_DownlevelLocaleNameToLCID 000000018002b4d0     libucrt:lcidtoname_downlevel.obj
 0004:000014dc       $pdata$?shortsort@@YAXPEAD0_KP6AHPEBX2@Z@Z 000000018002b4dc     libucrt:qsort.obj
 0004:000014e8       $pdata$2$?shortsort@@YAXPEAD0_KP6AHPEBX2@Z@Z 000000018002b4e8     libucrt:qsort.obj
 0004:000014f4       $pdata$3$?shortsort@@YAXPEAD0_KP6AHPEBX2@Z@Z 000000018002b4f4     libucrt:qsort.obj
 0004:00001500       $pdata$qsort               000000018002b500     libucrt:qsort.obj
 0004:0000150c       $pdata$4$qsort             000000018002b50c     libucrt:qsort.obj
 0004:00001518       $pdata$5$qsort             000000018002b518     libucrt:qsort.obj
 0004:00001524       $pdata$strncpy_s           000000018002b524     libucrt:strncpy_s.obj
 0004:00001530       $pdata$strpbrk             000000018002b530     libucrt:strpbrk.obj
 0004:0000153c       $pdata$_mbsdec_l           000000018002b53c     libucrt:mbsdec.obj
 0004:00001548       $pdata$?initialize_multibyte@@YAHXZ 000000018002b548     libucrt:multibyte_initializer.obj
 0004:00001554       $pdata$_msize              000000018002b554     libucrt:msize.obj
 0004:00001560       $pdata$__acrt_fp_strflt_to_string 000000018002b560     libucrt:_fptostr.obj
 0004:0000156c       $pdata$?divide@__crt_strtox@@YA_KAEAUbig_integer@1@AEBU21@@Z 000000018002b56c     libucrt:cfout.obj
 0004:00001578       $pdata$5$?divide@__crt_strtox@@YA_KAEAUbig_integer@1@AEBU21@@Z 000000018002b578     libucrt:cfout.obj
 0004:00001584       $pdata$6$?divide@__crt_strtox@@YA_KAEAUbig_integer@1@AEBU21@@Z 000000018002b584     libucrt:cfout.obj
 0004:00001590       $pdata$__acrt_fltout       000000018002b590     libucrt:cfout.obj
 0004:0000159c       $pdata$memcpy_s            000000018002b59c     libucrt:cfout.obj
 0004:000015a8       $pdata$??$write_buffer_nolock@D@@YA_NDV__crt_stdio_stream@@@Z 000000018002b5a8     libucrt:_flsbuf.obj
 0004:000015b4       $pdata$??$write_buffer_nolock@_W@@YA_N_WV__crt_stdio_stream@@@Z 000000018002b5b4     libucrt:_flsbuf.obj
 0004:000015c0       $pdata$__acrt_stdio_flush_and_write_narrow_nolock 000000018002b5c0     libucrt:_flsbuf.obj
 0004:000015cc       $pdata$__acrt_stdio_flush_and_write_wide_nolock 000000018002b5cc     libucrt:_flsbuf.obj
 0004:000015d8       $pdata$_get_fmode          000000018002b5d8     libucrt:setmode.obj
 0004:000015e4       $pdata$_setmode_nolock     000000018002b5e4     libucrt:setmode.obj
 0004:000015f0       $pdata$__acrt_copy_path_to_wide_string 000000018002b5f0     libucrt:string_utilities.obj
 0004:000015fc       $pdata$_chsize_nolock      000000018002b5fc     libucrt:chsize.obj
 0004:00001608       $pdata$__dcrt_lowio_initialize_console_output 000000018002b608     libucrt:initcon.obj
 0004:00001614       $pdata$__dcrt_terminate_console_output 000000018002b614     libucrt:initcon.obj
 0004:00001620       $pdata$__acrt_stdio_allocate_buffer_nolock 000000018002b620     libucrt:_getbuf.obj
 0004:0000162c       $pdata$fegetenv            000000018002b62c     libucrt:fegetenv.obj
 0004:00001638       $pdata$fesetenv            000000018002b638     libucrt:fesetenv.obj
 0004:00001644       $pdata$feholdexcept        000000018002b644     libucrt:feholdexcept.obj
 0004:0000165c       $pdata$_getfpcontrolword   000000018002b65c     libucrt:_fenvutils.obj
 0004:00001668       $pdata$_getfpstatusword    000000018002b668     libucrt:_fenvutils.obj
 0004:00001674       $pdata$_setfpstatusword    000000018002b674     libucrt:_fenvutils.obj
 0004:00001680       $pdata$_clearfp            000000018002b680     libucrt:ieee.obj
 0004:0000168c       $pdata$common_control87    000000018002b68c     libucrt:ieee.obj
 0004:00001698       $pdata$_call_matherr       000000018002b698     libucrt:libm_error.obj
 0004:000016a4       $pdata$_exception_enabled  000000018002b6a4     libucrt:libm_error.obj
 0004:000016b0       $pdata$_handle_error       000000018002b6b0     libucrt:libm_error.obj
 0004:000016bc       $pdata$__acrt_initialize_fma3 000000018002b6bc     libucrt:fma3_available.obj
 0004:000016c8       $pdata$_log10_special      000000018002b6c8     libucrt:log_special.obj
 0004:000016d4       $pdata$_log_special_common 000000018002b6d4     libucrt:log_special.obj
 0004:000016ec       $pdata$_raise_exc          000000018002b6ec     libucrt:fpexcept.obj
 0004:000016f8       $pdata$_raise_exc_ex       000000018002b6f8     libucrt:fpexcept.obj
 0004:00001704       $pdata$_set_errno_from_matherr 000000018002b704     libucrt:fpexcept.obj
 0004:00001710       $pdata$_clrfp              000000018002b710     libucrt:fpctrl.obj
 0004:0000171c       $pdata$_ctrlfp             000000018002b71c     libucrt:fpctrl.obj
 0004:00001728       $pdata$_set_statfp         000000018002b728     libucrt:fpctrl.obj
 0004:00001734       $pdata$_statfp             000000018002b734     libucrt:fpctrl.obj
 0004:00001740       $pdata$_IsNonwritableInCurrentImage 000000018002b740     LIBCMT:pesect.obj
 0004:0000174c       $pdata$__GSHandlerCheck    000000018002b74c     LIBCMT:_gshandler_.obj
 0004:00001758       $pdata$__GSHandlerCheckCommon 000000018002b758     LIBCMT:_gshandler_.obj
 0004:0000177c       $pdata$strrchr             000000018002b77c     libvcruntime:strrchr.obj
 0004:000017a0       $pdata$?fin$0@?0??dllmain_crt_process_attach@@YAHQEAUHINSTANCE__@@QEAX@Z@4HA 000000018002b7a0     LIBCMT:dll_dllmain.obj
 0004:000017ac       $pdata$?fin$0@?0??dllmain_crt_process_detach@@YAH_N@Z@4HA 000000018002b7ac     LIBCMT:dll_dllmain.obj
 0004:000017b8       $pdata$?filt$0@?0??dllmain_dispatch@@YAHQEAUHINSTANCE__@@KQEAX@Z@4HA 000000018002b7b8     LIBCMT:dll_dllmain.obj
 0004:000017c4       $pdata$__scrt_is_nonwritable_in_current_image$filt$0 000000018002b7c4     LIBCMT:utility.obj
 0004:000017d0       $pdata$?fin$0@?0???$common_fsopen@D@@YAPEAU_iobuf@@QEBD0H@Z@4HA 000000018002b7d0     libucrt:fopen.obj
 0004:000017dc       $pdata$rewind$fin$0        000000018002b7dc     libucrt:rewind.obj
 0004:000017dc       $pdata$fclose$fin$0        000000018002b7dc     libucrt:fclose.obj
 0004:000017dc       $pdata$fflush$fin$0        000000018002b7dc     libucrt:fflush.obj
 0004:000017e8       $pdata$perror$fin$0        000000018002b7e8     libucrt:perror.obj
 0004:000017f4       $pdata$?fin$0@?0???$common_ftell@J@@YAJV__crt_stdio_stream@@@Z@4HA 000000018002b7f4     libucrt:ftell.obj
 0004:000017f4       $pdata$?fin$0@?0??common_fseek@@YAHV__crt_stdio_stream@@_JH@Z@4HA 000000018002b7f4     libucrt:fseek.obj
 0004:000017f4       $pdata$?fin$0@?0???$common_ftell@_J@@YA_JV__crt_stdio_stream@@@Z@4HA 000000018002b7f4     libucrt:ftell.obj
 0004:00001800       $pdata$?fin$0@?0???$common_fgets@D@@YAPEADQEADHV__crt_stdio_stream@@@Z@4HA 000000018002b800     libucrt:fgets.obj
 0004:0000180c       $pdata$_query_new_handler$fin$0 000000018002b80c     libucrt:new_handler.obj
 0004:00001818       $pdata$?filt$0@?0??common_exit@@YAXHW4_crt_exit_cleanup_mode@@W4_crt_exit_return_mode@@@Z@4HA 000000018002b818     libucrt:exit.obj
 0004:00001824       $pdata$?fin$1@?0??common_exit@@YAXHW4_crt_exit_cleanup_mode@@W4_crt_exit_return_mode@@@Z@4HA 000000018002b824     libucrt:exit.obj
 0004:00001830       $pdata$?fin$0@?0???$?RV<lambda_e24bbb7b643b32fcea6fa61b31d4c984>@@AEAV<lambda_275893d493268fdec8709772e3fcec0e>@@V<lambda_9d71df4d7cf3f480f8d633942495c3b0>@@@?$__crt_seh_guarded_call@H@@QEAAH$$QEAV<lambda_e24bbb7b643b32fcea6fa61b31d4c984>@@AEAV<lambda_275893d493268fdec8709772e3fcec0e>@@$$QEAV<lambda_9d71df4d7cf3f480f8d633942495c3b0>@@@Z@4HA 000000018002b830     libucrt:onexit.obj
 0004:0000183c       $pdata$?fin$0@?0???$?RV<lambda_b8c45f8f788dd370798f47cfe8ac3a86>@@AEAV<lambda_4e60a939b0d047cfe11ddc22648dfba9>@@V<lambda_332c3edc96d0294ec56c57d38c1cdfd5>@@@?$__crt_seh_guarded_call@H@@QEAAH$$QEAV<lambda_b8c45f8f788dd370798f47cfe8ac3a86>@@AEAV<lambda_4e60a939b0d047cfe11ddc22648dfba9>@@$$QEAV<lambda_332c3edc96d0294ec56c57d38c1cdfd5>@@@Z@4HA 000000018002b83c     libucrt:onexit.obj
 0004:0000183c       $pdata$?fin$0@?0???$?RV<lambda_c36588078e9f5dfd39652860aa6b3aaf>@@AEAV<lambda_ec61778202f4f5fc7e7711acc23c3bca>@@V<lambda_dc9d2797ccde5d239b4a0efae8ebd7db>@@@?$__crt_seh_guarded_call@P6AXH@Z@@QEAAP6AXH@Z$$QEAV<lambda_c36588078e9f5dfd39652860aa6b3aaf>@@AEAV<lambda_ec61778202f4f5fc7e7711acc23c3bca>@@$$QEAV<lambda_dc9d2797ccde5d239b4a0efae8ebd7db>@@@Z@4HA 000000018002b83c     libucrt:signal.obj
 0004:0000183c       $pdata$?fin$0@?0???$?RV<lambda_72d1df2b273a38828b1ce30cbf4cdab5>@@AEAV<lambda_876a65b173b8412d3a47c70a915b0cf4>@@V<lambda_41932305e351933ebe8f8be3ed8bb5dc>@@@?$__crt_seh_guarded_call@X@@QEAAX$$QEAV<lambda_72d1df2b273a38828b1ce30cbf4cdab5>@@AEAV<lambda_876a65b173b8412d3a47c70a915b0cf4>@@$$QEAV<lambda_41932305e351933ebe8f8be3ed8bb5dc>@@@Z@4HA 000000018002b83c     libucrt:per_thread_data.obj
 0004:0000183c       $pdata$?fin$0@?0???$?RV<lambda_fb3a7dec4e47f37f22dae91bb15c9095>@@AEAV<lambda_698284760c8add0bfb0756c19673e34b>@@V<lambda_dfb8eca1e75fef3034a8fb18dd509707>@@@?$__crt_seh_guarded_call@X@@QEAAX$$QEAV<lambda_fb3a7dec4e47f37f22dae91bb15c9095>@@AEAV<lambda_698284760c8add0bfb0756c19673e34b>@@$$QEAV<lambda_dfb8eca1e75fef3034a8fb18dd509707>@@@Z@4HA 000000018002b83c     libucrt:per_thread_data.obj
 0004:0000183c       $pdata$?fin$0@?0???$?RV<lambda_99476a1ad63dd22509b5d3e65b0ffc95>@@AEAV<lambda_ad1ced32f4ac17aa236e5ef05d6b3b7c>@@V<lambda_f7424dd8d45958661754dc4f2697e9c3>@@@?$__crt_seh_guarded_call@X@@QEAAX$$QEAV<lambda_99476a1ad63dd22509b5d3e65b0ffc95>@@AEAV<lambda_ad1ced32f4ac17aa236e5ef05d6b3b7c>@@$$QEAV<lambda_f7424dd8d45958661754dc4f2697e9c3>@@@Z@4HA 000000018002b83c     libucrt:mbctype.obj
 0004:0000183c       $pdata$?fin$0@?0???$?RV<lambda_46352004c1216016012b18bd6f87e700>@@AEAV<lambda_3bd07e1a1191394380780325891bf33f>@@V<lambda_334532d3f185bcaa59b5be82d7d22bff>@@@?$__crt_seh_guarded_call@X@@QEAAX$$QEAV<lambda_46352004c1216016012b18bd6f87e700>@@AEAV<lambda_3bd07e1a1191394380780325891bf33f>@@$$QEAV<lambda_334532d3f185bcaa59b5be82d7d22bff>@@@Z@4HA 000000018002b83c     libucrt:per_thread_data.obj
 0004:0000183c       $pdata$?fin$0@?0???$?RV<lambda_5e887d1dcbef67a5eb4283622ba103bf>@@AEAV<lambda_4466841279450cc726390878d4a41900>@@V<lambda_341c25c0346d94847f1f3c463c57e077>@@@?$__crt_seh_guarded_call@X@@QEAAX$$QEAV<lambda_5e887d1dcbef67a5eb4283622ba103bf>@@AEAV<lambda_4466841279450cc726390878d4a41900>@@$$QEAV<lambda_341c25c0346d94847f1f3c463c57e077>@@@Z@4HA 000000018002b83c     libucrt:per_thread_data.obj
 0004:00001848       $pdata$__acrt_update_thread_locale_data$fin$0 000000018002b848     libucrt:locale_refcounting.obj
 0004:00001848       $pdata$__acrt_uninitialize_locale$fin$0 000000018002b848     libucrt:wsetlocale.obj
 0004:00001854       $pdata$_fcloseall$fin$0    000000018002b854     libucrt:closeall.obj
 0004:00001854       $pdata$?fin$0@?0??__acrt_stdio_allocate_stream@@YA?AV__crt_stdio_stream@@XZ@4HA 000000018002b854     libucrt:stream.obj
 0004:00001860       $pdata$common_flush_all$fin$0 000000018002b860     libucrt:fflush.obj
 0004:0000186c       $pdata$common_flush_all$fin$1 000000018002b86c     libucrt:fflush.obj
 0004:00001878       $pdata$__acrt_initialize_lowio$fin$0 000000018002b878     libucrt:ioinit.obj
 0004:00001878       $pdata$_alloc_osfhnd$fin$0 000000018002b878     libucrt:osfinfo.obj
 0004:00001878       $pdata$__acrt_lowio_ensure_fh_exists$fin$0 000000018002b878     libucrt:osfinfo.obj
 0004:00001884       $pdata$_read$fin$0         000000018002b884     libucrt:read.obj
 0004:00001884       $pdata$?fin$0@?0???$common_lseek@_J@@YA_JH_JH@Z@4HA 000000018002b884     libucrt:lseek.obj
 0004:00001884       $pdata$?fin$0@?0???$common_lseek@J@@YAJHJH@Z@4HA 000000018002b884     libucrt:lseek.obj
 0004:00001884       $pdata$_write$fin$0        000000018002b884     libucrt:write.obj
 0004:00001890       $pdata$?fin$0@?0???$?RV<lambda_7a5ef57ff966f610505f1d28a3d40618>@@AEAV<lambda_b721fa326cdb32351d23dfa67958c160>@@V<lambda_5e0fb27672408a07956fe59e48ccb2aa>@@@?$__crt_seh_guarded_call@H@@QEAAH$$QEAV<lambda_7a5ef57ff966f610505f1d28a3d40618>@@AEAV<lambda_b721fa326cdb32351d23dfa67958c160>@@$$QEAV<lambda_5e0fb27672408a07956fe59e48ccb2aa>@@@Z@4HA 000000018002b890     libucrt:setvbuf.obj
 0004:00001890       $pdata$?fin$0@?0???$?RV<lambda_7b91131dde12e1c3dfc74ff76b3f2eac>@@AEAV<lambda_dd75445284c072d0bd3768540cc698fa>@@V<lambda_16bc4ecb55b4718497c16bceaea2ceaf>@@@?$__crt_seh_guarded_call@H@@QEAAH$$QEAV<lambda_7b91131dde12e1c3dfc74ff76b3f2eac>@@AEAV<lambda_dd75445284c072d0bd3768540cc698fa>@@$$QEAV<lambda_16bc4ecb55b4718497c16bceaea2ceaf>@@@Z@4HA 000000018002b890     libucrt:output.obj
 0004:0000189c       $pdata$raise$fin$0         000000018002b89c     libucrt:signal.obj
 0004:000018a8       $pdata$__acrt_update_thread_multibyte_data$fin$0 000000018002b8a8     libucrt:mbctype.obj
 0004:000018b4       $pdata$?fin$0@?0???$common_sopen_dispatch@D@@YAHQEBDHHHQEAHH@Z@4HA 000000018002b8b4     libucrt:open.obj
 0004:000018c0       $pdata$?fin$0@?0???$?RV<lambda_bfedae4ebbf01fab1bb6dcc6a9e276e0>@@AEAV<lambda_2fe9b910cf3cbf4a0ab98a02ba45b3ec>@@V<lambda_237c231691f317818eb88cc1d5d642d6>@@@?$__crt_seh_guarded_call@H@@QEAAH$$QEAV<lambda_bfedae4ebbf01fab1bb6dcc6a9e276e0>@@AEAV<lambda_2fe9b910cf3cbf4a0ab98a02ba45b3ec>@@$$QEAV<lambda_237c231691f317818eb88cc1d5d642d6>@@@Z@4HA 000000018002b8c0     libucrt:close.obj
 0004:000018c0       $pdata$?fin$0@?0???$?RV<lambda_b521505b218e5242e90febf6bfebc422>@@AEAV<lambda_6978c1fb23f02e42e1d9e99668cc68aa>@@V<lambda_314360699dd331753a4119843814e9a7>@@@?$__crt_seh_guarded_call@H@@QEAAH$$QEAV<lambda_b521505b218e5242e90febf6bfebc422>@@AEAV<lambda_6978c1fb23f02e42e1d9e99668cc68aa>@@$$QEAV<lambda_314360699dd331753a4119843814e9a7>@@@Z@4HA 000000018002b8c0     libucrt:commit.obj
 0004:000018cc       $pdata$_ctrlfp$filt$0      000000018002b8cc     libucrt:fpctrl.obj
 0004:000018cc       $pdata$common_control87$filt$0 000000018002b8cc     libucrt:ieee.obj
 0004:000018d8       $pdata$_IsNonwritableInCurrentImage$filt$0 000000018002b8d8     LIBCMT:pesect.obj
 0005:00000000       __guard_fids__             000000018002c000     libucrt:initialization.obj
 0005:00000060       __guard_fids___acrt_initialize_ptd 000000018002c060     libucrt:per_thread_data.obj
 0005:00000064       __guard_fids___acrt_show_wide_message_box 000000018002c064     libucrt:crtmbox.obj
 0005:00000068       __guard_fids_??$expand_argument_wildcards@D@@YAHQEAD0AEAV?$argument_list@D@?A0xca0879c4@@@Z 000000018002c068     libucrt:argv_wildcards.obj
 0005:0000006c       __guard_fids__             000000018002c06c     libucrt:stdio_initializer.obj
 0005:00000070       __guard_fids__             000000018002c070     libucrt:stdio_initializer.obj
 0005:00000074       __guard_fids__             000000018002c074     libucrt:locale_initializer.obj
 0005:00000078       __guard_fids__             000000018002c078     libucrt:multibyte_initializer.obj
 0005:0000007c       __guard_fids__             000000018002c07c     libucrt:console_output_initializer.obj
 0005:00000080       __guard_fids__             000000018002c080     libucrt:fma3_initializer.obj
 0005:00000084       __guard_fids_?dllmain_crt_process_attach@@YAHQEAUHINSTANCE__@@QEAX@Z 000000018002c084     LIBCMT:dll_dllmain.obj
 0005:0000008c       __guard_fids_?dllmain_dispatch@@YAHQEAUHINSTANCE__@@KQEAX@Z 000000018002c08c     LIBCMT:dll_dllmain.obj
 0005:00000090       __guard_fids__             000000018002c090     LIBCMT:throw_bad_alloc.obj
 0005:00000098       __guard_fids__             000000018002c098     LIBCMT:throw_bad_alloc.obj
 0005:000000a0       __guard_fids__             000000018002c0a0     LIBCMT:throw_bad_alloc.obj
 0005:000000a8       __guard_fids__             000000018002c0a8     LIBCMT:std_type_info_static.obj
 0005:000000ac       __guard_fids__             000000018002c0ac     LIBCMT:guard_support.obj
 0005:000000b0       __guard_fids__             000000018002c0b0     libcpmt:xthrow.obj
 0005:000000b8       __guard_fids__             000000018002c0b8     libcpmt:xthrow.obj
 0005:000000c0       __guard_fids__             000000018002c0c0     libcpmt:xthrow.obj
 0005:000000c8       __guard_fids___vcrt_initialize_ptd 000000018002c0c8     libvcruntime:per_thread_data.obj
 0006:00000060       $R000000                   000000018002d060     * linker generated manifest res *

 Exports

  ordinal    name

        1    _register_ctags_
